(lp0
F7.835526754826002
aF9.40980569780263
aF6.432111082346974
aF9.663224552407492
aF8.445697577046852
aF8.660646200329609
aF9.695729791609521
aF9.546710774752555
aF8.269308382018018
aF7.7375983295520046
aF6.9008316863346195
aF7.156568868660101
aF6.153704676296757
aF6.810577495388071
aF8.480329955703178
aF8.339979453048826
aF5.923633855247106
aF6.454078124011267
aF7.255896571306607
aF6.755782028591243
aF5.529626639184735
aF5.764683123101568
aF5.022546639077538
aF7.284069065218567
aF9.474851497303192
aF8.995717965891187
aF9.166526398669056
aF7.474651571636623
aF5.015711810688614
aF6.307927411584618
aF8.414588396536566
aF7.075389426238417
aF9.822225889264821
aF7.602532561024782
aF7.308781531917994
aF7.492452159795849
aF7.9368068565903815
aF7.636855541001282
aF6.937303661884209
aF8.995256917377443
aF7.209999515254819
aF8.90072568359421
aF7.960195710542996
aF8.71623209937578
aF8.538854799538273
aF5.756918657528862
aF7.545288791769132
aF6.3047179568338585
aF7.272407964577608
aF6.851404237317017
aF6.982853791175141
aF5.814839747958271
aF9.194012361098244
aF9.928238220828051
aF5.557229878078099
aF5.318730977672753
aF7.004783813637278
aF9.784656309155608
aF9.139130395672993
aF6.364180242117427
aF5.769148271343783
aF5.758952991870499
aF7.339733688773829
aF5.5502040344704575
aF9.970265104149636
aF9.004400902609232
aF7.0348155335135125
aF5.321308779408766
aF6.911859979340148
aF6.689997082907723
aF6.8730936642046405
aF5.261002427852127
aF9.462712442727556
aF5.525775162634099
aF5.22195513197709
aF9.222942083068094
aF8.700021207439395
aF6.638773029018832
aF7.206595769326968
a.