(lp0
I202
aI955
aI869
aI969
aI410
aI134
aI879
aI261
aI950
aI175
aI636
aI26
aI236
aI268
aI437
aI866
aI826
aI296
aI968
aI475
aI438
aI489
aI821
aI845
aI498
aI992
aI579
aI763
aI243
aI817
aI671
aI808
aI938
aI747
aI743
aI720
aI117
aI975
aI217
aI411
aI37
aI825
aI653
aI677
aI261
aI770
aI285
aI419
aI657
aI869
aI698
aI494
aI350
aI71
aI779
aI297
aI685
aI411
aI258
aI50
aI392
aI375
aI24
aI251
aI923
aI194
aI109
aI293
aI183
aI549
aI819
aI578
aI960
aI460
aI597
aI238
aI111
aI440
aI318
a.