(lp0
(lp1
F0.84
aF0.0
aF0.14
aF0.18
aF0.83
aa(lp2
F0.35
aF0.0
aF0.6
aF0.64
aF0.35
aa(lp3
F0.39
aF0.0
aF0.56
aF0.63
aF0.36
aa(lp4
F0.61
aF0.0
aF0.35
aF0.38
aF0.6
aa(lp5
F0.35
aF0.0
aF0.56
aF0.65
aF0.33
aa(lp6
F0.53
aF0.0
aF0.39
aF0.46
aF0.52
aa(lp7
F0.86
aF0.0
aF0.13
aF0.16
aF0.84
aa(lp8
F0.61
aF0.0
aF0.28
aF0.41
aF0.6
aa(lp9
F0.69
aF0.0
aF0.24
aF0.31
aF0.69
aa(lp10
F0.41
aF0.0
aF0.54
aF0.58
aF0.39
aa(lp11
F0.82
aF0.0
aF0.17
aF0.18
aF0.82
aa(lp12
F0.67
aF0.0
aF0.25
aF0.34
aF0.66
aa(lp13
F0.61
aF0.0
aF0.33
aF0.38
aF0.62
aa(lp14
F0.47
aF0.0
aF0.44
aF0.56
aF0.45
aa(lp15
F0.78
aF0.0
aF0.19
aF0.22
aF0.78
aa(lp16
F0.29
aF0.0
aF0.7
aF0.7
aF0.28
aa(lp17
F0.63
aF0.0
aF0.28
aF0.4
aF0.62
aa(lp18
F0.63
aF0.0
aF0.3
aF0.36
aF0.62
aa(lp19
F0.67
aF0.0
aF0.24
aF0.37
aF0.66
aa(lp20
F0.82
aF0.0
aF0.14
aF0.2
aF0.8
aa(lp21
F0.27
aF0.0
aF0.69
aF0.73
aF0.27
aa(lp22
F0.67
aF0.0
aF0.24
aF0.35
aF0.68
aa(lp23
F0.59
aF0.0
aF0.37
aF0.39
aF0.58
aa(lp24
F0.49
aF0.0
aF0.45
aF0.48
aF0.46
aa(lp25
F0.8
aF0.0
aF0.14
aF0.24
aF0.79
aa(lp26
F0.55
aF0.0
aF0.46
aF0.42
aF0.56
aa(lp27
F0.71
aF0.0
aF0.28
aF0.27
aF0.72
aa(lp28
F0.33
aF0.0
aF0.63
aF0.66
aF0.31
aa(lp29
F0.41
aF0.0
aF0.54
aF0.56
aF0.41
aa(lp30
F0.47
aF0.0
aF0.45
aF0.53
aF0.45
aa(lp31
F0.31
aF0.0
aF0.64
aF0.7
aF0.32
aa(lp32
F0.86
aF0.0
aF0.1
aF0.18
aF0.86
aa(lp33
F0.73
aF0.0
aF0.2
aF0.27
aF0.72
aa(lp34
F0.47
aF0.0
aF0.49
aF0.51
aF0.45
aa(lp35
F0.24
aF0.0
aF0.78
aF0.72
aF0.24
aa(lp36
F0.53
aF0.0
aF0.4
aF0.43
aF0.51
aa(lp37
F0.45
aF0.0
aF0.56
aF0.53
aF0.44
aa(lp38
F0.45
aF0.0
aF0.56
aF0.54
aF0.43
aa(lp39
F0.51
aF0.0
aF0.42
aF0.49
aF0.47
aa(lp40
F0.37
aF0.0
aF0.64
aF0.63
aF0.35
aa(lp41
F0.63
aF0.0
aF0.39
aF0.35
aF0.62
aa(lp42
F0.2
aF0.0
aF0.74
aF0.8
aF0.2
aa(lp43
F0.61
aF0.0
aF0.33
aF0.4
aF0.59
aa(lp44
F0.47
aF0.0
aF0.44
aF0.54
aF0.46
aa(lp45
F0.61
aF0.0
aF0.32
aF0.39
aF0.6
aa(lp46
F0.31
aF0.0
aF0.72
aF0.68
aF0.32
aa(lp47
F0.76
aF0.0
aF0.2
aF0.25
aF0.73
aa(lp48
F0.47
aF0.0
aF0.47
aF0.53
aF0.44
aa(lp49
F0.69
aF0.0
aF0.25
aF0.31
aF0.68
aa(lp50
F0.67
aF0.0
aF0.34
aF0.31
aF0.67
aa(lp51
F0.37
aF0.0
aF0.59
aF0.62
aF0.37
aa(lp52
F0.55
aF0.0
aF0.39
aF0.45
aF0.53
aa(lp53
F0.71
aF0.0
aF0.22
aF0.3
aF0.72
aa(lp54
F0.63
aF0.0
aF0.27
aF0.4
aF0.63
aa(lp55
F0.67
aF0.0
aF0.35
aF0.31
aF0.66
aa(lp56
F0.61
aF0.0
aF0.38
aF0.37
aF0.6
aa(lp57
F0.41
aF0.0
aF0.51
aF0.58
aF0.41
aa(lp58
F0.55
aF0.0
aF0.36
aF0.45
aF0.55
aa(lp59
F0.63
aF0.0
aF0.37
aF0.35
aF0.63
aa(lp60
F0.24
aF0.0
aF0.74
aF0.79
aF0.24
aa(lp61
F0.18
aF0.0
aF0.81
aF0.81
aF0.19
aa(lp62
F0.61
aF0.0
aF0.29
aF0.42
aF0.59
aa(lp63
F0.69
aF0.0
aF0.27
aF0.32
aF0.66
aa(lp64
F0.49
aF0.0
aF0.43
aF0.5
aF0.46
aa(lp65
F0.33
aF0.0
aF0.69
aF0.63
aF0.34
aa(lp66
F0.33
aF0.0
aF0.63
aF0.64
aF0.33
aa(lp67
F0.61
aF0.0
aF0.41
aF0.36
aF0.62
aa(lp68
F0.27
aF0.0
aF0.68
aF0.74
aF0.26
aa(lp69
F0.65
aF0.0
aF0.38
aF0.32
aF0.68
aa(lp70
F0.59
aF0.0
aF0.35
aF0.4
aF0.58
aa(lp71
F0.31
aF0.0
aF0.67
aF0.69
aF0.31
aa(lp72
F0.31
aF0.0
aF0.61
aF0.72
aF0.3
aa(lp73
F0.55
aF0.0
aF0.37
aF0.47
aF0.53
aa(lp74
F0.55
aF0.0
aF0.51
aF0.42
aF0.55
aa(lp75
F0.67
aF0.0
aF0.32
aF0.31
aF0.68
aa(lp76
F0.71
aF0.0
aF0.22
aF0.31
aF0.71
aa(lp77
F0.43
aF0.0
aF0.61
aF0.53
aF0.44
aa(lp78
F0.69
aF0.0
aF0.28
aF0.3
aF0.68
aa(lp79
F0.63
aF0.0
aF0.28
aF0.39
aF0.63
aa(lp80
F0.67
aF0.0
aF0.26
aF0.34
aF0.65
aa(lp81
F0.51
aF0.0
aF0.52
aF0.45
aF0.53
aa(lp82
F0.45
aF0.0
aF0.48
aF0.55
aF0.43
aa(lp83
F0.57
aF0.0
aF0.37
aF0.4
aF0.56
aa(lp84
F0.29
aF0.0
aF0.69
aF0.72
aF0.28
aa(lp85
F0.57
aF0.0
aF0.41
aF0.42
aF0.55
aa(lp86
F0.76
aF0.0
aF0.2
aF0.24
aF0.75
aa(lp87
F0.61
aF0.0
aF0.36
aF0.38
aF0.59
aa(lp88
F0.73
aF0.0
aF0.27
aF0.25
aF0.74
aa(lp89
F0.69
aF0.0
aF0.22
aF0.35
aF0.68
aa(lp90
F0.61
aF0.0
aF0.38
aF0.36
aF0.63
aa(lp91
F0.65
aF0.0
aF0.29
aF0.33
aF0.63
aa(lp92
F0.22
aF0.0
aF0.78
aF0.74
aF0.22
aa(lp93
F0.43
aF0.0
aF0.55
aF0.56
aF0.4
aa(lp94
F0.71
aF0.0
aF0.24
aF0.29
aF0.69
aa(lp95
F0.63
aF0.0
aF0.3
aF0.37
aF0.61
aa(lp96
F0.51
aF0.0
aF0.41
aF0.48
aF0.49
aa(lp97
F0.51
aF0.0
aF0.47
aF0.46
aF0.51
aa(lp98
F0.51
aF0.0
aF0.5
aF0.46
aF0.49
aa(lp99
F0.33
aF0.0
aF0.69
aF0.64
aF0.32
aa(lp100
F0.39
aF0.0
aF0.63
aF0.57
aF0.39
aa(lp101
F0.51
aF0.0
aF0.39
aF0.5
aF0.5
aa(lp102
F0.73
aF0.0
aF0.25
aF0.26
aF0.72
aa(lp103
F0.69
aF0.0
aF0.23
aF0.32
aF0.68
aa(lp104
F0.69
aF0.0
aF0.3
aF0.29
aF0.68
aa(lp105
F0.78
aF0.0
aF0.22
aF0.22
aF0.77
aa(lp106
F0.78
aF0.0
aF0.22
aF0.21
aF0.79
aa(lp107
F0.71
aF0.0
aF0.29
aF0.27
aF0.71
aa(lp108
F0.84
aF0.0
aF0.14
aF0.16
aF0.84
aa(lp109
F0.86
aF0.0
aF0.11
aF0.15
aF0.85
aa(lp110
F0.69
aF0.0
aF0.33
aF0.28
aF0.71
aa(lp111
F0.29
aF0.0
aF0.64
aF0.71
aF0.29
aa(lp112
F0.57
aF0.0
aF0.49
aF0.38
aF0.59
aa(lp113
F0.67
aF0.0
aF0.28
aF0.33
aF0.64
aa(lp114
F0.43
aF0.0
aF0.57
aF0.55
aF0.43
aa(lp115
F0.8
aF0.0
aF0.15
aF0.22
aF0.78
aa(lp116
F0.67
aF0.0
aF0.27
aF0.33
aF0.66
aa(lp117
F0.47
aF0.0
aF0.56
aF0.5
aF0.49
aa(lp118
F0.37
aF0.0
aF0.61
aF0.61
aF0.36
aa(lp119
F0.59
aF0.0
aF0.33
aF0.43
aF0.58
aa(lp120
F0.76
aF0.0
aF0.19
aF0.26
aF0.74
aa(lp121
F0.8
aF0.0
aF0.23
aF0.19
aF0.81
aa(lp122
F0.45
aF0.0
aF0.54
aF0.54
aF0.44
aa(lp123
F0.45
aF0.0
aF0.47
aF0.55
aF0.46
aa(lp124
F0.39
aF0.0
aF0.51
aF0.6
aF0.37
aa(lp125
F0.45
aF0.0
aF0.51
aF0.52
aF0.45
aa(lp126
F0.8
aF0.0
aF0.18
aF0.21
aF0.77
aa(lp127
F0.47
aF0.0
aF0.44
aF0.53
aF0.47
aa(lp128
F0.57
aF0.0
aF0.34
aF0.42
aF0.57
aa(lp129
F0.78
aF0.0
aF0.19
aF0.23
aF0.75
aa(lp130
F0.49
aF0.0
aF0.53
aF0.46
aF0.51
aa(lp131
F0.71
aF0.0
aF0.23
aF0.3
aF0.68
aa(lp132
F0.63
aF0.0
aF0.29
aF0.39
aF0.61
aa(lp133
F0.67
aF0.0
aF0.28
aF0.32
aF0.67
aa(lp134
F0.92
aF0.0
aF0.07
aF0.1
aF0.92
aa(lp135
F0.59
aF0.0
aF0.43
aF0.38
aF0.6
aa(lp136
F0.33
aF0.0
aF0.58
aF0.7
aF0.34
aa(lp137
F0.37
aF0.0
aF0.59
aF0.63
aF0.36
aa(lp138
F0.59
aF0.0
aF0.32
aF0.44
aF0.59
aa(lp139
F0.37
aF0.0
aF0.68
aF0.59
aF0.38
aa(lp140
F0.57
aF0.0
aF0.35
aF0.43
aF0.56
aa(lp141
F0.53
aF0.0
aF0.42
aF0.47
aF0.5
aa(lp142
F0.57
aF0.0
aF0.34
aF0.45
aF0.55
aa(lp143
F0.47
aF0.0
aF0.42
aF0.55
aF0.46
aa(lp144
F0.71
aF0.0
aF0.34
aF0.26
aF0.73
aa(lp145
F0.71
aF0.0
aF0.25
aF0.28
aF0.71
aa(lp146
F0.63
aF0.0
aF0.42
aF0.34
aF0.64
aa(lp147
F0.69
aF0.0
aF0.29
aF0.29
aF0.7
aa(lp148
F0.82
aF0.0
aF0.15
aF0.19
aF0.82
aa(lp149
F0.82
aF0.0
aF0.2
aF0.18
aF0.81
aa(lp150
F0.37
aF0.0
aF0.53
aF0.64
aF0.34
aa(lp151
F0.41
aF0.0
aF0.58
aF0.57
aF0.4
aa(lp152
F0.61
aF0.0
aF0.31
aF0.4
aF0.6
aa(lp153
F0.59
aF0.0
aF0.34
aF0.41
aF0.58
aa(lp154
F0.73
aF0.0
aF0.23
aF0.28
aF0.71
aa(lp155
F0.76
aF0.0
aF0.27
aF0.23
aF0.76
aa(lp156
F0.61
aF0.0
aF0.3
aF0.4
aF0.61
aa(lp157
F0.78
aF0.0
aF0.17
aF0.27
aF0.78
aa(lp158
F0.31
aF0.0
aF0.68
aF0.69
aF0.3
aa(lp159
F0.51
aF0.0
aF0.45
aF0.47
aF0.52
aa(lp160
F0.8
aF0.0
aF0.18
aF0.2
aF0.8
aa(lp161
F0.76
aF0.0
aF0.24
aF0.24
aF0.74
aa(lp162
F0.65
aF0.0
aF0.26
aF0.37
aF0.64
aa(lp163
F0.76
aF0.0
aF0.18
aF0.28
aF0.75
aa(lp164
F0.78
aF0.0
aF0.18
aF0.24
aF0.77
aa(lp165
F0.63
aF0.0
aF0.29
aF0.38
aF0.63
aa(lp166
F0.71
aF0.0
aF0.26
aF0.28
aF0.7
aa(lp167
F0.65
aF0.0
aF0.4
aF0.32
aF0.66
aa(lp168
F0.63
aF0.0
aF0.34
aF0.36
aF0.61
aa(lp169
F0.39
aF0.0
aF0.61
aF0.59
aF0.38
aa(lp170
F0.8
aF0.0
aF0.17
aF0.21
aF0.8
aa(lp171
F0.47
aF0.0
aF0.43
aF0.54
aF0.47
aa(lp172
F0.24
aF0.0
aF0.72
aF0.72
aF0.25
aa(lp173
F0.69
aF0.0
aF0.3
aF0.3
aF0.67
aa(lp174
F0.65
aF0.0
aF0.28
aF0.35
aF0.63
aa(lp175
F0.33
aF0.0
aF0.6
aF0.68
aF0.32
aa(lp176
F0.49
aF0.0
aF0.4
aF0.51
aF0.47
aa(lp177
F0.22
aF0.0
aF0.75
aF0.77
aF0.24
aa(lp178
F0.51
aF0.0
aF0.47
aF0.47
aF0.5
aa(lp179
F0.43
aF0.0
aF0.5
aF0.56
aF0.43
aa(lp180
F0.59
aF0.0
aF0.42
aF0.38
aF0.61
aa(lp181
F0.55
aF0.0
aF0.37
aF0.44
aF0.54
aa(lp182
F0.53
aF0.0
aF0.37
aF0.49
aF0.52
aa(lp183
F0.41
aF0.0
aF0.5
aF0.59
aF0.4
aa(lp184
F0.57
aF0.0
aF0.35
aF0.44
aF0.55
aa(lp185
F0.37
aF0.0
aF0.61
aF0.6
aF0.39
aa(lp186
F0.47
aF0.0
aF0.59
aF0.49
aF0.48
aa(lp187
F0.47
aF0.0
aF0.48
aF0.52
aF0.45
aa(lp188
F0.33
aF0.0
aF0.67
aF0.65
aF0.32
aa(lp189
F0.8
aF0.0
aF0.2
aF0.2
aF0.79
aa.