(lp0
I10
aI10
aI0
aI2
aI6
aI10
aI4
aI5
aI2
aI9
aI10
aI1
aI8
aI5
aI4
aI9
aI0
aI5
aI10
aI2
aI5
aI5
aI0
aI0
aI5
aI10
aI1
aI9
aI8
aI3
aI3
aI5
aI6
aI7
aI0
aI0
aI7
aI0
aI2
aI1
aI9
aI8
aI6
aI2
aI8
aI10
aI6
aI1
aI0
a.