(lp0
I90
aI63
aI47
aI60
aI99
aI85
aI70
aI12
aI43
aI25
aI46
aI33
aI97
aI31
aI20
aI29
aI35
aI17
aI24
aI93
aI41
aI72
aI50
aI96
aI85
aI53
aI100
aI19
aI50
aI70
aI79
aI31
aI33
aI25
aI16
aI18
aI11
aI95
aI80
aI88
aI70
aI16
aI47
aI94
aI47
aI10
aI76
aI26
aI52
a.