(lp0
(lp1
F0.32
aF0.13
aF0.66
aF0.7
aF0.32
aa(lp2
F0.75
aF0.02
aF0.26
aF0.25
aF0.75
aa(lp3
F0.32
aF0.15
aF0.66
aF0.67
aF0.33
aa(lp4
F0.83
aF0.11
aF0.2
aF0.14
aF0.82
aa(lp5
F0.8
aF0.04
aF0.21
aF0.18
aF0.79
aa(lp6
F0.77
aF0.0
aF0.26
aF0.21
aF0.76
aa(lp7
F0.51
aF0.0
aF0.5
aF0.49
aF0.51
aa(lp8
F0.41
aF0.0
aF0.59
aF0.57
aF0.41
aa(lp9
F0.88
aF0.06
aF0.14
aF0.1
aF0.87
aa(lp10
F0.47
aF0.4
aF0.49
aF0.52
aF0.49
aa(lp11
F0.5
aF0.02
aF0.48
aF0.49
aF0.5
aa(lp12
F0.82
aF0.11
aF0.19
aF0.15
aF0.82
aa(lp13
F0.73
aF0.0
aF0.29
aF0.23
aF0.72
aa(lp14
F0.77
aF0.04
aF0.23
aF0.23
aF0.77
aa(lp15
F0.86
aF0.11
aF0.17
aF0.11
aF0.85
aa(lp16
F0.36
aF0.06
aF0.62
aF0.65
aF0.35
aa(lp17
F0.81
aF0.02
aF0.22
aF0.15
aF0.81
aa(lp18
F0.39
aF0.15
aF0.58
aF0.62
aF0.39
aa(lp19
F0.42
aF0.09
aF0.56
aF0.55
aF0.42
aa(lp20
F0.47
aF0.09
aF0.53
aF0.47
aF0.47
aa(lp21
F0.56
aF0.62
aF0.42
aF0.42
aF0.55
aa(lp22
F0.41
aF0.64
aF0.6
aF0.54
aF0.41
aa(lp23
F0.41
aF0.02
aF0.59
aF0.55
aF0.42
aa(lp24
F0.72
aF0.02
aF0.31
aF0.26
aF0.71
aa(lp25
F0.45
aF0.02
aF0.53
aF0.54
aF0.45
aa(lp26
F0.75
aF0.0
aF0.25
aF0.26
aF0.75
aa(lp27
F0.47
aF0.09
aF0.5
aF0.51
aF0.47
aa(lp28
F0.37
aF0.38
aF0.61
aF0.58
aF0.37
aa(lp29
F0.89
aF0.04
aF0.14
aF0.09
aF0.9
aa(lp30
F0.79
aF0.02
aF0.24
aF0.18
aF0.77
aa(lp31
F0.43
aF0.17
aF0.53
aF0.56
aF0.44
aa(lp32
F0.57
aF0.57
aF0.4
aF0.41
aF0.58
aa(lp33
F0.81
aF0.06
aF0.2
aF0.17
aF0.81
aa(lp34
F0.89
aF0.09
aF0.14
aF0.09
aF0.88
aa(lp35
F0.58
aF0.55
aF0.41
aF0.38
aF0.58
aa(lp36
F0.52
aF0.57
aF0.44
aF0.45
aF0.52
aa(lp37
F0.49
aF0.57
aF0.49
aF0.45
aF0.5
aa(lp38
F0.32
aF0.11
aF0.68
aF0.65
aF0.32
aa(lp39
F0.87
aF0.11
aF0.14
aF0.11
aF0.87
aa(lp40
F0.53
aF0.06
aF0.46
aF0.45
aF0.53
aa(lp41
F0.38
aF0.02
aF0.63
aF0.58
aF0.38
aa(lp42
F0.48
aF0.47
aF0.5
aF0.48
aF0.49
aa(lp43
F0.83
aF0.11
aF0.17
aF0.16
aF0.83
aa(lp44
F0.37
aF0.02
aF0.63
aF0.6
aF0.37
aa(lp45
F0.35
aF0.06
aF0.66
aF0.62
aF0.37
aa(lp46
F0.87
aF0.02
aF0.15
aF0.12
aF0.87
aa(lp47
F0.44
aF0.11
aF0.54
aF0.51
aF0.43
aa(lp48
F0.34
aF0.09
aF0.64
aF0.6
aF0.35
aa(lp49
F0.81
aF0.04
aF0.22
aF0.16
aF0.8
aa(lp50
F0.79
aF0.02
aF0.22
aF0.2
aF0.79
aa(lp51
F0.46
aF0.09
aF0.51
aF0.53
aF0.46
aa(lp52
F0.81
aF0.04
aF0.21
aF0.17
aF0.81
aa(lp53
F0.5
aF0.64
aF0.48
aF0.44
aF0.5
aa(lp54
F0.92
aF0.09
aF0.1
aF0.08
aF0.91
aa(lp55
F0.51
aF0.6
aF0.46
aF0.45
aF0.52
aa(lp56
F0.45
aF0.13
aF0.51
aF0.55
aF0.46
aa(lp57
F0.7
aF0.0
aF0.32
aF0.28
aF0.7
aa(lp58
F0.42
aF0.02
aF0.55
aF0.57
aF0.42
aa(lp59
F0.41
aF0.04
aF0.55
aF0.58
aF0.42
aa(lp60
F0.55
aF0.57
aF0.44
aF0.4
aF0.56
aa(lp61
F0.69
aF0.04
aF0.35
aF0.3
aF0.68
aa(lp62
F0.36
aF0.02
aF0.63
aF0.62
aF0.37
aa(lp63
F0.34
aF0.02
aF0.63
aF0.65
aF0.35
aa(lp64
F0.38
aF0.09
aF0.6
aF0.62
aF0.37
aa(lp65
F0.37
aF0.04
aF0.62
aF0.59
aF0.37
aa(lp66
F0.75
aF0.09
aF0.25
aF0.23
aF0.75
aa(lp67
F0.42
aF0.13
aF0.55
aF0.55
aF0.42
aa(lp68
F0.56
aF0.64
aF0.4
aF0.41
aF0.57
aa(lp69
F0.71
aF0.09
aF0.33
aF0.27
aF0.69
aa(lp70
F0.43
aF0.02
aF0.56
aF0.54
aF0.43
aa(lp71
F0.48
aF0.04
aF0.51
aF0.48
aF0.48
aa(lp72
F0.74
aF0.06
aF0.29
aF0.22
aF0.73
aa(lp73
F0.47
aF0.13
aF0.51
aF0.5
aF0.46
aa(lp74
F0.47
aF0.0
aF0.52
aF0.52
aF0.48
aa(lp75
F0.9
aF0.04
aF0.12
aF0.07
aF0.9
aa(lp76
F0.6
aF0.6
aF0.38
aF0.37
aF0.61
aa(lp77
F0.82
aF0.06
aF0.19
aF0.15
aF0.83
aa(lp78
F0.75
aF0.0
aF0.27
aF0.25
aF0.75
aa(lp79
F0.4
aF0.06
aF0.58
aF0.57
aF0.41
aa(lp80
F0.35
aF0.04
aF0.63
aF0.63
aF0.35
aa(lp81
F0.77
aF0.0
aF0.26
aF0.2
aF0.77
aa(lp82
F0.52
aF0.13
aF0.46
aF0.44
aF0.52
aa(lp83
F0.55
aF0.49
aF0.42
aF0.44
aF0.56
aa(lp84
F0.8
aF0.11
aF0.22
aF0.17
aF0.8
aa(lp85
F0.4
aF0.13
aF0.56
aF0.56
aF0.41
aa(lp86
F0.48
aF0.64
aF0.49
aF0.48
aF0.49
aa(lp87
F0.77
aF0.02
aF0.25
aF0.21
aF0.76
aa(lp88
F0.77
aF0.02
aF0.25
aF0.22
aF0.75
aa(lp89
F0.52
aF0.53
aF0.47
aF0.43
aF0.52
aa(lp90
F0.48
aF0.19
aF0.49
aF0.5
aF0.48
aa(lp91
F0.84
aF0.06
aF0.17
aF0.16
aF0.84
aa(lp92
F0.31
aF0.11
aF0.67
aF0.69
aF0.31
aa(lp93
F0.85
aF0.04
aF0.17
aF0.14
aF0.84
aa(lp94
F0.58
aF0.57
aF0.39
aF0.4
aF0.58
aa(lp95
F0.53
aF0.45
aF0.45
aF0.44
aF0.52
aa(lp96
F0.84
aF0.02
aF0.19
aF0.15
aF0.83
aa(lp97
F0.33
aF0.04
aF0.65
aF0.67
aF0.32
aa(lp98
F0.81
aF0.09
aF0.21
aF0.15
aF0.81
aa(lp99
F0.45
aF0.02
aF0.53
aF0.55
aF0.44
aa(lp100
F0.23
aF0.17
aF0.78
aF0.78
aF0.22
aa(lp101
F0.45
aF0.09
aF0.55
aF0.49
aF0.46
aa(lp102
F0.55
aF0.43
aF0.44
aF0.42
aF0.55
aa(lp103
F0.49
aF0.06
aF0.51
aF0.47
aF0.49
aa(lp104
F0.6
aF0.57
aF0.39
aF0.37
aF0.61
aa(lp105
F0.55
aF0.4
aF0.46
aF0.41
aF0.55
aa(lp106
F0.85
aF0.11
aF0.16
aF0.13
aF0.84
aa(lp107
F0.78
aF0.0
aF0.23
aF0.23
aF0.77
aa(lp108
F0.45
aF0.09
aF0.52
aF0.53
aF0.45
aa(lp109
F0.87
aF0.15
aF0.14
aF0.1
aF0.86
aa(lp110
F0.77
aF0.09
aF0.27
aF0.19
aF0.76
aa(lp111
F0.57
aF0.53
aF0.44
aF0.4
aF0.57
aa(lp112
F0.54
aF0.13
aF0.46
aF0.43
aF0.54
aa(lp113
F0.54
aF0.02
aF0.44
aF0.45
aF0.54
aa(lp114
F0.45
aF0.6
aF0.53
aF0.51
aF0.45
aa(lp115
F0.56
aF0.64
aF0.43
aF0.4
aF0.56
aa(lp116
F0.57
aF0.57
aF0.42
aF0.39
aF0.56
aa(lp117
F0.36
aF0.09
aF0.64
aF0.59
aF0.35
aa(lp118
F0.85
aF0.0
aF0.19
aF0.13
aF0.85
aa(lp119
F0.56
aF0.53
aF0.42
aF0.41
aF0.57
aa(lp120
F0.4
aF0.11
aF0.58
aF0.6
aF0.39
aa(lp121
F0.47
aF0.06
aF0.51
aF0.49
aF0.48
aa(lp122
F0.72
aF0.09
aF0.31
aF0.25
aF0.72
aa(lp123
F0.49
aF0.04
aF0.48
aF0.49
aF0.49
aa(lp124
F0.36
aF0.06
aF0.61
aF0.63
aF0.36
aa(lp125
F0.82
aF0.02
aF0.2
aF0.17
aF0.81
aa(lp126
F0.44
aF0.02
aF0.53
aF0.56
aF0.44
aa(lp127
F0.69
aF0.02
aF0.33
aF0.3
aF0.69
aa(lp128
F0.76
aF0.13
aF0.24
aF0.27
aF0.75
aa(lp129
F0.81
aF0.02
aF0.19
aF0.18
aF0.81
aa(lp130
F0.5
aF0.49
aF0.47
aF0.46
aF0.5
aa(lp131
F0.77
aF0.0
aF0.27
aF0.2
aF0.75
aa(lp132
F0.81
aF0.02
aF0.2
aF0.18
aF0.8
aa(lp133
F0.51
aF0.09
aF0.45
aF0.46
aF0.51
aa(lp134
F0.41
aF0.04
aF0.58
aF0.56
aF0.41
aa(lp135
F0.76
aF0.0
aF0.26
aF0.24
aF0.75
aa(lp136
F0.39
aF0.64
aF0.59
aF0.57
aF0.39
aa(lp137
F0.89
aF0.17
aF0.11
aF0.11
aF0.89
aa(lp138
F0.37
aF0.09
aF0.61
aF0.6
aF0.37
aa(lp139
F0.44
aF0.09
aF0.56
aF0.53
aF0.42
aa(lp140
F0.49
aF0.57
aF0.48
aF0.48
aF0.49
aa(lp141
F0.58
aF0.55
aF0.43
aF0.38
aF0.57
aa(lp142
F0.46
aF0.09
aF0.51
aF0.52
aF0.48
aa(lp143
F0.84
aF0.0
aF0.2
aF0.15
aF0.83
aa(lp144
F0.86
aF0.06
aF0.17
aF0.11
aF0.87
aa(lp145
F0.36
aF0.04
aF0.64
aF0.59
aF0.36
aa(lp146
F0.48
aF0.62
aF0.47
aF0.53
aF0.49
aa(lp147
F0.54
aF0.6
aF0.43
aF0.42
aF0.54
aa(lp148
F0.45
aF0.11
aF0.52
aF0.51
aF0.46
aa(lp149
F0.37
aF0.02
aF0.62
aF0.63
aF0.37
aa(lp150
F0.75
aF0.02
aF0.27
aF0.25
aF0.74
aa(lp151
F0.86
aF0.11
aF0.15
aF0.11
aF0.86
aa(lp152
F0.82
aF0.06
aF0.18
aF0.16
aF0.82
aa(lp153
F0.79
aF0.02
aF0.22
aF0.21
aF0.78
aa(lp154
F0.84
aF0.06
aF0.19
aF0.14
aF0.83
aa(lp155
F0.41
aF0.02
aF0.56
aF0.57
aF0.42
aa(lp156
F0.9
aF0.06
aF0.11
aF0.09
aF0.9
aa(lp157
F0.38
aF0.0
aF0.62
aF0.59
aF0.39
aa(lp158
F0.84
aF0.06
aF0.2
aF0.13
aF0.84
aa(lp159
F0.56
aF0.53
aF0.45
aF0.4
aF0.56
aa(lp160
F0.45
aF0.04
aF0.54
aF0.52
aF0.45
aa(lp161
F0.86
aF0.09
aF0.16
aF0.11
aF0.86
aa(lp162
F0.81
aF0.11
aF0.21
aF0.17
aF0.8
aa(lp163
F0.89
aF0.11
aF0.12
aF0.09
aF0.89
aa(lp164
F0.83
aF0.0
aF0.2
aF0.16
aF0.83
aa(lp165
F0.75
aF0.0
aF0.29
aF0.22
aF0.73
aa(lp166
F0.83
aF0.15
aF0.18
aF0.14
aF0.83
aa(lp167
F0.42
aF0.06
aF0.55
aF0.53
aF0.43
aa(lp168
F0.81
aF0.0
aF0.2
aF0.17
aF0.82
aa(lp169
F0.48
aF0.6
aF0.51
aF0.47
aF0.48
aa(lp170
F0.86
aF0.04
aF0.16
aF0.12
aF0.86
aa(lp171
F0.38
aF0.38
aF0.61
aF0.57
aF0.38
aa(lp172
F0.49
aF0.15
aF0.49
aF0.46
aF0.49
aa(lp173
F0.41
aF0.06
aF0.57
aF0.58
aF0.41
aa(lp174
F0.85
aF0.06
aF0.17
aF0.12
aF0.86
aa(lp175
F0.86
aF0.02
aF0.17
aF0.12
aF0.87
aa(lp176
F0.56
aF0.57
aF0.41
aF0.42
aF0.56
aa(lp177
F0.84
aF0.09
aF0.18
aF0.14
aF0.82
aa(lp178
F0.83
aF0.02
aF0.21
aF0.14
aF0.83
aa(lp179
F0.54
aF0.66
aF0.42
aF0.44
aF0.55
aa(lp180
F0.51
aF0.09
aF0.47
aF0.45
aF0.51
aa(lp181
F0.84
aF0.09
aF0.17
aF0.16
aF0.83
aa(lp182
F0.45
aF0.47
aF0.51
aF0.56
aF0.45
aa(lp183
F0.5
aF0.04
aF0.5
aF0.47
aF0.49
aa(lp184
F0.76
aF0.0
aF0.27
aF0.24
aF0.74
aa(lp185
F0.7
aF0.04
aF0.32
aF0.28
aF0.69
aa(lp186
F0.4
aF0.6
aF0.6
aF0.55
aF0.4
aa(lp187
F0.37
aF0.06
aF0.59
aF0.62
aF0.38
aa(lp188
F0.68
aF0.0
aF0.34
aF0.32
aF0.68
aa(lp189
F0.42
aF0.11
aF0.57
aF0.5
aF0.42
aa(lp190
F0.78
aF0.0
aF0.25
aF0.19
aF0.77
aa(lp191
F0.57
aF0.62
aF0.41
aF0.39
aF0.58
aa(lp192
F0.82
aF0.04
aF0.2
aF0.15
aF0.83
aa(lp193
F0.57
aF0.55
aF0.43
aF0.39
aF0.57
aa(lp194
F0.86
aF0.17
aF0.14
aF0.13
aF0.87
aa(lp195
F0.83
aF0.04
aF0.19
aF0.15
aF0.82
aa(lp196
F0.86
aF0.06
aF0.16
aF0.13
aF0.85
aa(lp197
F0.61
aF0.55
aF0.37
aF0.36
aF0.61
aa(lp198
F0.86
aF0.0
aF0.18
aF0.13
aF0.86
aa(lp199
F0.47
aF0.13
aF0.49
aF0.55
aF0.48
aa(lp200
F0.43
aF0.11
aF0.54
aF0.53
aF0.43
aa(lp201
F0.43
aF0.13
aF0.55
aF0.54
aF0.42
aa(lp202
F0.8
aF0.04
aF0.23
aF0.16
aF0.79
aa(lp203
F0.47
aF0.02
aF0.5
aF0.52
aF0.48
aa(lp204
F0.84
aF0.09
aF0.19
aF0.13
aF0.83
aa(lp205
F0.44
aF0.02
aF0.55
aF0.55
aF0.44
aa(lp206
F0.85
aF0.09
aF0.16
aF0.12
aF0.85
aa(lp207
F0.53
aF0.06
aF0.47
aF0.44
aF0.54
aa(lp208
F0.82
aF0.06
aF0.21
aF0.13
aF0.82
aa(lp209
F0.29
aF0.45
aF0.71
aF0.72
aF0.29
aa(lp210
F0.41
aF0.06
aF0.58
aF0.55
aF0.42
aa(lp211
F0.34
aF0.11
aF0.67
aF0.63
aF0.33
aa(lp212
F0.87
aF0.04
aF0.17
aF0.1
aF0.87
aa(lp213
F0.42
aF0.04
aF0.54
aF0.57
aF0.42
aa(lp214
F0.76
aF0.02
aF0.26
aF0.23
aF0.74
aa(lp215
F0.82
aF0.02
aF0.2
aF0.16
aF0.82
aa(lp216
F0.44
aF0.57
aF0.55
aF0.5
aF0.44
aa(lp217
F0.55
aF0.53
aF0.42
aF0.42
aF0.56
aa(lp218
F0.76
aF0.02
aF0.27
aF0.2
aF0.75
aa(lp219
F0.75
aF0.02
aF0.27
aF0.24
aF0.75
aa(lp220
F0.87
aF0.0
aF0.16
aF0.11
aF0.88
aa(lp221
F0.48
aF0.6
aF0.5
aF0.48
aF0.48
aa(lp222
F0.46
aF0.04
aF0.51
aF0.54
aF0.46
aa(lp223
F0.85
aF0.02
aF0.18
aF0.12
aF0.85
aa(lp224
F0.9
aF0.02
aF0.12
aF0.09
aF0.9
aa(lp225
F0.8
aF0.02
aF0.22
aF0.18
aF0.8
aa(lp226
F0.71
aF0.0
aF0.32
aF0.27
aF0.71
aa(lp227
F0.75
aF0.17
aF0.28
aF0.21
aF0.75
aa(lp228
F0.88
aF0.04
aF0.14
aF0.11
aF0.89
aa(lp229
F0.67
aF0.0
aF0.36
aF0.33
aF0.66
aa(lp230
F0.43
aF0.02
aF0.53
aF0.58
aF0.43
aa(lp231
F0.53
aF0.19
aF0.44
aF0.45
aF0.53
aa(lp232
F0.47
aF0.4
aF0.49
aF0.53
aF0.47
aa(lp233
F0.45
aF0.02
aF0.54
aF0.54
aF0.44
aa(lp234
F0.42
aF0.4
aF0.55
aF0.57
aF0.41
aa(lp235
F0.81
aF0.0
aF0.21
aF0.19
aF0.81
aa(lp236
F0.36
aF0.02
aF0.66
aF0.61
aF0.35
aa(lp237
F0.54
aF0.55
aF0.45
aF0.43
aF0.55
aa(lp238
F0.54
aF0.55
aF0.46
aF0.42
aF0.54
aa(lp239
F0.4
aF0.09
aF0.57
aF0.57
aF0.4
aa(lp240
F0.56
aF0.6
aF0.41
aF0.41
aF0.57
aa(lp241
F0.86
aF0.02
aF0.16
aF0.13
aF0.86
aa(lp242
F0.47
aF0.15
aF0.5
aF0.5
aF0.47
aa(lp243
F0.54
aF0.06
aF0.45
aF0.44
aF0.53
aa(lp244
F0.72
aF0.04
aF0.28
aF0.27
aF0.71
aa(lp245
F0.48
aF0.15
aF0.49
aF0.51
aF0.48
aa(lp246
F0.46
aF0.02
aF0.52
aF0.48
aF0.46
aa(lp247
F0.88
aF0.09
aF0.12
aF0.11
aF0.88
aa(lp248
F0.75
aF0.0
aF0.28
aF0.23
aF0.74
aa(lp249
F0.57
aF0.68
aF0.41
aF0.38
aF0.57
aa(lp250
F0.87
aF0.04
aF0.15
aF0.11
aF0.87
aa(lp251
F0.4
aF0.11
aF0.59
aF0.57
aF0.39
aa(lp252
F0.49
aF0.04
aF0.5
aF0.48
aF0.48
aa(lp253
F0.31
aF0.02
aF0.68
aF0.71
aF0.3
aa(lp254
F0.44
aF0.62
aF0.53
aF0.54
aF0.43
aa(lp255
F0.45
aF0.0
aF0.56
aF0.55
aF0.44
aa(lp256
F0.37
aF0.04
aF0.61
aF0.63
aF0.36
aa(lp257
F0.78
aF0.04
aF0.23
aF0.22
aF0.77
aa(lp258
F0.87
aF0.09
aF0.15
aF0.1
aF0.86
aa(lp259
F0.5
aF0.13
aF0.47
aF0.47
aF0.5
aa(lp260
F0.45
aF0.04
aF0.54
aF0.51
aF0.46
aa(lp261
F0.85
aF0.17
aF0.15
aF0.13
aF0.85
aa(lp262
F0.84
aF0.17
aF0.16
aF0.14
aF0.85
aa(lp263
F0.47
aF0.19
aF0.51
aF0.49
aF0.47
aa(lp264
F0.6
aF0.62
aF0.38
aF0.38
aF0.6
aa(lp265
F0.38
aF0.0
aF0.62
aF0.6
aF0.38
aa(lp266
F0.84
aF0.09
aF0.18
aF0.13
aF0.84
aa(lp267
F0.36
aF0.13
aF0.61
aF0.62
aF0.35
aa(lp268
F0.54
aF0.55
aF0.43
aF0.46
aF0.54
aa(lp269
F0.82
aF0.02
aF0.22
aF0.14
aF0.82
aa(lp270
F0.55
aF0.04
aF0.43
aF0.41
aF0.56
aa(lp271
F0.36
aF0.06
aF0.64
aF0.62
aF0.35
aa(lp272
F0.81
aF0.0
aF0.22
aF0.18
aF0.8
aa(lp273
F0.83
aF0.0
aF0.19
aF0.17
aF0.83
aa(lp274
F0.77
aF0.04
aF0.26
aF0.2
aF0.76
aa(lp275
F0.51
aF0.6
aF0.47
aF0.44
aF0.5
aa(lp276
F0.39
aF0.4
aF0.6
aF0.58
aF0.38
aa(lp277
F0.85
aF0.02
aF0.17
aF0.14
aF0.85
aa(lp278
F0.48
aF0.02
aF0.53
aF0.47
aF0.47
aa(lp279
F0.59
aF0.6
aF0.38
aF0.39
aF0.6
aa(lp280
F0.82
aF0.15
aF0.19
aF0.14
aF0.83
aa(lp281
F0.55
aF0.06
aF0.44
aF0.43
aF0.55
aa(lp282
F0.47
aF0.62
aF0.48
aF0.51
aF0.49
aa(lp283
F0.54
aF0.53
aF0.47
aF0.42
aF0.54
aa(lp284
F0.49
aF0.66
aF0.5
aF0.47
aF0.48
aa(lp285
F0.44
aF0.17
aF0.53
aF0.52
aF0.45
aa(lp286
F0.38
aF0.38
aF0.58
aF0.62
aF0.39
aa(lp287
F0.79
aF0.0
aF0.24
aF0.19
aF0.78
aa(lp288
F0.88
aF0.15
aF0.13
aF0.12
aF0.87
aa(lp289
F0.52
aF0.57
aF0.48
aF0.44
aF0.51
aa(lp290
F0.77
aF0.0
aF0.25
aF0.22
aF0.76
aa(lp291
F0.8
aF0.0
aF0.23
aF0.19
aF0.79
aa(lp292
F0.79
aF0.0
aF0.23
aF0.2
aF0.77
aa(lp293
F0.51
aF0.13
aF0.48
aF0.42
aF0.52
aa(lp294
F0.85
aF0.11
aF0.15
aF0.14
aF0.86
aa(lp295
F0.49
aF0.06
aF0.48
aF0.49
aF0.48
aa(lp296
F0.29
aF0.36
aF0.73
aF0.73
aF0.29
aa(lp297
F0.8
aF0.04
aF0.2
aF0.19
aF0.8
aa(lp298
F0.59
aF0.55
aF0.39
aF0.38
aF0.59
aa(lp299
F0.58
aF0.38
aF0.4
aF0.39
aF0.58
aa(lp300
F0.79
aF0.04
aF0.22
aF0.19
aF0.79
aa(lp301
F0.84
aF0.13
aF0.17
aF0.13
aF0.84
aa(lp302
F0.68
aF0.06
aF0.33
aF0.34
aF0.68
aa(lp303
F0.33
aF0.02
aF0.64
aF0.64
aF0.33
aa(lp304
F0.69
aF0.04
aF0.32
aF0.3
aF0.69
aa(lp305
F0.55
aF0.53
aF0.42
aF0.44
aF0.55
aa(lp306
F0.39
aF0.0
aF0.61
aF0.6
aF0.39
aa(lp307
F0.39
aF0.09
aF0.59
aF0.58
aF0.39
aa(lp308
F0.8
aF0.02
aF0.21
aF0.2
aF0.8
aa(lp309
F0.4
aF0.02
aF0.62
aF0.58
aF0.39
aa(lp310
F0.81
aF0.0
aF0.24
aF0.16
aF0.81
aa(lp311
F0.48
aF0.04
aF0.5
aF0.51
aF0.48
aa(lp312
F0.83
aF0.09
aF0.18
aF0.15
aF0.83
aa(lp313
F0.77
aF0.04
aF0.24
aF0.22
aF0.76
aa(lp314
F0.51
aF0.53
aF0.48
aF0.45
aF0.5
aa(lp315
F0.37
aF0.04
aF0.6
aF0.64
aF0.37
aa(lp316
F0.56
aF0.57
aF0.44
aF0.39
aF0.55
aa(lp317
F0.45
aF0.45
aF0.52
aF0.5
aF0.47
aa(lp318
F0.55
aF0.47
aF0.41
aF0.47
aF0.55
aa(lp319
F0.82
aF0.06
aF0.2
aF0.16
aF0.81
aa(lp320
F0.42
aF0.04
aF0.56
aF0.55
aF0.43
aa(lp321
F0.5
aF0.57
aF0.46
aF0.47
aF0.5
aa(lp322
F0.43
aF0.0
aF0.55
aF0.56
aF0.42
aa(lp323
F0.82
aF0.13
aF0.17
aF0.17
aF0.82
aa(lp324
F0.76
aF0.0
aF0.25
aF0.25
aF0.75
aa(lp325
F0.54
aF0.57
aF0.44
aF0.42
aF0.54
aa(lp326
F0.45
aF0.04
aF0.55
aF0.53
aF0.43
aa(lp327
F0.89
aF0.06
aF0.14
aF0.09
aF0.89
aa(lp328
F0.57
aF0.55
aF0.41
aF0.4
aF0.57
aa(lp329
F0.91
aF0.13
aF0.11
aF0.08
aF0.91
aa(lp330
F0.49
aF0.53
aF0.48
aF0.47
aF0.5
aa(lp331
F0.5
aF0.06
aF0.48
aF0.46
aF0.5
aa(lp332
F0.83
aF0.02
aF0.19
aF0.17
aF0.82
aa(lp333
F0.81
aF0.02
aF0.22
aF0.17
aF0.8
aa(lp334
F0.85
aF0.11
aF0.17
aF0.12
aF0.84
aa(lp335
F0.84
aF0.09
aF0.17
aF0.14
aF0.84
aa(lp336
F0.8
aF0.09
aF0.2
aF0.22
aF0.79
aa(lp337
F0.81
aF0.04
aF0.24
aF0.14
aF0.81
aa(lp338
F0.5
aF0.04
aF0.5
aF0.46
aF0.5
aa(lp339
F0.41
aF0.09
aF0.57
aF0.56
aF0.41
aa(lp340
F0.77
aF0.06
aF0.23
aF0.22
aF0.77
aa(lp341
F0.41
aF0.04
aF0.56
aF0.59
aF0.41
aa(lp342
F0.8
aF0.02
aF0.24
aF0.16
aF0.8
aa(lp343
F0.54
aF0.55
aF0.48
aF0.41
aF0.53
aa(lp344
F0.77
aF0.04
aF0.24
aF0.21
aF0.77
aa(lp345
F0.53
aF0.06
aF0.46
aF0.46
aF0.52
aa(lp346
F0.82
aF0.0
aF0.22
aF0.16
aF0.82
aa(lp347
F0.4
aF0.0
aF0.58
aF0.58
aF0.4
aa(lp348
F0.44
aF0.15
aF0.52
aF0.56
aF0.44
aa(lp349
F0.58
aF0.6
aF0.39
aF0.38
aF0.58
aa(lp350
F0.33
aF0.0
aF0.66
aF0.69
aF0.33
aa(lp351
F0.77
aF0.04
aF0.23
aF0.22
aF0.78
aa(lp352
F0.71
aF0.06
aF0.3
aF0.27
aF0.7
aa(lp353
F0.3
aF0.09
aF0.7
aF0.69
aF0.29
aa(lp354
F0.75
aF0.06
aF0.26
aF0.26
aF0.74
aa(lp355
F0.71
aF0.04
aF0.31
aF0.28
aF0.71
aa(lp356
F0.71
aF0.02
aF0.33
aF0.29
aF0.69
aa(lp357
F0.38
aF0.02
aF0.59
aF0.59
aF0.38
aa(lp358
F0.32
aF0.38
aF0.67
aF0.63
aF0.32
aa(lp359
F0.49
aF0.51
aF0.49
aF0.48
aF0.48
aa(lp360
F0.41
aF0.66
aF0.58
aF0.54
aF0.42
aa(lp361
F0.4
aF0.02
aF0.59
aF0.56
aF0.4
aa(lp362
F0.53
aF0.6
aF0.44
aF0.42
aF0.53
aa(lp363
F0.83
aF0.11
aF0.19
aF0.14
aF0.83
aa(lp364
F0.68
aF0.04
aF0.34
aF0.33
aF0.67
aa(lp365
F0.76
aF0.04
aF0.25
aF0.22
aF0.76
aa(lp366
F0.42
aF0.0
aF0.57
aF0.55
aF0.42
aa(lp367
F0.87
aF0.02
aF0.16
aF0.11
aF0.87
aa(lp368
F0.37
aF0.06
aF0.6
aF0.63
aF0.37
aa(lp369
F0.45
aF0.02
aF0.55
aF0.52
aF0.44
aa(lp370
F0.46
aF0.02
aF0.54
aF0.52
aF0.45
aa(lp371
F0.38
aF0.11
aF0.59
aF0.59
aF0.37
aa(lp372
F0.37
aF0.04
aF0.61
aF0.61
aF0.38
aa(lp373
F0.79
aF0.02
aF0.23
aF0.18
aF0.78
aa(lp374
F0.86
aF0.04
aF0.15
aF0.13
aF0.86
aa(lp375
F0.47
aF0.6
aF0.49
aF0.49
aF0.48
aa(lp376
F0.35
aF0.02
aF0.65
aF0.63
aF0.34
aa(lp377
F0.88
aF0.04
aF0.15
aF0.1
aF0.88
aa(lp378
F0.82
aF0.0
aF0.19
aF0.18
aF0.82
aa(lp379
F0.41
aF0.06
aF0.58
aF0.57
aF0.4
aa(lp380
F0.77
aF0.02
aF0.24
aF0.22
aF0.77
aa(lp381
F0.56
aF0.57
aF0.43
aF0.39
aF0.57
aa(lp382
F0.76
aF0.0
aF0.27
aF0.22
aF0.75
aa(lp383
F0.4
aF0.17
aF0.56
aF0.59
aF0.4
aa(lp384
F0.74
aF0.0
aF0.27
aF0.28
aF0.74
aa(lp385
F0.43
aF0.06
aF0.56
aF0.55
aF0.42
aa(lp386
F0.5
aF0.13
aF0.5
aF0.45
aF0.49
aa(lp387
F0.52
aF0.06
aF0.49
aF0.45
aF0.52
aa(lp388
F0.47
aF0.11
aF0.5
aF0.49
aF0.48
aa(lp389
F0.5
aF0.17
aF0.49
aF0.44
aF0.51
aa(lp390
F0.45
aF0.0
aF0.55
aF0.52
aF0.45
aa(lp391
F0.85
aF0.04
aF0.17
aF0.13
aF0.85
aa(lp392
F0.47
aF0.04
aF0.51
aF0.51
aF0.47
aa(lp393
F0.46
aF0.13
aF0.53
aF0.49
aF0.45
aa(lp394
F0.32
aF0.02
aF0.67
aF0.69
aF0.32
aa(lp395
F0.82
aF0.04
aF0.19
aF0.17
aF0.82
aa(lp396
F0.92
aF0.09
aF0.11
aF0.07
aF0.91
aa(lp397
F0.45
aF0.02
aF0.52
aF0.55
aF0.46
aa(lp398
F0.33
aF0.4
aF0.63
aF0.68
aF0.34
aa(lp399
F0.46
aF0.06
aF0.5
aF0.54
aF0.45
aa(lp400
F0.38
aF0.11
aF0.61
aF0.58
aF0.38
aa(lp401
F0.77
aF0.02
aF0.27
aF0.19
aF0.77
aa(lp402
F0.8
aF0.02
aF0.22
aF0.17
aF0.81
aa(lp403
F0.67
aF0.09
aF0.36
aF0.35
aF0.65
aa(lp404
F0.72
aF0.0
aF0.3
aF0.28
aF0.72
aa(lp405
F0.54
aF0.51
aF0.44
aF0.44
aF0.54
aa(lp406
F0.79
aF0.11
aF0.21
aF0.2
aF0.79
aa(lp407
F0.55
aF0.53
aF0.46
aF0.42
aF0.54
aa(lp408
F0.83
aF0.04
aF0.18
aF0.17
aF0.83
aa(lp409
F0.87
aF0.04
aF0.14
aF0.12
aF0.87
aa(lp410
F0.88
aF0.04
aF0.13
aF0.13
aF0.89
aa(lp411
F0.38
aF0.45
aF0.59
aF0.58
aF0.39
aa(lp412
F0.92
aF0.04
aF0.1
aF0.08
aF0.92
aa(lp413
F0.84
aF0.02
aF0.19
aF0.14
aF0.84
aa(lp414
F0.85
aF0.04
aF0.16
aF0.15
aF0.85
aa(lp415
F0.87
aF0.06
aF0.15
aF0.11
aF0.86
aa(lp416
F0.49
aF0.02
aF0.48
aF0.5
aF0.49
aa(lp417
F0.44
aF0.04
aF0.53
aF0.54
aF0.44
aa(lp418
F0.42
aF0.02
aF0.57
aF0.53
aF0.41
aa(lp419
F0.43
aF0.04
aF0.55
aF0.52
aF0.44
aa(lp420
F0.81
aF0.15
aF0.2
aF0.16
aF0.82
aa(lp421
F0.76
aF0.0
aF0.26
aF0.22
aF0.76
aa(lp422
F0.76
aF0.0
aF0.24
aF0.23
aF0.76
aa(lp423
F0.84
aF0.02
aF0.18
aF0.16
aF0.84
aa(lp424
F0.53
aF0.57
aF0.43
aF0.45
aF0.54
aa(lp425
F0.45
aF0.06
aF0.52
aF0.55
aF0.45
aa(lp426
F0.51
aF0.06
aF0.47
aF0.46
aF0.52
aa(lp427
F0.53
aF0.11
aF0.48
aF0.43
aF0.53
aa(lp428
F0.49
aF0.11
aF0.49
aF0.48
aF0.5
aa(lp429
F0.4
aF0.06
aF0.58
aF0.61
aF0.39
aa(lp430
F0.47
aF0.02
aF0.51
aF0.52
aF0.47
aa(lp431
F0.56
aF0.57
aF0.42
aF0.4
aF0.58
aa(lp432
F0.73
aF0.06
aF0.28
aF0.24
aF0.73
aa(lp433
F0.45
aF0.02
aF0.56
aF0.51
aF0.44
aa(lp434
F0.46
aF0.0
aF0.52
aF0.56
aF0.47
aa(lp435
F0.42
aF0.06
aF0.56
aF0.56
aF0.42
aa(lp436
F0.84
aF0.02
aF0.21
aF0.13
aF0.84
aa(lp437
F0.76
aF0.0
aF0.28
aF0.21
aF0.75
aa(lp438
F0.75
aF0.06
aF0.28
aF0.22
aF0.74
aa(lp439
F0.82
aF0.15
aF0.2
aF0.15
aF0.81
aa(lp440
F0.46
aF0.13
aF0.51
aF0.51
aF0.45
aa(lp441
F0.78
aF0.02
aF0.24
aF0.21
aF0.77
aa(lp442
F0.89
aF0.0
aF0.13
aF0.1
aF0.89
aa(lp443
F0.55
aF0.57
aF0.44
aF0.41
aF0.55
aa(lp444
F0.51
aF0.04
aF0.47
aF0.47
aF0.51
aa(lp445
F0.56
aF0.57
aF0.42
aF0.41
aF0.56
aa(lp446
F0.55
aF0.49
aF0.43
aF0.43
aF0.55
aa(lp447
F0.37
aF0.06
aF0.62
aF0.6
aF0.36
aa(lp448
F0.46
aF0.11
aF0.51
aF0.51
aF0.46
aa(lp449
F0.7
aF0.02
aF0.34
aF0.27
aF0.69
aa(lp450
F0.41
aF0.43
aF0.55
aF0.57
aF0.42
aa(lp451
F0.86
aF0.06
aF0.15
aF0.12
aF0.86
aa(lp452
F0.85
aF0.06
aF0.19
aF0.12
aF0.84
aa(lp453
F0.82
aF0.02
aF0.21
aF0.15
aF0.81
aa(lp454
F0.33
aF0.0
aF0.69
aF0.67
aF0.33
aa(lp455
F0.54
aF0.57
aF0.47
aF0.42
aF0.53
aa(lp456
F0.33
aF0.02
aF0.67
aF0.67
aF0.32
aa(lp457
F0.88
aF0.09
aF0.15
aF0.09
aF0.88
aa(lp458
F0.78
aF0.09
aF0.23
aF0.21
aF0.77
aa(lp459
F0.84
aF0.04
aF0.17
aF0.17
aF0.84
aa(lp460
F0.74
aF0.04
aF0.27
aF0.23
aF0.73
aa(lp461
F0.54
aF0.6
aF0.44
aF0.4
aF0.54
aa(lp462
F0.84
aF0.04
aF0.18
aF0.15
aF0.83
aa(lp463
F0.77
aF0.04
aF0.25
aF0.2
aF0.77
aa(lp464
F0.73
aF0.02
aF0.27
aF0.26
aF0.73
aa(lp465
F0.36
aF0.45
aF0.6
aF0.65
aF0.37
aa(lp466
F0.78
aF0.04
aF0.24
aF0.2
aF0.78
aa(lp467
F0.31
aF0.09
aF0.68
aF0.66
aF0.31
aa(lp468
F0.83
aF0.02
aF0.2
aF0.15
aF0.83
aa(lp469
F0.41
aF0.09
aF0.56
aF0.58
aF0.41
aa(lp470
F0.41
aF0.19
aF0.57
aF0.55
aF0.41
aa(lp471
F0.4
aF0.13
aF0.62
aF0.55
aF0.4
aa(lp472
F0.74
aF0.0
aF0.28
aF0.26
aF0.74
aa(lp473
F0.62
aF0.53
aF0.38
aF0.37
aF0.62
aa(lp474
F0.4
aF0.04
aF0.6
aF0.58
aF0.39
aa(lp475
F0.41
aF0.09
aF0.54
aF0.59
aF0.41
aa(lp476
F0.3
aF0.11
aF0.68
aF0.69
aF0.31
aa(lp477
F0.55
aF0.55
aF0.43
aF0.42
aF0.55
aa(lp478
F0.45
aF0.04
aF0.53
aF0.53
aF0.45
aa.