(lp0
I15
aI6
aI6
aI6
aI13
aI15
aI10
aI14
aI9
aI6
aI11
aI14
aI10
aI8
aI11
aI5
aI9
aI12
aI8
aI5
aI9
aI12
aI15
aI15
aI6
aI12
aI5
aI11
aI6
aI15
aI14
aI9
aI14
aI10
aI10
aI6
aI15
aI9
aI8
aI14
aI12
aI13
aI15
aI5
aI5
aI6
aI9
aI11
aI10
aI6
aI9
aI6
aI5
aI9
aI9
aI14
aI13
aI9
aI11
aI6
aI11
aI7
aI13
aI15
aI15
aI15
aI10
aI7
aI9
aI9
aI5
aI6
aI15
aI15
aI15
aI9
aI5
aI6
aI13
aI15
aI11
aI7
aI11
aI14
aI14
aI6
aI15
aI12
aI15
aI10
aI14
aI15
aI8
aI5
aI14
aI14
aI7
aI7
aI9
aI9
aI10
aI10
aI15
aI7
aI10
aI14
aI15
aI13
aI6
aI13
aI13
aI7
aI12
aI5
aI7
aI10
aI9
aI15
aI12
aI12
aI9
aI9
aI14
aI5
aI9
aI9
aI11
aI7
aI13
aI6
aI9
aI7
aI9
aI5
aI6
aI7
aI14
aI5
aI6
aI10
aI7
aI14
aI15
aI14
aI14
aI7
aI8
aI11
aI13
aI9
aI15
aI7
aI15
aI12
aI5
aI13
aI12
aI14
aI7
aI14
aI7
aI8
aI6
aI13
aI5
aI12
aI9
aI10
aI7
aI10
aI12
aI15
aI10
aI6
aI5
aI9
aI13
a.