(lp0
I100
aI58
aI93
aI51
aI83
aI23
aI77
aI20
aI31
aI44
aI98
aI13
aI22
aI71
aI70
aI47
aI53
aI79
aI43
aI77
aI94
aI98
aI65
aI90
aI68
aI99
aI65
aI52
aI33
aI33
aI85
aI74
aI86
aI53
aI73
aI82
aI58
aI54
aI36
aI65
aI67
aI24
aI11
aI93
aI52
aI56
aI97
aI22
aI85
aI32
aI48
aI57
aI58
aI50
aI48
aI73
aI40
aI59
aI27
aI39
aI75
aI22
aI37
aI48
aI15
aI40
aI75
aI41
aI24
aI85
aI62
aI23
aI63
aI17
aI83
aI57
aI85
aI56
aI33
aI56
aI27
aI83
aI11
aI47
aI82
aI15
aI64
aI19
aI93
aI10
aI70
aI18
aI65
aI55
aI64
aI19
aI67
aI17
aI65
aI60
aI37
aI44
aI21
aI61
aI37
aI54
aI32
aI14
aI33
aI77
aI10
aI30
aI24
aI41
aI23
aI20
aI33
aI84
aI81
aI93
aI67
aI36
aI11
aI31
aI89
aI18
aI13
aI86
aI30
aI87
aI33
aI46
aI13
aI76
aI45
aI78
aI18
aI20
aI17
aI42
aI98
aI59
aI31
aI47
aI69
aI78
aI94
aI82
aI97
aI67
aI30
aI20
aI28
aI82
aI42
aI28
aI18
aI58
aI25
aI16
aI75
aI21
aI68
aI95
aI23
aI79
aI11
aI93
aI27
aI92
aI97
aI37
aI78
aI92
aI52
aI35
aI44
a.