(lp0
I0
aI8
aI0
aI0
aI1
aI9
aI0
aI8
aI0
aI4
aI2
aI0
aI2
aI5
aI0
aI3
aI4
aI3
aI0
aI2
aI0
aI0
aI6
aI0
aI7
aI9
aI0
aI0
aI9
aI0
aI6
aI0
aI1
aI0
aI8
aI9
aI0
aI1
aI0
aI0
aI0
aI2
aI3
aI1
aI0
aI1
aI5
aI8
aI0
aI0
aI8
aI0
aI3
aI8
aI0
aI0
aI9
aI0
aI0
aI7
aI0
aI0
aI0
aI6
aI0
aI4
aI0
aI0
aI2
aI0
aI9
aI0
aI0
aI0
aI0
aI3
aI0
aI3
aI4
aI0
aI0
aI3
aI0
aI7
aI0
aI8
aI0
aI2
aI0
aI1
aI0
aI4
aI0
aI0
aI0
aI4
aI4
aI0
aI6
aI0
aI1
aI6
aI0
aI0
aI0
aI0
aI0
aI0
aI8
aI0
aI5
aI0
aI0
aI0
aI0
aI4
aI8
aI1
aI5
aI0
aI6
aI2
aI0
aI1
aI1
aI0
aI8
aI0
aI0
aI0
aI0
aI0
aI0
aI1
aI0
aI2
aI0
aI0
aI8
aI6
aI0
aI8
aI3
aI0
aI0
aI0
aI5
aI1
aI0
aI6
aI7
aI4
aI0
aI0
aI0
aI4
aI5
aI2
aI4
aI7
aI0
aI0
aI0
aI4
aI0
aI1
aI8
aI8
aI7
aI0
aI0
aI0
aI1
aI0
aI0
aI0
aI6
a.