(dp0
S'NSGA2-SIP'
p1
ccopy_reg
_reconstructor
p2
(cdeap.tools.support
Logbook
p3
c__builtin__
list
p4
(lp5
(dp6
S'hv|spread|igd|frontier#|valid#'
p7
(I0
I0
I0
I0
I0
tp8
sS'timestamp'
p9
F0.041455984115600586
sS'evals'
p10
I100
sS'gen'
p11
I0
sa(dp12
g7
(F0.173
F0.594
F0.163
I99
I100
tp13
sg9
F9.780448913574219
sg10
I100
sg11
I100
sa(dp14
g7
(F0.179
F0.662
F0.174
I99
I100
tp15
sg9
F19.763160943984985
sg10
I100
sg11
I200
sa(dp16
g7
(F0.182
F0.612
F0.169
I98
I100
tp17
sg9
F29.66907501220703
sg10
I100
sg11
I300
sa(dp18
g7
(F0.184
F0.621
F0.17
I99
I100
tp19
sg9
F39.50655794143677
sg10
I100
sg11
I400
sa(dp20
g7
(F0.184
F0.633
F0.171
I99
I100
tp21
sg9
F49.370956897735596
sg10
I100
sg11
I500
satp22
Rp23
(dp24
S'log_header'
p25
I01
sS'header'
p26
(S'gen'
p27
S'evals'
p28
S'hv|spread|igd|frontier#|valid#'
p29
S'timestamp'
p30
tp31
sS'columns_len'
p32
(lp33
I3
aI5
aI30
aI9
asS'buffindex'
p34
I6
sS'chapters'
p35
ccollections
defaultdict
p36
(g3
tp37
Rp38
sbsS'SPEA2-SIP'
p39
g2
(g3
g4
(lp40
(dp41
g7
(F0.064
F0.956
F0.048
I3
I3
tp42
sg9
F0.06551289558410645
sg10
I100
sg11
I0
sa(dp43
g7
(F0.167
F0.624
F0.159
I100
I100
tp44
sg9
F65.03795790672302
sg10
I100
sg11
I100
sa(dp45
g7
(F0.169
F0.619
F0.148
I100
I100
tp46
sg9
F135.9387378692627
sg10
I100
sg11
I200
sa(dp47
g7
(F0.171
F0.616
F0.153
I100
I100
tp48
sg9
F208.22292685508728
sg10
I100
sg11
I300
sa(dp49
g7
(F0.173
F0.674
F0.173
I100
I100
tp50
sg9
F280.106164932251
sg10
I100
sg11
I400
sa(dp51
g7
(F0.173
F0.647
F0.172
I100
I100
tp52
sg9
F352.0593738555908
sg10
I100
sg11
I500
satp53
Rp54
(dp55
g25
I01
sg26
g31
sg32
(lp56
I3
aI5
aI31
aI9
asg34
I6
sg35
g36
(g3
tp57
Rp58
sbsS'SPEA2'
p59
g2
(g3
g4
(lp60
(dp61
g7
g8
sg9
F0.057240962982177734
sg10
I100
sg11
I0
sa(dp62
g7
g8
sg9
F112.01861500740051
sg10
I100
sg11
I100
sa(dp63
g7
g8
sg9
F244.3465850353241
sg10
I100
sg11
I200
sa(dp64
g7
g8
sg9
F380.9733428955078
sg10
I100
sg11
I300
sa(dp65
g7
g8
sg9
F516.8021190166473
sg10
I100
sg11
I400
sa(dp66
g7
g8
sg9
F656.2093620300293
sg10
I100
sg11
I500
satp67
Rp68
(dp69
g25
I01
sg26
g31
sg32
(lp70
I3
aI5
aI30
aI9
asg34
I6
sg35
g36
(g3
tp71
Rp72
sbsS'IBEA-PEN'
p73
g2
(g3
g4
(lp74
(dp75
g7
(F0.074
F0.987
F0.031
I2
I2
tp76
sg9
F0.144913911819458
sg10
I100
sg11
I0
sa(dp77
g7
g8
sg9
F9.96264100074768
sg10
I100
sg11
I100
sa(dp78
g7
g8
sg9
F19.864397048950195
sg10
I100
sg11
I200
sa(dp79
g7
g8
sg9
F29.781450986862183
sg10
I100
sg11
I300
sa(dp80
g7
g8
sg9
F39.704976081848145
sg10
I100
sg11
I400
sa(dp81
g7
g8
sg9
F49.63861107826233
sg10
I100
sg11
I500
satp82
Rp83
(dp84
g25
I01
sg26
g31
sg32
(lp85
I3
aI5
aI30
aI9
asg34
I6
sg35
g36
(g3
tp86
Rp87
sbsS'IBEA'
p88
g2
(g3
g4
(lp89
(dp90
g7
g8
sg9
F0.0579380989074707
sg10
I100
sg11
I0
sa(dp91
g7
g8
sg9
F9.66621208190918
sg10
I100
sg11
I100
sa(dp92
g7
g8
sg9
F19.303879976272583
sg10
I100
sg11
I200
sa(dp93
g7
g8
sg9
F28.879234075546265
sg10
I100
sg11
I300
sa(dp94
g7
g8
sg9
F38.6155469417572
sg10
I100
sg11
I400
sa(dp95
g7
g8
sg9
F48.48610210418701
sg10
I100
sg11
I500
satp96
Rp97
(dp98
g25
I01
sg26
g31
sg32
(lp99
I3
aI5
aI30
aI9
asg34
I6
sg35
g36
(g3
tp100
Rp101
sbsS'NSGA2'
p102
g2
(g3
g4
(lp103
(dp104
g7
g8
sg9
F0.05737805366516113
sg10
I100
sg11
I0
sa(dp105
g7
g8
sg9
F12.325161933898926
sg10
I100
sg11
I100
sa(dp106
g7
g8
sg9
F24.569056034088135
sg10
I100
sg11
I200
sa(dp107
g7
g8
sg9
F36.78326606750488
sg10
I100
sg11
I300
sa(dp108
g7
g8
sg9
F49.05012607574463
sg10
I100
sg11
I400
sa(dp109
g7
g8
sg9
F61.32423496246338
sg10
I100
sg11
I500
satp110
Rp111
(dp112
g25
I01
sg26
g31
sg32
(lp113
I3
aI5
aI30
aI9
asg34
I6
sg35
g36
(g3
tp114
Rp115
sbsS'IBEA-SIP'
p116
g2
(g3
g4
(lp117
(dp118
g7
g8
sg9
F0.041224002838134766
sg10
I100
sg11
I0
sa(dp119
g7
(F0.175
F0.599
F0.146
I80
I100
tp120
sg9
F8.396191835403442
sg10
I100
sg11
I100
sa(dp121
g7
(F0.178
F0.594
F0.138
I76
I100
tp122
sg9
F16.753373861312866
sg10
I100
sg11
I200
sa(dp123
g7
(F0.18
F0.599
F0.157
I80
I100
tp124
sg9
F25.17719793319702
sg10
I100
sg11
I300
sa(dp125
g7
(F0.179
F0.591
F0.16
I70
I100
tp126
sg9
F33.30229997634888
sg10
I100
sg11
I400
sa(dp127
g7
(F0.184
F0.736
F0.157
I79
I100
tp128
sg9
F41.488404989242554
sg10
I100
sg11
I500
satp129
Rp130
(dp131
g25
I01
sg26
g31
sg32
(lp132
I3
aI5
aI30
aI9
asg34
I6
sg35
g36
(g3
tp133
Rp134
sbs.