(dp0
S'NSGA2-SIP'
p1
ccopy_reg
_reconstructor
p2
(cdeap.tools.support
Logbook
p3
c__builtin__
list
p4
(lp5
(dp6
S'hv|spread|igd|frontier#|valid#'
p7
(I0
I0
I0
I0
I0
tp8
sS'timestamp'
p9
F0.04457807540893555
sS'evals'
p10
I100
sS'gen'
p11
I0
sa(dp12
g7
(F0.171
F0.544
F0.191
I96
I100
tp13
sg9
F10.624798059463501
sg10
I100
sg11
I100
sa(dp14
g7
(F0.174
F0.647
F0.17
I98
I100
tp15
sg9
F21.22698211669922
sg10
I100
sg11
I200
sa(dp16
g7
(F0.179
F0.703
F0.174
I98
I100
tp17
sg9
F31.857990026474
sg10
I100
sg11
I300
sa(dp18
g7
(F0.184
F0.619
F0.177
I99
I100
tp19
sg9
F42.3264319896698
sg10
I100
sg11
I400
sa(dp20
g7
(F0.185
F0.56
F0.179
I99
I100
tp21
sg9
F52.93186116218567
sg10
I100
sg11
I500
satp22
Rp23
(dp24
S'log_header'
p25
I01
sS'header'
p26
(S'gen'
p27
S'evals'
p28
S'hv|spread|igd|frontier#|valid#'
p29
S'timestamp'
p30
tp31
sS'columns_len'
p32
(lp33
I3
aI5
aI30
aI9
asS'buffindex'
p34
I6
sS'chapters'
p35
ccollections
defaultdict
p36
(g3
tp37
Rp38
sbsS'SPEA2-SIP'
p39
g2
(g3
g4
(lp40
(dp41
g7
g8
sg9
F0.04436492919921875
sg10
I100
sg11
I0
sa(dp42
g7
(F0.17
F0.606
F0.159
I100
I100
tp43
sg9
F69.0076630115509
sg10
I100
sg11
I100
sa(dp44
g7
(F0.173
F0.572
F0.18
I100
I100
tp45
sg9
F148.5818588733673
sg10
I100
sg11
I200
sa(dp46
g7
(F0.173
F0.651
F0.183
I100
I100
tp47
sg9
F226.59859681129456
sg10
I100
sg11
I300
sa(dp48
g7
(F0.173
F0.633
F0.172
I100
I100
tp49
sg9
F307.1743788719177
sg10
I100
sg11
I400
sa(dp50
g7
(F0.174
F0.614
F0.186
I100
I100
tp51
sg9
F386.0825228691101
sg10
I100
sg11
I500
satp52
Rp53
(dp54
g25
I01
sg26
g31
sg32
(lp55
I3
aI5
aI31
aI9
asg34
I6
sg35
g36
(g3
tp56
Rp57
sbsS'SPEA2'
p58
g2
(g3
g4
(lp59
(dp60
g7
g8
sg9
F0.06169700622558594
sg10
I100
sg11
I0
sa(dp61
g7
g8
sg9
F114.4962100982666
sg10
I100
sg11
I100
sa(dp62
g7
g8
sg9
F256.3645730018616
sg10
I100
sg11
I200
sa(dp63
g7
g8
sg9
F403.09677600860596
sg10
I100
sg11
I300
sa(dp64
g7
g8
sg9
F551.5831801891327
sg10
I100
sg11
I400
sa(dp65
g7
g8
sg9
F701.3985171318054
sg10
I100
sg11
I500
satp66
Rp67
(dp68
g25
I01
sg26
g31
sg32
(lp69
I3
aI5
aI30
aI9
asg34
I6
sg35
g36
(g3
tp70
Rp71
sbsS'IBEA-PEN'
p72
g2
(g3
g4
(lp73
(dp74
g7
(F0.075
F0.977
F0.036
I3
I3
tp75
sg9
F0.12672781944274902
sg10
I100
sg11
I0
sa(dp76
g7
(F0.17
F0.723
F0.127
I44
I68
tp77
sg9
F13.488960027694702
sg10
I100
sg11
I100
sa(dp78
g7
(F0.18
F0.617
F0.13
I55
I83
tp79
sg9
F27.14623999595642
sg10
I100
sg11
I200
sa(dp80
g7
(F0.177
F0.632
F0.088
I45
I67
tp81
sg9
F40.99279999732971
sg10
I100
sg11
I300
sa(dp82
g7
(F0.18
F0.662
F0.127
I50
I70
tp83
sg9
F54.80008792877197
sg10
I100
sg11
I400
sa(dp84
g7
(F0.18
F0.666
F0.092
I55
I79
tp85
sg9
F68.57130980491638
sg10
I100
sg11
I500
satp86
Rp87
(dp88
g25
I01
sg26
g31
sg32
(lp89
I3
aI5
aI30
aI9
asg34
I6
sg35
g36
(g3
tp90
Rp91
sbsS'IBEA'
p92
g2
(g3
g4
(lp93
(dp94
g7
g8
sg9
F0.06187891960144043
sg10
I100
sg11
I0
sa(dp95
g7
g8
sg9
F10.374461889266968
sg10
I100
sg11
I100
sa(dp96
g7
g8
sg9
F20.494947910308838
sg10
I100
sg11
I200
sa(dp97
g7
g8
sg9
F30.871660947799683
sg10
I100
sg11
I300
sa(dp98
g7
g8
sg9
F41.36381697654724
sg10
I100
sg11
I400
sa(dp99
g7
g8
sg9
F51.950615882873535
sg10
I100
sg11
I500
satp100
Rp101
(dp102
g25
I01
sg26
g31
sg32
(lp103
I3
aI5
aI30
aI9
asg34
I6
sg35
g36
(g3
tp104
Rp105
sbsS'NSGA2'
p106
g2
(g3
g4
(lp107
(dp108
g7
g8
sg9
F0.0622401237487793
sg10
I100
sg11
I0
sa(dp109
g7
g8
sg9
F13.209763050079346
sg10
I100
sg11
I100
sa(dp110
g7
g8
sg9
F26.34674906730652
sg10
I100
sg11
I200
sa(dp111
g7
g8
sg9
F39.48237109184265
sg10
I100
sg11
I300
sa(dp112
g7
g8
sg9
F52.625941038131714
sg10
I100
sg11
I400
sa(dp113
g7
g8
sg9
F65.72460889816284
sg10
I100
sg11
I500
satp114
Rp115
(dp116
g25
I01
sg26
g31
sg32
(lp117
I3
aI5
aI30
aI9
asg34
I6
sg35
g36
(g3
tp118
Rp119
sbsS'IBEA-SIP'
p120
g2
(g3
g4
(lp121
(dp122
g7
g8
sg9
F0.044805049896240234
sg10
I100
sg11
I0
sa(dp123
g7
(F0.17
F0.746
F0.145
I67
I100
tp124
sg9
F8.826570987701416
sg10
I100
sg11
I100
sa(dp125
g7
(F0.176
F0.667
F0.176
I79
I100
tp126
sg9
F17.801855087280273
sg10
I100
sg11
I200
sa(dp127
g7
(F0.176
F0.708
F0.154
I76
I100
tp128
sg9
F26.673184156417847
sg10
I100
sg11
I300
sa(dp129
g7
(F0.179
F0.713
F0.156
I74
I100
tp130
sg9
F35.31615900993347
sg10
I100
sg11
I400
sa(dp131
g7
(F0.18
F0.607
F0.127
I74
I100
tp132
sg9
F44.01089096069336
sg10
I100
sg11
I500
satp133
Rp134
(dp135
g25
I01
sg26
g31
sg32
(lp136
I3
aI5
aI30
aI9
asg34
I6
sg35
g36
(g3
tp137
Rp138
sbs.