(dp0
S'NSGA2-SIP'
p1
ccopy_reg
_reconstructor
p2
(cdeap.tools.support
Logbook
p3
c__builtin__
list
p4
(lp5
(dp6
S'hv|spread|igd|frontier#|valid#'
p7
(F0.057
F1.08
F0.046
I1
I1
tp8
sS'timestamp'
p9
F0.041629791259765625
sS'evals'
p10
I100
sS'gen'
p11
I0
sa(dp12
g7
(F0.169
F0.711
F0.175
I96
I100
tp13
sg9
F9.427174806594849
sg10
I100
sg11
I100
sa(dp14
g7
(F0.173
F0.63
F0.185
I98
I100
tp15
sg9
F18.916473865509033
sg10
I100
sg11
I200
sa(dp16
g7
(F0.176
F0.588
F0.192
I98
I100
tp17
sg9
F28.331893920898438
sg10
I100
sg11
I300
sa(dp18
g7
(F0.183
F0.597
F0.184
I99
I100
tp19
sg9
F37.74674701690674
sg10
I100
sg11
I400
sa(dp20
g7
(F0.184
F0.594
F0.177
I98
I100
tp21
sg9
F47.12618398666382
sg10
I100
sg11
I500
satp22
Rp23
(dp24
S'log_header'
p25
I01
sS'header'
p26
(S'gen'
p27
S'evals'
p28
S'hv|spread|igd|frontier#|valid#'
p29
S'timestamp'
p30
tp31
sS'columns_len'
p32
(lp33
I3
aI5
aI30
aI9
asS'buffindex'
p34
I6
sS'chapters'
p35
ccollections
defaultdict
p36
(g3
tp37
Rp38
sbsS'SPEA2-SIP'
p39
g2
(g3
g4
(lp40
(dp41
g7
(I0
I0
I0
I0
I0
tp42
sg9
F0.04036998748779297
sg10
I100
sg11
I0
sa(dp43
g7
(F0.18
F0.63
F0.153
I100
I100
tp44
sg9
F54.9627161026001
sg10
I100
sg11
I100
sa(dp45
g7
(F0.183
F0.624
F0.157
I100
I100
tp46
sg9
F121.08122992515564
sg10
I100
sg11
I200
sa(dp47
g7
(F0.184
F0.623
F0.155
I100
I100
tp48
sg9
F187.1421160697937
sg10
I100
sg11
I300
sa(dp49
g7
(F0.184
F0.627
F0.147
I100
I100
tp50
sg9
F254.07023906707764
sg10
I100
sg11
I400
sa(dp51
g7
(F0.185
F0.6
F0.149
I100
I100
tp52
sg9
F318.04200410842896
sg10
I100
sg11
I500
satp53
Rp54
(dp55
g25
I01
sg26
g31
sg32
(lp56
I3
aI5
aI31
aI9
asg34
I6
sg35
g36
(g3
tp57
Rp58
sbsS'SPEA2'
p59
g2
(g3
g4
(lp60
(dp61
g7
g42
sg9
F0.056040048599243164
sg10
I100
sg11
I0
sa(dp62
g7
g42
sg9
F100.65742802619934
sg10
I100
sg11
I100
sa(dp63
g7
g42
sg9
F218.6805579662323
sg10
I100
sg11
I200
sa(dp64
g7
g42
sg9
F342.60549688339233
sg10
I100
sg11
I300
sa(dp65
g7
g42
sg9
F468.96174001693726
sg10
I100
sg11
I400
sa(dp66
g7
g42
sg9
F591.0770699977875
sg10
I100
sg11
I500
satp67
Rp68
(dp69
g25
I01
sg26
g31
sg32
(lp70
I3
aI5
aI30
aI9
asg34
I6
sg35
g36
(g3
tp71
Rp72
sbsS'IBEA'
p73
g2
(g3
g4
(lp74
(dp75
g7
g42
sg9
F0.05641818046569824
sg10
I100
sg11
I0
sa(dp76
g7
g42
sg9
F9.154327154159546
sg10
I100
sg11
I100
sa(dp77
g7
g42
sg9
F18.342578172683716
sg10
I100
sg11
I200
sa(dp78
g7
g42
sg9
F27.579030990600586
sg10
I100
sg11
I300
sa(dp79
g7
g42
sg9
F36.94438719749451
sg10
I100
sg11
I400
sa(dp80
g7
g42
sg9
F46.367436170578
sg10
I100
sg11
I500
satp81
Rp82
(dp83
g25
I01
sg26
g31
sg32
(lp84
I3
aI5
aI30
aI9
asg34
I6
sg35
g36
(g3
tp85
Rp86
sbsS'NSGA2'
p87
g2
(g3
g4
(lp88
(dp89
g7
g42
sg9
F0.05544114112854004
sg10
I100
sg11
I0
sa(dp90
g7
g42
sg9
F11.792554140090942
sg10
I100
sg11
I100
sa(dp91
g7
g42
sg9
F23.542826175689697
sg10
I100
sg11
I200
sa(dp92
g7
g42
sg9
F35.253175020217896
sg10
I100
sg11
I300
sa(dp93
g7
g42
sg9
F46.88980007171631
sg10
I100
sg11
I400
sa(dp94
g7
g42
sg9
F58.620896100997925
sg10
I100
sg11
I500
satp95
Rp96
(dp97
g25
I01
sg26
g31
sg32
(lp98
I3
aI5
aI30
aI9
asg34
I6
sg35
g36
(g3
tp99
Rp100
sbsS'IBEA-SIP'
p101
g2
(g3
g4
(lp102
(dp103
g7
(F0.067
F0.973
F0.06
I2
I2
tp104
sg9
F0.04332590103149414
sg10
I100
sg11
I0
sa(dp105
g7
(F0.173
F0.648
F0.152
I80
I100
tp106
sg9
F7.8116419315338135
sg10
I100
sg11
I100
sa(dp107
g7
(F0.177
F0.598
F0.159
I80
I100
tp108
sg9
F15.698494911193848
sg10
I100
sg11
I200
sa(dp109
g7
(F0.178
F0.705
F0.15
I80
I100
tp110
sg9
F23.4332058429718
sg10
I100
sg11
I300
sa(dp111
g7
(F0.178
F0.681
F0.134
I78
I100
tp112
sg9
F31.242470026016235
sg10
I100
sg11
I400
sa(dp113
g7
(F0.18
F0.69
F0.163
I75
I100
tp114
sg9
F39.05911898612976
sg10
I100
sg11
I500
satp115
Rp116
(dp117
g25
I01
sg26
g31
sg32
(lp118
I3
aI5
aI30
aI9
asg34
I6
sg35
g36
(g3
tp119
Rp120
sbs.