(dp0
S'NSGA2-SIP'
p1
ccopy_reg
_reconstructor
p2
(cdeap.tools.support
Logbook
p3
c__builtin__
list
p4
(lp5
(dp6
S'hv|spread|igd|frontier#|valid#'
p7
(I0
I0
I0
I0
I0
tp8
sS'timestamp'
p9
F0.04422807693481445
sS'evals'
p10
I100
sS'gen'
p11
I0
sa(dp12
g7
(F0.175
F0.64
F0.167
I96
I100
tp13
sg9
F10.41838788986206
sg10
I100
sg11
I100
sa(dp14
g7
(F0.178
F0.634
F0.173
I97
I100
tp15
sg9
F20.784050941467285
sg10
I100
sg11
I200
sa(dp16
g7
(F0.181
F0.549
F0.172
I98
I100
tp17
sg9
F31.278913974761963
sg10
I100
sg11
I300
sa(dp18
g7
(F0.183
F0.595
F0.171
I99
I100
tp19
sg9
F41.75326895713806
sg10
I100
sg11
I400
sa(dp20
g7
(F0.185
F0.637
F0.176
I99
I100
tp21
sg9
F52.21178388595581
sg10
I100
sg11
I500
satp22
Rp23
(dp24
S'log_header'
p25
I01
sS'header'
p26
(S'gen'
p27
S'evals'
p28
S'hv|spread|igd|frontier#|valid#'
p29
S'timestamp'
p30
tp31
sS'columns_len'
p32
(lp33
I3
aI5
aI30
aI9
asS'buffindex'
p34
I6
sS'chapters'
p35
ccollections
defaultdict
p36
(g3
tp37
Rp38
sbsS'SPEA2-SIP'
p39
g2
(g3
g4
(lp40
(dp41
g7
(F0.052
F2.119
F0.03
I1
I1
tp42
sg9
F0.046185970306396484
sg10
I100
sg11
I0
sa(dp43
g7
(F0.172
F0.608
F0.164
I100
I100
tp44
sg9
F65.50885486602783
sg10
I100
sg11
I100
sa(dp45
g7
(F0.175
F0.625
F0.176
I100
I100
tp46
sg9
F144.74163389205933
sg10
I100
sg11
I200
sa(dp47
g7
(F0.175
F0.595
F0.176
I100
I100
tp48
sg9
F223.64396691322327
sg10
I100
sg11
I300
sa(dp49
g7
(F0.176
F0.65
F0.188
I100
I100
tp50
sg9
F299.9643819332123
sg10
I100
sg11
I400
sa(dp51
g7
(F0.177
F0.584
F0.185
I100
I100
tp52
sg9
F373.72933197021484
sg10
I100
sg11
I500
satp53
Rp54
(dp55
g25
I01
sg26
g31
sg32
(lp56
I3
aI5
aI31
aI9
asg34
I6
sg35
g36
(g3
tp57
Rp58
sbsS'SPEA2'
p59
g2
(g3
g4
(lp60
(dp61
g7
g8
sg9
F0.06112194061279297
sg10
I100
sg11
I0
sa(dp62
g7
g8
sg9
F116.78528809547424
sg10
I100
sg11
I100
sa(dp63
g7
g8
sg9
F256.7047550678253
sg10
I100
sg11
I200
sa(dp64
g7
g8
sg9
F394.3496470451355
sg10
I100
sg11
I300
sa(dp65
g7
g8
sg9
F541.7884380817413
sg10
I100
sg11
I400
sa(dp66
g7
g8
sg9
F691.7684049606323
sg10
I100
sg11
I500
satp67
Rp68
(dp69
g25
I01
sg26
g31
sg32
(lp70
I3
aI5
aI30
aI9
asg34
I6
sg35
g36
(g3
tp71
Rp72
sbsS'IBEA'
p73
g2
(g3
g4
(lp74
(dp75
g7
g8
sg9
F0.061387062072753906
sg10
I100
sg11
I0
sa(dp76
g7
g8
sg9
F10.266062021255493
sg10
I100
sg11
I100
sa(dp77
g7
g8
sg9
F20.55018186569214
sg10
I100
sg11
I200
sa(dp78
g7
g8
sg9
F30.79820704460144
sg10
I100
sg11
I300
sa(dp79
g7
g8
sg9
F41.107131004333496
sg10
I100
sg11
I400
sa(dp80
g7
g8
sg9
F51.479835987091064
sg10
I100
sg11
I500
satp81
Rp82
(dp83
g25
I01
sg26
g31
sg32
(lp84
I3
aI5
aI30
aI9
asg34
I6
sg35
g36
(g3
tp85
Rp86
sbsS'NSGA2'
p87
g2
(g3
g4
(lp88
(dp89
g7
g8
sg9
F0.061010122299194336
sg10
I100
sg11
I0
sa(dp90
g7
g8
sg9
F13.044373035430908
sg10
I100
sg11
I100
sa(dp91
g7
g8
sg9
F26.025838136672974
sg10
I100
sg11
I200
sa(dp92
g7
g8
sg9
F39.03711199760437
sg10
I100
sg11
I300
sa(dp93
g7
g8
sg9
F52.021783113479614
sg10
I100
sg11
I400
sa(dp94
g7
g8
sg9
F65.00808906555176
sg10
I100
sg11
I500
satp95
Rp96
(dp97
g25
I01
sg26
g31
sg32
(lp98
I3
aI5
aI30
aI9
asg34
I6
sg35
g36
(g3
tp99
Rp100
sbsS'IBEA-SIP'
p101
g2
(g3
g4
(lp102
(dp103
g7
(F0.06
F0.8
F0.032
I1
I1
tp104
sg9
F0.04622387886047363
sg10
I100
sg11
I0
sa(dp105
g7
(F0.172
F0.64
F0.116
I80
I100
tp106
sg9
F8.838177919387817
sg10
I100
sg11
I100
sa(dp107
g7
(F0.176
F0.645
F0.164
I72
I100
tp108
sg9
F17.61133885383606
sg10
I100
sg11
I200
sa(dp109
g7
(F0.181
F0.706
F0.122
I78
I100
tp110
sg9
F26.476050853729248
sg10
I100
sg11
I300
sa(dp111
g7
(F0.184
F0.636
F0.134
I76
I100
tp112
sg9
F35.193503856658936
sg10
I100
sg11
I400
sa(dp113
g7
(F0.186
F0.718
F0.147
I77
I100
tp114
sg9
F43.71947884559631
sg10
I100
sg11
I500
satp115
Rp116
(dp117
g25
I01
sg26
g31
sg32
(lp118
I3
aI5
aI30
aI9
asg34
I6
sg35
g36
(g3
tp119
Rp120
sbs.