(dp0
S'NSGA2-SIP'
p1
ccopy_reg
_reconstructor
p2
(cdeap.tools.support
Logbook
p3
c__builtin__
list
p4
(lp5
(dp6
S'hv|spread|igd|frontier#|valid#'
p7
(I0
I0
I0
I0
I0
tp8
sS'timestamp'
p9
F0.042092084884643555
sS'evals'
p10
I100
sS'gen'
p11
I0
sa(dp12
g7
(F0.175
F0.566
F0.16
I97
I100
tp13
sg9
F9.95450496673584
sg10
I100
sg11
I100
sa(dp14
g7
(F0.179
F0.648
F0.168
I98
I100
tp15
sg9
F19.948025941848755
sg10
I100
sg11
I200
sa(dp16
g7
(F0.181
F0.601
F0.184
I99
I100
tp17
sg9
F29.877710103988647
sg10
I100
sg11
I300
sa(dp18
g7
(F0.183
F0.617
F0.195
I99
I100
tp19
sg9
F40.04784607887268
sg10
I100
sg11
I400
sa(dp20
g7
(F0.182
F0.541
F0.175
I98
I100
tp21
sg9
F50.131306886672974
sg10
I100
sg11
I500
satp22
Rp23
(dp24
S'log_header'
p25
I01
sS'header'
p26
(S'gen'
p27
S'evals'
p28
S'hv|spread|igd|frontier#|valid#'
p29
S'timestamp'
p30
tp31
sS'columns_len'
p32
(lp33
I3
aI5
aI30
aI9
asS'buffindex'
p34
I6
sS'chapters'
p35
ccollections
defaultdict
p36
(g3
tp37
Rp38
sbsS'SPEA2-SIP'
p39
g2
(g3
g4
(lp40
(dp41
g7
(F0.079
F0.949
F0.028
I2
I2
tp42
sg9
F0.04612016677856445
sg10
I100
sg11
I0
sa(dp43
g7
(F0.169
F0.61
F0.168
I100
I100
tp44
sg9
F59.66760516166687
sg10
I100
sg11
I100
sa(dp45
g7
(F0.171
F0.571
F0.19
I100
I100
tp46
sg9
F127.10437798500061
sg10
I100
sg11
I200
sa(dp47
g7
(F0.172
F0.631
F0.166
I100
I100
tp48
sg9
F193.49001002311707
sg10
I100
sg11
I300
sa(dp49
g7
(F0.172
F0.611
F0.166
I100
I100
tp50
sg9
F260.2572820186615
sg10
I100
sg11
I400
sa(dp51
g7
(F0.173
F0.62
F0.174
I100
I100
tp52
sg9
F326.5902440547943
sg10
I100
sg11
I500
satp53
Rp54
(dp55
g25
I01
sg26
g31
sg32
(lp56
I3
aI5
aI31
aI9
asg34
I6
sg35
g36
(g3
tp57
Rp58
sbsS'SPEA2'
p59
g2
(g3
g4
(lp60
(dp61
g7
g8
sg9
F0.05955314636230469
sg10
I100
sg11
I0
sa(dp62
g7
g8
sg9
F109.98085403442383
sg10
I100
sg11
I100
sa(dp63
g7
g8
sg9
F240.97135210037231
sg10
I100
sg11
I200
sa(dp64
g7
g8
sg9
F375.05110120773315
sg10
I100
sg11
I300
sa(dp65
g7
g8
sg9
F507.27620816230774
sg10
I100
sg11
I400
sa(dp66
g7
g8
sg9
F646.2176160812378
sg10
I100
sg11
I500
satp67
Rp68
(dp69
g25
I01
sg26
g31
sg32
(lp70
I3
aI5
aI30
aI9
asg34
I6
sg35
g36
(g3
tp71
Rp72
sbsS'IBEA-PEN'
p73
g2
(g3
g4
(lp74
(dp75
g7
(F0.085
F0.839
F0.027
I3
I3
tp76
sg9
F0.12009406089782715
sg10
I100
sg11
I0
sa(dp77
g7
(F0.174
F0.583
F0.132
I44
I66
tp78
sg9
F13.050731897354126
sg10
I100
sg11
I100
sa(dp79
g7
(F0.174
F0.603
F0.214
I43
I64
tp80
sg9
F26.215061902999878
sg10
I100
sg11
I200
sa(dp81
g7
(F0.173
F0.682
F0.089
I55
I78
tp82
sg9
F39.3817880153656
sg10
I100
sg11
I300
sa(dp83
g7
(F0.18
F0.637
F0.082
I57
I82
tp84
sg9
F52.64185690879822
sg10
I100
sg11
I400
sa(dp85
g7
(F0.179
F0.791
F0.124
I57
I79
tp86
sg9
F65.8088390827179
sg10
I100
sg11
I500
satp87
Rp88
(dp89
g25
I01
sg26
g31
sg32
(lp90
I3
aI5
aI30
aI9
asg34
I6
sg35
g36
(g3
tp91
Rp92
sbsS'IBEA'
p93
g2
(g3
g4
(lp94
(dp95
g7
g8
sg9
F0.0589909553527832
sg10
I100
sg11
I0
sa(dp96
g7
g8
sg9
F9.677244901657104
sg10
I100
sg11
I100
sa(dp97
g7
g8
sg9
F19.370450019836426
sg10
I100
sg11
I200
sa(dp98
g7
g8
sg9
F29.052329063415527
sg10
I100
sg11
I300
sa(dp99
g7
g8
sg9
F38.747544050216675
sg10
I100
sg11
I400
sa(dp100
g7
g8
sg9
F48.52054309844971
sg10
I100
sg11
I500
satp101
Rp102
(dp103
g25
I01
sg26
g31
sg32
(lp104
I3
aI5
aI30
aI9
asg34
I6
sg35
g36
(g3
tp105
Rp106
sbsS'NSGA2'
p107
g2
(g3
g4
(lp108
(dp109
g7
g8
sg9
F0.0589752197265625
sg10
I100
sg11
I0
sa(dp110
g7
g8
sg9
F12.486433029174805
sg10
I100
sg11
I100
sa(dp111
g7
g8
sg9
F24.847015142440796
sg10
I100
sg11
I200
sa(dp112
g7
g8
sg9
F37.248871088027954
sg10
I100
sg11
I300
sa(dp113
g7
g8
sg9
F49.55488109588623
sg10
I100
sg11
I400
sa(dp114
g7
g8
sg9
F61.95796608924866
sg10
I100
sg11
I500
satp115
Rp116
(dp117
g25
I01
sg26
g31
sg32
(lp118
I3
aI5
aI30
aI9
asg34
I6
sg35
g36
(g3
tp119
Rp120
sbsS'IBEA-SIP'
p121
g2
(g3
g4
(lp122
(dp123
g7
(F0.067
F2.254
F0.014
I1
I1
tp124
sg9
F0.04410409927368164
sg10
I100
sg11
I0
sa(dp125
g7
(F0.174
F0.652
F0.117
I77
I100
tp126
sg9
F8.24662709236145
sg10
I100
sg11
I100
sa(dp127
g7
(F0.18
F0.668
F0.157
I73
I100
tp128
sg9
F16.483448028564453
sg10
I100
sg11
I200
sa(dp129
g7
(F0.182
F0.662
F0.16
I75
I100
tp130
sg9
F24.680293083190918
sg10
I100
sg11
I300
sa(dp131
g7
(F0.184
F0.652
F0.157
I79
I100
tp132
sg9
F32.811172008514404
sg10
I100
sg11
I400
sa(dp133
g7
(F0.184
F0.669
F0.153
I84
I100
tp134
sg9
F41.00441598892212
sg10
I100
sg11
I500
satp135
Rp136
(dp137
g25
I01
sg26
g31
sg32
(lp138
I3
aI5
aI30
aI9
asg34
I6
sg35
g36
(g3
tp139
Rp140
sbs.