(dp0
S'NSGA2-SIP'
p1
ccopy_reg
_reconstructor
p2
(cdeap.tools.support
Logbook
p3
c__builtin__
list
p4
(lp5
(dp6
S'hv|spread|igd|frontier#|valid#'
p7
(F0.06
F0.96
F0.032
I1
I1
tp8
sS'timestamp'
p9
F0.04213595390319824
sS'evals'
p10
I100
sS'gen'
p11
I0
sa(dp12
g7
(F0.175
F0.584
F0.151
I98
I100
tp13
sg9
F9.791162014007568
sg10
I100
sg11
I100
sa(dp14
g7
(F0.178
F0.636
F0.164
I98
I100
tp15
sg9
F19.545342922210693
sg10
I100
sg11
I200
sa(dp16
g7
(F0.18
F0.632
F0.184
I99
I100
tp17
sg9
F29.16574501991272
sg10
I100
sg11
I300
sa(dp18
g7
(F0.183
F0.566
F0.169
I99
I100
tp19
sg9
F38.73528003692627
sg10
I100
sg11
I400
sa(dp20
g7
(F0.184
F0.594
F0.175
I98
I100
tp21
sg9
F48.247779846191406
sg10
I100
sg11
I500
satp22
Rp23
(dp24
S'log_header'
p25
I01
sS'header'
p26
(S'gen'
p27
S'evals'
p28
S'hv|spread|igd|frontier#|valid#'
p29
S'timestamp'
p30
tp31
sS'columns_len'
p32
(lp33
I3
aI5
aI30
aI9
asS'buffindex'
p34
I6
sS'chapters'
p35
ccollections
defaultdict
p36
(g3
tp37
Rp38
sbsS'SPEA2-SIP'
p39
g2
(g3
g4
(lp40
(dp41
g7
(I0
I0
I0
I0
I0
tp42
sg9
F0.04040980339050293
sg10
I100
sg11
I0
sa(dp43
g7
(F0.17
F0.624
F0.133
I100
I100
tp44
sg9
F55.55156683921814
sg10
I100
sg11
I100
sa(dp45
g7
(F0.175
F0.694
F0.151
I100
I100
tp46
sg9
F126.30395698547363
sg10
I100
sg11
I200
sa(dp47
g7
(F0.176
F0.598
F0.154
I100
I100
tp48
sg9
F195.2351438999176
sg10
I100
sg11
I300
sa(dp49
g7
(F0.179
F0.613
F0.15
I100
I100
tp50
sg9
F262.66760087013245
sg10
I100
sg11
I400
sa(dp51
g7
(F0.183
F0.617
F0.152
I100
I100
tp52
sg9
F330.6914520263672
sg10
I100
sg11
I500
satp53
Rp54
(dp55
g25
I01
sg26
g31
sg32
(lp56
I3
aI5
aI31
aI9
asg34
I6
sg35
g36
(g3
tp57
Rp58
sbsS'SPEA2'
p59
g2
(g3
g4
(lp60
(dp61
g7
g42
sg9
F0.06080794334411621
sg10
I100
sg11
I0
sa(dp62
g7
g42
sg9
F100.52639698982239
sg10
I100
sg11
I100
sa(dp63
g7
g42
sg9
F220.39233684539795
sg10
I100
sg11
I200
sa(dp64
g7
g42
sg9
F345.09604382514954
sg10
I100
sg11
I300
sa(dp65
g7
g42
sg9
F474.89079689979553
sg10
I100
sg11
I400
sa(dp66
g7
g42
sg9
F603.4715960025787
sg10
I100
sg11
I500
satp67
Rp68
(dp69
g25
I01
sg26
g31
sg32
(lp70
I3
aI5
aI30
aI9
asg34
I6
sg35
g36
(g3
tp71
Rp72
sbsS'IBEA'
p73
g2
(g3
g4
(lp74
(dp75
g7
g42
sg9
F0.05575704574584961
sg10
I100
sg11
I0
sa(dp76
g7
g42
sg9
F9.323109149932861
sg10
I100
sg11
I100
sa(dp77
g7
g42
sg9
F18.679854154586792
sg10
I100
sg11
I200
sa(dp78
g7
g42
sg9
F28.06359100341797
sg10
I100
sg11
I300
sa(dp79
g7
g42
sg9
F37.4571750164032
sg10
I100
sg11
I400
sa(dp80
g7
g42
sg9
F46.93130612373352
sg10
I100
sg11
I500
satp81
Rp82
(dp83
g25
I01
sg26
g31
sg32
(lp84
I3
aI5
aI30
aI9
asg34
I6
sg35
g36
(g3
tp85
Rp86
sbsS'NSGA2'
p87
g2
(g3
g4
(lp88
(dp89
g7
g42
sg9
F0.05594611167907715
sg10
I100
sg11
I0
sa(dp90
g7
g42
sg9
F11.943523168563843
sg10
I100
sg11
I100
sa(dp91
g7
g42
sg9
F23.811371088027954
sg10
I100
sg11
I200
sa(dp92
g7
g42
sg9
F35.69787621498108
sg10
I100
sg11
I300
sa(dp93
g7
g42
sg9
F47.552502155303955
sg10
I100
sg11
I400
sa(dp94
g7
g42
sg9
F59.29575800895691
sg10
I100
sg11
I500
satp95
Rp96
(dp97
g25
I01
sg26
g31
sg32
(lp98
I3
aI5
aI30
aI9
asg34
I6
sg35
g36
(g3
tp99
Rp100
sbsS'IBEA-SIP'
p101
g2
(g3
g4
(lp102
(dp103
g7
(F0.06
F0.9
F0.045
I1
I1
tp104
sg9
F0.041892051696777344
sg10
I100
sg11
I0
sa(dp105
g7
(F0.173
F0.649
F0.158
I78
I100
tp106
sg9
F8.12005090713501
sg10
I100
sg11
I100
sa(dp107
g7
(F0.178
F0.677
F0.16
I81
I100
tp108
sg9
F16.13067889213562
sg10
I100
sg11
I200
sa(dp109
g7
(F0.183
F0.716
F0.144
I73
I100
tp110
sg9
F24.01004695892334
sg10
I100
sg11
I300
sa(dp111
g7
(F0.183
F0.634
F0.14
I83
I100
tp112
sg9
F32.074711084365845
sg10
I100
sg11
I400
sa(dp113
g7
(F0.183
F0.672
F0.145
I82
I100
tp114
sg9
F40.22142004966736
sg10
I100
sg11
I500
satp115
Rp116
(dp117
g25
I01
sg26
g31
sg32
(lp118
I3
aI5
aI30
aI9
asg34
I6
sg35
g36
(g3
tp119
Rp120
sbs.