(dp0
S'NSGA2-SIP'
p1
ccopy_reg
_reconstructor
p2
(cdeap.tools.support
Logbook
p3
c__builtin__
list
p4
(lp5
(dp6
S'hv|spread|igd|frontier#|valid#'
p7
(I0
I0
I0
I0
I0
tp8
sS'timestamp'
p9
F0.04486203193664551
sS'evals'
p10
I100
sS'gen'
p11
I0
sa(dp12
g7
(F0.169
F0.683
F0.152
I97
I100
tp13
sg9
F10.719308137893677
sg10
I100
sg11
I100
sa(dp14
g7
(F0.175
F0.68
F0.167
I98
I100
tp15
sg9
F21.465991020202637
sg10
I100
sg11
I200
sa(dp16
g7
(F0.178
F0.584
F0.177
I99
I100
tp17
sg9
F32.19873905181885
sg10
I100
sg11
I300
sa(dp18
g7
(F0.179
F0.612
F0.196
I99
I100
tp19
sg9
F43.03707313537598
sg10
I100
sg11
I400
sa(dp20
g7
(F0.179
F0.664
F0.181
I98
I100
tp21
sg9
F53.82866621017456
sg10
I100
sg11
I500
satp22
Rp23
(dp24
S'log_header'
p25
I01
sS'header'
p26
(S'gen'
p27
S'evals'
p28
g7
S'timestamp'
p29
tp30
sS'columns_len'
p31
(lp32
I3
aI5
aI30
aI9
asS'buffindex'
p33
I6
sS'chapters'
p34
ccollections
defaultdict
p35
(g3
tp36
Rp37
sbsS'SPEA2-SIP'
p38
g2
(g3
g4
(lp39
(dp40
g7
(F0.055
F0.82
F0.047
I1
I1
tp41
sg9
F0.04784584045410156
sg10
I100
sg11
I0
sa(dp42
g7
(F0.173
F0.661
F0.156
I100
I100
tp43
sg9
F67.45140385627747
sg10
I100
sg11
I100
sa(dp44
g7
(F0.174
F0.706
F0.158
I100
I100
tp45
sg9
F149.8034749031067
sg10
I100
sg11
I200
sa(dp46
g7
(F0.175
F0.622
F0.154
I100
I100
tp47
sg9
F231.01727390289307
sg10
I100
sg11
I300
sa(dp48
g7
(F0.176
F0.62
F0.147
I100
I100
tp49
sg9
F311.48875188827515
sg10
I100
sg11
I400
sa(dp50
g7
(F0.178
F0.609
F0.144
I100
I100
tp51
sg9
F391.7006359100342
sg10
I100
sg11
I500
satp52
Rp53
(dp54
g25
I01
sg26
g30
sg31
(lp55
I3
aI5
aI31
aI9
asg33
I6
sg34
g35
(g3
tp56
Rp57
sbsS'SPEA2'
p58
g2
(g3
g4
(lp59
(dp60
g7
g8
sg9
F0.0635528564453125
sg10
I100
sg11
I0
sa(dp61
g7
g8
sg9
F116.28492093086243
sg10
I100
sg11
I100
sa(dp62
g7
g8
sg9
F243.67510604858398
sg10
I100
sg11
I200
sa(dp63
g7
g8
sg9
F381.3250150680542
sg10
I100
sg11
I300
sa(dp64
g7
g8
sg9
F532.9306199550629
sg10
I100
sg11
I400
sa(dp65
g7
g8
sg9
F685.0162220001221
sg10
I100
sg11
I500
satp66
Rp67
(dp68
g25
I01
sg26
g30
sg31
(lp69
I3
aI5
aI30
aI9
asg33
I6
sg34
g35
(g3
tp70
Rp71
sbsS'IBEA-PEN'
p72
g2
(g3
g4
(lp73
(dp74
g7
(F0.061
F0.988
F0.044
I2
I2
tp75
sg9
F0.1256880760192871
sg10
I100
sg11
I0
sa(dp76
g7
(F0.176
F0.694
F0.112
I49
I69
tp77
sg9
F13.891151189804077
sg10
I100
sg11
I100
sa(dp78
g7
(F0.183
F0.591
F0.15
I65
I77
tp79
sg9
F28.039669036865234
sg10
I100
sg11
I200
sa(dp80
g7
(F0.179
F0.692
F0.125
I60
I78
tp81
sg9
F42.08014702796936
sg10
I100
sg11
I300
sa(dp82
g7
(F0.182
F0.654
F0.116
I57
I77
tp83
sg9
F56.156668186187744
sg10
I100
sg11
I400
sa(dp84
g7
(F0.176
F0.597
F0.106
I44
I63
tp85
sg9
F70.20991802215576
sg10
I100
sg11
I500
satp86
Rp87
(dp88
g25
I01
sg26
g30
sg31
(lp89
I3
aI5
aI30
aI9
asg33
I6
sg34
g35
(g3
tp90
Rp91
sbsS'IBEA'
p92
g2
(g3
g4
(lp93
(dp94
g7
g8
sg9
F0.06257081031799316
sg10
I100
sg11
I0
sa(dp95
g7
g8
sg9
F10.377255916595459
sg10
I100
sg11
I100
sa(dp96
g7
g8
sg9
F20.778258800506592
sg10
I100
sg11
I200
sa(dp97
g7
g8
sg9
F31.17128086090088
sg10
I100
sg11
I300
sa(dp98
g7
g8
sg9
F41.57074689865112
sg10
I100
sg11
I400
sa(dp99
g7
g8
sg9
F52.06513285636902
sg10
I100
sg11
I500
satp100
Rp101
(dp102
g25
I01
sg26
g30
sg31
(lp103
I3
aI5
aI30
aI9
asg33
I6
sg34
g35
(g3
tp104
Rp105
sbsS'NSGA2'
p106
g2
(g3
g4
(lp107
(dp108
g7
g8
sg9
F0.06290006637573242
sg10
I100
sg11
I0
sa(dp109
g7
g8
sg9
F13.407588958740234
sg10
I100
sg11
I100
sa(dp110
g7
g8
sg9
F26.64746904373169
sg10
I100
sg11
I200
sa(dp111
g7
g8
sg9
F39.90934705734253
sg10
I100
sg11
I300
sa(dp112
g7
g8
sg9
F53.18880009651184
sg10
I100
sg11
I400
sa(dp113
g7
g8
sg9
F66.38459300994873
sg10
I100
sg11
I500
satp114
Rp115
(dp116
g25
I01
sg26
g30
sg31
(lp117
I3
aI5
aI30
aI9
asg33
I6
sg34
g35
(g3
tp118
Rp119
sbsS'IBEA-SIP'
p120
g2
(g3
g4
(lp121
(dp122
g7
(F0.05
F2.177
F0.046
I1
I1
tp123
sg9
F0.04671502113342285
sg10
I100
sg11
I0
sa(dp124
g7
(F0.174
F0.653
F0.152
I76
I100
tp125
sg9
F8.892673969268799
sg10
I100
sg11
I100
sa(dp126
g7
(F0.18
F0.581
F0.143
I82
I100
tp127
sg9
F17.883625030517578
sg10
I100
sg11
I200
sa(dp128
g7
(F0.18
F0.684
F0.155
I84
I100
tp129
sg9
F26.86270785331726
sg10
I100
sg11
I300
sa(dp130
g7
(F0.181
F0.671
F0.138
I78
I100
tp131
sg9
F35.698877811431885
sg10
I100
sg11
I400
sa(dp132
g7
(F0.183
F0.6
F0.141
I84
I100
tp133
sg9
F44.47733283042908
sg10
I100
sg11
I500
satp134
Rp135
(dp136
g25
I01
sg26
g30
sg31
(lp137
I3
aI5
aI30
aI9
asg33
I6
sg34
g35
(g3
tp138
Rp139
sbs.