(dp0
S'NSGA2-SIP'
p1
ccopy_reg
_reconstructor
p2
(cdeap.tools.support
Logbook
p3
c__builtin__
list
p4
(lp5
(dp6
S'hv|spread|igd|frontier#|valid#'
p7
(I0
I0
I0
I0
I0
tp8
sS'timestamp'
p9
F0.04347085952758789
sS'evals'
p10
I100
sS'gen'
p11
I0
sa(dp12
g7
(F0.171
F0.548
F0.172
I98
I100
tp13
sg9
F10.519207000732422
sg10
I100
sg11
I100
sa(dp14
g7
(F0.177
F0.677
F0.184
I99
I100
tp15
sg9
F21.199111938476562
sg10
I100
sg11
I200
sa(dp16
g7
(F0.178
F0.612
F0.181
I99
I100
tp17
sg9
F31.704028844833374
sg10
I100
sg11
I300
sa(dp18
g7
(F0.184
F0.618
F0.168
I98
I100
tp19
sg9
F42.10462689399719
sg10
I100
sg11
I400
sa(dp20
g7
(F0.185
F0.711
F0.18
I97
I100
tp21
sg9
F52.383141040802
sg10
I100
sg11
I500
satp22
Rp23
(dp24
S'log_header'
p25
I01
sS'header'
p26
(S'gen'
p27
S'evals'
p28
S'hv|spread|igd|frontier#|valid#'
p29
S'timestamp'
p30
tp31
sS'columns_len'
p32
(lp33
I3
aI5
aI30
aI9
asS'buffindex'
p34
I6
sS'chapters'
p35
ccollections
defaultdict
p36
(g3
tp37
Rp38
sbsS'SPEA2-SIP'
p39
g2
(g3
g4
(lp40
(dp41
g7
g8
sg9
F0.04366803169250488
sg10
I100
sg11
I0
sa(dp42
g7
(F0.171
F0.629
F0.162
I100
I100
tp43
sg9
F65.34882998466492
sg10
I100
sg11
I100
sa(dp44
g7
(F0.176
F0.588
F0.167
I100
I100
tp45
sg9
F138.91361498832703
sg10
I100
sg11
I200
sa(dp46
g7
(F0.177
F0.614
F0.17
I100
I100
tp47
sg9
F210.54867315292358
sg10
I100
sg11
I300
sa(dp48
g7
(F0.178
F0.61
F0.171
I100
I100
tp49
sg9
F283.1298921108246
sg10
I100
sg11
I400
sa(dp50
g7
(F0.178
F0.642
F0.177
I100
I100
tp51
sg9
F353.45160698890686
sg10
I100
sg11
I500
satp52
Rp53
(dp54
g25
I01
sg26
g31
sg32
(lp55
I3
aI5
aI31
aI9
asg34
I6
sg35
g36
(g3
tp56
Rp57
sbsS'SPEA2'
p58
g2
(g3
g4
(lp59
(dp60
g7
g8
sg9
F0.061881065368652344
sg10
I100
sg11
I0
sa(dp61
g7
g8
sg9
F119.94631004333496
sg10
I100
sg11
I100
sa(dp62
g7
g8
sg9
F253.08427810668945
sg10
I100
sg11
I200
sa(dp63
g7
g8
sg9
F386.0187919139862
sg10
I100
sg11
I300
sa(dp64
g7
g8
sg9
F530.0024039745331
sg10
I100
sg11
I400
sa(dp65
g7
g8
sg9
F681.1036341190338
sg10
I100
sg11
I500
satp66
Rp67
(dp68
g25
I01
sg26
g31
sg32
(lp69
I3
aI5
aI30
aI9
asg34
I6
sg35
g36
(g3
tp70
Rp71
sbsS'IBEA'
p72
g2
(g3
g4
(lp73
(dp74
g7
g8
sg9
F0.06195712089538574
sg10
I100
sg11
I0
sa(dp75
g7
g8
sg9
F10.27268099784851
sg10
I100
sg11
I100
sa(dp76
g7
g8
sg9
F20.57966709136963
sg10
I100
sg11
I200
sa(dp77
g7
g8
sg9
F30.752968072891235
sg10
I100
sg11
I300
sa(dp78
g7
g8
sg9
F41.01277017593384
sg10
I100
sg11
I400
sa(dp79
g7
g8
sg9
F51.3812370300293
sg10
I100
sg11
I500
satp80
Rp81
(dp82
g25
I01
sg26
g31
sg32
(lp83
I3
aI5
aI30
aI9
asg34
I6
sg35
g36
(g3
tp84
Rp85
sbsS'NSGA2'
p86
g2
(g3
g4
(lp87
(dp88
g7
g8
sg9
F0.06145000457763672
sg10
I100
sg11
I0
sa(dp89
g7
g8
sg9
F13.026031017303467
sg10
I100
sg11
I100
sa(dp90
g7
g8
sg9
F25.98757004737854
sg10
I100
sg11
I200
sa(dp91
g7
g8
sg9
F38.91095995903015
sg10
I100
sg11
I300
sa(dp92
g7
g8
sg9
F51.80943989753723
sg10
I100
sg11
I400
sa(dp93
g7
g8
sg9
F64.64525389671326
sg10
I100
sg11
I500
satp94
Rp95
(dp96
g25
I01
sg26
g31
sg32
(lp97
I3
aI5
aI30
aI9
asg34
I6
sg35
g36
(g3
tp98
Rp99
sbsS'IBEA-SIP'
p100
g2
(g3
g4
(lp101
(dp102
g7
g8
sg9
F0.04348397254943848
sg10
I100
sg11
I0
sa(dp103
g7
(F0.175
F0.704
F0.125
I74
I100
tp104
sg9
F8.919198036193848
sg10
I100
sg11
I100
sa(dp105
g7
(F0.178
F0.638
F0.151
I70
I100
tp106
sg9
F17.759683847427368
sg10
I100
sg11
I200
sa(dp107
g7
(F0.179
F0.707
F0.157
I76
I100
tp108
sg9
F26.51260805130005
sg10
I100
sg11
I300
sa(dp109
g7
(F0.18
F0.639
F0.17
I82
I100
tp110
sg9
F35.22213387489319
sg10
I100
sg11
I400
sa(dp111
g7
(F0.182
F0.614
F0.151
I78
I100
tp112
sg9
F43.9462468624115
sg10
I100
sg11
I500
satp113
Rp114
(dp115
g25
I01
sg26
g31
sg32
(lp116
I3
aI5
aI30
aI9
asg34
I6
sg35
g36
(g3
tp117
Rp118
sbs.