(dp0
S'NSGA2-SIP'
p1
ccopy_reg
_reconstructor
p2
(cdeap.tools.support
Logbook
p3
c__builtin__
list
p4
(lp5
(dp6
S'hv|spread|igd|frontier#|valid#'
p7
(F0.06
F0.96
F0.041
I1
I1
tp8
sS'timestamp'
p9
F0.04842519760131836
sS'evals'
p10
I100
sS'gen'
p11
I0
sa(dp12
g7
(F0.171
F0.61
F0.175
I100
I100
tp13
sg9
F11.15901803970337
sg10
I100
sg11
I100
sa(dp14
g7
(F0.174
F0.655
F0.173
I97
I100
tp15
sg9
F22.234925031661987
sg10
I100
sg11
I200
sa(dp16
g7
(F0.175
F0.662
F0.188
I98
I100
tp17
sg9
F33.18543004989624
sg10
I100
sg11
I300
sa(dp18
g7
(F0.181
F0.585
F0.181
I99
I100
tp19
sg9
F44.10275197029114
sg10
I100
sg11
I400
sa(dp20
g7
(F0.181
F0.61
F0.181
I98
I100
tp21
sg9
F55.17787718772888
sg10
I100
sg11
I500
satp22
Rp23
(dp24
S'log_header'
p25
I01
sS'header'
p26
(S'gen'
p27
S'evals'
p28
S'hv|spread|igd|frontier#|valid#'
p29
S'timestamp'
p30
tp31
sS'columns_len'
p32
(lp33
I3
aI5
aI30
aI9
asS'buffindex'
p34
I6
sS'chapters'
p35
ccollections
defaultdict
p36
(g3
tp37
Rp38
sbsS'SPEA2-SIP'
p39
g2
(g3
g4
(lp40
(dp41
g7
(F0.05
F1.26
F0.041
I1
I1
tp42
sg9
F0.048605918884277344
sg10
I100
sg11
I0
sa(dp43
g7
(F0.172
F0.561
F0.159
I100
I100
tp44
sg9
F69.02651786804199
sg10
I100
sg11
I100
sa(dp45
g7
(F0.175
F0.64
F0.159
I100
I100
tp46
sg9
F149.89691877365112
sg10
I100
sg11
I200
sa(dp47
g7
(F0.177
F0.566
F0.15
I100
I100
tp48
sg9
F232.47689390182495
sg10
I100
sg11
I300
sa(dp49
g7
(F0.179
F0.64
F0.152
I100
I100
tp50
sg9
F315.6504089832306
sg10
I100
sg11
I400
sa(dp51
g7
(F0.18
F0.603
F0.16
I100
I100
tp52
sg9
F396.7889139652252
sg10
I100
sg11
I500
satp53
Rp54
(dp55
g25
I01
sg26
g31
sg32
(lp56
I3
aI5
aI31
aI9
asg34
I6
sg35
g36
(g3
tp57
Rp58
sbsS'SPEA2'
p59
g2
(g3
g4
(lp60
(dp61
g7
(I0
I0
I0
I0
I0
tp62
sg9
F0.06530499458312988
sg10
I100
sg11
I0
sa(dp63
g7
g62
sg9
F131.3511347770691
sg10
I100
sg11
I100
sa(dp64
g7
g62
sg9
F263.9487679004669
sg10
I100
sg11
I200
sa(dp65
g7
g62
sg9
F413.03475880622864
sg10
I100
sg11
I300
sa(dp66
g7
g62
sg9
F555.4502389431
sg10
I100
sg11
I400
sa(dp67
g7
g62
sg9
F703.550607919693
sg10
I100
sg11
I500
satp68
Rp69
(dp70
g25
I01
sg26
g31
sg32
(lp71
I3
aI5
aI30
aI9
asg34
I6
sg35
g36
(g3
tp72
Rp73
sbsS'IBEA-PEN'
p74
g2
(g3
g4
(lp75
(dp76
g7
(F0.062
F0.974
F0.052
I2
I2
tp77
sg9
F0.13019394874572754
sg10
I100
sg11
I0
sa(dp78
g7
(F0.177
F0.627
F0.149
I60
I82
tp79
sg9
F14.473735094070435
sg10
I100
sg11
I100
sa(dp80
g7
(F0.175
F0.614
F0.118
I51
I74
tp81
sg9
F29.007028102874756
sg10
I100
sg11
I200
sa(dp82
g7
(F0.181
F0.678
F0.15
I55
I82
tp83
sg9
F43.60697793960571
sg10
I100
sg11
I300
sa(dp84
g7
(F0.184
F0.646
F0.128
I61
I84
tp85
sg9
F58.32814407348633
sg10
I100
sg11
I400
sa(dp86
g7
(F0.181
F0.793
F0.167
I54
I81
tp87
sg9
F73.13584089279175
sg10
I100
sg11
I500
satp88
Rp89
(dp90
g25
I01
sg26
g31
sg32
(lp91
I3
aI5
aI30
aI9
asg34
I6
sg35
g36
(g3
tp92
Rp93
sbsS'IBEA'
p94
g2
(g3
g4
(lp95
(dp96
g7
g62
sg9
F0.06599712371826172
sg10
I100
sg11
I0
sa(dp97
g7
g62
sg9
F10.910329103469849
sg10
I100
sg11
I100
sa(dp98
g7
g62
sg9
F21.881355047225952
sg10
I100
sg11
I200
sa(dp99
g7
g62
sg9
F32.83604311943054
sg10
I100
sg11
I300
sa(dp100
g7
g62
sg9
F43.79909706115723
sg10
I100
sg11
I400
sa(dp101
g7
g62
sg9
F54.779163122177124
sg10
I100
sg11
I500
satp102
Rp103
(dp104
g25
I01
sg26
g31
sg32
(lp105
I3
aI5
aI30
aI9
asg34
I6
sg35
g36
(g3
tp106
Rp107
sbsS'NSGA2'
p108
g2
(g3
g4
(lp109
(dp110
g7
g62
sg9
F0.06464695930480957
sg10
I100
sg11
I0
sa(dp111
g7
g62
sg9
F13.80936598777771
sg10
I100
sg11
I100
sa(dp112
g7
g62
sg9
F27.552371978759766
sg10
I100
sg11
I200
sa(dp113
g7
g62
sg9
F41.26299691200256
sg10
I100
sg11
I300
sa(dp114
g7
g62
sg9
F54.97826910018921
sg10
I100
sg11
I400
sa(dp115
g7
g62
sg9
F68.66680312156677
sg10
I100
sg11
I500
satp116
Rp117
(dp118
g25
I01
sg26
g31
sg32
(lp119
I3
aI5
aI30
aI9
asg34
I6
sg35
g36
(g3
tp120
Rp121
sbsS'IBEA-SIP'
p122
g2
(g3
g4
(lp123
(dp124
g7
g62
sg9
F0.04674887657165527
sg10
I100
sg11
I0
sa(dp125
g7
(F0.173
F0.645
F0.154
I72
I100
tp126
sg9
F9.33836579322815
sg10
I100
sg11
I100
sa(dp127
g7
(F0.178
F0.646
F0.148
I84
I100
tp128
sg9
F18.723232984542847
sg10
I100
sg11
I200
sa(dp129
g7
(F0.179
F0.656
F0.135
I79
I100
tp130
sg9
F27.92796301841736
sg10
I100
sg11
I300
sa(dp131
g7
(F0.18
F0.668
F0.122
I75
I100
tp132
sg9
F37.08917188644409
sg10
I100
sg11
I400
sa(dp133
g7
(F0.184
F0.547
F0.159
I81
I100
tp134
sg9
F46.20688486099243
sg10
I100
sg11
I500
satp135
Rp136
(dp137
g25
I01
sg26
g31
sg32
(lp138
I3
aI5
aI30
aI9
asg34
I6
sg35
g36
(g3
tp139
Rp140
sbs.