(dp0
S'NSGA2-SIP'
p1
ccopy_reg
_reconstructor
p2
(cdeap.tools.support
Logbook
p3
c__builtin__
list
p4
(lp5
(dp6
S'hv|spread|igd|frontier#|valid#'
p7
(F0.05
F2.185
F0.071
I1
I1
tp8
sS'timestamp'
p9
F0.04974699020385742
sS'evals'
p10
I100
sS'gen'
p11
I0
sa(dp12
g7
(F0.172
F0.659
F0.155
I99
I100
tp13
sg9
F11.259441137313843
sg10
I100
sg11
I100
sa(dp14
g7
(F0.176
F0.576
F0.184
I97
I100
tp15
sg9
F22.73271107673645
sg10
I100
sg11
I200
sa(dp16
g7
(F0.179
F0.692
F0.173
I99
I100
tp17
sg9
F34.15592408180237
sg10
I100
sg11
I300
sa(dp18
g7
(F0.181
F0.594
F0.183
I99
I100
tp19
sg9
F45.529664039611816
sg10
I100
sg11
I400
sa(dp20
g7
(F0.182
F0.597
F0.178
I99
I100
tp21
sg9
F56.93625211715698
sg10
I100
sg11
I500
satp22
Rp23
(dp24
S'log_header'
p25
I01
sS'header'
p26
(S'gen'
p27
S'evals'
p28
S'hv|spread|igd|frontier#|valid#'
p29
S'timestamp'
p30
tp31
sS'columns_len'
p32
(lp33
I3
aI5
aI30
aI9
asS'buffindex'
p34
I6
sS'chapters'
p35
ccollections
defaultdict
p36
(g3
tp37
Rp38
sbsS'SPEA2-SIP'
p39
g2
(g3
g4
(lp40
(dp41
g7
(F0.051
F0.82
F0.062
I1
I1
tp42
sg9
F0.05234694480895996
sg10
I100
sg11
I0
sa(dp43
g7
(F0.173
F0.59
F0.147
I100
I100
tp44
sg9
F66.46300005912781
sg10
I100
sg11
I100
sa(dp45
g7
(F0.178
F0.612
F0.174
I100
I100
tp46
sg9
F145.89589309692383
sg10
I100
sg11
I200
sa(dp47
g7
(F0.179
F0.638
F0.176
I100
I100
tp48
sg9
F221.43039107322693
sg10
I100
sg11
I300
sa(dp49
g7
(F0.18
F0.635
F0.172
I100
I100
tp50
sg9
F299.01994609832764
sg10
I100
sg11
I400
sa(dp51
g7
(F0.181
F0.62
F0.167
I100
I100
tp52
sg9
F376.96723103523254
sg10
I100
sg11
I500
satp53
Rp54
(dp55
g25
I01
sg26
g31
sg32
(lp56
I3
aI5
aI31
aI9
asg34
I6
sg35
g36
(g3
tp57
Rp58
sbsS'SPEA2'
p59
g2
(g3
g4
(lp60
(dp61
g7
(I0
I0
I0
I0
I0
tp62
sg9
F0.06593585014343262
sg10
I100
sg11
I0
sa(dp63
g7
g62
sg9
F125.63081288337708
sg10
I100
sg11
I100
sa(dp64
g7
g62
sg9
F269.75189089775085
sg10
I100
sg11
I200
sa(dp65
g7
g62
sg9
F419.29039192199707
sg10
I100
sg11
I300
sa(dp66
g7
g62
sg9
F572.8178548812866
sg10
I100
sg11
I400
sa(dp67
g7
g62
sg9
F734.8873538970947
sg10
I100
sg11
I500
satp68
Rp69
(dp70
g25
I01
sg26
g31
sg32
(lp71
I3
aI5
aI30
aI9
asg34
I6
sg35
g36
(g3
tp72
Rp73
sbsS'IBEA-PEN'
p74
g2
(g3
g4
(lp75
(dp76
g7
(F0.066
F0.974
F0.041
I2
I2
tp77
sg9
F0.13152599334716797
sg10
I100
sg11
I0
sa(dp78
g7
(F0.179
F0.684
F0.115
I59
I78
tp79
sg9
F14.688245058059692
sg10
I100
sg11
I100
sa(dp80
g7
(F0.176
F0.627
F0.09
I65
I85
tp81
sg9
F29.522125005722046
sg10
I100
sg11
I200
sa(dp82
g7
(F0.176
F0.663
F0.075
I53
I76
tp83
sg9
F44.26893496513367
sg10
I100
sg11
I300
sa(dp84
g7
(F0.183
F0.643
F0.136
I62
I86
tp85
sg9
F59.02466106414795
sg10
I100
sg11
I400
sa(dp86
g7
(F0.182
F0.627
F0.118
I49
I71
tp87
sg9
F73.84461712837219
sg10
I100
sg11
I500
satp88
Rp89
(dp90
g25
I01
sg26
g31
sg32
(lp91
I3
aI5
aI30
aI9
asg34
I6
sg35
g36
(g3
tp92
Rp93
sbsS'IBEA'
p94
g2
(g3
g4
(lp95
(dp96
g7
g62
sg9
F0.06603407859802246
sg10
I100
sg11
I0
sa(dp97
g7
g62
sg9
F10.936660051345825
sg10
I100
sg11
I100
sa(dp98
g7
g62
sg9
F21.88283610343933
sg10
I100
sg11
I200
sa(dp99
g7
g62
sg9
F32.88188099861145
sg10
I100
sg11
I300
sa(dp100
g7
g62
sg9
F43.925698041915894
sg10
I100
sg11
I400
sa(dp101
g7
g62
sg9
F54.996963024139404
sg10
I100
sg11
I500
satp102
Rp103
(dp104
g25
I01
sg26
g31
sg32
(lp105
I3
aI5
aI30
aI9
asg34
I6
sg35
g36
(g3
tp106
Rp107
sbsS'NSGA2'
p108
g2
(g3
g4
(lp109
(dp110
g7
g62
sg9
F0.0662229061126709
sg10
I100
sg11
I0
sa(dp111
g7
g62
sg9
F14.03543496131897
sg10
I100
sg11
I100
sa(dp112
g7
g62
sg9
F27.964639902114868
sg10
I100
sg11
I200
sa(dp113
g7
g62
sg9
F42.10379481315613
sg10
I100
sg11
I300
sa(dp114
g7
g62
sg9
F56.22483682632446
sg10
I100
sg11
I400
sa(dp115
g7
g62
sg9
F70.29315090179443
sg10
I100
sg11
I500
satp116
Rp117
(dp118
g25
I01
sg26
g31
sg32
(lp119
I3
aI5
aI30
aI9
asg34
I6
sg35
g36
(g3
tp120
Rp121
sbsS'IBEA-SIP'
p122
g2
(g3
g4
(lp123
(dp124
g7
(F0.056
F0.9
F0.042
I1
I1
tp125
sg9
F0.048985958099365234
sg10
I100
sg11
I0
sa(dp126
g7
(F0.17
F0.714
F0.124
I74
I100
tp127
sg9
F9.298253059387207
sg10
I100
sg11
I100
sa(dp128
g7
(F0.173
F0.663
F0.142
I78
I100
tp129
sg9
F18.653986930847168
sg10
I100
sg11
I200
sa(dp130
g7
(F0.179
F0.749
F0.147
I73
I100
tp131
sg9
F27.726320028305054
sg10
I100
sg11
I300
sa(dp132
g7
(F0.18
F0.603
F0.146
I80
I100
tp133
sg9
F36.97463393211365
sg10
I100
sg11
I400
sa(dp134
g7
(F0.181
F0.682
F0.154
I78
I100
tp135
sg9
F46.248374938964844
sg10
I100
sg11
I500
satp136
Rp137
(dp138
g25
I01
sg26
g31
sg32
(lp139
I3
aI5
aI30
aI9
asg34
I6
sg35
g36
(g3
tp140
Rp141
sbs.