(dp0
S'NSGA2-SIP'
p1
ccopy_reg
_reconstructor
p2
(cdeap.tools.support
Logbook
p3
c__builtin__
list
p4
(lp5
(dp6
S'hv|spread|igd|frontier#|valid#'
p7
(I0
I0
I0
I0
I0
tp8
sS'timestamp'
p9
F0.04674983024597168
sS'evals'
p10
I100
sS'gen'
p11
I0
sa(dp12
g7
(F0.176
F0.592
F0.154
I97
I100
tp13
sg9
F11.419297933578491
sg10
I100
sg11
I100
sa(dp14
g7
(F0.18
F0.643
F0.161
I98
I100
tp15
sg9
F22.909191846847534
sg10
I100
sg11
I200
sa(dp16
g7
(F0.182
F0.595
F0.182
I99
I100
tp17
sg9
F34.39607882499695
sg10
I100
sg11
I300
sa(dp18
g7
(F0.183
F0.627
F0.18
I99
I100
tp19
sg9
F45.81995487213135
sg10
I100
sg11
I400
sa(dp20
g7
(F0.184
F0.659
F0.179
I98
I100
tp21
sg9
F57.31002688407898
sg10
I100
sg11
I500
satp22
Rp23
(dp24
S'log_header'
p25
I01
sS'header'
p26
(S'gen'
p27
S'evals'
p28
g7
S'timestamp'
p29
tp30
sS'columns_len'
p31
(lp32
I3
aI5
aI30
aI9
asS'buffindex'
p33
I6
sS'chapters'
p34
ccollections
defaultdict
p35
(g3
tp36
Rp37
sbsS'SPEA2-SIP'
p38
g2
(g3
g4
(lp39
(dp40
g7
g8
sg9
F0.0484011173248291
sg10
I100
sg11
I0
sa(dp41
g7
(F0.164
F0.597
F0.15
I100
I100
tp42
sg9
F73.27248907089233
sg10
I100
sg11
I100
sa(dp43
g7
(F0.167
F0.679
F0.15
I100
I100
tp44
sg9
F157.85149598121643
sg10
I100
sg11
I200
sa(dp45
g7
(F0.17
F0.632
F0.164
I100
I100
tp46
sg9
F241.84840297698975
sg10
I100
sg11
I300
sa(dp47
g7
(F0.171
F0.674
F0.168
I100
I100
tp48
sg9
F325.2920229434967
sg10
I100
sg11
I400
sa(dp49
g7
(F0.172
F0.577
F0.185
I100
I100
tp50
sg9
F408.41728615760803
sg10
I100
sg11
I500
satp51
Rp52
(dp53
g25
I01
sg26
g30
sg31
(lp54
I3
aI5
aI31
aI9
asg33
I6
sg34
g35
(g3
tp55
Rp56
sbsS'SPEA2'
p57
g2
(g3
g4
(lp58
(dp59
g7
g8
sg9
F0.06677913665771484
sg10
I100
sg11
I0
sa(dp60
g7
g8
sg9
F133.963947057724
sg10
I100
sg11
I100
sa(dp61
g7
g8
sg9
F278.1895041465759
sg10
I100
sg11
I200
sa(dp62
g7
g8
sg9
F426.00069999694824
sg10
I100
sg11
I300
sa(dp63
g7
g8
sg9
F581.6311719417572
sg10
I100
sg11
I400
sa(dp64
g7
g8
sg9
F733.3958580493927
sg10
I100
sg11
I500
satp65
Rp66
(dp67
g25
I01
sg26
g30
sg31
(lp68
I3
aI5
aI30
aI9
asg33
I6
sg34
g35
(g3
tp69
Rp70
sbsS'IBEA'
p71
g2
(g3
g4
(lp72
(dp73
g7
g8
sg9
F0.06649899482727051
sg10
I100
sg11
I0
sa(dp74
g7
g8
sg9
F11.122636079788208
sg10
I100
sg11
I100
sa(dp75
g7
g8
sg9
F22.265415906906128
sg10
I100
sg11
I200
sa(dp76
g7
g8
sg9
F33.468343019485474
sg10
I100
sg11
I300
sa(dp77
g7
g8
sg9
F44.71436095237732
sg10
I100
sg11
I400
sa(dp78
g7
g8
sg9
F55.988028049468994
sg10
I100
sg11
I500
satp79
Rp80
(dp81
g25
I01
sg26
g30
sg31
(lp82
I3
aI5
aI30
aI9
asg33
I6
sg34
g35
(g3
tp83
Rp84
sbsS'NSGA2'
p85
g2
(g3
g4
(lp86
(dp87
g7
g8
sg9
F0.06695103645324707
sg10
I100
sg11
I0
sa(dp88
g7
g8
sg9
F14.223932981491089
sg10
I100
sg11
I100
sa(dp89
g7
g8
sg9
F28.401700019836426
sg10
I100
sg11
I200
sa(dp90
g7
g8
sg9
F42.600834131240845
sg10
I100
sg11
I300
sa(dp91
g7
g8
sg9
F56.7560760974884
sg10
I100
sg11
I400
sa(dp92
g7
g8
sg9
F70.90613603591919
sg10
I100
sg11
I500
satp93
Rp94
(dp95
g25
I01
sg26
g30
sg31
(lp96
I3
aI5
aI30
aI9
asg33
I6
sg34
g35
(g3
tp97
Rp98
sbsS'IBEA-SIP'
p99
g2
(g3
g4
(lp100
(dp101
g7
(F0.064
F2.245
F0.017
I1
I1
tp102
sg9
F0.05094099044799805
sg10
I100
sg11
I0
sa(dp103
g7
(F0.171
F0.626
F0.142
I81
I100
tp104
sg9
F9.441640138626099
sg10
I100
sg11
I100
sa(dp105
g7
(F0.174
F0.699
F0.147
I76
I100
tp106
sg9
F18.995398998260498
sg10
I100
sg11
I200
sa(dp107
g7
(F0.177
F0.696
F0.137
I78
I100
tp108
sg9
F28.536928176879883
sg10
I100
sg11
I300
sa(dp109
g7
(F0.182
F0.625
F0.137
I78
I100
tp110
sg9
F38.075592041015625
sg10
I100
sg11
I400
sa(dp111
g7
(F0.181
F0.642
F0.144
I79
I100
tp112
sg9
F47.71434712409973
sg10
I100
sg11
I500
satp113
Rp114
(dp115
g25
I01
sg26
g30
sg31
(lp116
I3
aI5
aI30
aI9
asg33
I6
sg34
g35
(g3
tp117
Rp118
sbs.