(dp0
S'NSGA2-SIP'
p1
ccopy_reg
_reconstructor
p2
(cdeap.tools.support
Logbook
p3
c__builtin__
list
p4
(lp5
(dp6
S'hv|spread|igd|frontier#|valid#'
p7
(F0.058
F2.273
F0.042
I1
I1
tp8
sS'timestamp'
p9
F0.04677700996398926
sS'evals'
p10
I100
sS'gen'
p11
I0
sa(dp12
g7
(F0.177
F0.631
F0.171
I98
I100
tp13
sg9
F10.633032083511353
sg10
I100
sg11
I100
sa(dp14
g7
(F0.179
F0.642
F0.181
I98
I100
tp15
sg9
F21.12265110015869
sg10
I100
sg11
I200
sa(dp16
g7
(F0.18
F0.606
F0.182
I97
I100
tp17
sg9
F31.58814811706543
sg10
I100
sg11
I300
sa(dp18
g7
(F0.182
F0.6
F0.17
I98
I100
tp19
sg9
F42.23920011520386
sg10
I100
sg11
I400
sa(dp20
g7
(F0.183
F0.697
F0.167
I98
I100
tp21
sg9
F52.82797694206238
sg10
I100
sg11
I500
satp22
Rp23
(dp24
S'log_header'
p25
I01
sS'header'
p26
(S'gen'
p27
S'evals'
p28
S'hv|spread|igd|frontier#|valid#'
p29
S'timestamp'
p30
tp31
sS'columns_len'
p32
(lp33
I3
aI5
aI30
aI9
asS'buffindex'
p34
I6
sS'chapters'
p35
ccollections
defaultdict
p36
(g3
tp37
Rp38
sbsS'SPEA2-SIP'
p39
g2
(g3
g4
(lp40
(dp41
g7
(I0
I0
I0
I0
I0
tp42
sg9
F0.044573068618774414
sg10
I100
sg11
I0
sa(dp43
g7
(F0.173
F0.629
F0.142
I100
I100
tp44
sg9
F65.0932309627533
sg10
I100
sg11
I100
sa(dp45
g7
(F0.179
F0.654
F0.17
I100
I100
tp46
sg9
F138.93312406539917
sg10
I100
sg11
I200
sa(dp47
g7
(F0.18
F0.617
F0.172
I100
I100
tp48
sg9
F214.35387206077576
sg10
I100
sg11
I300
sa(dp49
g7
(F0.18
F0.552
F0.178
I100
I100
tp50
sg9
F290.4895730018616
sg10
I100
sg11
I400
sa(dp51
g7
(F0.181
F0.655
F0.162
I100
I100
tp52
sg9
F363.5841691493988
sg10
I100
sg11
I500
satp53
Rp54
(dp55
g25
I01
sg26
g31
sg32
(lp56
I3
aI5
aI31
aI9
asg34
I6
sg35
g36
(g3
tp57
Rp58
sbsS'SPEA2'
p59
g2
(g3
g4
(lp60
(dp61
g7
g42
sg9
F0.06260895729064941
sg10
I100
sg11
I0
sa(dp62
g7
g42
sg9
F114.67054915428162
sg10
I100
sg11
I100
sa(dp63
g7
g42
sg9
F254.80122113227844
sg10
I100
sg11
I200
sa(dp64
g7
g42
sg9
F396.3534891605377
sg10
I100
sg11
I300
sa(dp65
g7
g42
sg9
F539.0113580226898
sg10
I100
sg11
I400
sa(dp66
g7
g42
sg9
F679.940024137497
sg10
I100
sg11
I500
satp67
Rp68
(dp69
g25
I01
sg26
g31
sg32
(lp70
I3
aI5
aI30
aI9
asg34
I6
sg35
g36
(g3
tp71
Rp72
sbsS'IBEA-PEN'
p73
g2
(g3
g4
(lp74
(dp75
g7
(F0.081
F0.938
F0.031
I4
I5
tp76
sg9
F0.12920284271240234
sg10
I100
sg11
I0
sa(dp77
g7
(F0.165
F0.669
F0.128
I36
I59
tp78
sg9
F13.796649932861328
sg10
I100
sg11
I100
sa(dp79
g7
(F0.176
F0.555
F0.144
I48
I79
tp80
sg9
F27.754567861557007
sg10
I100
sg11
I200
sa(dp81
g7
(F0.176
F0.687
F0.14
I54
I85
tp82
sg9
F41.555180072784424
sg10
I100
sg11
I300
sa(dp83
g7
(F0.172
F0.729
F0.08
I38
I59
tp84
sg9
F55.49027705192566
sg10
I100
sg11
I400
sa(dp85
g7
(F0.18
F0.754
F0.095
I49
I80
tp86
sg9
F69.53867292404175
sg10
I100
sg11
I500
satp87
Rp88
(dp89
g25
I01
sg26
g31
sg32
(lp90
I3
aI5
aI30
aI9
asg34
I6
sg35
g36
(g3
tp91
Rp92
sbsS'IBEA'
p93
g2
(g3
g4
(lp94
(dp95
g7
g42
sg9
F0.062319040298461914
sg10
I100
sg11
I0
sa(dp96
g7
g42
sg9
F10.336993932723999
sg10
I100
sg11
I100
sa(dp97
g7
g42
sg9
F20.825292110443115
sg10
I100
sg11
I200
sa(dp98
g7
g42
sg9
F31.414098024368286
sg10
I100
sg11
I300
sa(dp99
g7
g42
sg9
F42.013097047805786
sg10
I100
sg11
I400
sa(dp100
g7
g42
sg9
F52.47199296951294
sg10
I100
sg11
I500
satp101
Rp102
(dp103
g25
I01
sg26
g31
sg32
(lp104
I3
aI5
aI30
aI9
asg34
I6
sg35
g36
(g3
tp105
Rp106
sbsS'NSGA2'
p107
g2
(g3
g4
(lp108
(dp109
g7
g42
sg9
F0.06196403503417969
sg10
I100
sg11
I0
sa(dp110
g7
g42
sg9
F13.243268966674805
sg10
I100
sg11
I100
sa(dp111
g7
g42
sg9
F26.404623985290527
sg10
I100
sg11
I200
sa(dp112
g7
g42
sg9
F39.54518103599548
sg10
I100
sg11
I300
sa(dp113
g7
g42
sg9
F52.71703600883484
sg10
I100
sg11
I400
sa(dp114
g7
g42
sg9
F65.89865612983704
sg10
I100
sg11
I500
satp115
Rp116
(dp117
g25
I01
sg26
g31
sg32
(lp118
I3
aI5
aI30
aI9
asg34
I6
sg35
g36
(g3
tp119
Rp120
sbsS'IBEA-SIP'
p121
g2
(g3
g4
(lp122
(dp123
g7
(F0.065
F0.988
F0.047
I3
I3
tp124
sg9
F0.05032205581665039
sg10
I100
sg11
I0
sa(dp125
g7
(F0.171
F0.71
F0.168
I75
I100
tp126
sg9
F9.044605016708374
sg10
I100
sg11
I100
sa(dp127
g7
(F0.177
F0.719
F0.131
I82
I100
tp128
sg9
F17.85416603088379
sg10
I100
sg11
I200
sa(dp129
g7
(F0.176
F0.595
F0.165
I77
I100
tp130
sg9
F26.45201301574707
sg10
I100
sg11
I300
sa(dp131
g7
(F0.177
F0.737
F0.156
I74
I100
tp132
sg9
F35.188607931137085
sg10
I100
sg11
I400
sa(dp133
g7
(F0.18
F0.667
F0.178
I75
I100
tp134
sg9
F43.92799401283264
sg10
I100
sg11
I500
satp135
Rp136
(dp137
g25
I01
sg26
g31
sg32
(lp138
I3
aI5
aI30
aI9
asg34
I6
sg35
g36
(g3
tp139
Rp140
sbs.