(dp0
S'NSGA2-SIP'
p1
ccopy_reg
_reconstructor
p2
(cdeap.tools.support
Logbook
p3
c__builtin__
list
p4
(lp5
(dp6
S'hv|spread|igd|frontier#|valid#'
p7
(I0
I0
I0
I0
I0
tp8
sS'timestamp'
p9
F0.059068918228149414
sS'evals'
p10
I100
sS'gen'
p11
I0
sa(dp12
g7
(F0.173
F0.645
F0.179
I98
I100
tp13
sg9
F9.709628820419312
sg10
I100
sg11
I100
sa(dp14
g7
(F0.177
F0.557
F0.17
I98
I100
tp15
sg9
F19.483943939208984
sg10
I100
sg11
I200
sa(dp16
g7
(F0.179
F0.648
F0.184
I98
I100
tp17
sg9
F29.1250638961792
sg10
I100
sg11
I300
sa(dp18
g7
(F0.181
F0.691
F0.171
I98
I100
tp19
sg9
F38.85347890853882
sg10
I100
sg11
I400
sa(dp20
g7
(F0.181
F0.603
F0.177
I98
I100
tp21
sg9
F48.618523836135864
sg10
I100
sg11
I500
satp22
Rp23
(dp24
S'log_header'
p25
I01
sS'header'
p26
(S'gen'
p27
S'evals'
p28
S'hv|spread|igd|frontier#|valid#'
p29
S'timestamp'
p30
tp31
sS'columns_len'
p32
(lp33
I3
aI5
aI30
aI9
asS'buffindex'
p34
I6
sS'chapters'
p35
ccollections
defaultdict
p36
(g3
tp37
Rp38
sbsS'SPEA2-SIP'
p39
g2
(g3
g4
(lp40
(dp41
g7
(F0.068
F0.968
F0.033
I2
I2
tp42
sg9
F0.0620419979095459
sg10
I100
sg11
I0
sa(dp43
g7
(F0.164
F0.545
F0.169
I100
I100
tp44
sg9
F59.78298091888428
sg10
I100
sg11
I100
sa(dp45
g7
(F0.167
F0.631
F0.175
I100
I100
tp46
sg9
F127.95196795463562
sg10
I100
sg11
I200
sa(dp47
g7
(F0.177
F0.644
F0.166
I100
I100
tp48
sg9
F196.2494649887085
sg10
I100
sg11
I300
sa(dp49
g7
(F0.179
F0.618
F0.166
I100
I100
tp50
sg9
F265.0362169742584
sg10
I100
sg11
I400
sa(dp51
g7
(F0.181
F0.554
F0.151
I100
I100
tp52
sg9
F332.28849387168884
sg10
I100
sg11
I500
satp53
Rp54
(dp55
g25
I01
sg26
g31
sg32
(lp56
I3
aI5
aI31
aI9
asg34
I6
sg35
g36
(g3
tp57
Rp58
sbsS'SPEA2'
p59
g2
(g3
g4
(lp60
(dp61
g7
g8
sg9
F0.05984902381896973
sg10
I100
sg11
I0
sa(dp62
g7
g8
sg9
F107.18277311325073
sg10
I100
sg11
I100
sa(dp63
g7
g8
sg9
F237.60243701934814
sg10
I100
sg11
I200
sa(dp64
g7
g8
sg9
F370.41722106933594
sg10
I100
sg11
I300
sa(dp65
g7
g8
sg9
F506.71499013900757
sg10
I100
sg11
I400
sa(dp66
g7
g8
sg9
F639.2019879817963
sg10
I100
sg11
I500
satp67
Rp68
(dp69
g25
I01
sg26
g31
sg32
(lp70
I3
aI5
aI30
aI9
asg34
I6
sg35
g36
(g3
tp71
Rp72
sbsS'IBEA-PEN'
p73
g2
(g3
g4
(lp74
(dp75
g7
(F0.082
F0.948
F0.027
I4
I7
tp76
sg9
F0.17406606674194336
sg10
I100
sg11
I0
sa(dp77
g7
g8
sg9
F9.916722059249878
sg10
I100
sg11
I100
sa(dp78
g7
g8
sg9
F19.747305870056152
sg10
I100
sg11
I200
sa(dp79
g7
g8
sg9
F29.59340500831604
sg10
I100
sg11
I300
sa(dp80
g7
g8
sg9
F39.468181848526
sg10
I100
sg11
I400
sa(dp81
g7
g8
sg9
F49.32863092422485
sg10
I100
sg11
I500
satp82
Rp83
(dp84
g25
I01
sg26
g31
sg32
(lp85
I3
aI5
aI30
aI9
asg34
I6
sg35
g36
(g3
tp86
Rp87
sbsS'IBEA'
p88
g2
(g3
g4
(lp89
(dp90
g7
g8
sg9
F0.05686497688293457
sg10
I100
sg11
I0
sa(dp91
g7
g8
sg9
F9.487240076065063
sg10
I100
sg11
I100
sa(dp92
g7
g8
sg9
F19.0575749874115
sg10
I100
sg11
I200
sa(dp93
g7
g8
sg9
F28.759932041168213
sg10
I100
sg11
I300
sa(dp94
g7
g8
sg9
F38.509456157684326
sg10
I100
sg11
I400
sa(dp95
g7
g8
sg9
F48.1640830039978
sg10
I100
sg11
I500
satp96
Rp97
(dp98
g25
I01
sg26
g31
sg32
(lp99
I3
aI5
aI30
aI9
asg34
I6
sg35
g36
(g3
tp100
Rp101
sbsS'NSGA2'
p102
g2
(g3
g4
(lp103
(dp104
g7
g8
sg9
F0.0569760799407959
sg10
I100
sg11
I0
sa(dp105
g7
g8
sg9
F12.291699171066284
sg10
I100
sg11
I100
sa(dp106
g7
g8
sg9
F24.477782011032104
sg10
I100
sg11
I200
sa(dp107
g7
g8
sg9
F36.70311713218689
sg10
I100
sg11
I300
sa(dp108
g7
g8
sg9
F48.89589214324951
sg10
I100
sg11
I400
sa(dp109
g7
g8
sg9
F61.06040716171265
sg10
I100
sg11
I500
satp110
Rp111
(dp112
g25
I01
sg26
g31
sg32
(lp113
I3
aI5
aI30
aI9
asg34
I6
sg35
g36
(g3
tp114
Rp115
sbsS'IBEA-SIP'
p116
g2
(g3
g4
(lp117
(dp118
g7
g8
sg9
F0.04077911376953125
sg10
I100
sg11
I0
sa(dp119
g7
(F0.178
F0.69
F0.143
I84
I100
tp120
sg9
F8.136132955551147
sg10
I100
sg11
I100
sa(dp121
g7
(F0.185
F0.699
F0.147
I82
I100
tp122
sg9
F16.44006609916687
sg10
I100
sg11
I200
sa(dp123
g7
(F0.182
F0.602
F0.13
I77
I100
tp124
sg9
F24.59069013595581
sg10
I100
sg11
I300
sa(dp125
g7
(F0.184
F0.676
F0.15
I77
I100
tp126
sg9
F32.768707036972046
sg10
I100
sg11
I400
sa(dp127
g7
(F0.183
F0.679
F0.12
I69
I100
tp128
sg9
F40.955034017562866
sg10
I100
sg11
I500
satp129
Rp130
(dp131
g25
I01
sg26
g31
sg32
(lp132
I3
aI5
aI30
aI9
asg34
I6
sg35
g36
(g3
tp133
Rp134
sbs.