(dp0
S'NSGA2-SIP'
p1
ccopy_reg
_reconstructor
p2
(cdeap.tools.support
Logbook
p3
c__builtin__
list
p4
(lp5
(dp6
S'hv|spread|igd|frontier#|valid#'
p7
(F0.065
F0.88
F0.03
I1
I1
tp8
sS'timestamp'
p9
F0.04969310760498047
sS'evals'
p10
I100
sS'gen'
p11
I0
sa(dp12
g7
(F0.172
F0.628
F0.176
I99
I100
tp13
sg9
F11.661964893341064
sg10
I100
sg11
I100
sa(dp14
g7
(F0.176
F0.56
F0.169
I98
I100
tp15
sg9
F23.44461989402771
sg10
I100
sg11
I200
sa(dp16
g7
(F0.179
F0.641
F0.181
I99
I100
tp17
sg9
F35.21197199821472
sg10
I100
sg11
I300
sa(dp18
g7
(F0.179
F0.566
F0.187
I99
I100
tp19
sg9
F46.865159034729004
sg10
I100
sg11
I400
sa(dp20
g7
(F0.183
F0.642
F0.178
I97
I100
tp21
sg9
F58.6236789226532
sg10
I100
sg11
I500
satp22
Rp23
(dp24
S'log_header'
p25
I01
sS'header'
p26
(S'gen'
p27
S'evals'
p28
S'hv|spread|igd|frontier#|valid#'
p29
S'timestamp'
p30
tp31
sS'columns_len'
p32
(lp33
I3
aI5
aI30
aI9
asS'buffindex'
p34
I6
sS'chapters'
p35
ccollections
defaultdict
p36
(g3
tp37
Rp38
sbsS'SPEA2-SIP'
p39
g2
(g3
g4
(lp40
(dp41
g7
(I0
I0
I0
I0
I0
tp42
sg9
F0.047950029373168945
sg10
I100
sg11
I0
sa(dp43
g7
(F0.172
F0.635
F0.155
I100
I100
tp44
sg9
F67.37820792198181
sg10
I100
sg11
I100
sa(dp45
g7
(F0.175
F0.611
F0.165
I100
I100
tp46
sg9
F149.23302602767944
sg10
I100
sg11
I200
sa(dp47
g7
(F0.178
F0.617
F0.174
I100
I100
tp48
sg9
F233.73272109031677
sg10
I100
sg11
I300
sa(dp49
g7
(F0.178
F0.651
F0.163
I100
I100
tp50
sg9
F318.23668789863586
sg10
I100
sg11
I400
sa(dp51
g7
(F0.178
F0.601
F0.169
I100
I100
tp52
sg9
F403.5430760383606
sg10
I100
sg11
I500
satp53
Rp54
(dp55
g25
I01
sg26
g31
sg32
(lp56
I3
aI5
aI31
aI9
asg34
I6
sg35
g36
(g3
tp57
Rp58
sbsS'SPEA2'
p59
g2
(g3
g4
(lp60
(dp61
g7
g42
sg9
F0.06697297096252441
sg10
I100
sg11
I0
sa(dp62
g7
g42
sg9
F133.7452449798584
sg10
I100
sg11
I100
sa(dp63
g7
g42
sg9
F301.4459390640259
sg10
I100
sg11
I200
sa(dp64
g7
g42
sg9
F468.45296001434326
sg10
I100
sg11
I300
sa(dp65
g7
g42
sg9
F635.7625250816345
sg10
I100
sg11
I400
sa(dp66
g7
g42
sg9
F812.9540898799896
sg10
I100
sg11
I500
satp67
Rp68
(dp69
g25
I01
sg26
g31
sg32
(lp70
I3
aI5
aI30
aI9
asg34
I6
sg35
g36
(g3
tp71
Rp72
sbsS'IBEA-PEN'
p73
g2
(g3
g4
(lp74
(dp75
g7
(F0.075
F0.989
F0.04
I4
I4
tp76
sg9
F0.17987990379333496
sg10
I100
sg11
I0
sa(dp77
g7
g42
sg9
F11.468338012695312
sg10
I100
sg11
I100
sa(dp78
g7
g42
sg9
F22.777400970458984
sg10
I100
sg11
I200
sa(dp79
g7
g42
sg9
F34.173933029174805
sg10
I100
sg11
I300
sa(dp80
g7
g42
sg9
F45.543272972106934
sg10
I100
sg11
I400
sa(dp81
g7
g42
sg9
F57.021034955978394
sg10
I100
sg11
I500
satp82
Rp83
(dp84
g25
I01
sg26
g31
sg32
(lp85
I3
aI5
aI30
aI9
asg34
I6
sg35
g36
(g3
tp86
Rp87
sbsS'IBEA'
p88
g2
(g3
g4
(lp89
(dp90
g7
g42
sg9
F0.06769990921020508
sg10
I100
sg11
I0
sa(dp91
g7
g42
sg9
F10.925528049468994
sg10
I100
sg11
I100
sa(dp92
g7
g42
sg9
F21.959707021713257
sg10
I100
sg11
I200
sa(dp93
g7
g42
sg9
F33.020742893218994
sg10
I100
sg11
I300
sa(dp94
g7
g42
sg9
F44.141298055648804
sg10
I100
sg11
I400
sa(dp95
g7
g42
sg9
F55.3898389339447
sg10
I100
sg11
I500
satp96
Rp97
(dp98
g25
I01
sg26
g31
sg32
(lp99
I3
aI5
aI30
aI9
asg34
I6
sg35
g36
(g3
tp100
Rp101
sbsS'NSGA2'
p102
g2
(g3
g4
(lp103
(dp104
g7
g42
sg9
F0.06878495216369629
sg10
I100
sg11
I0
sa(dp105
g7
g42
sg9
F14.909664869308472
sg10
I100
sg11
I100
sa(dp106
g7
g42
sg9
F29.6907639503479
sg10
I100
sg11
I200
sa(dp107
g7
g42
sg9
F44.51431393623352
sg10
I100
sg11
I300
sa(dp108
g7
g42
sg9
F59.28665494918823
sg10
I100
sg11
I400
sa(dp109
g7
g42
sg9
F74.05751895904541
sg10
I100
sg11
I500
satp110
Rp111
(dp112
g25
I01
sg26
g31
sg32
(lp113
I3
aI5
aI30
aI9
asg34
I6
sg35
g36
(g3
tp114
Rp115
sbsS'IBEA-SIP'
p116
g2
(g3
g4
(lp117
(dp118
g7
g42
sg9
F0.04742884635925293
sg10
I100
sg11
I0
sa(dp119
g7
(F0.173
F0.679
F0.106
I77
I100
tp120
sg9
F9.378304958343506
sg10
I100
sg11
I100
sa(dp121
g7
(F0.177
F0.681
F0.146
I79
I100
tp122
sg9
F18.97061586380005
sg10
I100
sg11
I200
sa(dp123
g7
(F0.18
F0.664
F0.15
I76
I100
tp124
sg9
F28.44065284729004
sg10
I100
sg11
I300
sa(dp125
g7
(F0.181
F0.613
F0.108
I78
I100
tp126
sg9
F37.716423988342285
sg10
I100
sg11
I400
sa(dp127
g7
(F0.183
F0.61
F0.138
I83
I100
tp128
sg9
F47.0737190246582
sg10
I100
sg11
I500
satp129
Rp130
(dp131
g25
I01
sg26
g31
sg32
(lp132
I3
aI5
aI30
aI9
asg34
I6
sg35
g36
(g3
tp133
Rp134
sbs.