(dp0
S'NSGA2-SIP'
p1
ccopy_reg
_reconstructor
p2
(cdeap.tools.support
Logbook
p3
c__builtin__
list
p4
(lp5
(dp6
S'hv|spread|igd|frontier#|valid#'
p7
(I0
I0
I0
I0
I0
tp8
sS'timestamp'
p9
F0.0438840389251709
sS'evals'
p10
I100
sS'gen'
p11
I0
sa(dp12
g7
(F0.17
F0.648
F0.17
I100
I100
tp13
sg9
F10.705508947372437
sg10
I100
sg11
I100
sa(dp14
g7
(F0.174
F0.653
F0.172
I99
I100
tp15
sg9
F21.13723587989807
sg10
I100
sg11
I200
sa(dp16
g7
(F0.181
F0.626
F0.165
I98
I100
tp17
sg9
F31.256782054901123
sg10
I100
sg11
I300
sa(dp18
g7
(F0.183
F0.677
F0.176
I98
I100
tp19
sg9
F41.664448976516724
sg10
I100
sg11
I400
sa(dp20
g7
(F0.184
F0.568
F0.181
I98
I100
tp21
sg9
F52.143210887908936
sg10
I100
sg11
I500
satp22
Rp23
(dp24
S'log_header'
p25
I01
sS'header'
p26
(S'gen'
p27
S'evals'
p28
S'hv|spread|igd|frontier#|valid#'
p29
S'timestamp'
p30
tp31
sS'columns_len'
p32
(lp33
I3
aI5
aI30
aI9
asS'buffindex'
p34
I6
sS'chapters'
p35
ccollections
defaultdict
p36
(g3
tp37
Rp38
sbsS'SPEA2-SIP'
p39
g2
(g3
g4
(lp40
(dp41
g7
(F0.066
F2.201
F0.026
I1
I1
tp42
sg9
F0.04603004455566406
sg10
I100
sg11
I0
sa(dp43
g7
(F0.173
F0.696
F0.124
I100
I100
tp44
sg9
F65.56089806556702
sg10
I100
sg11
I100
sa(dp45
g7
(F0.177
F0.584
F0.13
I100
I100
tp46
sg9
F140.9598569869995
sg10
I100
sg11
I200
sa(dp47
g7
(F0.18
F0.568
F0.158
I100
I100
tp48
sg9
F217.82047700881958
sg10
I100
sg11
I300
sa(dp49
g7
(F0.182
F0.626
F0.149
I100
I100
tp50
sg9
F293.5297100543976
sg10
I100
sg11
I400
sa(dp51
g7
(F0.183
F0.633
F0.155
I100
I100
tp52
sg9
F370.0966429710388
sg10
I100
sg11
I500
satp53
Rp54
(dp55
g25
I01
sg26
g31
sg32
(lp56
I3
aI5
aI31
aI9
asg34
I6
sg35
g36
(g3
tp57
Rp58
sbsS'SPEA2'
p59
g2
(g3
g4
(lp60
(dp61
g7
g8
sg9
F0.061630964279174805
sg10
I100
sg11
I0
sa(dp62
g7
g8
sg9
F113.76066207885742
sg10
I100
sg11
I100
sa(dp63
g7
g8
sg9
F249.0265018939972
sg10
I100
sg11
I200
sa(dp64
g7
g8
sg9
F387.36594104766846
sg10
I100
sg11
I300
sa(dp65
g7
g8
sg9
F536.4427790641785
sg10
I100
sg11
I400
sa(dp66
g7
g8
sg9
F683.6641640663147
sg10
I100
sg11
I500
satp67
Rp68
(dp69
g25
I01
sg26
g31
sg32
(lp70
I3
aI5
aI30
aI9
asg34
I6
sg35
g36
(g3
tp71
Rp72
sbsS'IBEA-PEN'
p73
g2
(g3
g4
(lp74
(dp75
g7
(F0.075
F0.995
F0.035
I6
I6
tp76
sg9
F0.13159680366516113
sg10
I100
sg11
I0
sa(dp77
g7
(F0.171
F0.686
F0.104
I52
I70
tp78
sg9
F13.669226884841919
sg10
I100
sg11
I100
sa(dp79
g7
(F0.181
F0.651
F0.122
I54
I80
tp80
sg9
F27.524083852767944
sg10
I100
sg11
I200
sa(dp81
g7
(F0.183
F0.704
F0.127
I57
I81
tp82
sg9
F41.39086198806763
sg10
I100
sg11
I300
sa(dp83
g7
(F0.183
F0.686
F0.151
I55
I78
tp84
sg9
F55.35809683799744
sg10
I100
sg11
I400
sa(dp85
g7
(F0.179
F0.648
F0.103
I43
I74
tp86
sg9
F69.21971082687378
sg10
I100
sg11
I500
satp87
Rp88
(dp89
g25
I01
sg26
g31
sg32
(lp90
I3
aI5
aI30
aI9
asg34
I6
sg35
g36
(g3
tp91
Rp92
sbsS'IBEA'
p93
g2
(g3
g4
(lp94
(dp95
g7
g8
sg9
F0.0617520809173584
sg10
I100
sg11
I0
sa(dp96
g7
g8
sg9
F10.11508297920227
sg10
I100
sg11
I100
sa(dp97
g7
g8
sg9
F20.10417890548706
sg10
I100
sg11
I200
sa(dp98
g7
g8
sg9
F30.217082023620605
sg10
I100
sg11
I300
sa(dp99
g7
g8
sg9
F40.38033199310303
sg10
I100
sg11
I400
sa(dp100
g7
g8
sg9
F50.62501907348633
sg10
I100
sg11
I500
satp101
Rp102
(dp103
g25
I01
sg26
g31
sg32
(lp104
I3
aI5
aI30
aI9
asg34
I6
sg35
g36
(g3
tp105
Rp106
sbsS'NSGA2'
p107
g2
(g3
g4
(lp108
(dp109
g7
g8
sg9
F0.06272292137145996
sg10
I100
sg11
I0
sa(dp110
g7
g8
sg9
F13.116734027862549
sg10
I100
sg11
I100
sa(dp111
g7
g8
sg9
F26.138352870941162
sg10
I100
sg11
I200
sa(dp112
g7
g8
sg9
F39.172691822052
sg10
I100
sg11
I300
sa(dp113
g7
g8
sg9
F52.18232083320618
sg10
I100
sg11
I400
sa(dp114
g7
g8
sg9
F65.22159695625305
sg10
I100
sg11
I500
satp115
Rp116
(dp117
g25
I01
sg26
g31
sg32
(lp118
I3
aI5
aI30
aI9
asg34
I6
sg35
g36
(g3
tp119
Rp120
sbsS'IBEA-SIP'
p121
g2
(g3
g4
(lp122
(dp123
g7
g8
sg9
F0.043955087661743164
sg10
I100
sg11
I0
sa(dp124
g7
(F0.175
F0.647
F0.152
I79
I100
tp125
sg9
F8.739474058151245
sg10
I100
sg11
I100
sa(dp126
g7
(F0.178
F0.656
F0.164
I81
I100
tp127
sg9
F17.524110078811646
sg10
I100
sg11
I200
sa(dp128
g7
(F0.181
F0.735
F0.15
I77
I100
tp129
sg9
F26.36166214942932
sg10
I100
sg11
I300
sa(dp130
g7
(F0.182
F0.591
F0.146
I78
I100
tp131
sg9
F35.11766600608826
sg10
I100
sg11
I400
sa(dp132
g7
(F0.182
F0.692
F0.129
I80
I100
tp133
sg9
F43.84671711921692
sg10
I100
sg11
I500
satp134
Rp135
(dp136
g25
I01
sg26
g31
sg32
(lp137
I3
aI5
aI30
aI9
asg34
I6
sg35
g36
(g3
tp138
Rp139
sbs.