(dp0
S'NSGA2-SIP'
p1
ccopy_reg
_reconstructor
p2
(cdeap.tools.support
Logbook
p3
c__builtin__
list
p4
(lp5
(dp6
S'hv|spread|igd|frontier#|valid#'
p7
(I0
I0
I0
I0
I0
tp8
sS'timestamp'
p9
F0.04657912254333496
sS'evals'
p10
I100
sS'gen'
p11
I0
sa(dp12
g7
(F0.175
F0.628
F0.172
I99
I100
tp13
sg9
F11.382038116455078
sg10
I100
sg11
I100
sa(dp14
g7
(F0.179
F0.628
F0.17
I98
I100
tp15
sg9
F22.481709003448486
sg10
I100
sg11
I200
sa(dp16
g7
(F0.182
F0.61
F0.179
I99
I100
tp17
sg9
F33.73223900794983
sg10
I100
sg11
I300
sa(dp18
g7
(F0.182
F0.613
F0.182
I99
I100
tp19
sg9
F45.01918601989746
sg10
I100
sg11
I400
sa(dp20
g7
(F0.183
F0.548
F0.185
I97
I100
tp21
sg9
F56.22674202919006
sg10
I100
sg11
I500
satp22
Rp23
(dp24
S'log_header'
p25
I01
sS'header'
p26
(S'gen'
p27
S'evals'
p28
S'hv|spread|igd|frontier#|valid#'
p29
S'timestamp'
p30
tp31
sS'columns_len'
p32
(lp33
I3
aI5
aI30
aI9
asS'buffindex'
p34
I6
sS'chapters'
p35
ccollections
defaultdict
p36
(g3
tp37
Rp38
sbsS'SPEA2-SIP'
p39
g2
(g3
g4
(lp40
(dp41
g7
(F0.075
F0.958
F0.03
I2
I2
tp42
sg9
F0.050935983657836914
sg10
I100
sg11
I0
sa(dp43
g7
(F0.168
F0.638
F0.14
I100
I100
tp44
sg9
F70.4243791103363
sg10
I100
sg11
I100
sa(dp45
g7
(F0.173
F0.585
F0.157
I100
I100
tp46
sg9
F153.97486519813538
sg10
I100
sg11
I200
sa(dp47
g7
(F0.173
F0.602
F0.148
I100
I100
tp48
sg9
F235.08491706848145
sg10
I100
sg11
I300
sa(dp49
g7
(F0.176
F0.586
F0.175
I100
I100
tp50
sg9
F315.9579291343689
sg10
I100
sg11
I400
sa(dp51
g7
(F0.177
F0.642
F0.163
I100
I100
tp52
sg9
F396.6625270843506
sg10
I100
sg11
I500
satp53
Rp54
(dp55
g25
I01
sg26
g31
sg32
(lp56
I3
aI5
aI31
aI9
asg34
I6
sg35
g36
(g3
tp57
Rp58
sbsS'SPEA2'
p59
g2
(g3
g4
(lp60
(dp61
g7
g8
sg9
F0.06566286087036133
sg10
I100
sg11
I0
sa(dp62
g7
g8
sg9
F123.04566788673401
sg10
I100
sg11
I100
sa(dp63
g7
g8
sg9
F275.6318700313568
sg10
I100
sg11
I200
sa(dp64
g7
g8
sg9
F431.100793838501
sg10
I100
sg11
I300
sa(dp65
g7
g8
sg9
F590.5630388259888
sg10
I100
sg11
I400
sa(dp66
g7
g8
sg9
F748.876394033432
sg10
I100
sg11
I500
satp67
Rp68
(dp69
g25
I01
sg26
g31
sg32
(lp70
I3
aI5
aI30
aI9
asg34
I6
sg35
g36
(g3
tp71
Rp72
sbsS'IBEA-PEN'
p73
g2
(g3
g4
(lp74
(dp75
g7
(F0.08
F0.938
F0.045
I3
I3
tp76
sg9
F0.1339712142944336
sg10
I100
sg11
I0
sa(dp77
g7
(F0.175
F0.697
F0.163
I60
I82
tp78
sg9
F14.62418508529663
sg10
I100
sg11
I100
sa(dp79
g7
(F0.185
F0.648
F0.129
I55
I80
tp80
sg9
F29.269170999526978
sg10
I100
sg11
I200
sa(dp81
g7
(F0.182
F0.636
F0.095
I44
I66
tp82
sg9
F43.83042001724243
sg10
I100
sg11
I300
sa(dp83
g7
(F0.183
F0.566
F0.107
I61
I83
tp84
sg9
F58.46150803565979
sg10
I100
sg11
I400
sa(dp85
g7
(F0.175
F0.671
F0.091
I48
I65
tp86
sg9
F73.09202218055725
sg10
I100
sg11
I500
satp87
Rp88
(dp89
g25
I01
sg26
g31
sg32
(lp90
I3
aI5
aI30
aI9
asg34
I6
sg35
g36
(g3
tp91
Rp92
sbsS'IBEA'
p93
g2
(g3
g4
(lp94
(dp95
g7
g8
sg9
F0.06485199928283691
sg10
I100
sg11
I0
sa(dp96
g7
g8
sg9
F10.677145004272461
sg10
I100
sg11
I100
sa(dp97
g7
g8
sg9
F21.382965803146362
sg10
I100
sg11
I200
sa(dp98
g7
g8
sg9
F32.091646909713745
sg10
I100
sg11
I300
sa(dp99
g7
g8
sg9
F42.895325899124146
sg10
I100
sg11
I400
sa(dp100
g7
g8
sg9
F53.76963186264038
sg10
I100
sg11
I500
satp101
Rp102
(dp103
g25
I01
sg26
g31
sg32
(lp104
I3
aI5
aI30
aI9
asg34
I6
sg35
g36
(g3
tp105
Rp106
sbsS'NSGA2'
p107
g2
(g3
g4
(lp108
(dp109
g7
g8
sg9
F0.06484603881835938
sg10
I100
sg11
I0
sa(dp110
g7
g8
sg9
F13.835292100906372
sg10
I100
sg11
I100
sa(dp111
g7
g8
sg9
F27.589489221572876
sg10
I100
sg11
I200
sa(dp112
g7
g8
sg9
F41.3648521900177
sg10
I100
sg11
I300
sa(dp113
g7
g8
sg9
F55.08344602584839
sg10
I100
sg11
I400
sa(dp114
g7
g8
sg9
F68.78729701042175
sg10
I100
sg11
I500
satp115
Rp116
(dp117
g25
I01
sg26
g31
sg32
(lp118
I3
aI5
aI30
aI9
asg34
I6
sg35
g36
(g3
tp119
Rp120
sbsS'IBEA-SIP'
p121
g2
(g3
g4
(lp122
(dp123
g7
g8
sg9
F0.046823978424072266
sg10
I100
sg11
I0
sa(dp124
g7
(F0.174
F0.715
F0.134
I84
I100
tp125
sg9
F9.351029872894287
sg10
I100
sg11
I100
sa(dp126
g7
(F0.176
F0.581
F0.141
I76
I100
tp127
sg9
F18.765460968017578
sg10
I100
sg11
I200
sa(dp128
g7
(F0.181
F0.625
F0.164
I72
I100
tp129
sg9
F27.907572031021118
sg10
I100
sg11
I300
sa(dp130
g7
(F0.181
F0.641
F0.166
I74
I100
tp131
sg9
F37.15877604484558
sg10
I100
sg11
I400
sa(dp132
g7
(F0.183
F0.705
F0.139
I78
I100
tp133
sg9
F46.43462085723877
sg10
I100
sg11
I500
satp134
Rp135
(dp136
g25
I01
sg26
g31
sg32
(lp137
I3
aI5
aI30
aI9
asg34
I6
sg35
g36
(g3
tp138
Rp139
sbs.