(dp0
S'NSGA2-SIP'
p1
ccopy_reg
_reconstructor
p2
(cdeap.tools.support
Logbook
p3
c__builtin__
list
p4
(lp5
(dp6
S'hv|spread|igd|frontier#|valid#'
p7
(F0.062
F1.18
F0.035
I1
I1
tp8
sS'timestamp'
p9
F0.050084829330444336
sS'evals'
p10
I100
sS'gen'
p11
I0
sa(dp12
g7
(F0.173
F0.618
F0.157
I100
I100
tp13
sg9
F12.139935970306396
sg10
I100
sg11
I100
sa(dp14
g7
(F0.178
F0.582
F0.173
I97
I100
tp15
sg9
F24.069839000701904
sg10
I100
sg11
I200
sa(dp16
g7
(F0.182
F0.59
F0.179
I99
I100
tp17
sg9
F35.88994097709656
sg10
I100
sg11
I300
sa(dp18
g7
(F0.184
F0.572
F0.176
I99
I100
tp19
sg9
F47.77333378791809
sg10
I100
sg11
I400
sa(dp20
g7
(F0.185
F0.634
F0.18
I99
I100
tp21
sg9
F59.53199791908264
sg10
I100
sg11
I500
satp22
Rp23
(dp24
S'log_header'
p25
I01
sS'header'
p26
(S'gen'
p27
S'evals'
p28
S'hv|spread|igd|frontier#|valid#'
p29
S'timestamp'
p30
tp31
sS'columns_len'
p32
(lp33
I3
aI5
aI31
aI9
asS'buffindex'
p34
I6
sS'chapters'
p35
ccollections
defaultdict
p36
(g3
tp37
Rp38
sbsS'SPEA2-SIP'
p39
g2
(g3
g4
(lp40
(dp41
g7
(F0.052
F2.322
F0.058
I1
I1
tp42
sg9
F0.0502171516418457
sg10
I100
sg11
I0
sa(dp43
g7
(F0.173
F0.628
F0.17
I100
I100
tp44
sg9
F69.86734700202942
sg10
I100
sg11
I100
sa(dp45
g7
(F0.176
F0.684
F0.177
I100
I100
tp46
sg9
F155.59014916419983
sg10
I100
sg11
I200
sa(dp47
g7
(F0.177
F0.617
F0.172
I100
I100
tp48
sg9
F239.43420100212097
sg10
I100
sg11
I300
sa(dp49
g7
(F0.179
F0.599
F0.166
I100
I100
tp50
sg9
F322.73648500442505
sg10
I100
sg11
I400
sa(dp51
g7
(F0.182
F0.639
F0.173
I100
I100
tp52
sg9
F406.4125690460205
sg10
I100
sg11
I500
satp53
Rp54
(dp55
g25
I01
sg26
g31
sg32
(lp56
I3
aI5
aI31
aI9
asg34
I6
sg35
g36
(g3
tp57
Rp58
sbsS'SPEA2'
p59
g2
(g3
g4
(lp60
(dp61
g7
(I0
I0
I0
I0
I0
tp62
sg9
F0.06783103942871094
sg10
I100
sg11
I0
sa(dp63
g7
g62
sg9
F114.9325020313263
sg10
I100
sg11
I100
sa(dp64
g7
g62
sg9
F256.72930002212524
sg10
I100
sg11
I200
sa(dp65
g7
g62
sg9
F405.000195980072
sg10
I100
sg11
I300
sa(dp66
g7
g62
sg9
F562.3574950695038
sg10
I100
sg11
I400
sa(dp67
g7
g62
sg9
F713.0736680030823
sg10
I100
sg11
I500
satp68
Rp69
(dp70
g25
I01
sg26
g31
sg32
(lp71
I3
aI5
aI30
aI9
asg34
I6
sg35
g36
(g3
tp72
Rp73
sbsS'IBEA-PEN'
p74
g2
(g3
g4
(lp75
(dp76
g7
(F0.09
F0.884
F0.037
I3
I3
tp77
sg9
F0.1791219711303711
sg10
I100
sg11
I0
sa(dp78
g7
g62
sg9
F11.665009021759033
sg10
I100
sg11
I100
sa(dp79
g7
g62
sg9
F23.197134971618652
sg10
I100
sg11
I200
sa(dp80
g7
g62
sg9
F34.73813605308533
sg10
I100
sg11
I300
sa(dp81
g7
g62
sg9
F46.17043685913086
sg10
I100
sg11
I400
sa(dp82
g7
g62
sg9
F57.586824893951416
sg10
I100
sg11
I500
satp83
Rp84
(dp85
g25
I01
sg26
g31
sg32
(lp86
I3
aI5
aI30
aI9
asg34
I6
sg35
g36
(g3
tp87
Rp88
sbsS'IBEA'
p89
g2
(g3
g4
(lp90
(dp91
g7
g62
sg9
F0.06821393966674805
sg10
I100
sg11
I0
sa(dp92
g7
g62
sg9
F11.03695297241211
sg10
I100
sg11
I100
sa(dp93
g7
g62
sg9
F22.064499139785767
sg10
I100
sg11
I200
sa(dp94
g7
g62
sg9
F33.16223907470703
sg10
I100
sg11
I300
sa(dp95
g7
g62
sg9
F44.24549412727356
sg10
I100
sg11
I400
sa(dp96
g7
g62
sg9
F55.48850703239441
sg10
I100
sg11
I500
satp97
Rp98
(dp99
g25
I01
sg26
g31
sg32
(lp100
I3
aI5
aI30
aI9
asg34
I6
sg35
g36
(g3
tp101
Rp102
sbsS'NSGA2'
p103
g2
(g3
g4
(lp104
(dp105
g7
g62
sg9
F0.06903386116027832
sg10
I100
sg11
I0
sa(dp106
g7
g62
sg9
F15.236739873886108
sg10
I100
sg11
I100
sa(dp107
g7
g62
sg9
F30.337533950805664
sg10
I100
sg11
I200
sa(dp108
g7
g62
sg9
F45.38746094703674
sg10
I100
sg11
I300
sa(dp109
g7
g62
sg9
F60.428699016571045
sg10
I100
sg11
I400
sa(dp110
g7
g62
sg9
F75.48640298843384
sg10
I100
sg11
I500
satp111
Rp112
(dp113
g25
I01
sg26
g31
sg32
(lp114
I3
aI5
aI30
aI9
asg34
I6
sg35
g36
(g3
tp115
Rp116
sbsS'IBEA-SIP'
p117
g2
(g3
g4
(lp118
(dp119
g7
g62
sg9
F0.04772496223449707
sg10
I100
sg11
I0
sa(dp120
g7
(F0.17
F0.576
F0.142
I83
I100
tp121
sg9
F9.634021043777466
sg10
I100
sg11
I100
sa(dp122
g7
(F0.176
F0.643
F0.131
I74
I100
tp123
sg9
F19.074926137924194
sg10
I100
sg11
I200
sa(dp124
g7
(F0.179
F0.652
F0.152
I78
I100
tp125
sg9
F28.4673011302948
sg10
I100
sg11
I300
sa(dp126
g7
(F0.181
F0.666
F0.129
I72
I100
tp127
sg9
F37.72961401939392
sg10
I100
sg11
I400
sa(dp128
g7
(F0.183
F0.627
F0.122
I80
I100
tp129
sg9
F47.16105914115906
sg10
I100
sg11
I500
satp130
Rp131
(dp132
g25
I01
sg26
g31
sg32
(lp133
I3
aI5
aI30
aI9
asg34
I6
sg35
g36
(g3
tp134
Rp135
sbs.