(dp0
S'NSGA2-SIP'
p1
ccopy_reg
_reconstructor
p2
(cdeap.tools.support
Logbook
p3
c__builtin__
list
p4
(lp5
(dp6
S'hv|spread|igd|frontier#|valid#'
p7
(I0
I0
I0
I0
I0
tp8
sS'timestamp'
p9
F0.043595075607299805
sS'evals'
p10
I100
sS'gen'
p11
I0
sa(dp12
g7
(F0.169
F0.632
F0.189
I96
I100
tp13
sg9
F10.436753988265991
sg10
I100
sg11
I100
sa(dp14
g7
(F0.172
F0.648
F0.191
I97
I100
tp15
sg9
F20.780282974243164
sg10
I100
sg11
I200
sa(dp16
g7
(F0.179
F0.687
F0.182
I99
I100
tp17
sg9
F30.969316959381104
sg10
I100
sg11
I300
sa(dp18
g7
(F0.18
F0.618
F0.18
I97
I100
tp19
sg9
F41.11508512496948
sg10
I100
sg11
I400
sa(dp20
g7
(F0.182
F0.634
F0.188
I98
I100
tp21
sg9
F51.305793046951294
sg10
I100
sg11
I500
satp22
Rp23
(dp24
S'log_header'
p25
I01
sS'header'
p26
(S'gen'
p27
S'evals'
p28
S'hv|spread|igd|frontier#|valid#'
p29
S'timestamp'
p30
tp31
sS'columns_len'
p32
(lp33
I3
aI5
aI30
aI9
asS'buffindex'
p34
I6
sS'chapters'
p35
ccollections
defaultdict
p36
(g3
tp37
Rp38
sbsS'SPEA2-SIP'
p39
g2
(g3
g4
(lp40
(dp41
g7
g8
sg9
F0.04412484169006348
sg10
I100
sg11
I0
sa(dp42
g7
(F0.172
F0.678
F0.141
I100
I100
tp43
sg9
F65.7750039100647
sg10
I100
sg11
I100
sa(dp44
g7
(F0.175
F0.662
F0.147
I100
I100
tp45
sg9
F144.43685483932495
sg10
I100
sg11
I200
sa(dp46
g7
(F0.176
F0.643
F0.147
I100
I100
tp47
sg9
F219.79623794555664
sg10
I100
sg11
I300
sa(dp48
g7
(F0.181
F0.659
F0.16
I100
I100
tp49
sg9
F294.63832783699036
sg10
I100
sg11
I400
sa(dp50
g7
(F0.182
F0.657
F0.161
I100
I100
tp51
sg9
F368.97826504707336
sg10
I100
sg11
I500
satp52
Rp53
(dp54
g25
I01
sg26
g31
sg32
(lp55
I3
aI5
aI31
aI9
asg34
I6
sg35
g36
(g3
tp56
Rp57
sbsS'SPEA2'
p58
g2
(g3
g4
(lp59
(dp60
g7
g8
sg9
F0.06096816062927246
sg10
I100
sg11
I0
sa(dp61
g7
g8
sg9
F117.4197371006012
sg10
I100
sg11
I100
sa(dp62
g7
g8
sg9
F264.1616749763489
sg10
I100
sg11
I200
sa(dp63
g7
g8
sg9
F411.21792697906494
sg10
I100
sg11
I300
sa(dp64
g7
g8
sg9
F558.891627073288
sg10
I100
sg11
I400
sa(dp65
g7
g8
sg9
F703.4448690414429
sg10
I100
sg11
I500
satp66
Rp67
(dp68
g25
I01
sg26
g31
sg32
(lp69
I3
aI5
aI30
aI9
asg34
I6
sg35
g36
(g3
tp70
Rp71
sbsS'IBEA-PEN'
p72
g2
(g3
g4
(lp73
(dp74
g7
(F0.072
F0.988
F0.037
I3
I3
tp75
sg9
F0.1259911060333252
sg10
I100
sg11
I0
sa(dp76
g7
(F0.175
F0.743
F0.122
I50
I70
tp77
sg9
F13.459677934646606
sg10
I100
sg11
I100
sa(dp78
g7
(F0.176
F0.685
F0.081
I49
I67
tp79
sg9
F27.16621708869934
sg10
I100
sg11
I200
sa(dp80
g7
(F0.182
F0.754
F0.096
I54
I76
tp81
sg9
F40.83300590515137
sg10
I100
sg11
I300
sa(dp82
g7
(F0.181
F0.667
F0.103
I52
I74
tp83
sg9
F54.7133629322052
sg10
I100
sg11
I400
sa(dp84
g7
(F0.178
F0.695
F0.116
I52
I83
tp85
sg9
F68.53480291366577
sg10
I100
sg11
I500
satp86
Rp87
(dp88
g25
I01
sg26
g31
sg32
(lp89
I3
aI5
aI30
aI9
asg34
I6
sg35
g36
(g3
tp90
Rp91
sbsS'IBEA'
p92
g2
(g3
g4
(lp93
(dp94
g7
g8
sg9
F0.06145596504211426
sg10
I100
sg11
I0
sa(dp95
g7
g8
sg9
F10.063129901885986
sg10
I100
sg11
I100
sa(dp96
g7
g8
sg9
F19.967456817626953
sg10
I100
sg11
I200
sa(dp97
g7
g8
sg9
F30.151927947998047
sg10
I100
sg11
I300
sa(dp98
g7
g8
sg9
F40.443917989730835
sg10
I100
sg11
I400
sa(dp99
g7
g8
sg9
F50.77206087112427
sg10
I100
sg11
I500
satp100
Rp101
(dp102
g25
I01
sg26
g31
sg32
(lp103
I3
aI5
aI30
aI9
asg34
I6
sg35
g36
(g3
tp104
Rp105
sbsS'NSGA2'
p106
g2
(g3
g4
(lp107
(dp108
g7
g8
sg9
F0.06139183044433594
sg10
I100
sg11
I0
sa(dp109
g7
g8
sg9
F13.034700870513916
sg10
I100
sg11
I100
sa(dp110
g7
g8
sg9
F25.84983491897583
sg10
I100
sg11
I200
sa(dp111
g7
g8
sg9
F38.75305700302124
sg10
I100
sg11
I300
sa(dp112
g7
g8
sg9
F51.67851281166077
sg10
I100
sg11
I400
sa(dp113
g7
g8
sg9
F64.6071138381958
sg10
I100
sg11
I500
satp114
Rp115
(dp116
g25
I01
sg26
g31
sg32
(lp117
I3
aI5
aI30
aI9
asg34
I6
sg35
g36
(g3
tp118
Rp119
sbsS'IBEA-SIP'
p120
g2
(g3
g4
(lp121
(dp122
g7
(F0.064
F0.978
F0.043
I2
I2
tp123
sg9
F0.04752802848815918
sg10
I100
sg11
I0
sa(dp124
g7
(F0.169
F0.641
F0.142
I71
I100
tp125
sg9
F8.516602039337158
sg10
I100
sg11
I100
sa(dp126
g7
(F0.176
F0.676
F0.139
I76
I100
tp127
sg9
F17.22982907295227
sg10
I100
sg11
I200
sa(dp128
g7
(F0.177
F0.669
F0.132
I81
I100
tp129
sg9
F25.81645107269287
sg10
I100
sg11
I300
sa(dp130
g7
(F0.178
F0.667
F0.123
I77
I100
tp131
sg9
F34.36069202423096
sg10
I100
sg11
I400
sa(dp132
g7
(F0.178
F0.589
F0.143
I77
I100
tp133
sg9
F43.012808084487915
sg10
I100
sg11
I500
satp134
Rp135
(dp136
g25
I01
sg26
g31
sg32
(lp137
I3
aI5
aI30
aI9
asg34
I6
sg35
g36
(g3
tp138
Rp139
sbs.