(dp0
S'NSGA2-SIP'
p1
ccopy_reg
_reconstructor
p2
(cdeap.tools.support
Logbook
p3
c__builtin__
list
p4
(lp5
(dp6
S'hv|spread|igd|frontier#|valid#'
p7
(I0
I0
I0
I0
I0
tp8
sS'timestamp'
p9
F0.04458904266357422
sS'evals'
p10
I100
sS'gen'
p11
I0
sa(dp12
g7
(F0.174
F0.654
F0.189
I100
I100
tp13
sg9
F10.769896984100342
sg10
I100
sg11
I100
sa(dp14
g7
(F0.177
F0.621
F0.193
I98
I100
tp15
sg9
F21.731807947158813
sg10
I100
sg11
I200
sa(dp16
g7
(F0.181
F0.6
F0.187
I99
I100
tp17
sg9
F32.564598083496094
sg10
I100
sg11
I300
sa(dp18
g7
(F0.182
F0.598
F0.171
I99
I100
tp19
sg9
F43.30836200714111
sg10
I100
sg11
I400
sa(dp20
g7
(F0.183
F0.575
F0.182
I99
I100
tp21
sg9
F54.12181305885315
sg10
I100
sg11
I500
satp22
Rp23
(dp24
S'log_header'
p25
I01
sS'header'
p26
(S'gen'
p27
S'evals'
p28
S'hv|spread|igd|frontier#|valid#'
p29
S'timestamp'
p30
tp31
sS'columns_len'
p32
(lp33
I3
aI5
aI31
aI9
asS'buffindex'
p34
I6
sS'chapters'
p35
ccollections
defaultdict
p36
(g3
tp37
Rp38
sbsS'SPEA2-SIP'
p39
g2
(g3
g4
(lp40
(dp41
g7
g8
sg9
F0.04413890838623047
sg10
I100
sg11
I0
sa(dp42
g7
(F0.17
F0.661
F0.141
I100
I100
tp43
sg9
F65.61937594413757
sg10
I100
sg11
I100
sa(dp44
g7
(F0.175
F0.62
F0.142
I100
I100
tp45
sg9
F143.22798800468445
sg10
I100
sg11
I200
sa(dp46
g7
(F0.177
F0.565
F0.133
I100
I100
tp47
sg9
F220.3831799030304
sg10
I100
sg11
I300
sa(dp48
g7
(F0.181
F0.559
F0.134
I100
I100
tp49
sg9
F298.2165539264679
sg10
I100
sg11
I400
sa(dp50
g7
(F0.181
F0.635
F0.142
I100
I100
tp51
sg9
F375.6632869243622
sg10
I100
sg11
I500
satp52
Rp53
(dp54
g25
I01
sg26
g31
sg32
(lp55
I3
aI5
aI31
aI9
asg34
I6
sg35
g36
(g3
tp56
Rp57
sbsS'SPEA2'
p58
g2
(g3
g4
(lp59
(dp60
g7
g8
sg9
F0.061860084533691406
sg10
I100
sg11
I0
sa(dp61
g7
g8
sg9
F119.8578770160675
sg10
I100
sg11
I100
sa(dp62
g7
g8
sg9
F262.50941920280457
sg10
I100
sg11
I200
sa(dp63
g7
g8
sg9
F414.00551104545593
sg10
I100
sg11
I300
sa(dp64
g7
g8
sg9
F565.6386392116547
sg10
I100
sg11
I400
sa(dp65
g7
g8
sg9
F716.0260322093964
sg10
I100
sg11
I500
satp66
Rp67
(dp68
g25
I01
sg26
g31
sg32
(lp69
I3
aI5
aI30
aI9
asg34
I6
sg35
g36
(g3
tp70
Rp71
sbsS'IBEA-PEN'
p72
g2
(g3
g4
(lp73
(dp74
g7
(F0.075
F1.0
F0.043
I3
I3
tp75
sg9
F0.1555628776550293
sg10
I100
sg11
I0
sa(dp76
g7
g8
sg9
F10.615418910980225
sg10
I100
sg11
I100
sa(dp77
g7
g8
sg9
F21.07147979736328
sg10
I100
sg11
I200
sa(dp78
g7
g8
sg9
F31.62527298927307
sg10
I100
sg11
I300
sa(dp79
g7
g8
sg9
F42.09143781661987
sg10
I100
sg11
I400
sa(dp80
g7
g8
sg9
F52.68439602851868
sg10
I100
sg11
I500
satp81
Rp82
(dp83
g25
I01
sg26
g31
sg32
(lp84
I3
aI5
aI30
aI9
asg34
I6
sg35
g36
(g3
tp85
Rp86
sbsS'IBEA'
p87
g2
(g3
g4
(lp88
(dp89
g7
g8
sg9
F0.06336808204650879
sg10
I100
sg11
I0
sa(dp90
g7
g8
sg9
F10.337074041366577
sg10
I100
sg11
I100
sa(dp91
g7
g8
sg9
F20.714936017990112
sg10
I100
sg11
I200
sa(dp92
g7
g8
sg9
F31.106146097183228
sg10
I100
sg11
I300
sa(dp93
g7
g8
sg9
F41.360629081726074
sg10
I100
sg11
I400
sa(dp94
g7
g8
sg9
F51.79039406776428
sg10
I100
sg11
I500
satp95
Rp96
(dp97
g25
I01
sg26
g31
sg32
(lp98
I3
aI5
aI30
aI9
asg34
I6
sg35
g36
(g3
tp99
Rp100
sbsS'NSGA2'
p101
g2
(g3
g4
(lp102
(dp103
g7
g8
sg9
F0.06177115440368652
sg10
I100
sg11
I0
sa(dp104
g7
g8
sg9
F13.189228057861328
sg10
I100
sg11
I100
sa(dp105
g7
g8
sg9
F26.321169137954712
sg10
I100
sg11
I200
sa(dp106
g7
g8
sg9
F39.406206130981445
sg10
I100
sg11
I300
sa(dp107
g7
g8
sg9
F52.49164295196533
sg10
I100
sg11
I400
sa(dp108
g7
g8
sg9
F65.50201392173767
sg10
I100
sg11
I500
satp109
Rp110
(dp111
g25
I01
sg26
g31
sg32
(lp112
I3
aI5
aI30
aI9
asg34
I6
sg35
g36
(g3
tp113
Rp114
sbsS'IBEA-SIP'
p115
g2
(g3
g4
(lp116
(dp117
g7
g8
sg9
F0.044219017028808594
sg10
I100
sg11
I0
sa(dp118
g7
(F0.171
F0.655
F0.137
I81
I100
tp119
sg9
F8.933719158172607
sg10
I100
sg11
I100
sa(dp120
g7
(F0.182
F0.649
F0.154
I82
I100
tp121
sg9
F17.636456966400146
sg10
I100
sg11
I200
sa(dp122
g7
(F0.181
F0.695
F0.165
I84
I100
tp123
sg9
F26.39709496498108
sg10
I100
sg11
I300
sa(dp124
g7
(F0.182
F0.621
F0.147
I75
I100
tp125
sg9
F35.20539212226868
sg10
I100
sg11
I400
sa(dp126
g7
(F0.184
F0.574
F0.16
I77
I100
tp127
sg9
F43.92433214187622
sg10
I100
sg11
I500
satp128
Rp129
(dp130
g25
I01
sg26
g31
sg32
(lp131
I3
aI5
aI30
aI9
asg34
I6
sg35
g36
(g3
tp132
Rp133
sbs.