(dp0
S'NSGA2-SIP'
p1
ccopy_reg
_reconstructor
p2
(cdeap.tools.support
Logbook
p3
c__builtin__
list
p4
(lp5
(dp6
S'hv|spread|igd|frontier#|valid#'
p7
(I0
I0
I0
I0
I0
tp8
sS'timestamp'
p9
F0.047096967697143555
sS'evals'
p10
I100
sS'gen'
p11
I0
sa(dp12
g7
(F0.174
F0.637
F0.185
I99
I100
tp13
sg9
F11.685415029525757
sg10
I100
sg11
I100
sa(dp14
g7
(F0.178
F0.633
F0.173
I98
I100
tp15
sg9
F23.314008951187134
sg10
I100
sg11
I200
sa(dp16
g7
(F0.179
F0.588
F0.188
I98
I100
tp17
sg9
F34.79335308074951
sg10
I100
sg11
I300
sa(dp18
g7
(F0.181
F0.604
F0.18
I99
I100
tp19
sg9
F46.41047215461731
sg10
I100
sg11
I400
sa(dp20
g7
(F0.186
F0.602
F0.171
I99
I100
tp21
sg9
F58.04741406440735
sg10
I100
sg11
I500
satp22
Rp23
(dp24
S'log_header'
p25
I01
sS'header'
p26
(S'gen'
p27
S'evals'
p28
S'hv|spread|igd|frontier#|valid#'
p29
S'timestamp'
p30
tp31
sS'columns_len'
p32
(lp33
I3
aI5
aI30
aI9
asS'buffindex'
p34
I6
sS'chapters'
p35
ccollections
defaultdict
p36
(g3
tp37
Rp38
sbsS'SPEA2-SIP'
p39
g2
(g3
g4
(lp40
(dp41
g7
g8
sg9
F0.04694390296936035
sg10
I100
sg11
I0
sa(dp42
g7
(F0.168
F0.623
F0.194
I100
I100
tp43
sg9
F72.25644588470459
sg10
I100
sg11
I100
sa(dp44
g7
(F0.17
F0.597
F0.193
I100
I100
tp45
sg9
F156.32689499855042
sg10
I100
sg11
I200
sa(dp46
g7
(F0.172
F0.615
F0.185
I100
I100
tp47
sg9
F241.52527689933777
sg10
I100
sg11
I300
sa(dp48
g7
(F0.173
F0.625
F0.182
I100
I100
tp49
sg9
F326.8464300632477
sg10
I100
sg11
I400
sa(dp50
g7
(F0.173
F0.576
F0.178
I100
I100
tp51
sg9
F411.1538920402527
sg10
I100
sg11
I500
satp52
Rp53
(dp54
g25
I01
sg26
g31
sg32
(lp55
I3
aI5
aI31
aI9
asg34
I6
sg35
g36
(g3
tp56
Rp57
sbsS'SPEA2'
p58
g2
(g3
g4
(lp59
(dp60
g7
g8
sg9
F0.06679296493530273
sg10
I100
sg11
I0
sa(dp61
g7
g8
sg9
F121.84977388381958
sg10
I100
sg11
I100
sa(dp62
g7
g8
sg9
F264.2114598751068
sg10
I100
sg11
I200
sa(dp63
g7
g8
sg9
F403.167356967926
sg10
I100
sg11
I300
sa(dp64
g7
g8
sg9
F555.8476409912109
sg10
I100
sg11
I400
sa(dp65
g7
g8
sg9
F711.447408914566
sg10
I100
sg11
I500
satp66
Rp67
(dp68
g25
I01
sg26
g31
sg32
(lp69
I3
aI5
aI30
aI9
asg34
I6
sg35
g36
(g3
tp70
Rp71
sbsS'IBEA-PEN'
p72
g2
(g3
g4
(lp73
(dp74
g7
(F0.086
F0.907
F0.031
I5
I6
tp75
sg9
F0.1798241138458252
sg10
I100
sg11
I0
sa(dp76
g7
g8
sg9
F11.284025192260742
sg10
I100
sg11
I100
sa(dp77
g7
g8
sg9
F22.533653020858765
sg10
I100
sg11
I200
sa(dp78
g7
g8
sg9
F33.88077712059021
sg10
I100
sg11
I300
sa(dp79
g7
g8
sg9
F45.08804512023926
sg10
I100
sg11
I400
sa(dp80
g7
g8
sg9
F56.31712102890015
sg10
I100
sg11
I500
satp81
Rp82
(dp83
g25
I01
sg26
g31
sg32
(lp84
I3
aI5
aI30
aI9
asg34
I6
sg35
g36
(g3
tp85
Rp86
sbsS'IBEA'
p87
g2
(g3
g4
(lp88
(dp89
g7
g8
sg9
F0.06753993034362793
sg10
I100
sg11
I0
sa(dp90
g7
g8
sg9
F10.7987380027771
sg10
I100
sg11
I100
sa(dp91
g7
g8
sg9
F21.591110944747925
sg10
I100
sg11
I200
sa(dp92
g7
g8
sg9
F32.39556384086609
sg10
I100
sg11
I300
sa(dp93
g7
g8
sg9
F43.24135494232178
sg10
I100
sg11
I400
sa(dp94
g7
g8
sg9
F54.16164588928223
sg10
I100
sg11
I500
satp95
Rp96
(dp97
g25
I01
sg26
g31
sg32
(lp98
I3
aI5
aI30
aI9
asg34
I6
sg35
g36
(g3
tp99
Rp100
sbsS'NSGA2'
p101
g2
(g3
g4
(lp102
(dp103
g7
g8
sg9
F0.06835508346557617
sg10
I100
sg11
I0
sa(dp104
g7
g8
sg9
F14.862787961959839
sg10
I100
sg11
I100
sa(dp105
g7
g8
sg9
F29.57562804222107
sg10
I100
sg11
I200
sa(dp106
g7
g8
sg9
F44.302391052246094
sg10
I100
sg11
I300
sa(dp107
g7
g8
sg9
F59.03612399101257
sg10
I100
sg11
I400
sa(dp108
g7
g8
sg9
F73.76297497749329
sg10
I100
sg11
I500
satp109
Rp110
(dp111
g25
I01
sg26
g31
sg32
(lp112
I3
aI5
aI30
aI9
asg34
I6
sg35
g36
(g3
tp113
Rp114
sbsS'IBEA-SIP'
p115
g2
(g3
g4
(lp116
(dp117
g7
g8
sg9
F0.04744601249694824
sg10
I100
sg11
I0
sa(dp118
g7
(F0.178
F0.661
F0.135
I79
I100
tp119
sg9
F9.445810794830322
sg10
I100
sg11
I100
sa(dp120
g7
(F0.181
F0.592
F0.153
I75
I100
tp121
sg9
F18.931487798690796
sg10
I100
sg11
I200
sa(dp122
g7
(F0.182
F0.652
F0.179
I72
I100
tp123
sg9
F28.22391390800476
sg10
I100
sg11
I300
sa(dp124
g7
(F0.182
F0.76
F0.145
I79
I100
tp125
sg9
F37.43284797668457
sg10
I100
sg11
I400
sa(dp126
g7
(F0.185
F0.608
F0.146
I74
I100
tp127
sg9
F46.62949800491333
sg10
I100
sg11
I500
satp128
Rp129
(dp130
g25
I01
sg26
g31
sg32
(lp131
I3
aI5
aI30
aI9
asg34
I6
sg35
g36
(g3
tp132
Rp133
sbs.