(dp0
S'NSGA2-SIP'
p1
ccopy_reg
_reconstructor
p2
(cdeap.tools.support
Logbook
p3
c__builtin__
list
p4
(lp5
(dp6
S'hv|spread|igd|frontier#|valid#'
p7
(F0.056
F2.177
F0.042
I1
I1
tp8
sS'timestamp'
p9
F0.042243003845214844
sS'evals'
p10
I100
sS'gen'
p11
I0
sa(dp12
g7
(F0.175
F0.639
F0.159
I98
I100
tp13
sg9
F9.59586787223816
sg10
I100
sg11
I100
sa(dp14
g7
(F0.182
F0.576
F0.175
I98
I100
tp15
sg9
F19.078234910964966
sg10
I100
sg11
I200
sa(dp16
g7
(F0.185
F0.563
F0.174
I97
I100
tp17
sg9
F28.46458101272583
sg10
I100
sg11
I300
sa(dp18
g7
(F0.187
F0.62
F0.159
I99
I100
tp19
sg9
F37.872885942459106
sg10
I100
sg11
I400
sa(dp20
g7
(F0.187
F0.668
F0.169
I99
I100
tp21
sg9
F47.33679389953613
sg10
I100
sg11
I500
satp22
Rp23
(dp24
S'log_header'
p25
I01
sS'header'
p26
(S'gen'
p27
S'evals'
p28
S'hv|spread|igd|frontier#|valid#'
p29
S'timestamp'
p30
tp31
sS'columns_len'
p32
(lp33
I3
aI5
aI30
aI9
asS'buffindex'
p34
I6
sS'chapters'
p35
ccollections
defaultdict
p36
(g3
tp37
Rp38
sbsS'SPEA2-SIP'
p39
g2
(g3
g4
(lp40
(dp41
g7
(F0.059
F2.21
F0.042
I1
I1
tp42
sg9
F0.04230308532714844
sg10
I100
sg11
I0
sa(dp43
g7
(F0.176
F0.595
F0.177
I100
I100
tp44
sg9
F55.33277702331543
sg10
I100
sg11
I100
sa(dp45
g7
(F0.179
F0.687
F0.168
I100
I100
tp46
sg9
F123.91305899620056
sg10
I100
sg11
I200
sa(dp47
g7
(F0.18
F0.623
F0.176
I100
I100
tp48
sg9
F192.42527103424072
sg10
I100
sg11
I300
sa(dp49
g7
(F0.181
F0.56
F0.169
I100
I100
tp50
sg9
F258.62061405181885
sg10
I100
sg11
I400
sa(dp51
g7
(F0.182
F0.642
F0.166
I100
I100
tp52
sg9
F326.1650450229645
sg10
I100
sg11
I500
satp53
Rp54
(dp55
g25
I01
sg26
g31
sg32
(lp56
I3
aI5
aI31
aI9
asg34
I6
sg35
g36
(g3
tp57
Rp58
sbsS'SPEA2'
p59
g2
(g3
g4
(lp60
(dp61
g7
(I0
I0
I0
I0
I0
tp62
sg9
F0.05608391761779785
sg10
I100
sg11
I0
sa(dp63
g7
g62
sg9
F106.70070695877075
sg10
I100
sg11
I100
sa(dp64
g7
g62
sg9
F235.92610597610474
sg10
I100
sg11
I200
sa(dp65
g7
g62
sg9
F372.8591220378876
sg10
I100
sg11
I300
sa(dp66
g7
g62
sg9
F506.41020703315735
sg10
I100
sg11
I400
sa(dp67
g7
g62
sg9
F635.5058178901672
sg10
I100
sg11
I500
satp68
Rp69
(dp70
g25
I01
sg26
g31
sg32
(lp71
I3
aI5
aI30
aI9
asg34
I6
sg35
g36
(g3
tp72
Rp73
sbsS'IBEA'
p74
g2
(g3
g4
(lp75
(dp76
g7
g62
sg9
F0.0558319091796875
sg10
I100
sg11
I0
sa(dp77
g7
g62
sg9
F9.209415912628174
sg10
I100
sg11
I100
sa(dp78
g7
g62
sg9
F18.417197942733765
sg10
I100
sg11
I200
sa(dp79
g7
g62
sg9
F27.645882844924927
sg10
I100
sg11
I300
sa(dp80
g7
g62
sg9
F36.924187898635864
sg10
I100
sg11
I400
sa(dp81
g7
g62
sg9
F46.25113797187805
sg10
I100
sg11
I500
satp82
Rp83
(dp84
g25
I01
sg26
g31
sg32
(lp85
I3
aI5
aI30
aI9
asg34
I6
sg35
g36
(g3
tp86
Rp87
sbsS'NSGA2'
p88
g2
(g3
g4
(lp89
(dp90
g7
g62
sg9
F0.05533599853515625
sg10
I100
sg11
I0
sa(dp91
g7
g62
sg9
F11.761068105697632
sg10
I100
sg11
I100
sa(dp92
g7
g62
sg9
F23.48517608642578
sg10
I100
sg11
I200
sa(dp93
g7
g62
sg9
F35.157525062561035
sg10
I100
sg11
I300
sa(dp94
g7
g62
sg9
F46.851070165634155
sg10
I100
sg11
I400
sa(dp95
g7
g62
sg9
F58.54276919364929
sg10
I100
sg11
I500
satp96
Rp97
(dp98
g25
I01
sg26
g31
sg32
(lp99
I3
aI5
aI30
aI9
asg34
I6
sg35
g36
(g3
tp100
Rp101
sbsS'IBEA-SIP'
p102
g2
(g3
g4
(lp103
(dp104
g7
g62
sg9
F0.04041600227355957
sg10
I100
sg11
I0
sa(dp105
g7
(F0.175
F0.646
F0.183
I71
I100
tp106
sg9
F7.932238817214966
sg10
I100
sg11
I100
sa(dp107
g7
(F0.177
F0.519
F0.134
I80
I100
tp108
sg9
F15.897913932800293
sg10
I100
sg11
I200
sa(dp109
g7
(F0.178
F0.67
F0.133
I82
I100
tp110
sg9
F23.93514585494995
sg10
I100
sg11
I300
sa(dp111
g7
(F0.183
F0.66
F0.158
I78
I100
tp112
sg9
F31.93950891494751
sg10
I100
sg11
I400
sa(dp113
g7
(F0.184
F0.614
F0.149
I74
I100
tp114
sg9
F39.8268928527832
sg10
I100
sg11
I500
satp115
Rp116
(dp117
g25
I01
sg26
g31
sg32
(lp118
I3
aI5
aI30
aI9
asg34
I6
sg35
g36
(g3
tp119
Rp120
sbs.