(dp0
S'NSGA2-SIP'
p1
ccopy_reg
_reconstructor
p2
(cdeap.tools.support
Logbook
p3
c__builtin__
list
p4
(lp5
(dp6
S'hv|spread|igd|frontier#|valid#'
p7
(I0
I0
I0
I0
I0
tp8
sS'timestamp'
p9
F0.04131197929382324
sS'evals'
p10
I100
sS'gen'
p11
I0
sa(dp12
g7
(F0.171
F0.588
F0.17
I98
I100
tp13
sg9
F9.932340860366821
sg10
I100
sg11
I100
sa(dp14
g7
(F0.178
F0.613
F0.178
I99
I100
tp15
sg9
F19.65214490890503
sg10
I100
sg11
I200
sa(dp16
g7
(F0.18
F0.614
F0.18
I98
I100
tp17
sg9
F29.49862790107727
sg10
I100
sg11
I300
sa(dp18
g7
(F0.181
F0.682
F0.181
I99
I100
tp19
sg9
F39.44016098976135
sg10
I100
sg11
I400
sa(dp20
g7
(F0.182
F0.638
F0.179
I99
I100
tp21
sg9
F49.35906982421875
sg10
I100
sg11
I500
satp22
Rp23
(dp24
S'log_header'
p25
I01
sS'header'
p26
(S'gen'
p27
S'evals'
p28
S'hv|spread|igd|frontier#|valid#'
p29
S'timestamp'
p30
tp31
sS'columns_len'
p32
(lp33
I3
aI5
aI30
aI9
asS'buffindex'
p34
I6
sS'chapters'
p35
ccollections
defaultdict
p36
(g3
tp37
Rp38
sbsS'SPEA2-SIP'
p39
g2
(g3
g4
(lp40
(dp41
g7
g8
sg9
F0.0418391227722168
sg10
I100
sg11
I0
sa(dp42
g7
(F0.16
F0.59
F0.168
I100
I100
tp43
sg9
F53.93165421485901
sg10
I100
sg11
I100
sa(dp44
g7
(F0.162
F0.592
F0.174
I100
I100
tp45
sg9
F118.78578615188599
sg10
I100
sg11
I200
sa(dp46
g7
(F0.164
F0.561
F0.188
I100
I100
tp47
sg9
F184.7710690498352
sg10
I100
sg11
I300
sa(dp48
g7
(F0.165
F0.692
F0.185
I100
I100
tp49
sg9
F251.43710803985596
sg10
I100
sg11
I400
sa(dp50
g7
(F0.172
F0.586
F0.173
I100
I100
tp51
sg9
F320.07682609558105
sg10
I100
sg11
I500
satp52
Rp53
(dp54
g25
I01
sg26
g31
sg32
(lp55
I3
aI5
aI31
aI9
asg34
I6
sg35
g36
(g3
tp56
Rp57
sbsS'SPEA2'
p58
g2
(g3
g4
(lp59
(dp60
g7
g8
sg9
F0.05792093276977539
sg10
I100
sg11
I0
sa(dp61
g7
g8
sg9
F103.90987706184387
sg10
I100
sg11
I100
sa(dp62
g7
g8
sg9
F230.36693596839905
sg10
I100
sg11
I200
sa(dp63
g7
g8
sg9
F363.96177792549133
sg10
I100
sg11
I300
sa(dp64
g7
g8
sg9
F500.75109791755676
sg10
I100
sg11
I400
sa(dp65
g7
g8
sg9
F641.1348879337311
sg10
I100
sg11
I500
satp66
Rp67
(dp68
g25
I01
sg26
g31
sg32
(lp69
I3
aI5
aI30
aI9
asg34
I6
sg35
g36
(g3
tp70
Rp71
sbsS'IBEA-PEN'
p72
g2
(g3
g4
(lp73
(dp74
g7
(F0.088
F0.873
F0.031
I3
I3
tp75
sg9
F0.1191859245300293
sg10
I100
sg11
I0
sa(dp76
g7
(F0.174
F0.521
F0.099
I45
I76
tp77
sg9
F12.684330940246582
sg10
I100
sg11
I100
sa(dp78
g7
(F0.168
F0.647
F0.094
I47
I61
tp79
sg9
F25.636768102645874
sg10
I100
sg11
I200
sa(dp80
g7
(F0.185
F0.678
F0.153
I64
I89
tp81
sg9
F38.609840869903564
sg10
I100
sg11
I300
sa(dp82
g7
(F0.179
F0.671
F0.101
I55
I81
tp83
sg9
F51.602662086486816
sg10
I100
sg11
I400
sa(dp84
g7
(F0.179
F0.589
F0.132
I54
I80
tp85
sg9
F64.64383792877197
sg10
I100
sg11
I500
satp86
Rp87
(dp88
g25
I01
sg26
g31
sg32
(lp89
I3
aI5
aI30
aI9
asg34
I6
sg35
g36
(g3
tp90
Rp91
sbsS'IBEA'
p92
g2
(g3
g4
(lp93
(dp94
g7
g8
sg9
F0.057893991470336914
sg10
I100
sg11
I0
sa(dp95
g7
g8
sg9
F9.475033044815063
sg10
I100
sg11
I100
sa(dp96
g7
g8
sg9
F18.995830059051514
sg10
I100
sg11
I200
sa(dp97
g7
g8
sg9
F28.540738105773926
sg10
I100
sg11
I300
sa(dp98
g7
g8
sg9
F38.147799015045166
sg10
I100
sg11
I400
sa(dp99
g7
g8
sg9
F47.8136420249939
sg10
I100
sg11
I500
satp100
Rp101
(dp102
g25
I01
sg26
g31
sg32
(lp103
I3
aI5
aI30
aI9
asg34
I6
sg35
g36
(g3
tp104
Rp105
sbsS'NSGA2'
p106
g2
(g3
g4
(lp107
(dp108
g7
g8
sg9
F0.057473182678222656
sg10
I100
sg11
I0
sa(dp109
g7
g8
sg9
F12.208975076675415
sg10
I100
sg11
I100
sa(dp110
g7
g8
sg9
F24.059391975402832
sg10
I100
sg11
I200
sa(dp111
g7
g8
sg9
F36.1813690662384
sg10
I100
sg11
I300
sa(dp112
g7
g8
sg9
F48.26632809638977
sg10
I100
sg11
I400
sa(dp113
g7
g8
sg9
F60.383476972579956
sg10
I100
sg11
I500
satp114
Rp115
(dp116
g25
I01
sg26
g31
sg32
(lp117
I3
aI5
aI30
aI9
asg34
I6
sg35
g36
(g3
tp118
Rp119
sbsS'IBEA-SIP'
p120
g2
(g3
g4
(lp121
(dp122
g7
(F0.07
F0.936
F0.039
I2
I2
tp123
sg9
F0.045020103454589844
sg10
I100
sg11
I0
sa(dp124
g7
(F0.17
F0.684
F0.136
I73
I100
tp125
sg9
F8.294349908828735
sg10
I100
sg11
I100
sa(dp126
g7
(F0.178
F0.625
F0.158
I83
I100
tp127
sg9
F16.43273401260376
sg10
I100
sg11
I200
sa(dp128
g7
(F0.183
F0.761
F0.149
I80
I100
tp129
sg9
F24.646354913711548
sg10
I100
sg11
I300
sa(dp130
g7
(F0.182
F0.586
F0.114
I78
I100
tp131
sg9
F32.87468910217285
sg10
I100
sg11
I400
sa(dp132
g7
(F0.184
F0.568
F0.135
I82
I100
tp133
sg9
F40.99263000488281
sg10
I100
sg11
I500
satp134
Rp135
(dp136
g25
I01
sg26
g31
sg32
(lp137
I3
aI5
aI30
aI9
asg34
I6
sg35
g36
(g3
tp138
Rp139
sbs.