(dp0
S'NSGA2-SIP'
p1
ccopy_reg
_reconstructor
p2
(cdeap.tools.support
Logbook
p3
c__builtin__
list
p4
(lp5
(dp6
S'hv|spread|igd|frontier#|valid#'
p7
(F0.082
F0.957
F0.04
I3
I3
tp8
sS'timestamp'
p9
F0.0545039176940918
sS'evals'
p10
I100
sS'gen'
p11
I0
sa(dp12
g7
(F0.173
F0.655
F0.169
I98
I100
tp13
sg9
F11.8179190158844
sg10
I100
sg11
I100
sa(dp14
g7
(F0.176
F0.639
F0.179
I100
I100
tp15
sg9
F23.91467595100403
sg10
I100
sg11
I200
sa(dp16
g7
(F0.178
F0.566
F0.166
I98
I100
tp17
sg9
F35.86710596084595
sg10
I100
sg11
I300
sa(dp18
g7
(F0.178
F0.688
F0.174
I97
I100
tp19
sg9
F47.63596796989441
sg10
I100
sg11
I400
sa(dp20
g7
(F0.179
F0.611
F0.181
I99
I100
tp21
sg9
F59.29518508911133
sg10
I100
sg11
I500
satp22
Rp23
(dp24
S'log_header'
p25
I01
sS'header'
p26
(S'gen'
p27
S'evals'
p28
S'hv|spread|igd|frontier#|valid#'
p29
S'timestamp'
p30
tp31
sS'columns_len'
p32
(lp33
I3
aI5
aI31
aI9
asS'buffindex'
p34
I6
sS'chapters'
p35
ccollections
defaultdict
p36
(g3
tp37
Rp38
sbsS'SPEA2-SIP'
p39
g2
(g3
g4
(lp40
(dp41
g7
(I0
I0
I0
I0
I0
tp42
sg9
F0.04765915870666504
sg10
I100
sg11
I0
sa(dp43
g7
(F0.17
F0.64
F0.166
I100
I100
tp44
sg9
F70.9853150844574
sg10
I100
sg11
I100
sa(dp45
g7
(F0.172
F0.626
F0.171
I100
I100
tp46
sg9
F152.26635313034058
sg10
I100
sg11
I200
sa(dp47
g7
(F0.174
F0.632
F0.165
I100
I100
tp48
sg9
F231.48259115219116
sg10
I100
sg11
I300
sa(dp49
g7
(F0.174
F0.616
F0.162
I100
I100
tp50
sg9
F309.860032081604
sg10
I100
sg11
I400
sa(dp51
g7
(F0.177
F0.648
F0.164
I100
I100
tp52
sg9
F386.70311999320984
sg10
I100
sg11
I500
satp53
Rp54
(dp55
g25
I01
sg26
g31
sg32
(lp56
I3
aI5
aI31
aI9
asg34
I6
sg35
g36
(g3
tp57
Rp58
sbsS'SPEA2'
p59
g2
(g3
g4
(lp60
(dp61
g7
g42
sg9
F0.06770086288452148
sg10
I100
sg11
I0
sa(dp62
g7
g42
sg9
F121.0554358959198
sg10
I100
sg11
I100
sa(dp63
g7
g42
sg9
F265.2182729244232
sg10
I100
sg11
I200
sa(dp64
g7
g42
sg9
F410.4943997859955
sg10
I100
sg11
I300
sa(dp65
g7
g42
sg9
F560.7130630016327
sg10
I100
sg11
I400
sa(dp66
g7
g42
sg9
F715.6112298965454
sg10
I100
sg11
I500
satp67
Rp68
(dp69
g25
I01
sg26
g31
sg32
(lp70
I3
aI5
aI30
aI9
asg34
I6
sg35
g36
(g3
tp71
Rp72
sbsS'IBEA-PEN'
p73
g2
(g3
g4
(lp74
(dp75
g7
(F0.089
F0.934
F0.029
I4
I5
tp76
sg9
F0.17768001556396484
sg10
I100
sg11
I0
sa(dp77
g7
g42
sg9
F11.44147515296936
sg10
I100
sg11
I100
sa(dp78
g7
g42
sg9
F22.65970206260681
sg10
I100
sg11
I200
sa(dp79
g7
g42
sg9
F33.89637517929077
sg10
I100
sg11
I300
sa(dp80
g7
g42
sg9
F45.14767813682556
sg10
I100
sg11
I400
sa(dp81
g7
g42
sg9
F56.53025698661804
sg10
I100
sg11
I500
satp82
Rp83
(dp84
g25
I01
sg26
g31
sg32
(lp85
I3
aI5
aI30
aI9
asg34
I6
sg35
g36
(g3
tp86
Rp87
sbsS'IBEA'
p88
g2
(g3
g4
(lp89
(dp90
g7
g42
sg9
F0.0679922103881836
sg10
I100
sg11
I0
sa(dp91
g7
g42
sg9
F10.818186044692993
sg10
I100
sg11
I100
sa(dp92
g7
g42
sg9
F21.5941481590271
sg10
I100
sg11
I200
sa(dp93
g7
g42
sg9
F32.41410517692566
sg10
I100
sg11
I300
sa(dp94
g7
g42
sg9
F43.223215103149414
sg10
I100
sg11
I400
sa(dp95
g7
g42
sg9
F54.15028500556946
sg10
I100
sg11
I500
satp96
Rp97
(dp98
g25
I01
sg26
g31
sg32
(lp99
I3
aI5
aI30
aI9
asg34
I6
sg35
g36
(g3
tp100
Rp101
sbsS'NSGA2'
p102
g2
(g3
g4
(lp103
(dp104
g7
g42
sg9
F0.06890606880187988
sg10
I100
sg11
I0
sa(dp105
g7
g42
sg9
F14.732222080230713
sg10
I100
sg11
I100
sa(dp106
g7
g42
sg9
F29.342616081237793
sg10
I100
sg11
I200
sa(dp107
g7
g42
sg9
F43.95673704147339
sg10
I100
sg11
I300
sa(dp108
g7
g42
sg9
F58.62963891029358
sg10
I100
sg11
I400
sa(dp109
g7
g42
sg9
F73.22053599357605
sg10
I100
sg11
I500
satp110
Rp111
(dp112
g25
I01
sg26
g31
sg32
(lp113
I3
aI5
aI30
aI9
asg34
I6
sg35
g36
(g3
tp114
Rp115
sbsS'IBEA-SIP'
p116
g2
(g3
g4
(lp117
(dp118
g7
(F0.068
F0.98
F0.014
I1
I1
tp119
sg9
F0.04985618591308594
sg10
I100
sg11
I0
sa(dp120
g7
(F0.172
F0.655
F0.143
I74
I100
tp121
sg9
F9.390590190887451
sg10
I100
sg11
I100
sa(dp122
g7
(F0.176
F0.614
F0.129
I83
I100
tp123
sg9
F18.7258620262146
sg10
I100
sg11
I200
sa(dp124
g7
(F0.179
F0.628
F0.163
I76
I100
tp125
sg9
F28.00442409515381
sg10
I100
sg11
I300
sa(dp126
g7
(F0.18
F0.678
F0.145
I81
I100
tp127
sg9
F37.260411977767944
sg10
I100
sg11
I400
sa(dp128
g7
(F0.183
F0.744
F0.147
I81
I100
tp129
sg9
F46.69120216369629
sg10
I100
sg11
I500
satp130
Rp131
(dp132
g25
I01
sg26
g31
sg32
(lp133
I3
aI5
aI30
aI9
asg34
I6
sg35
g36
(g3
tp134
Rp135
sbs.