(dp0
S'NSGA2-SIP'
p1
ccopy_reg
_reconstructor
p2
(cdeap.tools.support
Logbook
p3
c__builtin__
list
p4
(lp5
(dp6
S'hv|spread|igd|frontier#|valid#'
p7
(I0
I0
I0
I0
I0
tp8
sS'timestamp'
p9
F0.04442906379699707
sS'evals'
p10
I100
sS'gen'
p11
I0
sa(dp12
g7
(F0.173
F0.602
F0.155
I99
I100
tp13
sg9
F10.749479055404663
sg10
I100
sg11
I100
sa(dp14
g7
(F0.177
F0.638
F0.177
I99
I100
tp15
sg9
F21.62614607810974
sg10
I100
sg11
I200
sa(dp16
g7
(F0.179
F0.651
F0.175
I99
I100
tp17
sg9
F32.24076795578003
sg10
I100
sg11
I300
sa(dp18
g7
(F0.179
F0.598
F0.188
I98
I100
tp19
sg9
F42.90412497520447
sg10
I100
sg11
I400
sa(dp20
g7
(F0.181
F0.66
F0.185
I99
I100
tp21
sg9
F53.618921995162964
sg10
I100
sg11
I500
satp22
Rp23
(dp24
S'log_header'
p25
I01
sS'header'
p26
(S'gen'
p27
S'evals'
p28
S'hv|spread|igd|frontier#|valid#'
p29
S'timestamp'
p30
tp31
sS'columns_len'
p32
(lp33
I3
aI5
aI30
aI9
asS'buffindex'
p34
I6
sS'chapters'
p35
ccollections
defaultdict
p36
(g3
tp37
Rp38
sbsS'SPEA2-SIP'
p39
g2
(g3
g4
(lp40
(dp41
g7
g8
sg9
F0.045336008071899414
sg10
I100
sg11
I0
sa(dp42
g7
(F0.169
F0.597
F0.171
I100
I100
tp43
sg9
F65.03765892982483
sg10
I100
sg11
I100
sa(dp44
g7
(F0.172
F0.574
F0.181
I100
I100
tp45
sg9
F138.2807788848877
sg10
I100
sg11
I200
sa(dp46
g7
(F0.173
F0.705
F0.174
I100
I100
tp47
sg9
F213.58206987380981
sg10
I100
sg11
I300
sa(dp48
g7
(F0.175
F0.582
F0.173
I100
I100
tp49
sg9
F289.0241060256958
sg10
I100
sg11
I400
sa(dp50
g7
(F0.178
F0.623
F0.172
I100
I100
tp51
sg9
F364.37743401527405
sg10
I100
sg11
I500
satp52
Rp53
(dp54
g25
I01
sg26
g31
sg32
(lp55
I3
aI5
aI31
aI9
asg34
I6
sg35
g36
(g3
tp56
Rp57
sbsS'SPEA2'
p58
g2
(g3
g4
(lp59
(dp60
g7
g8
sg9
F0.06308197975158691
sg10
I100
sg11
I0
sa(dp61
g7
g8
sg9
F114.26011204719543
sg10
I100
sg11
I100
sa(dp62
g7
g8
sg9
F248.6306869983673
sg10
I100
sg11
I200
sa(dp63
g7
g8
sg9
F393.4678530693054
sg10
I100
sg11
I300
sa(dp64
g7
g8
sg9
F539.0947861671448
sg10
I100
sg11
I400
sa(dp65
g7
g8
sg9
F689.6099691390991
sg10
I100
sg11
I500
satp66
Rp67
(dp68
g25
I01
sg26
g31
sg32
(lp69
I3
aI5
aI30
aI9
asg34
I6
sg35
g36
(g3
tp70
Rp71
sbsS'IBEA-PEN'
p72
g2
(g3
g4
(lp73
(dp74
g7
(F0.071
F0.991
F0.036
I3
I3
tp75
sg9
F0.12730002403259277
sg10
I100
sg11
I0
sa(dp76
g7
(F0.166
F0.654
F0.091
I38
I54
tp77
sg9
F13.850581169128418
sg10
I100
sg11
I100
sa(dp78
g7
(F0.175
F0.639
F0.093
I47
I77
tp79
sg9
F27.75024700164795
sg10
I100
sg11
I200
sa(dp80
g7
(F0.182
F0.675
F0.124
I64
I79
tp81
sg9
F41.813735008239746
sg10
I100
sg11
I300
sa(dp82
g7
(F0.179
F0.607
F0.08
I56
I72
tp83
sg9
F55.76556897163391
sg10
I100
sg11
I400
sa(dp84
g7
(F0.181
F0.646
F0.141
I61
I85
tp85
sg9
F69.74482297897339
sg10
I100
sg11
I500
satp86
Rp87
(dp88
g25
I01
sg26
g31
sg32
(lp89
I3
aI5
aI30
aI9
asg34
I6
sg35
g36
(g3
tp90
Rp91
sbsS'IBEA'
p92
g2
(g3
g4
(lp93
(dp94
g7
g8
sg9
F0.06198883056640625
sg10
I100
sg11
I0
sa(dp95
g7
g8
sg9
F10.225425004959106
sg10
I100
sg11
I100
sa(dp96
g7
g8
sg9
F20.548771858215332
sg10
I100
sg11
I200
sa(dp97
g7
g8
sg9
F30.87206196784973
sg10
I100
sg11
I300
sa(dp98
g7
g8
sg9
F41.16352987289429
sg10
I100
sg11
I400
sa(dp99
g7
g8
sg9
F51.502776861190796
sg10
I100
sg11
I500
satp100
Rp101
(dp102
g25
I01
sg26
g31
sg32
(lp103
I3
aI5
aI30
aI9
asg34
I6
sg35
g36
(g3
tp104
Rp105
sbsS'NSGA2'
p106
g2
(g3
g4
(lp107
(dp108
g7
g8
sg9
F0.062341928482055664
sg10
I100
sg11
I0
sa(dp109
g7
g8
sg9
F13.328058958053589
sg10
I100
sg11
I100
sa(dp110
g7
g8
sg9
F26.59041404724121
sg10
I100
sg11
I200
sa(dp111
g7
g8
sg9
F39.843810081481934
sg10
I100
sg11
I300
sa(dp112
g7
g8
sg9
F53.12799906730652
sg10
I100
sg11
I400
sa(dp113
g7
g8
sg9
F66.40113306045532
sg10
I100
sg11
I500
satp114
Rp115
(dp116
g25
I01
sg26
g31
sg32
(lp117
I3
aI5
aI30
aI9
asg34
I6
sg35
g36
(g3
tp118
Rp119
sbsS'IBEA-SIP'
p120
g2
(g3
g4
(lp121
(dp122
g7
(F0.072
F0.961
F0.056
I3
I3
tp123
sg9
F0.05107903480529785
sg10
I100
sg11
I0
sa(dp124
g7
(F0.169
F0.657
F0.126
I74
I100
tp125
sg9
F8.943150043487549
sg10
I100
sg11
I100
sa(dp126
g7
(F0.176
F0.533
F0.172
I81
I100
tp127
sg9
F17.945328950881958
sg10
I100
sg11
I200
sa(dp128
g7
(F0.179
F0.756
F0.101
I80
I100
tp129
sg9
F26.857812881469727
sg10
I100
sg11
I300
sa(dp130
g7
(F0.185
F0.654
F0.153
I83
I100
tp131
sg9
F35.66905093193054
sg10
I100
sg11
I400
sa(dp132
g7
(F0.185
F0.689
F0.126
I79
I100
tp133
sg9
F44.503374099731445
sg10
I100
sg11
I500
satp134
Rp135
(dp136
g25
I01
sg26
g31
sg32
(lp137
I3
aI5
aI30
aI9
asg34
I6
sg35
g36
(g3
tp138
Rp139
sbs.