(dp0
S'NSGA2-SIP'
p1
ccopy_reg
_reconstructor
p2
(cdeap.tools.support
Logbook
p3
c__builtin__
list
p4
(lp5
(dp6
S'hv|spread|igd|frontier#|valid#'
p7
(I0
I0
I0
I0
I0
tp8
sS'timestamp'
p9
F0.0479578971862793
sS'evals'
p10
I100
sS'gen'
p11
I0
sa(dp12
g7
(F0.167
F0.73
F0.184
I96
I100
tp13
sg9
F11.889694929122925
sg10
I100
sg11
I100
sa(dp14
g7
(F0.173
F0.651
F0.191
I99
I100
tp15
sg9
F23.958208799362183
sg10
I100
sg11
I200
sa(dp16
g7
(F0.177
F0.559
F0.189
I99
I100
tp17
sg9
F36.02167987823486
sg10
I100
sg11
I300
sa(dp18
g7
(F0.181
F0.629
F0.183
I98
I100
tp19
sg9
F47.98205089569092
sg10
I100
sg11
I400
sa(dp20
g7
(F0.186
F0.587
F0.168
I97
I100
tp21
sg9
F59.80877900123596
sg10
I100
sg11
I500
satp22
Rp23
(dp24
S'log_header'
p25
I01
sS'header'
p26
(S'gen'
p27
S'evals'
p28
S'hv|spread|igd|frontier#|valid#'
p29
S'timestamp'
p30
tp31
sS'columns_len'
p32
(lp33
I3
aI5
aI30
aI9
asS'buffindex'
p34
I6
sS'chapters'
p35
ccollections
defaultdict
p36
(g3
tp37
Rp38
sbsS'SPEA2-SIP'
p39
g2
(g3
g4
(lp40
(dp41
g7
g8
sg9
F0.04779791831970215
sg10
I100
sg11
I0
sa(dp42
g7
(F0.167
F0.583
F0.152
I100
I100
tp43
sg9
F66.88325881958008
sg10
I100
sg11
I100
sa(dp44
g7
(F0.171
F0.613
F0.183
I100
I100
tp45
sg9
F144.06760597229004
sg10
I100
sg11
I200
sa(dp46
g7
(F0.173
F0.609
F0.178
I100
I100
tp47
sg9
F219.58514285087585
sg10
I100
sg11
I300
sa(dp48
g7
(F0.175
F0.653
F0.174
I100
I100
tp49
sg9
F293.6207218170166
sg10
I100
sg11
I400
sa(dp50
g7
(F0.179
F0.543
F0.173
I100
I100
tp51
sg9
F370.5086169242859
sg10
I100
sg11
I500
satp52
Rp53
(dp54
g25
I01
sg26
g31
sg32
(lp55
I3
aI5
aI31
aI9
asg34
I6
sg35
g36
(g3
tp56
Rp57
sbsS'SPEA2'
p58
g2
(g3
g4
(lp59
(dp60
g7
g8
sg9
F0.06656908988952637
sg10
I100
sg11
I0
sa(dp61
g7
g8
sg9
F120.21857595443726
sg10
I100
sg11
I100
sa(dp62
g7
g8
sg9
F254.74243807792664
sg10
I100
sg11
I200
sa(dp63
g7
g8
sg9
F401.2538969516754
sg10
I100
sg11
I300
sa(dp64
g7
g8
sg9
F551.988893032074
sg10
I100
sg11
I400
sa(dp65
g7
g8
sg9
F714.8295409679413
sg10
I100
sg11
I500
satp66
Rp67
(dp68
g25
I01
sg26
g31
sg32
(lp69
I3
aI5
aI30
aI9
asg34
I6
sg35
g36
(g3
tp70
Rp71
sbsS'IBEA-PEN'
p72
g2
(g3
g4
(lp73
(dp74
g7
(F0.075
F1.009
F0.037
I4
I4
tp75
sg9
F0.17886590957641602
sg10
I100
sg11
I0
sa(dp76
g7
g8
sg9
F11.419181823730469
sg10
I100
sg11
I100
sa(dp77
g7
g8
sg9
F22.588101863861084
sg10
I100
sg11
I200
sa(dp78
g7
g8
sg9
F33.786263942718506
sg10
I100
sg11
I300
sa(dp79
g7
g8
sg9
F44.93450093269348
sg10
I100
sg11
I400
sa(dp80
g7
g8
sg9
F56.194522857666016
sg10
I100
sg11
I500
satp81
Rp82
(dp83
g25
I01
sg26
g31
sg32
(lp84
I3
aI5
aI30
aI9
asg34
I6
sg35
g36
(g3
tp85
Rp86
sbsS'IBEA'
p87
g2
(g3
g4
(lp88
(dp89
g7
g8
sg9
F0.06754803657531738
sg10
I100
sg11
I0
sa(dp90
g7
g8
sg9
F10.829853057861328
sg10
I100
sg11
I100
sa(dp91
g7
g8
sg9
F21.702178955078125
sg10
I100
sg11
I200
sa(dp92
g7
g8
sg9
F32.6414909362793
sg10
I100
sg11
I300
sa(dp93
g7
g8
sg9
F43.50787901878357
sg10
I100
sg11
I400
sa(dp94
g7
g8
sg9
F54.44716691970825
sg10
I100
sg11
I500
satp95
Rp96
(dp97
g25
I01
sg26
g31
sg32
(lp98
I3
aI5
aI30
aI9
asg34
I6
sg35
g36
(g3
tp99
Rp100
sbsS'NSGA2'
p101
g2
(g3
g4
(lp102
(dp103
g7
g8
sg9
F0.06730413436889648
sg10
I100
sg11
I0
sa(dp104
g7
g8
sg9
F14.539947986602783
sg10
I100
sg11
I100
sa(dp105
g7
g8
sg9
F29.0091609954834
sg10
I100
sg11
I200
sa(dp106
g7
g8
sg9
F43.46362495422363
sg10
I100
sg11
I300
sa(dp107
g7
g8
sg9
F57.92860698699951
sg10
I100
sg11
I400
sa(dp108
g7
g8
sg9
F72.30069208145142
sg10
I100
sg11
I500
satp109
Rp110
(dp111
g25
I01
sg26
g31
sg32
(lp112
I3
aI5
aI30
aI9
asg34
I6
sg35
g36
(g3
tp113
Rp114
sbsS'IBEA-SIP'
p115
g2
(g3
g4
(lp116
(dp117
g7
(F0.064
F2.177
F0.022
I1
I1
tp118
sg9
F0.05009102821350098
sg10
I100
sg11
I0
sa(dp119
g7
(F0.175
F0.671
F0.143
I78
I100
tp120
sg9
F9.539016008377075
sg10
I100
sg11
I100
sa(dp121
g7
(F0.178
F0.597
F0.138
I76
I100
tp122
sg9
F18.930357933044434
sg10
I100
sg11
I200
sa(dp123
g7
(F0.182
F0.793
F0.133
I72
I100
tp124
sg9
F28.26884698867798
sg10
I100
sg11
I300
sa(dp125
g7
(F0.181
F0.738
F0.159
I76
I100
tp126
sg9
F37.598331928253174
sg10
I100
sg11
I400
sa(dp127
g7
(F0.183
F0.71
F0.145
I75
I100
tp128
sg9
F46.82434797286987
sg10
I100
sg11
I500
satp129
Rp130
(dp131
g25
I01
sg26
g31
sg32
(lp132
I3
aI5
aI30
aI9
asg34
I6
sg35
g36
(g3
tp133
Rp134
sbs.