(dp0
S'NSGA2-SIP'
p1
ccopy_reg
_reconstructor
p2
(cdeap.tools.support
Logbook
p3
c__builtin__
list
p4
(lp5
(dp6
S'hv|spread|igd|frontier#|valid#'
p7
(I0
I0
I0
I0
I0
tp8
sS'timestamp'
p9
F0.04419112205505371
sS'evals'
p10
I100
sS'gen'
p11
I0
sa(dp12
g7
(F0.171
F0.58
F0.189
I99
I100
tp13
sg9
F10.766797065734863
sg10
I100
sg11
I100
sa(dp14
g7
(F0.175
F0.652
F0.195
I99
I100
tp15
sg9
F21.56691312789917
sg10
I100
sg11
I200
sa(dp16
g7
(F0.177
F0.591
F0.187
I98
I100
tp17
sg9
F32.12522792816162
sg10
I100
sg11
I300
sa(dp18
g7
(F0.178
F0.58
F0.188
I99
I100
tp19
sg9
F42.60363292694092
sg10
I100
sg11
I400
sa(dp20
g7
(F0.179
F0.62
F0.186
I99
I100
tp21
sg9
F53.081175088882446
sg10
I100
sg11
I500
satp22
Rp23
(dp24
S'log_header'
p25
I01
sS'header'
p26
(S'gen'
p27
S'evals'
p28
S'hv|spread|igd|frontier#|valid#'
p29
S'timestamp'
p30
tp31
sS'columns_len'
p32
(lp33
I3
aI5
aI30
aI9
asS'buffindex'
p34
I6
sS'chapters'
p35
ccollections
defaultdict
p36
(g3
tp37
Rp38
sbsS'SPEA2-SIP'
p39
g2
(g3
g4
(lp40
(dp41
g7
(F0.059
F0.82
F0.03
I1
I1
tp42
sg9
F0.046527862548828125
sg10
I100
sg11
I0
sa(dp43
g7
(F0.167
F0.596
F0.127
I100
I100
tp44
sg9
F62.93863391876221
sg10
I100
sg11
I100
sa(dp45
g7
(F0.173
F0.578
F0.147
I100
I100
tp46
sg9
F139.6136519908905
sg10
I100
sg11
I200
sa(dp47
g7
(F0.177
F0.596
F0.15
I100
I100
tp48
sg9
F213.43161487579346
sg10
I100
sg11
I300
sa(dp49
g7
(F0.178
F0.66
F0.159
I100
I100
tp50
sg9
F286.14703488349915
sg10
I100
sg11
I400
sa(dp51
g7
(F0.179
F0.598
F0.175
I100
I100
tp52
sg9
F358.7997350692749
sg10
I100
sg11
I500
satp53
Rp54
(dp55
g25
I01
sg26
g31
sg32
(lp56
I3
aI5
aI31
aI9
asg34
I6
sg35
g36
(g3
tp57
Rp58
sbsS'SPEA2'
p59
g2
(g3
g4
(lp60
(dp61
g7
g8
sg9
F0.06201291084289551
sg10
I100
sg11
I0
sa(dp62
g7
g8
sg9
F107.67501211166382
sg10
I100
sg11
I100
sa(dp63
g7
g8
sg9
F236.7037980556488
sg10
I100
sg11
I200
sa(dp64
g7
g8
sg9
F380.10978507995605
sg10
I100
sg11
I300
sa(dp65
g7
g8
sg9
F521.7865869998932
sg10
I100
sg11
I400
sa(dp66
g7
g8
sg9
F664.3331251144409
sg10
I100
sg11
I500
satp67
Rp68
(dp69
g25
I01
sg26
g31
sg32
(lp70
I3
aI5
aI30
aI9
asg34
I6
sg35
g36
(g3
tp71
Rp72
sbsS'IBEA'
p73
g2
(g3
g4
(lp74
(dp75
g7
g8
sg9
F0.06259894371032715
sg10
I100
sg11
I0
sa(dp76
g7
g8
sg9
F10.43247103691101
sg10
I100
sg11
I100
sa(dp77
g7
g8
sg9
F20.871088981628418
sg10
I100
sg11
I200
sa(dp78
g7
g8
sg9
F31.297905921936035
sg10
I100
sg11
I300
sa(dp79
g7
g8
sg9
F41.746407985687256
sg10
I100
sg11
I400
sa(dp80
g7
g8
sg9
F52.24180197715759
sg10
I100
sg11
I500
satp81
Rp82
(dp83
g25
I01
sg26
g31
sg32
(lp84
I3
aI5
aI30
aI9
asg34
I6
sg35
g36
(g3
tp85
Rp86
sbsS'NSGA2'
p87
g2
(g3
g4
(lp88
(dp89
g7
g8
sg9
F0.0620880126953125
sg10
I100
sg11
I0
sa(dp90
g7
g8
sg9
F13.31318998336792
sg10
I100
sg11
I100
sa(dp91
g7
g8
sg9
F26.531105995178223
sg10
I100
sg11
I200
sa(dp92
g7
g8
sg9
F39.812931060791016
sg10
I100
sg11
I300
sa(dp93
g7
g8
sg9
F53.07679891586304
sg10
I100
sg11
I400
sa(dp94
g7
g8
sg9
F66.32387089729309
sg10
I100
sg11
I500
satp95
Rp96
(dp97
g25
I01
sg26
g31
sg32
(lp98
I3
aI5
aI30
aI9
asg34
I6
sg35
g36
(g3
tp99
Rp100
sbsS'IBEA-SIP'
p101
g2
(g3
g4
(lp102
(dp103
g7
(F0.058
F0.8
F0.035
I1
I1
tp104
sg9
F0.04672503471374512
sg10
I100
sg11
I0
sa(dp105
g7
(F0.178
F0.698
F0.13
I81
I100
tp106
sg9
F9.012728929519653
sg10
I100
sg11
I100
sa(dp107
g7
(F0.179
F0.733
F0.12
I75
I100
tp108
sg9
F17.97879385948181
sg10
I100
sg11
I200
sa(dp109
g7
(F0.184
F0.607
F0.158
I82
I100
tp110
sg9
F26.95712900161743
sg10
I100
sg11
I300
sa(dp111
g7
(F0.185
F0.612
F0.14
I81
I100
tp112
sg9
F35.80288791656494
sg10
I100
sg11
I400
sa(dp113
g7
(F0.185
F0.629
F0.163
I76
I100
tp114
sg9
F44.46377396583557
sg10
I100
sg11
I500
satp115
Rp116
(dp117
g25
I01
sg26
g31
sg32
(lp118
I3
aI5
aI30
aI9
asg34
I6
sg35
g36
(g3
tp119
Rp120
sbs.