(dp0
S'NSGA2-SIP'
p1
ccopy_reg
_reconstructor
p2
(cdeap.tools.support
Logbook
p3
c__builtin__
list
p4
(lp5
(dp6
S'hv|spread|igd|frontier#|valid#'
p7
(I0
I0
I0
I0
I0
tp8
sS'timestamp'
p9
F0.04024100303649902
sS'evals'
p10
I100
sS'gen'
p11
I0
sa(dp12
g7
(F0.178
F0.616
F0.164
I98
I100
tp13
sg9
F9.74976897239685
sg10
I100
sg11
I100
sa(dp14
g7
(F0.182
F0.587
F0.176
I99
I100
tp15
sg9
F19.277264833450317
sg10
I100
sg11
I200
sa(dp16
g7
(F0.182
F0.645
F0.181
I99
I100
tp17
sg9
F28.86237597465515
sg10
I100
sg11
I300
sa(dp18
g7
(F0.185
F0.622
F0.176
I98
I100
tp19
sg9
F38.39828681945801
sg10
I100
sg11
I400
sa(dp20
g7
(F0.186
F0.612
F0.169
I96
I100
tp21
sg9
F47.842904806137085
sg10
I100
sg11
I500
satp22
Rp23
(dp24
S'log_header'
p25
I01
sS'header'
p26
(S'gen'
p27
S'evals'
p28
S'hv|spread|igd|frontier#|valid#'
p29
S'timestamp'
p30
tp31
sS'columns_len'
p32
(lp33
I3
aI5
aI30
aI9
asS'buffindex'
p34
I6
sS'chapters'
p35
ccollections
defaultdict
p36
(g3
tp37
Rp38
sbsS'SPEA2-SIP'
p39
g2
(g3
g4
(lp40
(dp41
g7
(F0.062
F2.227
F0.017
I1
I1
tp42
sg9
F0.0417940616607666
sg10
I100
sg11
I0
sa(dp43
g7
(F0.172
F0.648
F0.158
I100
I100
tp44
sg9
F59.06048798561096
sg10
I100
sg11
I100
sa(dp45
g7
(F0.176
F0.66
F0.17
I100
I100
tp46
sg9
F127.88302493095398
sg10
I100
sg11
I200
sa(dp47
g7
(F0.178
F0.623
F0.183
I100
I100
tp48
sg9
F192.8398449420929
sg10
I100
sg11
I300
sa(dp49
g7
(F0.18
F0.669
F0.171
I100
I100
tp50
sg9
F258.4058589935303
sg10
I100
sg11
I400
sa(dp51
g7
(F0.18
F0.652
F0.176
I100
I100
tp52
sg9
F325.15010499954224
sg10
I100
sg11
I500
satp53
Rp54
(dp55
g25
I01
sg26
g31
sg32
(lp56
I3
aI5
aI31
aI9
asg34
I6
sg35
g36
(g3
tp57
Rp58
sbsS'SPEA2'
p59
g2
(g3
g4
(lp60
(dp61
g7
g8
sg9
F0.05572795867919922
sg10
I100
sg11
I0
sa(dp62
g7
g8
sg9
F105.93415594100952
sg10
I100
sg11
I100
sa(dp63
g7
g8
sg9
F239.11923694610596
sg10
I100
sg11
I200
sa(dp64
g7
g8
sg9
F368.19893884658813
sg10
I100
sg11
I300
sa(dp65
g7
g8
sg9
F488.23014187812805
sg10
I100
sg11
I400
sa(dp66
g7
g8
sg9
F614.3772358894348
sg10
I100
sg11
I500
satp67
Rp68
(dp69
g25
I01
sg26
g31
sg32
(lp70
I3
aI5
aI30
aI9
asg34
I6
sg35
g36
(g3
tp71
Rp72
sbsS'IBEA'
p73
g2
(g3
g4
(lp74
(dp75
g7
g8
sg9
F0.05545496940612793
sg10
I100
sg11
I0
sa(dp76
g7
g8
sg9
F9.246701002120972
sg10
I100
sg11
I100
sa(dp77
g7
g8
sg9
F18.57782292366028
sg10
I100
sg11
I200
sa(dp78
g7
g8
sg9
F28.004472017288208
sg10
I100
sg11
I300
sa(dp79
g7
g8
sg9
F37.485289096832275
sg10
I100
sg11
I400
sa(dp80
g7
g8
sg9
F46.97661089897156
sg10
I100
sg11
I500
satp81
Rp82
(dp83
g25
I01
sg26
g31
sg32
(lp84
I3
aI5
aI30
aI9
asg34
I6
sg35
g36
(g3
tp85
Rp86
sbsS'NSGA2'
p87
g2
(g3
g4
(lp88
(dp89
g7
g8
sg9
F0.05509495735168457
sg10
I100
sg11
I0
sa(dp90
g7
g8
sg9
F11.83060908317566
sg10
I100
sg11
I100
sa(dp91
g7
g8
sg9
F23.587647914886475
sg10
I100
sg11
I200
sa(dp92
g7
g8
sg9
F35.3469820022583
sg10
I100
sg11
I300
sa(dp93
g7
g8
sg9
F47.11220908164978
sg10
I100
sg11
I400
sa(dp94
g7
g8
sg9
F58.83617186546326
sg10
I100
sg11
I500
satp95
Rp96
(dp97
g25
I01
sg26
g31
sg32
(lp98
I3
aI5
aI30
aI9
asg34
I6
sg35
g36
(g3
tp99
Rp100
sbsS'IBEA-SIP'
p101
g2
(g3
g4
(lp102
(dp103
g7
(F0.071
F0.939
F0.039
I2
I2
tp104
sg9
F0.043556928634643555
sg10
I100
sg11
I0
sa(dp105
g7
(F0.173
F0.625
F0.18
I76
I100
tp106
sg9
F7.800616979598999
sg10
I100
sg11
I100
sa(dp107
g7
(F0.177
F0.595
F0.135
I74
I100
tp108
sg9
F15.621033906936646
sg10
I100
sg11
I200
sa(dp109
g7
(F0.176
F0.511
F0.162
I80
I100
tp110
sg9
F23.499361991882324
sg10
I100
sg11
I300
sa(dp111
g7
(F0.18
F0.723
F0.149
I84
I100
tp112
sg9
F31.44309401512146
sg10
I100
sg11
I400
sa(dp113
g7
(F0.178
F0.723
F0.109
I76
I100
tp114
sg9
F39.36785888671875
sg10
I100
sg11
I500
satp115
Rp116
(dp117
g25
I01
sg26
g31
sg32
(lp118
I3
aI5
aI30
aI9
asg34
I6
sg35
g36
(g3
tp119
Rp120
sbs.