(dp0
S'NSGA2-SIP'
p1
ccopy_reg
_reconstructor
p2
(cdeap.tools.support
Logbook
p3
c__builtin__
list
p4
(lp5
(dp6
S'hv|spread|igd|frontier#|valid#'
p7
(I0
I0
I0
I0
I0
tp8
sS'timestamp'
p9
F0.047898054122924805
sS'evals'
p10
I100
sS'gen'
p11
I0
sa(dp12
g7
(F0.174
F0.641
F0.155
I97
I100
tp13
sg9
F11.711334943771362
sg10
I100
sg11
I100
sa(dp14
g7
(F0.178
F0.64
F0.187
I99
I100
tp15
sg9
F23.281347036361694
sg10
I100
sg11
I200
sa(dp16
g7
(F0.18
F0.621
F0.189
I99
I100
tp17
sg9
F35.07323503494263
sg10
I100
sg11
I300
sa(dp18
g7
(F0.182
F0.651
F0.18
I98
I100
tp19
sg9
F46.870635986328125
sg10
I100
sg11
I400
sa(dp20
g7
(F0.182
F0.617
F0.184
I98
I100
tp21
sg9
F58.51735305786133
sg10
I100
sg11
I500
satp22
Rp23
(dp24
S'log_header'
p25
I01
sS'header'
p26
(S'gen'
p27
S'evals'
p28
S'hv|spread|igd|frontier#|valid#'
p29
S'timestamp'
p30
tp31
sS'columns_len'
p32
(lp33
I3
aI5
aI30
aI9
asS'buffindex'
p34
I6
sS'chapters'
p35
ccollections
defaultdict
p36
(g3
tp37
Rp38
sbsS'SPEA2-SIP'
p39
g2
(g3
g4
(lp40
(dp41
g7
g8
sg9
F0.04811406135559082
sg10
I100
sg11
I0
sa(dp42
g7
(F0.169
F0.616
F0.167
I100
I100
tp43
sg9
F66.3724570274353
sg10
I100
sg11
I100
sa(dp44
g7
(F0.175
F0.577
F0.153
I100
I100
tp45
sg9
F144.2649221420288
sg10
I100
sg11
I200
sa(dp46
g7
(F0.176
F0.531
F0.157
I100
I100
tp47
sg9
F222.7507770061493
sg10
I100
sg11
I300
sa(dp48
g7
(F0.178
F0.602
F0.153
I100
I100
tp49
sg9
F302.5485911369324
sg10
I100
sg11
I400
sa(dp50
g7
(F0.18
F0.52
F0.144
I100
I100
tp51
sg9
F380.01963901519775
sg10
I100
sg11
I500
satp52
Rp53
(dp54
g25
I01
sg26
g31
sg32
(lp55
I3
aI5
aI31
aI9
asg34
I6
sg35
g36
(g3
tp56
Rp57
sbsS'SPEA2'
p58
g2
(g3
g4
(lp59
(dp60
g7
g8
sg9
F0.06882977485656738
sg10
I100
sg11
I0
sa(dp61
g7
g8
sg9
F129.40313076972961
sg10
I100
sg11
I100
sa(dp62
g7
g8
sg9
F264.2719669342041
sg10
I100
sg11
I200
sa(dp63
g7
g8
sg9
F410.5023159980774
sg10
I100
sg11
I300
sa(dp64
g7
g8
sg9
F554.6971778869629
sg10
I100
sg11
I400
sa(dp65
g7
g8
sg9
F706.5446789264679
sg10
I100
sg11
I500
satp66
Rp67
(dp68
g25
I01
sg26
g31
sg32
(lp69
I3
aI5
aI30
aI9
asg34
I6
sg35
g36
(g3
tp70
Rp71
sbsS'IBEA-PEN'
p72
g2
(g3
g4
(lp73
(dp74
g7
(F0.074
F0.983
F0.041
I3
I3
tp75
sg9
F0.17499089241027832
sg10
I100
sg11
I0
sa(dp76
g7
g8
sg9
F11.241123914718628
sg10
I100
sg11
I100
sa(dp77
g7
g8
sg9
F22.29341697692871
sg10
I100
sg11
I200
sa(dp78
g7
g8
sg9
F33.44892406463623
sg10
I100
sg11
I300
sa(dp79
g7
g8
sg9
F44.7318000793457
sg10
I100
sg11
I400
sa(dp80
g7
g8
sg9
F56.00188899040222
sg10
I100
sg11
I500
satp81
Rp82
(dp83
g25
I01
sg26
g31
sg32
(lp84
I3
aI5
aI30
aI9
asg34
I6
sg35
g36
(g3
tp85
Rp86
sbsS'IBEA'
p87
g2
(g3
g4
(lp88
(dp89
g7
g8
sg9
F0.06750702857971191
sg10
I100
sg11
I0
sa(dp90
g7
g8
sg9
F10.840182065963745
sg10
I100
sg11
I100
sa(dp91
g7
g8
sg9
F21.675001859664917
sg10
I100
sg11
I200
sa(dp92
g7
g8
sg9
F32.51334095001221
sg10
I100
sg11
I300
sa(dp93
g7
g8
sg9
F43.464300870895386
sg10
I100
sg11
I400
sa(dp94
g7
g8
sg9
F54.43830394744873
sg10
I100
sg11
I500
satp95
Rp96
(dp97
g25
I01
sg26
g31
sg32
(lp98
I3
aI5
aI30
aI9
asg34
I6
sg35
g36
(g3
tp99
Rp100
sbsS'NSGA2'
p101
g2
(g3
g4
(lp102
(dp103
g7
g8
sg9
F0.06760096549987793
sg10
I100
sg11
I0
sa(dp104
g7
g8
sg9
F15.053950071334839
sg10
I100
sg11
I100
sa(dp105
g7
g8
sg9
F29.972098112106323
sg10
I100
sg11
I200
sa(dp106
g7
g8
sg9
F44.92439413070679
sg10
I100
sg11
I300
sa(dp107
g7
g8
sg9
F59.88809108734131
sg10
I100
sg11
I400
sa(dp108
g7
g8
sg9
F74.84049105644226
sg10
I100
sg11
I500
satp109
Rp110
(dp111
g25
I01
sg26
g31
sg32
(lp112
I3
aI5
aI30
aI9
asg34
I6
sg35
g36
(g3
tp113
Rp114
sbsS'IBEA-SIP'
p115
g2
(g3
g4
(lp116
(dp117
g7
g8
sg9
F0.04800891876220703
sg10
I100
sg11
I0
sa(dp118
g7
(F0.169
F0.648
F0.151
I83
I100
tp119
sg9
F9.39015007019043
sg10
I100
sg11
I100
sa(dp120
g7
(F0.175
F0.623
F0.128
I80
I100
tp121
sg9
F19.016730070114136
sg10
I100
sg11
I200
sa(dp122
g7
(F0.181
F0.617
F0.148
I79
I100
tp123
sg9
F28.365376949310303
sg10
I100
sg11
I300
sa(dp124
g7
(F0.18
F0.599
F0.162
I75
I100
tp125
sg9
F37.61107611656189
sg10
I100
sg11
I400
sa(dp126
g7
(F0.183
F0.704
F0.156
I81
I100
tp127
sg9
F46.95517897605896
sg10
I100
sg11
I500
satp128
Rp129
(dp130
g25
I01
sg26
g31
sg32
(lp131
I3
aI5
aI30
aI9
asg34
I6
sg35
g36
(g3
tp132
Rp133
sbs.