(dp0
S'NSGA2-SIP'
p1
ccopy_reg
_reconstructor
p2
(cdeap.tools.support
Logbook
p3
c__builtin__
list
p4
(lp5
(dp6
S'hv|spread|igd|frontier#|valid#'
p7
(I0
I0
I0
I0
I0
tp8
sS'timestamp'
p9
F0.043901920318603516
sS'evals'
p10
I100
sS'gen'
p11
I0
sa(dp12
g7
(F0.17
F0.629
F0.181
I98
I100
tp13
sg9
F9.586216926574707
sg10
I100
sg11
I100
sa(dp14
g7
(F0.175
F0.635
F0.191
I98
I100
tp15
sg9
F19.024276971817017
sg10
I100
sg11
I200
sa(dp16
g7
(F0.176
F0.643
F0.191
I99
I100
tp17
sg9
F28.368494033813477
sg10
I100
sg11
I300
sa(dp18
g7
(F0.176
F0.675
F0.186
I97
I100
tp19
sg9
F37.75843000411987
sg10
I100
sg11
I400
sa(dp20
g7
(F0.177
F0.612
F0.191
I96
I100
tp21
sg9
F47.166945934295654
sg10
I100
sg11
I500
satp22
Rp23
(dp24
S'log_header'
p25
I01
sS'header'
p26
(S'gen'
p27
S'evals'
p28
S'hv|spread|igd|frontier#|valid#'
p29
S'timestamp'
p30
tp31
sS'columns_len'
p32
(lp33
I3
aI5
aI30
aI9
asS'buffindex'
p34
I6
sS'chapters'
p35
ccollections
defaultdict
p36
(g3
tp37
Rp38
sbsS'SPEA2-SIP'
p39
g2
(g3
g4
(lp40
(dp41
g7
g8
sg9
F0.060491085052490234
sg10
I100
sg11
I0
sa(dp42
g7
(F0.175
F0.654
F0.124
I100
I100
tp43
sg9
F56.32479286193848
sg10
I100
sg11
I100
sa(dp44
g7
(F0.179
F0.584
F0.13
I100
I100
tp45
sg9
F124.38041996955872
sg10
I100
sg11
I200
sa(dp46
g7
(F0.182
F0.584
F0.135
I100
I100
tp47
sg9
F192.53439807891846
sg10
I100
sg11
I300
sa(dp48
g7
(F0.184
F0.626
F0.143
I100
I100
tp49
sg9
F257.85540986061096
sg10
I100
sg11
I400
sa(dp50
g7
(F0.185
F0.605
F0.149
I100
I100
tp51
sg9
F323.97064208984375
sg10
I100
sg11
I500
satp52
Rp53
(dp54
g25
I01
sg26
g31
sg32
(lp55
I3
aI5
aI31
aI9
asg34
I6
sg35
g36
(g3
tp56
Rp57
sbsS'SPEA2'
p58
g2
(g3
g4
(lp59
(dp60
g7
g8
sg9
F0.0611729621887207
sg10
I100
sg11
I0
sa(dp61
g7
g8
sg9
F104.50270414352417
sg10
I100
sg11
I100
sa(dp62
g7
g8
sg9
F224.12717199325562
sg10
I100
sg11
I200
sa(dp63
g7
g8
sg9
F349.403480052948
sg10
I100
sg11
I300
sa(dp64
g7
g8
sg9
F479.124715089798
sg10
I100
sg11
I400
sa(dp65
g7
g8
sg9
F606.6334309577942
sg10
I100
sg11
I500
satp66
Rp67
(dp68
g25
I01
sg26
g31
sg32
(lp69
I3
aI5
aI30
aI9
asg34
I6
sg35
g36
(g3
tp70
Rp71
sbsS'IBEA-PEN'
p72
g2
(g3
g4
(lp73
(dp74
g7
(F0.085
F0.976
F0.031
I3
I4
tp75
sg9
F0.15616106986999512
sg10
I100
sg11
I0
sa(dp76
g7
g8
sg9
F9.833415031433105
sg10
I100
sg11
I100
sa(dp77
g7
g8
sg9
F19.332618951797485
sg10
I100
sg11
I200
sa(dp78
g7
g8
sg9
F28.847023010253906
sg10
I100
sg11
I300
sa(dp79
g7
g8
sg9
F38.7089409828186
sg10
I100
sg11
I400
sa(dp80
g7
g8
sg9
F48.26182007789612
sg10
I100
sg11
I500
satp81
Rp82
(dp83
g25
I01
sg26
g31
sg32
(lp84
I3
aI5
aI30
aI9
asg34
I6
sg35
g36
(g3
tp85
Rp86
sbsS'IBEA'
p87
g2
(g3
g4
(lp88
(dp89
g7
g8
sg9
F0.08086204528808594
sg10
I100
sg11
I0
sa(dp90
g7
g8
sg9
F9.420937061309814
sg10
I100
sg11
I100
sa(dp91
g7
g8
sg9
F18.814717054367065
sg10
I100
sg11
I200
sa(dp92
g7
g8
sg9
F27.966815948486328
sg10
I100
sg11
I300
sa(dp93
g7
g8
sg9
F37.14829897880554
sg10
I100
sg11
I400
sa(dp94
g7
g8
sg9
F46.38523888587952
sg10
I100
sg11
I500
satp95
Rp96
(dp97
g25
I01
sg26
g31
sg32
(lp98
I3
aI5
aI30
aI9
asg34
I6
sg35
g36
(g3
tp99
Rp100
sbsS'NSGA2'
p101
g2
(g3
g4
(lp102
(dp103
g7
g8
sg9
F0.061285972595214844
sg10
I100
sg11
I0
sa(dp104
g7
g8
sg9
F11.983229875564575
sg10
I100
sg11
I100
sa(dp105
g7
g8
sg9
F23.696079969406128
sg10
I100
sg11
I200
sa(dp106
g7
g8
sg9
F35.40835499763489
sg10
I100
sg11
I300
sa(dp107
g7
g8
sg9
F47.122535943984985
sg10
I100
sg11
I400
sa(dp108
g7
g8
sg9
F58.82096600532532
sg10
I100
sg11
I500
satp109
Rp110
(dp111
g25
I01
sg26
g31
sg32
(lp112
I3
aI5
aI30
aI9
asg34
I6
sg35
g36
(g3
tp113
Rp114
sbsS'IBEA-SIP'
p115
g2
(g3
g4
(lp116
(dp117
g7
(F0.087
F0.957
F0.042
I3
I3
tp118
sg9
F0.04952192306518555
sg10
I100
sg11
I0
sa(dp119
g7
(F0.173
F0.575
F0.122
I82
I100
tp120
sg9
F8.092960834503174
sg10
I100
sg11
I100
sa(dp121
g7
(F0.177
F0.629
F0.162
I75
I100
tp122
sg9
F15.905947923660278
sg10
I100
sg11
I200
sa(dp123
g7
(F0.184
F0.586
F0.157
I81
I100
tp124
sg9
F23.70717191696167
sg10
I100
sg11
I300
sa(dp125
g7
(F0.183
F0.702
F0.155
I74
I100
tp126
sg9
F31.485843896865845
sg10
I100
sg11
I400
sa(dp127
g7
(F0.186
F0.568
F0.143
I81
I100
tp128
sg9
F39.35688090324402
sg10
I100
sg11
I500
satp129
Rp130
(dp131
g25
I01
sg26
g31
sg32
(lp132
I3
aI5
aI30
aI9
asg34
I6
sg35
g36
(g3
tp133
Rp134
sbs.