(dp0
S'NSGA2-SIP'
p1
ccopy_reg
_reconstructor
p2
(cdeap.tools.support
Logbook
p3
c__builtin__
list
p4
(lp5
(dp6
S'hv|spread|igd|frontier#|valid#'
p7
(I0
I0
I0
I0
I0
tp8
sS'timestamp'
p9
F0.043463945388793945
sS'evals'
p10
I100
sS'gen'
p11
I0
sa(dp12
g7
(F0.173
F0.564
F0.184
I98
I100
tp13
sg9
F10.458223819732666
sg10
I100
sg11
I100
sa(dp14
g7
(F0.178
F0.613
F0.163
I98
I100
tp15
sg9
F20.906358003616333
sg10
I100
sg11
I200
sa(dp16
g7
(F0.18
F0.632
F0.179
I99
I100
tp17
sg9
F31.11975598335266
sg10
I100
sg11
I300
sa(dp18
g7
(F0.184
F0.624
F0.176
I98
I100
tp19
sg9
F41.379472970962524
sg10
I100
sg11
I400
sa(dp20
g7
(F0.185
F0.629
F0.169
I99
I100
tp21
sg9
F51.680874824523926
sg10
I100
sg11
I500
satp22
Rp23
(dp24
S'log_header'
p25
I01
sS'header'
p26
(S'gen'
p27
S'evals'
p28
S'hv|spread|igd|frontier#|valid#'
p29
S'timestamp'
p30
tp31
sS'columns_len'
p32
(lp33
I3
aI5
aI30
aI9
asS'buffindex'
p34
I6
sS'chapters'
p35
ccollections
defaultdict
p36
(g3
tp37
Rp38
sbsS'SPEA2-SIP'
p39
g2
(g3
g4
(lp40
(dp41
g7
g8
sg9
F0.043586015701293945
sg10
I100
sg11
I0
sa(dp42
g7
(F0.16
F0.647
F0.168
I100
I100
tp43
sg9
F62.25650691986084
sg10
I100
sg11
I100
sa(dp44
g7
(F0.163
F0.598
F0.194
I100
I100
tp45
sg9
F133.37636303901672
sg10
I100
sg11
I200
sa(dp46
g7
(F0.166
F0.62
F0.188
I100
I100
tp47
sg9
F205.9501349925995
sg10
I100
sg11
I300
sa(dp48
g7
(F0.173
F0.59
F0.174
I100
I100
tp49
sg9
F278.9040279388428
sg10
I100
sg11
I400
sa(dp50
g7
(F0.174
F0.581
F0.167
I100
I100
tp51
sg9
F352.59291195869446
sg10
I100
sg11
I500
satp52
Rp53
(dp54
g25
I01
sg26
g31
sg32
(lp55
I3
aI5
aI31
aI9
asg34
I6
sg35
g36
(g3
tp56
Rp57
sbsS'SPEA2'
p58
g2
(g3
g4
(lp59
(dp60
g7
g8
sg9
F0.06059002876281738
sg10
I100
sg11
I0
sa(dp61
g7
g8
sg9
F123.58032393455505
sg10
I100
sg11
I100
sa(dp62
g7
g8
sg9
F265.55424308776855
sg10
I100
sg11
I200
sa(dp63
g7
g8
sg9
F402.24860095977783
sg10
I100
sg11
I300
sa(dp64
g7
g8
sg9
F548.3519539833069
sg10
I100
sg11
I400
sa(dp65
g7
g8
sg9
F697.7904169559479
sg10
I100
sg11
I500
satp66
Rp67
(dp68
g25
I01
sg26
g31
sg32
(lp69
I3
aI5
aI30
aI9
asg34
I6
sg35
g36
(g3
tp70
Rp71
sbsS'IBEA-PEN'
p72
g2
(g3
g4
(lp73
(dp74
g7
(F0.084
F0.955
F0.025
I5
I5
tp75
sg9
F0.12891292572021484
sg10
I100
sg11
I0
sa(dp76
g7
(F0.163
F0.734
F0.135
I44
I65
tp77
sg9
F13.564050912857056
sg10
I100
sg11
I100
sa(dp78
g7
(F0.175
F0.647
F0.094
I48
I69
tp79
sg9
F27.212400913238525
sg10
I100
sg11
I200
sa(dp80
g7
(F0.178
F0.607
F0.109
I65
I80
tp81
sg9
F41.00205707550049
sg10
I100
sg11
I300
sa(dp82
g7
(F0.18
F0.636
F0.104
I61
I83
tp83
sg9
F54.77875995635986
sg10
I100
sg11
I400
sa(dp84
g7
(F0.184
F0.702
F0.135
I57
I77
tp85
sg9
F68.6085159778595
sg10
I100
sg11
I500
satp86
Rp87
(dp88
g25
I01
sg26
g31
sg32
(lp89
I3
aI5
aI30
aI9
asg34
I6
sg35
g36
(g3
tp90
Rp91
sbsS'IBEA'
p92
g2
(g3
g4
(lp93
(dp94
g7
g8
sg9
F0.060827016830444336
sg10
I100
sg11
I0
sa(dp95
g7
g8
sg9
F10.160947799682617
sg10
I100
sg11
I100
sa(dp96
g7
g8
sg9
F20.39538288116455
sg10
I100
sg11
I200
sa(dp97
g7
g8
sg9
F30.62798285484314
sg10
I100
sg11
I300
sa(dp98
g7
g8
sg9
F41.00425982475281
sg10
I100
sg11
I400
sa(dp99
g7
g8
sg9
F51.32624888420105
sg10
I100
sg11
I500
satp100
Rp101
(dp102
g25
I01
sg26
g31
sg32
(lp103
I3
aI5
aI30
aI9
asg34
I6
sg35
g36
(g3
tp104
Rp105
sbsS'NSGA2'
p106
g2
(g3
g4
(lp107
(dp108
g7
g8
sg9
F0.06043100357055664
sg10
I100
sg11
I0
sa(dp109
g7
g8
sg9
F12.967744827270508
sg10
I100
sg11
I100
sa(dp110
g7
g8
sg9
F25.855949878692627
sg10
I100
sg11
I200
sa(dp111
g7
g8
sg9
F38.7402138710022
sg10
I100
sg11
I300
sa(dp112
g7
g8
sg9
F51.60685992240906
sg10
I100
sg11
I400
sa(dp113
g7
g8
sg9
F64.4688458442688
sg10
I100
sg11
I500
satp114
Rp115
(dp116
g25
I01
sg26
g31
sg32
(lp117
I3
aI5
aI30
aI9
asg34
I6
sg35
g36
(g3
tp118
Rp119
sbsS'IBEA-SIP'
p120
g2
(g3
g4
(lp121
(dp122
g7
g8
sg9
F0.043431997299194336
sg10
I100
sg11
I0
sa(dp123
g7
(F0.175
F0.634
F0.152
I76
I100
tp124
sg9
F8.691681861877441
sg10
I100
sg11
I100
sa(dp125
g7
(F0.179
F0.74
F0.145
I74
I100
tp126
sg9
F17.33337378501892
sg10
I100
sg11
I200
sa(dp127
g7
(F0.179
F0.66
F0.144
I70
I100
tp128
sg9
F25.70174288749695
sg10
I100
sg11
I300
sa(dp129
g7
(F0.178
F0.619
F0.157
I70
I100
tp130
sg9
F34.249571800231934
sg10
I100
sg11
I400
sa(dp131
g7
(F0.18
F0.679
F0.165
I74
I100
tp132
sg9
F42.824283838272095
sg10
I100
sg11
I500
satp133
Rp134
(dp135
g25
I01
sg26
g31
sg32
(lp136
I3
aI5
aI30
aI9
asg34
I6
sg35
g36
(g3
tp137
Rp138
sbs.