(dp0
S'NSGA2-SIP'
p1
ccopy_reg
_reconstructor
p2
(cdeap.tools.support
Logbook
p3
c__builtin__
list
p4
(lp5
(dp6
S'hv|spread|igd|frontier#|valid#'
p7
(I0
I0
I0
I0
I0
tp8
sS'timestamp'
p9
F0.04421210289001465
sS'evals'
p10
I100
sS'gen'
p11
I0
sa(dp12
g7
(F0.172
F0.623
F0.185
I98
I100
tp13
sg9
F9.688171148300171
sg10
I100
sg11
I100
sa(dp14
g7
(F0.181
F0.584
F0.175
I99
I100
tp15
sg9
F19.106982946395874
sg10
I100
sg11
I200
sa(dp16
g7
(F0.183
F0.595
F0.192
I100
I100
tp17
sg9
F28.545557022094727
sg10
I100
sg11
I300
sa(dp18
g7
(F0.184
F0.692
F0.184
I98
I100
tp19
sg9
F38.03675293922424
sg10
I100
sg11
I400
sa(dp20
g7
(F0.188
F0.6
F0.174
I97
I100
tp21
sg9
F47.4693500995636
sg10
I100
sg11
I500
satp22
Rp23
(dp24
S'log_header'
p25
I01
sS'header'
p26
(S'gen'
p27
S'evals'
p28
S'hv|spread|igd|frontier#|valid#'
p29
S'timestamp'
p30
tp31
sS'columns_len'
p32
(lp33
I3
aI5
aI31
aI9
asS'buffindex'
p34
I6
sS'chapters'
p35
ccollections
defaultdict
p36
(g3
tp37
Rp38
sbsS'SPEA2-SIP'
p39
g2
(g3
g4
(lp40
(dp41
g7
(F0.059
F0.92
F0.051
I1
I1
tp42
sg9
F0.0464940071105957
sg10
I100
sg11
I0
sa(dp43
g7
(F0.165
F0.624
F0.147
I100
I100
tp44
sg9
F61.01370906829834
sg10
I100
sg11
I100
sa(dp45
g7
(F0.17
F0.671
F0.155
I100
I100
tp46
sg9
F129.71307611465454
sg10
I100
sg11
I200
sa(dp47
g7
(F0.174
F0.605
F0.165
I100
I100
tp48
sg9
F198.8975110054016
sg10
I100
sg11
I300
sa(dp49
g7
(F0.174
F0.6
F0.166
I100
I100
tp50
sg9
F265.46642303466797
sg10
I100
sg11
I400
sa(dp51
g7
(F0.175
F0.57
F0.16
I100
I100
tp52
sg9
F333.4335310459137
sg10
I100
sg11
I500
satp53
Rp54
(dp55
g25
I01
sg26
g31
sg32
(lp56
I3
aI5
aI31
aI9
asg34
I6
sg35
g36
(g3
tp57
Rp58
sbsS'SPEA2'
p59
g2
(g3
g4
(lp60
(dp61
g7
g8
sg9
F0.062168121337890625
sg10
I100
sg11
I0
sa(dp62
g7
g8
sg9
F112.65631008148193
sg10
I100
sg11
I100
sa(dp63
g7
g8
sg9
F243.78179121017456
sg10
I100
sg11
I200
sa(dp64
g7
g8
sg9
F373.4198441505432
sg10
I100
sg11
I300
sa(dp65
g7
g8
sg9
F511.53586506843567
sg10
I100
sg11
I400
sa(dp66
g7
g8
sg9
F645.0861110687256
sg10
I100
sg11
I500
satp67
Rp68
(dp69
g25
I01
sg26
g31
sg32
(lp70
I3
aI5
aI30
aI9
asg34
I6
sg35
g36
(g3
tp71
Rp72
sbsS'IBEA'
p73
g2
(g3
g4
(lp74
(dp75
g7
g8
sg9
F0.06279897689819336
sg10
I100
sg11
I0
sa(dp76
g7
g8
sg9
F9.629578113555908
sg10
I100
sg11
I100
sa(dp77
g7
g8
sg9
F19.079241037368774
sg10
I100
sg11
I200
sa(dp78
g7
g8
sg9
F28.569216012954712
sg10
I100
sg11
I300
sa(dp79
g7
g8
sg9
F38.15397000312805
sg10
I100
sg11
I400
sa(dp80
g7
g8
sg9
F47.766217947006226
sg10
I100
sg11
I500
satp81
Rp82
(dp83
g25
I01
sg26
g31
sg32
(lp84
I3
aI5
aI30
aI9
asg34
I6
sg35
g36
(g3
tp85
Rp86
sbsS'NSGA2'
p87
g2
(g3
g4
(lp88
(dp89
g7
g8
sg9
F0.061917781829833984
sg10
I100
sg11
I0
sa(dp90
g7
g8
sg9
F12.014842987060547
sg10
I100
sg11
I100
sa(dp91
g7
g8
sg9
F23.756176948547363
sg10
I100
sg11
I200
sa(dp92
g7
g8
sg9
F35.53917694091797
sg10
I100
sg11
I300
sa(dp93
g7
g8
sg9
F47.28508496284485
sg10
I100
sg11
I400
sa(dp94
g7
g8
sg9
F59.0388298034668
sg10
I100
sg11
I500
satp95
Rp96
(dp97
g25
I01
sg26
g31
sg32
(lp98
I3
aI5
aI30
aI9
asg34
I6
sg35
g36
(g3
tp99
Rp100
sbsS'IBEA-SIP'
p101
g2
(g3
g4
(lp102
(dp103
g7
(F0.07
F0.927
F0.04
I2
I2
tp104
sg9
F0.04785799980163574
sg10
I100
sg11
I0
sa(dp105
g7
(F0.17
F0.665
F0.147
I76
I100
tp106
sg9
F8.33927297592163
sg10
I100
sg11
I100
sa(dp107
g7
(F0.175
F0.638
F0.154
I79
I100
tp108
sg9
F16.311100959777832
sg10
I100
sg11
I200
sa(dp109
g7
(F0.182
F0.648
F0.153
I87
I100
tp110
sg9
F24.357556104660034
sg10
I100
sg11
I300
sa(dp111
g7
(F0.18
F0.613
F0.155
I74
I100
tp112
sg9
F32.25664305686951
sg10
I100
sg11
I400
sa(dp113
g7
(F0.182
F0.579
F0.135
I79
I100
tp114
sg9
F40.27212190628052
sg10
I100
sg11
I500
satp115
Rp116
(dp117
g25
I01
sg26
g31
sg32
(lp118
I3
aI5
aI30
aI9
asg34
I6
sg35
g36
(g3
tp119
Rp120
sbs.