(dp0
S'NSGA2-SIP'
p1
ccopy_reg
_reconstructor
p2
(cdeap.tools.support
Logbook
p3
c__builtin__
list
p4
(lp5
(dp6
S'hv|spread|igd|frontier#|valid#'
p7
(F0.068
F0.962
F0.049
I2
I2
tp8
sS'timestamp'
p9
F0.0438690185546875
sS'evals'
p10
I100
sS'gen'
p11
I0
sa(dp12
g7
(F0.173
F0.617
F0.173
I98
I100
tp13
sg9
F9.657939910888672
sg10
I100
sg11
I100
sa(dp14
g7
(F0.176
F0.541
F0.17
I97
I100
tp15
sg9
F19.30294394493103
sg10
I100
sg11
I200
sa(dp16
g7
(F0.179
F0.633
F0.176
I97
I100
tp17
sg9
F28.807904958724976
sg10
I100
sg11
I300
sa(dp18
g7
(F0.18
F0.636
F0.18
I98
I100
tp19
sg9
F38.30748105049133
sg10
I100
sg11
I400
sa(dp20
g7
(F0.184
F0.606
F0.181
I99
I100
tp21
sg9
F47.828526973724365
sg10
I100
sg11
I500
satp22
Rp23
(dp24
S'log_header'
p25
I01
sS'header'
p26
(S'gen'
p27
S'evals'
p28
g7
S'timestamp'
p29
tp30
sS'columns_len'
p31
(lp32
I3
aI5
aI30
aI9
asS'buffindex'
p33
I6
sS'chapters'
p34
ccollections
defaultdict
p35
(g3
tp36
Rp37
sbsS'SPEA2-SIP'
p38
g2
(g3
g4
(lp39
(dp40
g7
(I0
I0
I0
I0
I0
tp41
sg9
F0.04022693634033203
sg10
I100
sg11
I0
sa(dp42
g7
(F0.165
F0.626
F0.158
I100
I100
tp43
sg9
F60.090384006500244
sg10
I100
sg11
I100
sa(dp44
g7
(F0.171
F0.604
F0.169
I100
I100
tp45
sg9
F130.785089969635
sg10
I100
sg11
I200
sa(dp46
g7
(F0.172
F0.638
F0.163
I100
I100
tp47
sg9
F201.84195399284363
sg10
I100
sg11
I300
sa(dp48
g7
(F0.176
F0.624
F0.161
I100
I100
tp49
sg9
F275.82239294052124
sg10
I100
sg11
I400
sa(dp50
g7
(F0.176
F0.609
F0.156
I100
I100
tp51
sg9
F347.4248580932617
sg10
I100
sg11
I500
satp52
Rp53
(dp54
g25
I01
sg26
g30
sg31
(lp55
I3
aI5
aI31
aI9
asg33
I6
sg34
g35
(g3
tp56
Rp57
sbsS'SPEA2'
p58
g2
(g3
g4
(lp59
(dp60
g7
g41
sg9
F0.05622601509094238
sg10
I100
sg11
I0
sa(dp61
g7
g41
sg9
F96.98133993148804
sg10
I100
sg11
I100
sa(dp62
g7
g41
sg9
F225.17274594306946
sg10
I100
sg11
I200
sa(dp63
g7
g41
sg9
F362.22071409225464
sg10
I100
sg11
I300
sa(dp64
g7
g41
sg9
F502.3515110015869
sg10
I100
sg11
I400
sa(dp65
g7
g41
sg9
F640.8695449829102
sg10
I100
sg11
I500
satp66
Rp67
(dp68
g25
I01
sg26
g30
sg31
(lp69
I3
aI5
aI30
aI9
asg33
I6
sg34
g35
(g3
tp70
Rp71
sbsS'IBEA'
p72
g2
(g3
g4
(lp73
(dp74
g7
g41
sg9
F0.05604410171508789
sg10
I100
sg11
I0
sa(dp75
g7
g41
sg9
F9.24541711807251
sg10
I100
sg11
I100
sa(dp76
g7
g41
sg9
F18.500680923461914
sg10
I100
sg11
I200
sa(dp77
g7
g41
sg9
F27.7773859500885
sg10
I100
sg11
I300
sa(dp78
g7
g41
sg9
F37.079862117767334
sg10
I100
sg11
I400
sa(dp79
g7
g41
sg9
F46.41469597816467
sg10
I100
sg11
I500
satp80
Rp81
(dp82
g25
I01
sg26
g30
sg31
(lp83
I3
aI5
aI30
aI9
asg33
I6
sg34
g35
(g3
tp84
Rp85
sbsS'NSGA2'
p86
g2
(g3
g4
(lp87
(dp88
g7
g41
sg9
F0.055552005767822266
sg10
I100
sg11
I0
sa(dp89
g7
g41
sg9
F11.859869956970215
sg10
I100
sg11
I100
sa(dp90
g7
g41
sg9
F23.674487829208374
sg10
I100
sg11
I200
sa(dp91
g7
g41
sg9
F35.43623685836792
sg10
I100
sg11
I300
sa(dp92
g7
g41
sg9
F47.28138184547424
sg10
I100
sg11
I400
sa(dp93
g7
g41
sg9
F59.12089395523071
sg10
I100
sg11
I500
satp94
Rp95
(dp96
g25
I01
sg26
g30
sg31
(lp97
I3
aI5
aI30
aI9
asg33
I6
sg34
g35
(g3
tp98
Rp99
sbsS'IBEA-SIP'
p100
g2
(g3
g4
(lp101
(dp102
g7
(F0.059
F1.1
F0.035
I1
I1
tp103
sg9
F0.04174995422363281
sg10
I100
sg11
I0
sa(dp104
g7
(F0.172
F0.653
F0.157
I78
I100
tp105
sg9
F7.918771028518677
sg10
I100
sg11
I100
sa(dp106
g7
(F0.181
F0.64
F0.143
I83
I100
tp107
sg9
F15.874809980392456
sg10
I100
sg11
I200
sa(dp108
g7
(F0.182
F0.665
F0.122
I77
I100
tp109
sg9
F23.741683959960938
sg10
I100
sg11
I300
sa(dp110
g7
(F0.184
F0.624
F0.126
I77
I100
tp111
sg9
F31.584712028503418
sg10
I100
sg11
I400
sa(dp112
g7
(F0.184
F0.599
F0.129
I75
I100
tp113
sg9
F39.39041209220886
sg10
I100
sg11
I500
satp114
Rp115
(dp116
g25
I01
sg26
g30
sg31
(lp117
I3
aI5
aI30
aI9
asg33
I6
sg34
g35
(g3
tp118
Rp119
sbs.