(dp0
S'NSGA2-SIP'
p1
ccopy_reg
_reconstructor
p2
(cdeap.tools.support
Logbook
p3
c__builtin__
list
p4
(lp5
(dp6
S'hv|spread|igd|frontier#|valid#'
p7
(I0
I0
I0
I0
I0
tp8
sS'timestamp'
p9
F0.046656131744384766
sS'evals'
p10
I100
sS'gen'
p11
I0
sa(dp12
g7
(F0.168
F0.615
F0.185
I97
I100
tp13
sg9
F11.231512069702148
sg10
I100
sg11
I100
sa(dp14
g7
(F0.173
F0.629
F0.184
I99
I100
tp15
sg9
F22.580826997756958
sg10
I100
sg11
I200
sa(dp16
g7
(F0.177
F0.586
F0.191
I99
I100
tp17
sg9
F33.858044147491455
sg10
I100
sg11
I300
sa(dp18
g7
(F0.178
F0.634
F0.18
I97
I100
tp19
sg9
F45.20875597000122
sg10
I100
sg11
I400
sa(dp20
g7
(F0.181
F0.616
F0.183
I99
I100
tp21
sg9
F56.47818112373352
sg10
I100
sg11
I500
satp22
Rp23
(dp24
S'log_header'
p25
I01
sS'header'
p26
(S'gen'
p27
S'evals'
p28
S'hv|spread|igd|frontier#|valid#'
p29
S'timestamp'
p30
tp31
sS'columns_len'
p32
(lp33
I3
aI5
aI30
aI9
asS'buffindex'
p34
I6
sS'chapters'
p35
ccollections
defaultdict
p36
(g3
tp37
Rp38
sbsS'SPEA2-SIP'
p39
g2
(g3
g4
(lp40
(dp41
g7
(F0.082
F0.911
F0.042
I3
I3
tp42
sg9
F0.05245208740234375
sg10
I100
sg11
I0
sa(dp43
g7
(F0.17
F0.66
F0.149
I100
I100
tp44
sg9
F66.99890112876892
sg10
I100
sg11
I100
sa(dp45
g7
(F0.174
F0.626
F0.164
I100
I100
tp46
sg9
F149.29424905776978
sg10
I100
sg11
I200
sa(dp47
g7
(F0.175
F0.609
F0.155
I100
I100
tp48
sg9
F232.0528371334076
sg10
I100
sg11
I300
sa(dp49
g7
(F0.175
F0.613
F0.168
I100
I100
tp50
sg9
F313.7704300880432
sg10
I100
sg11
I400
sa(dp51
g7
(F0.177
F0.576
F0.155
I100
I100
tp52
sg9
F394.9232439994812
sg10
I100
sg11
I500
satp53
Rp54
(dp55
g25
I01
sg26
g31
sg32
(lp56
I3
aI5
aI31
aI9
asg34
I6
sg35
g36
(g3
tp57
Rp58
sbsS'SPEA2'
p59
g2
(g3
g4
(lp60
(dp61
g7
g8
sg9
F0.06517505645751953
sg10
I100
sg11
I0
sa(dp62
g7
g8
sg9
F123.50530505180359
sg10
I100
sg11
I100
sa(dp63
g7
g8
sg9
F267.67305302619934
sg10
I100
sg11
I200
sa(dp64
g7
g8
sg9
F411.87254309654236
sg10
I100
sg11
I300
sa(dp65
g7
g8
sg9
F571.8845131397247
sg10
I100
sg11
I400
sa(dp66
g7
g8
sg9
F728.722195148468
sg10
I100
sg11
I500
satp67
Rp68
(dp69
g25
I01
sg26
g31
sg32
(lp70
I3
aI5
aI30
aI9
asg34
I6
sg35
g36
(g3
tp71
Rp72
sbsS'IBEA-PEN'
p73
g2
(g3
g4
(lp74
(dp75
g7
(F0.075
F0.946
F0.035
I4
I4
tp76
sg9
F0.13556694984436035
sg10
I100
sg11
I0
sa(dp77
g7
(F0.17
F0.705
F0.107
I52
I73
tp78
sg9
F14.483828067779541
sg10
I100
sg11
I100
sa(dp79
g7
(F0.179
F0.722
F0.1
I51
I78
tp80
sg9
F28.958930015563965
sg10
I100
sg11
I200
sa(dp81
g7
(F0.182
F0.672
F0.1
I67
I86
tp82
sg9
F43.66053891181946
sg10
I100
sg11
I300
sa(dp83
g7
(F0.184
F0.738
F0.11
I57
I86
tp84
sg9
F58.402183055877686
sg10
I100
sg11
I400
sa(dp85
g7
(F0.182
F0.682
F0.138
I57
I85
tp86
sg9
F73.09255599975586
sg10
I100
sg11
I500
satp87
Rp88
(dp89
g25
I01
sg26
g31
sg32
(lp90
I3
aI5
aI30
aI9
asg34
I6
sg35
g36
(g3
tp91
Rp92
sbsS'IBEA'
p93
g2
(g3
g4
(lp94
(dp95
g7
g8
sg9
F0.06525683403015137
sg10
I100
sg11
I0
sa(dp96
g7
g8
sg9
F10.865220785140991
sg10
I100
sg11
I100
sa(dp97
g7
g8
sg9
F21.726346969604492
sg10
I100
sg11
I200
sa(dp98
g7
g8
sg9
F32.614465951919556
sg10
I100
sg11
I300
sa(dp99
g7
g8
sg9
F43.51208186149597
sg10
I100
sg11
I400
sa(dp100
g7
g8
sg9
F54.467259883880615
sg10
I100
sg11
I500
satp101
Rp102
(dp103
g25
I01
sg26
g31
sg32
(lp104
I3
aI5
aI30
aI9
asg34
I6
sg35
g36
(g3
tp105
Rp106
sbsS'NSGA2'
p107
g2
(g3
g4
(lp108
(dp109
g7
g8
sg9
F0.06466484069824219
sg10
I100
sg11
I0
sa(dp110
g7
g8
sg9
F13.858974933624268
sg10
I100
sg11
I100
sa(dp111
g7
g8
sg9
F27.646909952163696
sg10
I100
sg11
I200
sa(dp112
g7
g8
sg9
F41.45228695869446
sg10
I100
sg11
I300
sa(dp113
g7
g8
sg9
F55.24326300621033
sg10
I100
sg11
I400
sa(dp114
g7
g8
sg9
F69.05596995353699
sg10
I100
sg11
I500
satp115
Rp116
(dp117
g25
I01
sg26
g31
sg32
(lp118
I3
aI5
aI30
aI9
asg34
I6
sg35
g36
(g3
tp119
Rp120
sbsS'IBEA-SIP'
p121
g2
(g3
g4
(lp122
(dp123
g7
(F0.061
F0.967
F0.043
I2
I3
tp124
sg9
F0.05114102363586426
sg10
I100
sg11
I0
sa(dp125
g7
(F0.177
F0.674
F0.139
I81
I100
tp126
sg9
F9.348681926727295
sg10
I100
sg11
I100
sa(dp127
g7
(F0.181
F0.663
F0.148
I75
I100
tp128
sg9
F18.551122903823853
sg10
I100
sg11
I200
sa(dp129
g7
(F0.182
F0.591
F0.148
I73
I100
tp130
sg9
F27.588520050048828
sg10
I100
sg11
I300
sa(dp131
g7
(F0.184
F0.733
F0.138
I72
I100
tp132
sg9
F36.73547983169556
sg10
I100
sg11
I400
sa(dp133
g7
(F0.186
F0.748
F0.144
I79
I100
tp134
sg9
F45.86241888999939
sg10
I100
sg11
I500
satp135
Rp136
(dp137
g25
I01
sg26
g31
sg32
(lp138
I3
aI5
aI30
aI9
asg34
I6
sg35
g36
(g3
tp139
Rp140
sbs.