(dp0
S'NSGA2-SIP'
p1
ccopy_reg
_reconstructor
p2
(cdeap.tools.support
Logbook
p3
c__builtin__
list
p4
(lp5
(dp6
S'hv|spread|igd|frontier#|valid#'
p7
(F0.051
F0.96
F0.073
I1
I1
tp8
sS'timestamp'
p9
F0.04995584487915039
sS'evals'
p10
I100
sS'gen'
p11
I0
sa(dp12
g7
(F0.177
F0.679
F0.168
I98
I100
tp13
sg9
F11.592476844787598
sg10
I100
sg11
I100
sa(dp14
g7
(F0.181
F0.651
F0.189
I99
I100
tp15
sg9
F23.365352869033813
sg10
I100
sg11
I200
sa(dp16
g7
(F0.182
F0.614
F0.187
I98
I100
tp17
sg9
F35.107759952545166
sg10
I100
sg11
I300
sa(dp18
g7
(F0.183
F0.609
F0.183
I98
I100
tp19
sg9
F46.70548486709595
sg10
I100
sg11
I400
sa(dp20
g7
(F0.186
F0.569
F0.175
I98
I100
tp21
sg9
F58.17369604110718
sg10
I100
sg11
I500
satp22
Rp23
(dp24
S'log_header'
p25
I01
sS'header'
p26
(S'gen'
p27
S'evals'
p28
S'hv|spread|igd|frontier#|valid#'
p29
S'timestamp'
p30
tp31
sS'columns_len'
p32
(lp33
I3
aI5
aI30
aI9
asS'buffindex'
p34
I6
sS'chapters'
p35
ccollections
defaultdict
p36
(g3
tp37
Rp38
sbsS'SPEA2-SIP'
p39
g2
(g3
g4
(lp40
(dp41
g7
(F0.057
F0.94
F0.056
I1
I1
tp42
sg9
F0.05032491683959961
sg10
I100
sg11
I0
sa(dp43
g7
(F0.158
F0.703
F0.2
I100
I100
tp44
sg9
F77.31421399116516
sg10
I100
sg11
I100
sa(dp45
g7
(F0.159
F0.655
F0.187
I100
I100
tp46
sg9
F167.8483920097351
sg10
I100
sg11
I200
sa(dp47
g7
(F0.161
F0.544
F0.184
I100
I100
tp48
sg9
F257.5515561103821
sg10
I100
sg11
I300
sa(dp49
g7
(F0.162
F0.603
F0.185
I100
I100
tp50
sg9
F345.30334997177124
sg10
I100
sg11
I400
sa(dp51
g7
(F0.163
F0.609
F0.195
I100
I100
tp52
sg9
F431.6298620700836
sg10
I100
sg11
I500
satp53
Rp54
(dp55
g25
I01
sg26
g31
sg32
(lp56
I3
aI5
aI31
aI9
asg34
I6
sg35
g36
(g3
tp57
Rp58
sbsS'SPEA2'
p59
g2
(g3
g4
(lp60
(dp61
g7
(I0
I0
I0
I0
I0
tp62
sg9
F0.06772923469543457
sg10
I100
sg11
I0
sa(dp63
g7
g62
sg9
F126.5559401512146
sg10
I100
sg11
I100
sa(dp64
g7
g62
sg9
F278.9181001186371
sg10
I100
sg11
I200
sa(dp65
g7
g62
sg9
F440.6363670825958
sg10
I100
sg11
I300
sa(dp66
g7
g62
sg9
F592.0518641471863
sg10
I100
sg11
I400
sa(dp67
g7
g62
sg9
F748.7501091957092
sg10
I100
sg11
I500
satp68
Rp69
(dp70
g25
I01
sg26
g31
sg32
(lp71
I3
aI5
aI30
aI9
asg34
I6
sg35
g36
(g3
tp72
Rp73
sbsS'IBEA-PEN'
p74
g2
(g3
g4
(lp75
(dp76
g7
(F0.065
F0.987
F0.044
I2
I2
tp77
sg9
F0.17737793922424316
sg10
I100
sg11
I0
sa(dp78
g7
g62
sg9
F11.344404935836792
sg10
I100
sg11
I100
sa(dp79
g7
g62
sg9
F22.567687034606934
sg10
I100
sg11
I200
sa(dp80
g7
g62
sg9
F33.723856925964355
sg10
I100
sg11
I300
sa(dp81
g7
g62
sg9
F44.85819888114929
sg10
I100
sg11
I400
sa(dp82
g7
g62
sg9
F56.0322539806366
sg10
I100
sg11
I500
satp83
Rp84
(dp85
g25
I01
sg26
g31
sg32
(lp86
I3
aI5
aI30
aI9
asg34
I6
sg35
g36
(g3
tp87
Rp88
sbsS'IBEA'
p89
g2
(g3
g4
(lp90
(dp91
g7
g62
sg9
F0.06758594512939453
sg10
I100
sg11
I0
sa(dp92
g7
g62
sg9
F10.78302788734436
sg10
I100
sg11
I100
sa(dp93
g7
g62
sg9
F21.58827781677246
sg10
I100
sg11
I200
sa(dp94
g7
g62
sg9
F32.36943578720093
sg10
I100
sg11
I300
sa(dp95
g7
g62
sg9
F43.195772886276245
sg10
I100
sg11
I400
sa(dp96
g7
g62
sg9
F54.07836389541626
sg10
I100
sg11
I500
satp97
Rp98
(dp99
g25
I01
sg26
g31
sg32
(lp100
I3
aI5
aI30
aI9
asg34
I6
sg35
g36
(g3
tp101
Rp102
sbsS'NSGA2'
p103
g2
(g3
g4
(lp104
(dp105
g7
g62
sg9
F0.06741905212402344
sg10
I100
sg11
I0
sa(dp106
g7
g62
sg9
F14.92478895187378
sg10
I100
sg11
I100
sa(dp107
g7
g62
sg9
F29.751394033432007
sg10
I100
sg11
I200
sa(dp108
g7
g62
sg9
F44.56788492202759
sg10
I100
sg11
I300
sa(dp109
g7
g62
sg9
F59.42035508155823
sg10
I100
sg11
I400
sa(dp110
g7
g62
sg9
F74.26346588134766
sg10
I100
sg11
I500
satp111
Rp112
(dp113
g25
I01
sg26
g31
sg32
(lp114
I3
aI5
aI30
aI9
asg34
I6
sg35
g36
(g3
tp115
Rp116
sbsS'IBEA-SIP'
p117
g2
(g3
g4
(lp118
(dp119
g7
g62
sg9
F0.048065900802612305
sg10
I100
sg11
I0
sa(dp120
g7
(F0.169
F0.651
F0.145
I74
I100
tp121
sg9
F9.367630958557129
sg10
I100
sg11
I100
sa(dp122
g7
(F0.178
F0.614
F0.154
I78
I100
tp123
sg9
F18.68205499649048
sg10
I100
sg11
I200
sa(dp124
g7
(F0.182
F0.628
F0.159
I85
I100
tp125
sg9
F27.99068808555603
sg10
I100
sg11
I300
sa(dp126
g7
(F0.183
F0.617
F0.134
I93
I100
tp127
sg9
F37.22352695465088
sg10
I100
sg11
I400
sa(dp128
g7
(F0.182
F0.629
F0.13
I82
I100
tp129
sg9
F46.46733093261719
sg10
I100
sg11
I500
satp130
Rp131
(dp132
g25
I01
sg26
g31
sg32
(lp133
I3
aI5
aI30
aI9
asg34
I6
sg35
g36
(g3
tp134
Rp135
sbs.