(dp0
S'NSGA2-SIP'
p1
ccopy_reg
_reconstructor
p2
(cdeap.tools.support
Logbook
p3
c__builtin__
list
p4
(lp5
(dp6
S'hv|spread|igd|frontier#|valid#'
p7
(F0.069
F0.981
F0.027
I2
I2
tp8
sS'timestamp'
p9
F0.045033931732177734
sS'evals'
p10
I100
sS'gen'
p11
I0
sa(dp12
g7
(F0.17
F0.628
F0.166
I97
I100
tp13
sg9
F9.906646013259888
sg10
I100
sg11
I100
sa(dp14
g7
(F0.174
F0.586
F0.179
I97
I100
tp15
sg9
F19.905416011810303
sg10
I100
sg11
I200
sa(dp16
g7
(F0.181
F0.598
F0.182
I97
I100
tp17
sg9
F29.82247495651245
sg10
I100
sg11
I300
sa(dp18
g7
(F0.182
F0.649
F0.185
I97
I100
tp19
sg9
F39.705803871154785
sg10
I100
sg11
I400
sa(dp20
g7
(F0.182
F0.607
F0.184
I99
I100
tp21
sg9
F49.70692586898804
sg10
I100
sg11
I500
satp22
Rp23
(dp24
S'log_header'
p25
I01
sS'header'
p26
(S'gen'
p27
S'evals'
p28
S'hv|spread|igd|frontier#|valid#'
p29
S'timestamp'
p30
tp31
sS'columns_len'
p32
(lp33
I3
aI5
aI30
aI9
asS'buffindex'
p34
I6
sS'chapters'
p35
ccollections
defaultdict
p36
(g3
tp37
Rp38
sbsS'SPEA2-SIP'
p39
g2
(g3
g4
(lp40
(dp41
g7
(F0.066
F0.92
F0.014
I1
I1
tp42
sg9
F0.0480349063873291
sg10
I100
sg11
I0
sa(dp43
g7
(F0.164
F0.656
F0.153
I100
I100
tp44
sg9
F61.4200599193573
sg10
I100
sg11
I100
sa(dp45
g7
(F0.166
F0.684
F0.173
I100
I100
tp46
sg9
F136.59447503089905
sg10
I100
sg11
I200
sa(dp47
g7
(F0.169
F0.627
F0.182
I100
I100
tp48
sg9
F209.52318382263184
sg10
I100
sg11
I300
sa(dp49
g7
(F0.17
F0.571
F0.189
I100
I100
tp50
sg9
F279.0101728439331
sg10
I100
sg11
I400
sa(dp51
g7
(F0.171
F0.639
F0.19
I100
I100
tp52
sg9
F348.01692295074463
sg10
I100
sg11
I500
satp53
Rp54
(dp55
g25
I01
sg26
g31
sg32
(lp56
I3
aI5
aI31
aI9
asg34
I6
sg35
g36
(g3
tp57
Rp58
sbsS'SPEA2'
p59
g2
(g3
g4
(lp60
(dp61
g7
(I0
I0
I0
I0
I0
tp62
sg9
F0.05780792236328125
sg10
I100
sg11
I0
sa(dp63
g7
g62
sg9
F106.76055192947388
sg10
I100
sg11
I100
sa(dp64
g7
g62
sg9
F242.29294300079346
sg10
I100
sg11
I200
sa(dp65
g7
g62
sg9
F381.2275538444519
sg10
I100
sg11
I300
sa(dp66
g7
g62
sg9
F519.9234108924866
sg10
I100
sg11
I400
sa(dp67
g7
g62
sg9
F661.3152258396149
sg10
I100
sg11
I500
satp68
Rp69
(dp70
g25
I01
sg26
g31
sg32
(lp71
I3
aI5
aI30
aI9
asg34
I6
sg35
g36
(g3
tp72
Rp73
sbsS'IBEA-PEN'
p74
g2
(g3
g4
(lp75
(dp76
g7
(F0.08
F0.971
F0.039
I4
I5
tp77
sg9
F0.14861702919006348
sg10
I100
sg11
I0
sa(dp78
g7
g62
sg9
F9.969727993011475
sg10
I100
sg11
I100
sa(dp79
g7
g62
sg9
F19.86839485168457
sg10
I100
sg11
I200
sa(dp80
g7
g62
sg9
F29.66471290588379
sg10
I100
sg11
I300
sa(dp81
g7
g62
sg9
F39.55445599555969
sg10
I100
sg11
I400
sa(dp82
g7
g62
sg9
F49.51461100578308
sg10
I100
sg11
I500
satp83
Rp84
(dp85
g25
I01
sg26
g31
sg32
(lp86
I3
aI5
aI30
aI9
asg34
I6
sg35
g36
(g3
tp87
Rp88
sbsS'IBEA'
p89
g2
(g3
g4
(lp90
(dp91
g7
g62
sg9
F0.0581049919128418
sg10
I100
sg11
I0
sa(dp92
g7
g62
sg9
F9.629390001296997
sg10
I100
sg11
I100
sa(dp93
g7
g62
sg9
F19.23745894432068
sg10
I100
sg11
I200
sa(dp94
g7
g62
sg9
F28.783881902694702
sg10
I100
sg11
I300
sa(dp95
g7
g62
sg9
F38.333722829818726
sg10
I100
sg11
I400
sa(dp96
g7
g62
sg9
F47.96739196777344
sg10
I100
sg11
I500
satp97
Rp98
(dp99
g25
I01
sg26
g31
sg32
(lp100
I3
aI5
aI30
aI9
asg34
I6
sg35
g36
(g3
tp101
Rp102
sbsS'NSGA2'
p103
g2
(g3
g4
(lp104
(dp105
g7
g62
sg9
F0.0774240493774414
sg10
I100
sg11
I0
sa(dp106
g7
g62
sg9
F12.433598041534424
sg10
I100
sg11
I100
sa(dp107
g7
g62
sg9
F24.56878399848938
sg10
I100
sg11
I200
sa(dp108
g7
g62
sg9
F36.718528032302856
sg10
I100
sg11
I300
sa(dp109
g7
g62
sg9
F48.870465993881226
sg10
I100
sg11
I400
sa(dp110
g7
g62
sg9
F61.0153648853302
sg10
I100
sg11
I500
satp111
Rp112
(dp113
g25
I01
sg26
g31
sg32
(lp114
I3
aI5
aI30
aI9
asg34
I6
sg35
g36
(g3
tp115
Rp116
sbsS'IBEA-SIP'
p117
g2
(g3
g4
(lp118
(dp119
g7
(F0.066
F0.96
F0.017
I1
I1
tp120
sg9
F0.0430300235748291
sg10
I100
sg11
I0
sa(dp121
g7
(F0.175
F0.678
F0.142
I78
I100
tp122
sg9
F8.279051065444946
sg10
I100
sg11
I100
sa(dp123
g7
(F0.179
F0.583
F0.127
I73
I100
tp124
sg9
F16.39148712158203
sg10
I100
sg11
I200
sa(dp125
g7
(F0.18
F0.636
F0.119
I76
I100
tp126
sg9
F24.617000102996826
sg10
I100
sg11
I300
sa(dp127
g7
(F0.185
F0.688
F0.136
I80
I100
tp128
sg9
F32.83385610580444
sg10
I100
sg11
I400
sa(dp129
g7
(F0.186
F0.657
F0.15
I79
I100
tp130
sg9
F41.051454067230225
sg10
I100
sg11
I500
satp131
Rp132
(dp133
g25
I01
sg26
g31
sg32
(lp134
I3
aI5
aI30
aI9
asg34
I6
sg35
g36
(g3
tp135
Rp136
sbs.