(dp0
S'NSGA2-SIP'
p1
ccopy_reg
_reconstructor
p2
(cdeap.tools.support
Logbook
p3
c__builtin__
list
p4
(lp5
(dp6
S'hv|spread|igd|frontier#|valid#'
p7
(I0
I0
I0
I0
I0
tp8
sS'timestamp'
p9
F0.043946027755737305
sS'evals'
p10
I100
sS'gen'
p11
I0
sa(dp12
g7
(F0.173
F0.662
F0.187
I100
I100
tp13
sg9
F10.291802167892456
sg10
I100
sg11
I100
sa(dp14
g7
(F0.177
F0.577
F0.183
I99
I100
tp15
sg9
F20.99328899383545
sg10
I100
sg11
I200
sa(dp16
g7
(F0.184
F0.565
F0.187
I99
I100
tp17
sg9
F31.547752141952515
sg10
I100
sg11
I300
sa(dp18
g7
(F0.184
F0.589
F0.183
I99
I100
tp19
sg9
F42.12694001197815
sg10
I100
sg11
I400
sa(dp20
g7
(F0.185
F0.597
F0.178
I99
I100
tp21
sg9
F52.73120307922363
sg10
I100
sg11
I500
satp22
Rp23
(dp24
S'log_header'
p25
I01
sS'header'
p26
(S'gen'
p27
S'evals'
p28
S'hv|spread|igd|frontier#|valid#'
p29
S'timestamp'
p30
tp31
sS'columns_len'
p32
(lp33
I3
aI5
aI31
aI9
asS'buffindex'
p34
I6
sS'chapters'
p35
ccollections
defaultdict
p36
(g3
tp37
Rp38
sbsS'SPEA2-SIP'
p39
g2
(g3
g4
(lp40
(dp41
g7
(F0.06
F1.02
F0.026
I1
I1
tp42
sg9
F0.04661393165588379
sg10
I100
sg11
I0
sa(dp43
g7
(F0.164
F0.621
F0.184
I100
I100
tp44
sg9
F64.19804692268372
sg10
I100
sg11
I100
sa(dp45
g7
(F0.166
F0.579
F0.19
I100
I100
tp46
sg9
F140.10699486732483
sg10
I100
sg11
I200
sa(dp47
g7
(F0.167
F0.611
F0.169
I100
I100
tp48
sg9
F217.6090497970581
sg10
I100
sg11
I300
sa(dp49
g7
(F0.171
F0.549
F0.165
I100
I100
tp50
sg9
F293.3502359390259
sg10
I100
sg11
I400
sa(dp51
g7
(F0.174
F0.706
F0.162
I100
I100
tp52
sg9
F369.2483489513397
sg10
I100
sg11
I500
satp53
Rp54
(dp55
g25
I01
sg26
g31
sg32
(lp56
I3
aI5
aI31
aI9
asg34
I6
sg35
g36
(g3
tp57
Rp58
sbsS'SPEA2'
p59
g2
(g3
g4
(lp60
(dp61
g7
g8
sg9
F0.05820488929748535
sg10
I100
sg11
I0
sa(dp62
g7
g8
sg9
F108.92702293395996
sg10
I100
sg11
I100
sa(dp63
g7
g8
sg9
F243.74678301811218
sg10
I100
sg11
I200
sa(dp64
g7
g8
sg9
F381.3264639377594
sg10
I100
sg11
I300
sa(dp65
g7
g8
sg9
F532.4205799102783
sg10
I100
sg11
I400
sa(dp66
g7
g8
sg9
F681.2830238342285
sg10
I100
sg11
I500
satp67
Rp68
(dp69
g25
I01
sg26
g31
sg32
(lp70
I3
aI5
aI30
aI9
asg34
I6
sg35
g36
(g3
tp71
Rp72
sbsS'IBEA-PEN'
p73
g2
(g3
g4
(lp74
(dp75
g7
(F0.098
F0.953
F0.031
I7
I8
tp76
sg9
F0.1348888874053955
sg10
I100
sg11
I0
sa(dp77
g7
(F0.177
F0.703
F0.106
I51
I73
tp78
sg9
F13.614542007446289
sg10
I100
sg11
I100
sa(dp79
g7
(F0.181
F0.627
F0.148
I64
I79
tp80
sg9
F27.447414875030518
sg10
I100
sg11
I200
sa(dp81
g7
(F0.183
F0.587
F0.136
I59
I78
tp82
sg9
F41.22619700431824
sg10
I100
sg11
I300
sa(dp83
g7
(F0.178
F0.596
F0.086
I49
I79
tp84
sg9
F54.9501268863678
sg10
I100
sg11
I400
sa(dp85
g7
(F0.178
F0.609
F0.073
I54
I77
tp86
sg9
F68.69342589378357
sg10
I100
sg11
I500
satp87
Rp88
(dp89
g25
I01
sg26
g31
sg32
(lp90
I3
aI5
aI30
aI9
asg34
I6
sg35
g36
(g3
tp91
Rp92
sbsS'IBEA'
p93
g2
(g3
g4
(lp94
(dp95
g7
g8
sg9
F0.06145787239074707
sg10
I100
sg11
I0
sa(dp96
g7
g8
sg9
F10.055630922317505
sg10
I100
sg11
I100
sa(dp97
g7
g8
sg9
F20.16810393333435
sg10
I100
sg11
I200
sa(dp98
g7
g8
sg9
F30.32596206665039
sg10
I100
sg11
I300
sa(dp99
g7
g8
sg9
F40.52773904800415
sg10
I100
sg11
I400
sa(dp100
g7
g8
sg9
F50.64857792854309
sg10
I100
sg11
I500
satp101
Rp102
(dp103
g25
I01
sg26
g31
sg32
(lp104
I3
aI5
aI30
aI9
asg34
I6
sg35
g36
(g3
tp105
Rp106
sbsS'NSGA2'
p107
g2
(g3
g4
(lp108
(dp109
g7
g8
sg9
F0.06157112121582031
sg10
I100
sg11
I0
sa(dp110
g7
g8
sg9
F12.9376220703125
sg10
I100
sg11
I100
sa(dp111
g7
g8
sg9
F25.705121994018555
sg10
I100
sg11
I200
sa(dp112
g7
g8
sg9
F38.349936962127686
sg10
I100
sg11
I300
sa(dp113
g7
g8
sg9
F51.221750020980835
sg10
I100
sg11
I400
sa(dp114
g7
g8
sg9
F64.10832095146179
sg10
I100
sg11
I500
satp115
Rp116
(dp117
g25
I01
sg26
g31
sg32
(lp118
I3
aI5
aI30
aI9
asg34
I6
sg35
g36
(g3
tp119
Rp120
sbsS'IBEA-SIP'
p121
g2
(g3
g4
(lp122
(dp123
g7
g8
sg9
F0.04394197463989258
sg10
I100
sg11
I0
sa(dp124
g7
(F0.174
F0.641
F0.13
I80
I100
tp125
sg9
F8.510841846466064
sg10
I100
sg11
I100
sa(dp126
g7
(F0.184
F0.62
F0.129
I81
I100
tp127
sg9
F17.211694955825806
sg10
I100
sg11
I200
sa(dp128
g7
(F0.186
F0.661
F0.127
I78
I100
tp129
sg9
F25.798892974853516
sg10
I100
sg11
I300
sa(dp130
g7
(F0.186
F0.617
F0.125
I76
I100
tp131
sg9
F34.26470398902893
sg10
I100
sg11
I400
sa(dp132
g7
(F0.186
F0.699
F0.138
I80
I100
tp133
sg9
F42.774263858795166
sg10
I100
sg11
I500
satp134
Rp135
(dp136
g25
I01
sg26
g31
sg32
(lp137
I3
aI5
aI30
aI9
asg34
I6
sg35
g36
(g3
tp138
Rp139
sbs.