(dp0
S'NSGA2-SIP'
p1
ccopy_reg
_reconstructor
p2
(cdeap.tools.support
Logbook
p3
c__builtin__
list
p4
(lp5
(dp6
S'hv|spread|igd|frontier#|valid#'
p7
(I0
I0
I0
I0
I0
tp8
sS'timestamp'
p9
F0.04485893249511719
sS'evals'
p10
I100
sS'gen'
p11
I0
sa(dp12
g7
(F0.171
F0.665
F0.184
I99
I100
tp13
sg9
F10.788859844207764
sg10
I100
sg11
I100
sa(dp14
g7
(F0.176
F0.704
F0.187
I96
I100
tp15
sg9
F21.491642951965332
sg10
I100
sg11
I200
sa(dp16
g7
(F0.176
F0.586
F0.187
I99
I100
tp17
sg9
F32.24022698402405
sg10
I100
sg11
I300
sa(dp18
g7
(F0.182
F0.591
F0.186
I97
I100
tp19
sg9
F42.92511200904846
sg10
I100
sg11
I400
sa(dp20
g7
(F0.182
F0.669
F0.18
I99
I100
tp21
sg9
F53.59943604469299
sg10
I100
sg11
I500
satp22
Rp23
(dp24
S'log_header'
p25
I01
sS'header'
p26
(S'gen'
p27
S'evals'
p28
S'hv|spread|igd|frontier#|valid#'
p29
S'timestamp'
p30
tp31
sS'columns_len'
p32
(lp33
I3
aI5
aI30
aI9
asS'buffindex'
p34
I6
sS'chapters'
p35
ccollections
defaultdict
p36
(g3
tp37
Rp38
sbsS'SPEA2-SIP'
p39
g2
(g3
g4
(lp40
(dp41
g7
(F0.082
F0.88
F0.055
I2
I2
tp42
sg9
F0.047714948654174805
sg10
I100
sg11
I0
sa(dp43
g7
(F0.156
F0.593
F0.21
I100
I100
tp44
sg9
F66.6015899181366
sg10
I100
sg11
I100
sa(dp45
g7
(F0.169
F0.602
F0.194
I100
I100
tp46
sg9
F142.6514539718628
sg10
I100
sg11
I200
sa(dp47
g7
(F0.172
F0.634
F0.175
I100
I100
tp48
sg9
F217.7512879371643
sg10
I100
sg11
I300
sa(dp49
g7
(F0.173
F0.636
F0.178
I100
I100
tp50
sg9
F295.29761695861816
sg10
I100
sg11
I400
sa(dp51
g7
(F0.173
F0.585
F0.177
I100
I100
tp52
sg9
F368.7426109313965
sg10
I100
sg11
I500
satp53
Rp54
(dp55
g25
I01
sg26
g31
sg32
(lp56
I3
aI5
aI31
aI9
asg34
I6
sg35
g36
(g3
tp57
Rp58
sbsS'SPEA2'
p59
g2
(g3
g4
(lp60
(dp61
g7
g8
sg9
F0.0641179084777832
sg10
I100
sg11
I0
sa(dp62
g7
g8
sg9
F111.63987398147583
sg10
I100
sg11
I100
sa(dp63
g7
g8
sg9
F249.41690802574158
sg10
I100
sg11
I200
sa(dp64
g7
g8
sg9
F392.4351019859314
sg10
I100
sg11
I300
sa(dp65
g7
g8
sg9
F543.7244589328766
sg10
I100
sg11
I400
sa(dp66
g7
g8
sg9
F695.147901058197
sg10
I100
sg11
I500
satp67
Rp68
(dp69
g25
I01
sg26
g31
sg32
(lp70
I3
aI5
aI30
aI9
asg34
I6
sg35
g36
(g3
tp71
Rp72
sbsS'IBEA-PEN'
p73
g2
(g3
g4
(lp74
(dp75
g7
(F0.086
F0.941
F0.04
I4
I4
tp76
sg9
F0.1611950397491455
sg10
I100
sg11
I0
sa(dp77
g7
g8
sg9
F10.855106830596924
sg10
I100
sg11
I100
sa(dp78
g7
g8
sg9
F21.510021924972534
sg10
I100
sg11
I200
sa(dp79
g7
g8
sg9
F32.22426390647888
sg10
I100
sg11
I300
sa(dp80
g7
g8
sg9
F43.105708837509155
sg10
I100
sg11
I400
sa(dp81
g7
g8
sg9
F54.01127481460571
sg10
I100
sg11
I500
satp82
Rp83
(dp84
g25
I01
sg26
g31
sg32
(lp85
I3
aI5
aI30
aI9
asg34
I6
sg35
g36
(g3
tp86
Rp87
sbsS'IBEA'
p88
g2
(g3
g4
(lp89
(dp90
g7
g8
sg9
F0.06276297569274902
sg10
I100
sg11
I0
sa(dp91
g7
g8
sg9
F10.195995092391968
sg10
I100
sg11
I100
sa(dp92
g7
g8
sg9
F20.37598204612732
sg10
I100
sg11
I200
sa(dp93
g7
g8
sg9
F30.638175010681152
sg10
I100
sg11
I300
sa(dp94
g7
g8
sg9
F40.984461069107056
sg10
I100
sg11
I400
sa(dp95
g7
g8
sg9
F51.49766802787781
sg10
I100
sg11
I500
satp96
Rp97
(dp98
g25
I01
sg26
g31
sg32
(lp99
I3
aI5
aI30
aI9
asg34
I6
sg35
g36
(g3
tp100
Rp101
sbsS'NSGA2'
p102
g2
(g3
g4
(lp103
(dp104
g7
g8
sg9
F0.06311702728271484
sg10
I100
sg11
I0
sa(dp105
g7
g8
sg9
F13.274646997451782
sg10
I100
sg11
I100
sa(dp106
g7
g8
sg9
F26.297881841659546
sg10
I100
sg11
I200
sa(dp107
g7
g8
sg9
F39.39264488220215
sg10
I100
sg11
I300
sa(dp108
g7
g8
sg9
F52.45889496803284
sg10
I100
sg11
I400
sa(dp109
g7
g8
sg9
F65.51683402061462
sg10
I100
sg11
I500
satp110
Rp111
(dp112
g25
I01
sg26
g31
sg32
(lp113
I3
aI5
aI30
aI9
asg34
I6
sg35
g36
(g3
tp114
Rp115
sbsS'IBEA-SIP'
p116
g2
(g3
g4
(lp117
(dp118
g7
g8
sg9
F0.04461097717285156
sg10
I100
sg11
I0
sa(dp119
g7
(F0.175
F0.69
F0.181
I76
I100
tp120
sg9
F8.94339108467102
sg10
I100
sg11
I100
sa(dp121
g7
(F0.179
F0.692
F0.153
I80
I100
tp122
sg9
F17.988065004348755
sg10
I100
sg11
I200
sa(dp123
g7
(F0.18
F0.622
F0.133
I75
I100
tp124
sg9
F26.938207149505615
sg10
I100
sg11
I300
sa(dp125
g7
(F0.182
F0.614
F0.157
I76
I100
tp126
sg9
F35.874699115753174
sg10
I100
sg11
I400
sa(dp127
g7
(F0.183
F0.688
F0.161
I81
I100
tp128
sg9
F44.76800513267517
sg10
I100
sg11
I500
satp129
Rp130
(dp131
g25
I01
sg26
g31
sg32
(lp132
I3
aI5
aI30
aI9
asg34
I6
sg35
g36
(g3
tp133
Rp134
sbs.