(dp0
S'NSGA2-SIP'
p1
ccopy_reg
_reconstructor
p2
(cdeap.tools.support
Logbook
p3
c__builtin__
list
p4
(lp5
(dp6
S'hv|spread|igd|frontier#|valid#'
p7
(F0.057
F2.177
F0.042
I1
I1
tp8
sS'timestamp'
p9
F0.049147844314575195
sS'evals'
p10
I100
sS'gen'
p11
I0
sa(dp12
g7
(F0.168
F0.595
F0.167
I98
I100
tp13
sg9
F11.215117931365967
sg10
I100
sg11
I100
sa(dp14
g7
(F0.176
F0.558
F0.186
I97
I100
tp15
sg9
F22.457286834716797
sg10
I100
sg11
I200
sa(dp16
g7
(F0.177
F0.663
F0.187
I99
I100
tp17
sg9
F33.61360478401184
sg10
I100
sg11
I300
sa(dp18
g7
(F0.18
F0.584
F0.187
I98
I100
tp19
sg9
F44.79965281486511
sg10
I100
sg11
I400
sa(dp20
g7
(F0.182
F0.585
F0.18
I98
I100
tp21
sg9
F55.929123878479004
sg10
I100
sg11
I500
satp22
Rp23
(dp24
S'log_header'
p25
I01
sS'header'
p26
(S'gen'
p27
S'evals'
p28
S'hv|spread|igd|frontier#|valid#'
p29
S'timestamp'
p30
tp31
sS'columns_len'
p32
(lp33
I3
aI5
aI30
aI9
asS'buffindex'
p34
I6
sS'chapters'
p35
ccollections
defaultdict
p36
(g3
tp37
Rp38
sbsS'SPEA2-SIP'
p39
g2
(g3
g4
(lp40
(dp41
g7
(F0.062
F2.218
F0.03
I1
I2
tp42
sg9
F0.08836698532104492
sg10
I100
sg11
I0
sa(dp43
g7
(F0.167
F0.689
F0.176
I100
I100
tp44
sg9
F72.44838285446167
sg10
I100
sg11
I100
sa(dp45
g7
(F0.172
F0.713
F0.175
I100
I100
tp46
sg9
F155.78470492362976
sg10
I100
sg11
I200
sa(dp47
g7
(F0.176
F0.611
F0.175
I100
I100
tp48
sg9
F237.48405289649963
sg10
I100
sg11
I300
sa(dp49
g7
(F0.177
F0.598
F0.164
I100
I100
tp50
sg9
F318.7481470108032
sg10
I100
sg11
I400
sa(dp51
g7
(F0.178
F0.631
F0.164
I100
I100
tp52
sg9
F395.94608902931213
sg10
I100
sg11
I500
satp53
Rp54
(dp55
g25
I01
sg26
g31
sg32
(lp56
I3
aI5
aI31
aI9
asg34
I6
sg35
g36
(g3
tp57
Rp58
sbsS'SPEA2'
p59
g2
(g3
g4
(lp60
(dp61
g7
(I0
I0
I0
I0
I0
tp62
sg9
F0.06667590141296387
sg10
I100
sg11
I0
sa(dp63
g7
g62
sg9
F119.54724502563477
sg10
I100
sg11
I100
sa(dp64
g7
g62
sg9
F262.00581192970276
sg10
I100
sg11
I200
sa(dp65
g7
g62
sg9
F413.05992102622986
sg10
I100
sg11
I300
sa(dp66
g7
g62
sg9
F573.4804420471191
sg10
I100
sg11
I400
sa(dp67
g7
g62
sg9
F735.1487829685211
sg10
I100
sg11
I500
satp68
Rp69
(dp70
g25
I01
sg26
g31
sg32
(lp71
I3
aI5
aI30
aI9
asg34
I6
sg35
g36
(g3
tp72
Rp73
sbsS'IBEA'
p74
g2
(g3
g4
(lp75
(dp76
g7
g62
sg9
F0.06552791595458984
sg10
I100
sg11
I0
sa(dp77
g7
g62
sg9
F10.948025941848755
sg10
I100
sg11
I100
sa(dp78
g7
g62
sg9
F21.90997886657715
sg10
I100
sg11
I200
sa(dp79
g7
g62
sg9
F32.85226392745972
sg10
I100
sg11
I300
sa(dp80
g7
g62
sg9
F43.83951377868652
sg10
I100
sg11
I400
sa(dp81
g7
g62
sg9
F54.885979890823364
sg10
I100
sg11
I500
satp82
Rp83
(dp84
g25
I01
sg26
g31
sg32
(lp85
I3
aI5
aI30
aI9
asg34
I6
sg35
g36
(g3
tp86
Rp87
sbsS'NSGA2'
p88
g2
(g3
g4
(lp89
(dp90
g7
g62
sg9
F0.06477904319763184
sg10
I100
sg11
I0
sa(dp91
g7
g62
sg9
F13.942626953125
sg10
I100
sg11
I100
sa(dp92
g7
g62
sg9
F27.813745975494385
sg10
I100
sg11
I200
sa(dp93
g7
g62
sg9
F41.68583393096924
sg10
I100
sg11
I300
sa(dp94
g7
g62
sg9
F55.52323007583618
sg10
I100
sg11
I400
sa(dp95
g7
g62
sg9
F69.37602686882019
sg10
I100
sg11
I500
satp96
Rp97
(dp98
g25
I01
sg26
g31
sg32
(lp99
I3
aI5
aI30
aI9
asg34
I6
sg35
g36
(g3
tp100
Rp101
sbsS'IBEA-SIP'
p102
g2
(g3
g4
(lp103
(dp104
g7
g62
sg9
F0.06384110450744629
sg10
I100
sg11
I0
sa(dp105
g7
(F0.175
F0.653
F0.129
I71
I100
tp106
sg9
F9.403986930847168
sg10
I100
sg11
I100
sa(dp107
g7
(F0.179
F0.706
F0.142
I67
I100
tp108
sg9
F18.754328966140747
sg10
I100
sg11
I200
sa(dp109
g7
(F0.183
F0.657
F0.138
I76
I100
tp110
sg9
F28.047842979431152
sg10
I100
sg11
I300
sa(dp111
g7
(F0.181
F0.564
F0.126
I70
I100
tp112
sg9
F37.227010011672974
sg10
I100
sg11
I400
sa(dp113
g7
(F0.183
F0.743
F0.148
I73
I100
tp114
sg9
F46.51863408088684
sg10
I100
sg11
I500
satp115
Rp116
(dp117
g25
I01
sg26
g31
sg32
(lp118
I3
aI5
aI30
aI9
asg34
I6
sg35
g36
(g3
tp119
Rp120
sbs.