(dp0
S'NSGA2-SIP'
p1
ccopy_reg
_reconstructor
p2
(cdeap.tools.support
Logbook
p3
c__builtin__
list
p4
(lp5
(dp6
S'hv|spread|igd|frontier#|valid#'
p7
(F0.15
F0.488
F0.087
I12
I59
tp8
sS'timestamp'
p9
F0.020087003707885742
sS'evals'
p10
I100
sS'gen'
p11
I0
sa(dp12
g7
(F0.157
F0.904
F0.076
I13
I100
tp13
sg9
F2.621790885925293
sg10
I100
sg11
I100
sa(dp14
g7
(F0.157
F0.867
F0.076
I13
I100
tp15
sg9
F5.263576984405518
sg10
I100
sg11
I200
sa(dp16
g7
(F0.157
F0.904
F0.076
I13
I100
tp17
sg9
F7.91469407081604
sg10
I100
sg11
I300
sa(dp18
g7
(F0.157
F0.837
F0.076
I13
I100
tp19
sg9
F10.56229305267334
sg10
I100
sg11
I400
sa(dp20
g7
(F0.157
F0.834
F0.076
I13
I100
tp21
sg9
F13.180600881576538
sg10
I100
sg11
I500
satp22
Rp23
(dp24
S'log_header'
p25
I01
sS'header'
p26
(S'gen'
p27
S'evals'
p28
S'hv|spread|igd|frontier#|valid#'
p29
S'timestamp'
p30
tp31
sS'columns_len'
p32
(lp33
I3
aI5
aI30
aI9
asS'buffindex'
p34
I6
sS'chapters'
p35
ccollections
defaultdict
p36
(g3
tp37
Rp38
sbsS'SPEA2-SIP'
p39
g2
(g3
g4
(lp40
(dp41
g7
(F0.142
F0.859
F0.064
I11
I50
tp42
sg9
F0.01942300796508789
sg10
I100
sg11
I0
sa(dp43
g7
(F0.157
F0.726
F0.076
I13
I100
tp44
sg9
F165.73269200325012
sg10
I100
sg11
I100
sa(dp45
g7
(F0.157
F0.827
F0.076
I13
I100
tp46
sg9
F333.18742203712463
sg10
I100
sg11
I200
sa(dp47
g7
(F0.157
F0.726
F0.076
I13
I100
tp48
sg9
F501.8868441581726
sg10
I100
sg11
I300
sa(dp49
g7
(F0.157
F0.805
F0.076
I13
I100
tp50
sg9
F670.4434180259705
sg10
I100
sg11
I400
sa(dp51
g7
(F0.157
F0.947
F0.076
I13
I100
tp52
sg9
F839.1849710941315
sg10
I100
sg11
I500
satp53
Rp54
(dp55
g25
I01
sg26
g31
sg32
(lp56
I3
aI5
aI30
aI9
asg34
I6
sg35
g36
(g3
tp57
Rp58
sbsS'SPEA2'
p59
g2
(g3
g4
(lp60
(dp61
g7
(F0.056
F0.966
F0.115
I2
I2
tp62
sg9
F0.018965959548950195
sg10
I100
sg11
I0
sa(dp63
g7
(I0
I0
I0
I0
I0
tp64
sg9
F129.2534568309784
sg10
I100
sg11
I100
sa(dp65
g7
g64
sg9
F263.925244808197
sg10
I100
sg11
I200
sa(dp66
g7
g64
sg9
F397.0485408306122
sg10
I100
sg11
I300
sa(dp67
g7
g64
sg9
F528.6394078731537
sg10
I100
sg11
I400
sa(dp68
g7
g64
sg9
F660.5756628513336
sg10
I100
sg11
I500
satp69
Rp70
(dp71
g25
I01
sg26
g31
sg32
(lp72
I3
aI5
aI30
aI9
asg34
I6
sg35
g36
(g3
tp73
Rp74
sbsS'IBEA-PEN'
p75
g2
(g3
g4
(lp76
(dp77
g7
(F0.114
F0.9
F0.0
I5
I71
tp78
sg9
F0.03233909606933594
sg10
I100
sg11
I0
sa(dp79
g7
(F0.063
F1.0
F0.106
I2
I5
tp80
sg9
F6.77928900718689
sg10
I100
sg11
I100
sa(dp81
g7
(F0.092
F2.312
F0.154
I1
I1
tp82
sg9
F13.609931945800781
sg10
I100
sg11
I200
sa(dp83
g7
(F0.1
F0.94
F0.09
I2
I4
tp84
sg9
F20.421557903289795
sg10
I100
sg11
I300
sa(dp85
g7
(F0.051
F2.5
F0.106
I1
I2
tp86
sg9
F27.243680000305176
sg10
I100
sg11
I400
sa(dp87
g7
g64
sg9
F34.077157974243164
sg10
I100
sg11
I500
satp88
Rp89
(dp90
g25
I01
sg26
g31
sg32
(lp91
I3
aI5
aI30
aI9
asg34
I6
sg35
g36
(g3
tp92
Rp93
sbsS'IBEA'
p94
g2
(g3
g4
(lp95
(dp96
g7
(F0.127
F0.974
F0.097
I4
I9
tp97
sg9
F0.02073216438293457
sg10
I100
sg11
I0
sa(dp98
g7
(F0.037
F2.599
F0.099
I1
I2
tp99
sg9
F6.78647518157959
sg10
I100
sg11
I100
sa(dp100
g7
(F0.06
F2.407
F0.032
I1
I1
tp101
sg9
F13.582229137420654
sg10
I100
sg11
I200
sa(dp102
g7
(F0.053
F0.97
F0.083
I2
I8
tp103
sg9
F20.33758020401001
sg10
I100
sg11
I300
sa(dp104
g7
(F0.132
F0.93
F0.094
I3
I4
tp105
sg9
F27.098942041397095
sg10
I100
sg11
I400
sa(dp106
g7
(F0.103
F0.943
F0.096
I3
I5
tp107
sg9
F33.80535316467285
sg10
I100
sg11
I500
satp108
Rp109
(dp110
g25
I01
sg26
g31
sg32
(lp111
I3
aI5
aI30
aI9
asg34
I6
sg35
g36
(g3
tp112
Rp113
sbsS'NSGA2'
p114
g2
(g3
g4
(lp115
(dp116
g7
(F0.091
F0.977
F0.112
I4
I6
tp117
sg9
F0.020171165466308594
sg10
I100
sg11
I0
sa(dp118
g7
(F0.088
F2.407
F0.081
I1
I1
tp119
sg9
F6.926352024078369
sg10
I100
sg11
I100
sa(dp120
g7
g64
sg9
F13.885701179504395
sg10
I100
sg11
I200
sa(dp121
g7
g64
sg9
F20.84138011932373
sg10
I100
sg11
I300
sa(dp122
g7
g64
sg9
F27.689760208129883
sg10
I100
sg11
I400
sa(dp123
g7
(F0.088
F2.407
F0.081
I1
I1
tp124
sg9
F34.587255001068115
sg10
I100
sg11
I500
satp125
Rp126
(dp127
g25
I01
sg26
g31
sg32
(lp128
I3
aI5
aI30
aI9
asg34
I6
sg35
g36
(g3
tp129
Rp130
sbsS'IBEA-SIP'
p131
g2
(g3
g4
(lp132
(dp133
g7
(F0.151
F0.794
F0.081
I12
I54
tp134
sg9
F0.019900083541870117
sg10
I100
sg11
I0
sa(dp135
g7
(F0.148
F0.643
F0.089
I9
I100
tp136
sg9
F6.123100996017456
sg10
I100
sg11
I100
sa(dp137
g7
(F0.152
F0.815
F0.089
I8
I100
tp138
sg9
F12.335242986679077
sg10
I100
sg11
I200
sa(dp139
g7
(F0.143
F0.828
F0.101
I9
I100
tp140
sg9
F18.58032512664795
sg10
I100
sg11
I300
sa(dp141
g7
(F0.139
F0.801
F0.092
I8
I100
tp142
sg9
F24.84203600883484
sg10
I100
sg11
I400
sa(dp143
g7
(F0.152
F0.647
F0.081
I11
I100
tp144
sg9
F31.036094188690186
sg10
I100
sg11
I500
satp145
Rp146
(dp147
g25
I01
sg26
g31
sg32
(lp148
I3
aI5
aI30
aI9
asg34
I6
sg35
g36
(g3
tp149
Rp150
sbs.