(dp0
S'NSGA2-SIP'
p1
ccopy_reg
_reconstructor
p2
(cdeap.tools.support
Logbook
p3
c__builtin__
list
p4
(lp5
(dp6
S'hv|spread|igd|frontier#|valid#'
p7
(F0.141
F0.741
F0.084
I14
I62
tp8
sS'timestamp'
p9
F0.018606901168823242
sS'evals'
p10
I100
sS'gen'
p11
I0
sa(dp12
g7
(F0.157
F0.817
F0.076
I13
I100
tp13
sg9
F2.2926719188690186
sg10
I100
sg11
I100
sa(dp14
g7
(F0.157
F0.904
F0.076
I13
I100
tp15
sg9
F4.582748889923096
sg10
I100
sg11
I200
sa(dp16
g7
(F0.157
F0.817
F0.076
I13
I100
tp17
sg9
F6.8733978271484375
sg10
I100
sg11
I300
sa(dp18
g7
(F0.157
F0.817
F0.076
I13
I100
tp19
sg9
F9.114609003067017
sg10
I100
sg11
I400
sa(dp20
g7
(F0.157
F0.904
F0.076
I13
I100
tp21
sg9
F11.405386924743652
sg10
I100
sg11
I500
satp22
Rp23
(dp24
S'log_header'
p25
I01
sS'header'
p26
(S'gen'
p27
S'evals'
p28
S'hv|spread|igd|frontier#|valid#'
p29
S'timestamp'
p30
tp31
sS'columns_len'
p32
(lp33
I3
aI5
aI30
aI9
asS'buffindex'
p34
I6
sS'chapters'
p35
ccollections
defaultdict
p36
(g3
tp37
Rp38
sbsS'SPEA2-SIP'
p39
g2
(g3
g4
(lp40
(dp41
g7
(F0.149
F0.708
F0.088
I15
I61
tp42
sg9
F0.019749879837036133
sg10
I100
sg11
I0
sa(dp43
g7
(F0.157
F0.817
F0.076
I13
I100
tp44
sg9
F153.92186403274536
sg10
I100
sg11
I100
sa(dp45
g7
(F0.157
F0.815
F0.076
I13
I100
tp46
sg9
F316.0918939113617
sg10
I100
sg11
I200
sa(dp47
g7
(F0.157
F0.81
F0.076
I13
I100
tp48
sg9
F474.96686697006226
sg10
I100
sg11
I300
sa(dp49
g7
(F0.157
F0.99
F0.076
I13
I100
tp50
sg9
F631.3913168907166
sg10
I100
sg11
I400
sa(dp51
g7
(F0.157
F0.668
F0.076
I13
I100
tp52
sg9
F783.8089780807495
sg10
I100
sg11
I500
satp53
Rp54
(dp55
g25
I01
sg26
g31
sg32
(lp56
I3
aI5
aI30
aI9
asg34
I6
sg35
g36
(g3
tp57
Rp58
sbsS'SPEA2'
p59
g2
(g3
g4
(lp60
(dp61
g7
(F0.093
F0.884
F0.094
I4
I4
tp62
sg9
F0.017048120498657227
sg10
I100
sg11
I0
sa(dp63
g7
(F0.087
F2.236
F0.121
I1
I1
tp64
sg9
F119.92306208610535
sg10
I100
sg11
I100
sa(dp65
g7
(I0
I0
I0
I0
I0
tp66
sg9
F248.0527150630951
sg10
I100
sg11
I200
sa(dp67
g7
g66
sg9
F373.7894790172577
sg10
I100
sg11
I300
sa(dp68
g7
g66
sg9
F497.0705921649933
sg10
I100
sg11
I400
sa(dp69
g7
g66
sg9
F617.3227550983429
sg10
I100
sg11
I500
satp70
Rp71
(dp72
g25
I01
sg26
g31
sg32
(lp73
I3
aI5
aI30
aI9
asg34
I6
sg35
g36
(g3
tp74
Rp75
sbsS'IBEA'
p76
g2
(g3
g4
(lp77
(dp78
g7
(F0.1
F0.876
F0.124
I4
I6
tp79
sg9
F0.022218942642211914
sg10
I100
sg11
I0
sa(dp80
g7
(F0.125
F0.884
F0.112
I3
I5
tp81
sg9
F6.549591064453125
sg10
I100
sg11
I100
sa(dp82
g7
(F0.037
F2.599
F0.099
I1
I1
tp83
sg9
F13.23277497291565
sg10
I100
sg11
I200
sa(dp84
g7
(F0.092
F2.312
F0.154
I1
I3
tp85
sg9
F19.910079956054688
sg10
I100
sg11
I300
sa(dp86
g7
(F0.06
F2.236
F0.057
I1
I1
tp87
sg9
F26.577372074127197
sg10
I100
sg11
I400
sa(dp88
g7
g66
sg9
F33.24204111099243
sg10
I100
sg11
I500
satp89
Rp90
(dp91
g25
I01
sg26
g31
sg32
(lp92
I3
aI5
aI30
aI9
asg34
I6
sg35
g36
(g3
tp93
Rp94
sbsS'NSGA2'
p95
g2
(g3
g4
(lp96
(dp97
g7
(F0.12
F0.853
F0.132
I4
I6
tp98
sg9
F0.01705789566040039
sg10
I100
sg11
I0
sa(dp99
g7
g66
sg9
F6.096019983291626
sg10
I100
sg11
I100
sa(dp100
g7
g66
sg9
F12.116626024246216
sg10
I100
sg11
I200
sa(dp101
g7
(F0.088
F2.407
F0.081
I1
I2
tp102
sg9
F18.088855981826782
sg10
I100
sg11
I300
sa(dp103
g7
g66
sg9
F24.13110899925232
sg10
I100
sg11
I400
sa(dp104
g7
g66
sg9
F30.105823040008545
sg10
I100
sg11
I500
satp105
Rp106
(dp107
g25
I01
sg26
g31
sg32
(lp108
I3
aI5
aI30
aI9
asg34
I6
sg35
g36
(g3
tp109
Rp110
sbsS'IBEA-SIP'
p111
g2
(g3
g4
(lp112
(dp113
g7
(F0.148
F0.776
F0.084
I11
I50
tp114
sg9
F0.016602039337158203
sg10
I100
sg11
I0
sa(dp115
g7
(F0.153
F0.881
F0.091
I9
I100
tp116
sg9
F6.019560098648071
sg10
I100
sg11
I100
sa(dp117
g7
(F0.15
F0.922
F0.091
I9
I100
tp118
sg9
F12.103918075561523
sg10
I100
sg11
I200
sa(dp119
g7
(F0.151
F0.78
F0.089
I10
I100
tp120
sg9
F18.274988889694214
sg10
I100
sg11
I300
sa(dp121
g7
(F0.155
F0.83
F0.088
I10
I100
tp122
sg9
F24.44796395301819
sg10
I100
sg11
I400
sa(dp123
g7
(F0.157
F0.83
F0.099
I10
I100
tp124
sg9
F30.562774896621704
sg10
I100
sg11
I500
satp125
Rp126
(dp127
g25
I01
sg26
g31
sg32
(lp128
I3
aI5
aI30
aI9
asg34
I6
sg35
g36
(g3
tp129
Rp130
sbs.