(dp0
S'NSGA2-SIP'
p1
ccopy_reg
_reconstructor
p2
(cdeap.tools.support
Logbook
p3
c__builtin__
list
p4
(lp5
(dp6
S'hv|spread|igd|frontier#|valid#'
p7
(F0.154
F0.77
F0.087
I11
I53
tp8
sS'timestamp'
p9
F0.017477989196777344
sS'evals'
p10
I100
sS'gen'
p11
I0
sa(dp12
g7
(F0.157
F0.824
F0.076
I13
I100
tp13
sg9
F2.3132479190826416
sg10
I100
sg11
I100
sa(dp14
g7
(F0.157
F0.904
F0.076
I13
I100
tp15
sg9
F4.657464027404785
sg10
I100
sg11
I200
sa(dp16
g7
(F0.157
F0.824
F0.076
I13
I100
tp17
sg9
F7.005372047424316
sg10
I100
sg11
I300
sa(dp18
g7
(F0.157
F0.642
F0.076
I13
I100
tp19
sg9
F9.311792850494385
sg10
I100
sg11
I400
sa(dp20
g7
(F0.157
F0.683
F0.076
I13
I100
tp21
sg9
F11.659973859786987
sg10
I100
sg11
I500
satp22
Rp23
(dp24
S'log_header'
p25
I01
sS'header'
p26
(S'gen'
p27
S'evals'
p28
g7
S'timestamp'
p29
tp30
sS'columns_len'
p31
(lp32
I3
aI5
aI30
aI9
asS'buffindex'
p33
I6
sS'chapters'
p34
ccollections
defaultdict
p35
(g3
tp36
Rp37
sbsS'SPEA2-SIP'
p38
g2
(g3
g4
(lp39
(dp40
g7
(F0.157
F0.697
F0.09
I11
I58
tp41
sg9
F0.018230915069580078
sg10
I100
sg11
I0
sa(dp42
g7
(F0.157
F0.867
F0.076
I13
I100
tp43
sg9
F158.7831950187683
sg10
I100
sg11
I100
sa(dp44
g7
(F0.157
F0.867
F0.076
I13
I100
tp45
sg9
F322.0765130519867
sg10
I100
sg11
I200
sa(dp46
g7
(F0.157
F0.933
F0.076
I13
I100
tp47
sg9
F484.2509639263153
sg10
I100
sg11
I300
sa(dp48
g7
(F0.157
F0.815
F0.076
I13
I100
tp49
sg9
F648.1087620258331
sg10
I100
sg11
I400
sa(dp50
g7
(F0.157
F0.808
F0.076
I13
I100
tp51
sg9
F810.2588050365448
sg10
I100
sg11
I500
satp52
Rp53
(dp54
g25
I01
sg26
g30
sg31
(lp55
I3
aI5
aI30
aI9
asg33
I6
sg34
g35
(g3
tp56
Rp57
sbsS'SPEA2'
p58
g2
(g3
g4
(lp59
(dp60
g7
(F0.101
F0.932
F0.129
I3
I4
tp61
sg9
F0.01729106903076172
sg10
I100
sg11
I0
sa(dp62
g7
(I0
I0
I0
I0
I0
tp63
sg9
F124.99788093566895
sg10
I100
sg11
I100
sa(dp64
g7
g63
sg9
F253.186518907547
sg10
I100
sg11
I200
sa(dp65
g7
g63
sg9
F380.7601249217987
sg10
I100
sg11
I300
sa(dp66
g7
g63
sg9
F506.79077792167664
sg10
I100
sg11
I400
sa(dp67
g7
g63
sg9
F636.2012710571289
sg10
I100
sg11
I500
satp68
Rp69
(dp70
g25
I01
sg26
g30
sg31
(lp71
I3
aI5
aI30
aI9
asg33
I6
sg34
g35
(g3
tp72
Rp73
sbsS'IBEA-PEN'
p74
g2
(g3
g4
(lp75
(dp76
g7
(F0.114
F0.824
F0.0
I5
I60
tp77
sg9
F0.023138999938964844
sg10
I100
sg11
I0
sa(dp78
g7
(F0.127
F0.77
F0.069
I6
I59
tp79
sg9
F6.8321311473846436
sg10
I100
sg11
I100
sa(dp80
g7
(F0.143
F1.055
F0.101
I9
I51
tp81
sg9
F13.717797994613647
sg10
I100
sg11
I200
sa(dp82
g7
(F0.129
F0.843
F0.084
I7
I56
tp83
sg9
F20.530912160873413
sg10
I100
sg11
I300
sa(dp84
g7
(F0.136
F0.799
F0.066
I8
I39
tp85
sg9
F27.340458154678345
sg10
I100
sg11
I400
sa(dp86
g7
(F0.143
F0.877
F0.096
I7
I58
tp87
sg9
F34.15473508834839
sg10
I100
sg11
I500
satp88
Rp89
(dp90
g25
I01
sg26
g30
sg31
(lp91
I3
aI5
aI30
aI9
asg33
I6
sg34
g35
(g3
tp92
Rp93
sbsS'IBEA'
p94
g2
(g3
g4
(lp95
(dp96
g7
(F0.107
F0.934
F0.117
I4
I7
tp97
sg9
F0.01795196533203125
sg10
I100
sg11
I0
sa(dp98
g7
g63
sg9
F6.70027494430542
sg10
I100
sg11
I100
sa(dp99
g7
(F0.117
F0.939
F0.105
I3
I3
tp100
sg9
F13.41916298866272
sg10
I100
sg11
I200
sa(dp101
g7
g63
sg9
F20.14168691635132
sg10
I100
sg11
I300
sa(dp102
g7
g63
sg9
F26.865817070007324
sg10
I100
sg11
I400
sa(dp103
g7
(F0.1
F0.94
F0.09
I2
I2
tp104
sg9
F33.57892608642578
sg10
I100
sg11
I500
satp105
Rp106
(dp107
g25
I01
sg26
g30
sg31
(lp108
I3
aI5
aI30
aI9
asg33
I6
sg34
g35
(g3
tp109
Rp110
sbsS'NSGA2'
p111
g2
(g3
g4
(lp112
(dp113
g7
(F0.059
F2.312
F0.095
I1
I1
tp114
sg9
F0.016924142837524414
sg10
I100
sg11
I0
sa(dp115
g7
g63
sg9
F6.122635126113892
sg10
I100
sg11
I100
sa(dp116
g7
g63
sg9
F12.227790117263794
sg10
I100
sg11
I200
sa(dp117
g7
g63
sg9
F18.31884217262268
sg10
I100
sg11
I300
sa(dp118
g7
(F0.113
F0.963
F0.118
I2
I2
tp119
sg9
F24.456202030181885
sg10
I100
sg11
I400
sa(dp120
g7
g63
sg9
F30.60833501815796
sg10
I100
sg11
I500
satp121
Rp122
(dp123
g25
I01
sg26
g30
sg31
(lp124
I3
aI5
aI30
aI9
asg33
I6
sg34
g35
(g3
tp125
Rp126
sbsS'IBEA-SIP'
p127
g2
(g3
g4
(lp128
(dp129
g7
(F0.148
F0.661
F0.084
I12
I62
tp130
sg9
F0.01887989044189453
sg10
I100
sg11
I0
sa(dp131
g7
(F0.134
F0.857
F0.043
I9
I100
tp132
sg9
F6.1189680099487305
sg10
I100
sg11
I100
sa(dp133
g7
(F0.157
F0.782
F0.09
I11
I100
tp134
sg9
F12.360610961914062
sg10
I100
sg11
I200
sa(dp135
g7
(F0.151
F0.942
F0.076
I10
I100
tp136
sg9
F18.610517024993896
sg10
I100
sg11
I300
sa(dp137
g7
(F0.149
F0.729
F0.082
I11
I100
tp138
sg9
F24.851842880249023
sg10
I100
sg11
I400
sa(dp139
g7
(F0.151
F0.988
F0.087
I9
I100
tp140
sg9
F31.116865873336792
sg10
I100
sg11
I500
satp141
Rp142
(dp143
g25
I01
sg26
g30
sg31
(lp144
I3
aI5
aI30
aI9
asg33
I6
sg34
g35
(g3
tp145
Rp146
sbs.