(dp0
S'NSGA2-SIP'
p1
ccopy_reg
_reconstructor
p2
(cdeap.tools.support
Logbook
p3
c__builtin__
list
p4
(lp5
(dp6
S'hv|spread|igd|frontier#|valid#'
p7
(F0.151
F0.799
F0.093
I11
I52
tp8
sS'timestamp'
p9
F0.019427061080932617
sS'evals'
p10
I100
sS'gen'
p11
I0
sa(dp12
g7
(F0.157
F0.805
F0.076
I13
I100
tp13
sg9
F2.6367712020874023
sg10
I100
sg11
I100
sa(dp14
g7
(F0.157
F0.86
F0.076
I13
I100
tp15
sg9
F5.377025127410889
sg10
I100
sg11
I200
sa(dp16
g7
(F0.157
F0.827
F0.076
I13
I100
tp17
sg9
F8.122552156448364
sg10
I100
sg11
I300
sa(dp18
g7
(F0.157
F0.726
F0.076
I13
I100
tp19
sg9
F10.873023986816406
sg10
I100
sg11
I400
sa(dp20
g7
(F0.157
F0.86
F0.076
I13
I100
tp21
sg9
F13.623363018035889
sg10
I100
sg11
I500
satp22
Rp23
(dp24
S'log_header'
p25
I01
sS'header'
p26
(S'gen'
p27
S'evals'
p28
S'hv|spread|igd|frontier#|valid#'
p29
S'timestamp'
p30
tp31
sS'columns_len'
p32
(lp33
I3
aI5
aI30
aI9
asS'buffindex'
p34
I6
sS'chapters'
p35
ccollections
defaultdict
p36
(g3
tp37
Rp38
sbsS'SPEA2-SIP'
p39
g2
(g3
g4
(lp40
(dp41
g7
(F0.144
F0.881
F0.047
I11
I55
tp42
sg9
F0.02048802375793457
sg10
I100
sg11
I0
sa(dp43
g7
(F0.157
F0.895
F0.076
I13
I100
tp44
sg9
F167.68335604667664
sg10
I100
sg11
I100
sa(dp45
g7
(F0.157
F0.998
F0.076
I13
I100
tp46
sg9
F338.2073299884796
sg10
I100
sg11
I200
sa(dp47
g7
(F0.157
F0.99
F0.076
I13
I100
tp48
sg9
F508.97596192359924
sg10
I100
sg11
I300
sa(dp49
g7
(F0.157
F0.81
F0.076
I13
I100
tp50
sg9
F681.0294940471649
sg10
I100
sg11
I400
sa(dp51
g7
(F0.157
F0.834
F0.076
I13
I100
tp52
sg9
F853.2196588516235
sg10
I100
sg11
I500
satp53
Rp54
(dp55
g25
I01
sg26
g31
sg32
(lp56
I3
aI5
aI30
aI9
asg34
I6
sg35
g36
(g3
tp57
Rp58
sbsS'SPEA2'
p59
g2
(g3
g4
(lp60
(dp61
g7
(F0.098
F1.0
F0.115
I3
I4
tp62
sg9
F0.02020096778869629
sg10
I100
sg11
I0
sa(dp63
g7
(I0
I0
I0
I0
I0
tp64
sg9
F131.4137499332428
sg10
I100
sg11
I100
sa(dp65
g7
g64
sg9
F267.8985059261322
sg10
I100
sg11
I200
sa(dp66
g7
g64
sg9
F402.8071508407593
sg10
I100
sg11
I300
sa(dp67
g7
g64
sg9
F538.483108997345
sg10
I100
sg11
I400
sa(dp68
g7
g64
sg9
F673.8052759170532
sg10
I100
sg11
I500
satp69
Rp70
(dp71
g25
I01
sg26
g31
sg32
(lp72
I3
aI5
aI30
aI9
asg34
I6
sg35
g36
(g3
tp73
Rp74
sbsS'IBEA'
p75
g2
(g3
g4
(lp76
(dp77
g7
(F0.046
F1.0
F0.099
I2
I2
tp78
sg9
F0.020236968994140625
sg10
I100
sg11
I0
sa(dp79
g7
(F0.037
F2.599
F0.099
I1
I3
tp80
sg9
F6.925036907196045
sg10
I100
sg11
I100
sa(dp81
g7
g64
sg9
F13.87505292892456
sg10
I100
sg11
I200
sa(dp82
g7
g64
sg9
F20.850517988204956
sg10
I100
sg11
I300
sa(dp83
g7
(F0.1
F0.94
F0.09
I2
I2
tp84
sg9
F27.757105827331543
sg10
I100
sg11
I400
sa(dp85
g7
(F0.037
F2.599
F0.099
I1
I2
tp86
sg9
F34.709457874298096
sg10
I100
sg11
I500
satp87
Rp88
(dp89
g25
I01
sg26
g31
sg32
(lp90
I3
aI5
aI30
aI9
asg34
I6
sg35
g36
(g3
tp91
Rp92
sbsS'NSGA2'
p93
g2
(g3
g4
(lp94
(dp95
g7
(F0.066
F0.966
F0.11
I2
I3
tp96
sg9
F0.019926071166992188
sg10
I100
sg11
I0
sa(dp97
g7
g64
sg9
F6.859764099121094
sg10
I100
sg11
I100
sa(dp98
g7
(F0.088
F2.407
F0.081
I1
I1
tp99
sg9
F13.861063003540039
sg10
I100
sg11
I200
sa(dp100
g7
g64
sg9
F20.774521112442017
sg10
I100
sg11
I300
sa(dp101
g7
g64
sg9
F27.6497859954834
sg10
I100
sg11
I400
sa(dp102
g7
(F0.092
F2.312
F0.154
I1
I1
tp103
sg9
F34.596946001052856
sg10
I100
sg11
I500
satp104
Rp105
(dp106
g25
I01
sg26
g31
sg32
(lp107
I3
aI5
aI30
aI9
asg34
I6
sg35
g36
(g3
tp108
Rp109
sbsS'IBEA-SIP'
p110
g2
(g3
g4
(lp111
(dp112
g7
(F0.154
F0.802
F0.075
I13
I50
tp113
sg9
F0.020621061325073242
sg10
I100
sg11
I0
sa(dp114
g7
(F0.143
F0.692
F0.091
I10
I100
tp115
sg9
F6.305237054824829
sg10
I100
sg11
I100
sa(dp116
g7
(F0.149
F0.989
F0.074
I9
I100
tp117
sg9
F12.741461038589478
sg10
I100
sg11
I200
sa(dp118
g7
(F0.148
F0.758
F0.076
I12
I100
tp119
sg9
F19.17027521133423
sg10
I100
sg11
I300
sa(dp120
g7
(F0.157
F0.925
F0.099
I10
I100
tp121
sg9
F25.54792022705078
sg10
I100
sg11
I400
sa(dp122
g7
(F0.139
F0.751
F0.085
I11
I100
tp123
sg9
F31.93536114692688
sg10
I100
sg11
I500
satp124
Rp125
(dp126
g25
I01
sg26
g31
sg32
(lp127
I3
aI5
aI30
aI9
asg34
I6
sg35
g36
(g3
tp128
Rp129
sbs.