(dp0
S'NSGA2-SIP'
p1
ccopy_reg
_reconstructor
p2
(cdeap.tools.support
Logbook
p3
c__builtin__
list
p4
(lp5
(dp6
S'hv|spread|igd|frontier#|valid#'
p7
(F0.154
F0.847
F0.078
I11
I52
tp8
sS'timestamp'
p9
F0.017589092254638672
sS'evals'
p10
I100
sS'gen'
p11
I0
sa(dp12
g7
(F0.157
F0.734
F0.076
I13
I100
tp13
sg9
F2.5923080444335938
sg10
I100
sg11
I100
sa(dp14
g7
(F0.157
F0.904
F0.076
I13
I100
tp15
sg9
F5.003859996795654
sg10
I100
sg11
I200
sa(dp16
g7
(F0.157
F0.81
F0.076
I13
I100
tp17
sg9
F7.416210174560547
sg10
I100
sg11
I300
sa(dp18
g7
(F0.157
F0.81
F0.076
I13
I100
tp19
sg9
F9.790018081665039
sg10
I100
sg11
I400
sa(dp20
g7
(F0.157
F0.642
F0.076
I13
I100
tp21
sg9
F12.160014152526855
sg10
I100
sg11
I500
satp22
Rp23
(dp24
S'log_header'
p25
I01
sS'header'
p26
(S'gen'
p27
S'evals'
p28
S'hv|spread|igd|frontier#|valid#'
p29
S'timestamp'
p30
tp31
sS'columns_len'
p32
(lp33
I3
aI5
aI30
aI9
asS'buffindex'
p34
I6
sS'chapters'
p35
ccollections
defaultdict
p36
(g3
tp37
Rp38
sbsS'SPEA2-SIP'
p39
g2
(g3
g4
(lp40
(dp41
g7
(F0.144
F0.705
F0.092
I15
I61
tp42
sg9
F0.020246028900146484
sg10
I100
sg11
I0
sa(dp43
g7
(F0.157
F0.837
F0.076
I13
I100
tp44
sg9
F165.1909999847412
sg10
I100
sg11
I100
sa(dp45
g7
(F0.157
F0.86
F0.076
I13
I100
tp46
sg9
F334.15392088890076
sg10
I100
sg11
I200
sa(dp47
g7
(F0.157
F0.933
F0.076
I13
I100
tp48
sg9
F503.7546579837799
sg10
I100
sg11
I300
sa(dp49
g7
(F0.157
F0.904
F0.076
I13
I100
tp50
sg9
F672.3534638881683
sg10
I100
sg11
I400
sa(dp51
g7
(F0.157
F0.815
F0.076
I13
I100
tp52
sg9
F841.5352959632874
sg10
I100
sg11
I500
satp53
Rp54
(dp55
g25
I01
sg26
g31
sg32
(lp56
I3
aI5
aI30
aI9
asg34
I6
sg35
g36
(g3
tp57
Rp58
sbsS'SPEA2'
p59
g2
(g3
g4
(lp60
(dp61
g7
(F0.094
F0.965
F0.084
I2
I3
tp62
sg9
F0.01761317253112793
sg10
I100
sg11
I0
sa(dp63
g7
(I0
I0
I0
I0
I0
tp64
sg9
F127.05219197273254
sg10
I100
sg11
I100
sa(dp65
g7
g64
sg9
F260.8032350540161
sg10
I100
sg11
I200
sa(dp66
g7
g64
sg9
F393.80355405807495
sg10
I100
sg11
I300
sa(dp67
g7
g64
sg9
F529.5362651348114
sg10
I100
sg11
I400
sa(dp68
g7
g64
sg9
F662.9402639865875
sg10
I100
sg11
I500
satp69
Rp70
(dp71
g25
I01
sg26
g31
sg32
(lp72
I3
aI5
aI30
aI9
asg34
I6
sg35
g36
(g3
tp73
Rp74
sbsS'IBEA'
p75
g2
(g3
g4
(lp76
(dp77
g7
(F0.025
F0.968
F0.134
I2
I2
tp78
sg9
F0.01779007911682129
sg10
I100
sg11
I0
sa(dp79
g7
(F0.037
F2.599
F0.099
I1
I1
tp80
sg9
F6.848257064819336
sg10
I100
sg11
I100
sa(dp81
g7
(F0.128
F0.936
F0.114
I3
I3
tp82
sg9
F13.868966102600098
sg10
I100
sg11
I200
sa(dp83
g7
(F0.051
F2.5
F0.106
I1
I1
tp84
sg9
F20.877092123031616
sg10
I100
sg11
I300
sa(dp85
g7
(F0.088
F2.407
F0.081
I1
I4
tp86
sg9
F27.89301109313965
sg10
I100
sg11
I400
sa(dp87
g7
g64
sg9
F35.02676320075989
sg10
I100
sg11
I500
satp88
Rp89
(dp90
g25
I01
sg26
g31
sg32
(lp91
I3
aI5
aI30
aI9
asg34
I6
sg35
g36
(g3
tp92
Rp93
sbsS'NSGA2'
p94
g2
(g3
g4
(lp95
(dp96
g7
(F0.117
F0.82
F0.082
I3
I4
tp97
sg9
F0.017744064331054688
sg10
I100
sg11
I0
sa(dp98
g7
(F0.092
F2.312
F0.154
I1
I1
tp99
sg9
F6.380686044692993
sg10
I100
sg11
I100
sa(dp100
g7
(F0.055
F2.5
F0.106
I1
I1
tp101
sg9
F12.665778875350952
sg10
I100
sg11
I200
sa(dp102
g7
g64
sg9
F18.904144048690796
sg10
I100
sg11
I300
sa(dp103
g7
g64
sg9
F25.074629068374634
sg10
I100
sg11
I400
sa(dp104
g7
g64
sg9
F31.32804799079895
sg10
I100
sg11
I500
satp105
Rp106
(dp107
g25
I01
sg26
g31
sg32
(lp108
I3
aI5
aI30
aI9
asg34
I6
sg35
g36
(g3
tp109
Rp110
sbsS'IBEA-SIP'
p111
g2
(g3
g4
(lp112
(dp113
g7
(F0.147
F0.893
F0.049
I11
I55
tp114
sg9
F0.018038034439086914
sg10
I100
sg11
I0
sa(dp115
g7
(F0.151
F0.96
F0.076
I10
I100
tp116
sg9
F6.339010000228882
sg10
I100
sg11
I100
sa(dp117
g7
(F0.146
F0.922
F0.07
I10
I100
tp118
sg9
F12.664947986602783
sg10
I100
sg11
I200
sa(dp119
g7
(F0.143
F0.718
F0.091
I10
I100
tp120
sg9
F18.993476152420044
sg10
I100
sg11
I300
sa(dp121
g7
(F0.152
F0.793
F0.076
I10
I100
tp122
sg9
F25.33443808555603
sg10
I100
sg11
I400
sa(dp123
g7
(F0.139
F0.799
F0.082
I11
I100
tp124
sg9
F31.851015090942383
sg10
I100
sg11
I500
satp125
Rp126
(dp127
g25
I01
sg26
g31
sg32
(lp128
I3
aI5
aI30
aI9
asg34
I6
sg35
g36
(g3
tp129
Rp130
sbs.