(dp0
S'NSGA2-SIP'
p1
ccopy_reg
_reconstructor
p2
(cdeap.tools.support
Logbook
p3
c__builtin__
list
p4
(lp5
(dp6
S'hv|spread|igd|frontier#|valid#'
p7
(F0.156
F0.631
F0.09
I12
I58
tp8
sS'timestamp'
p9
F0.017313003540039062
sS'evals'
p10
I100
sS'gen'
p11
I0
sa(dp12
g7
(F0.157
F0.809
F0.076
I13
I100
tp13
sg9
F2.2277839183807373
sg10
I100
sg11
I100
sa(dp14
g7
(F0.157
F0.827
F0.076
I13
I100
tp15
sg9
F4.495024919509888
sg10
I100
sg11
I200
sa(dp16
g7
(F0.157
F0.998
F0.076
I13
I100
tp17
sg9
F6.8348448276519775
sg10
I100
sg11
I300
sa(dp18
g7
(F0.157
F0.895
F0.076
I13
I100
tp19
sg9
F9.170305013656616
sg10
I100
sg11
I400
sa(dp20
g7
(F0.157
F0.809
F0.076
I13
I100
tp21
sg9
F11.512224912643433
sg10
I100
sg11
I500
satp22
Rp23
(dp24
S'log_header'
p25
I01
sS'header'
p26
(S'gen'
p27
S'evals'
p28
S'hv|spread|igd|frontier#|valid#'
p29
S'timestamp'
p30
tp31
sS'columns_len'
p32
(lp33
I3
aI5
aI30
aI9
asS'buffindex'
p34
I6
sS'chapters'
p35
ccollections
defaultdict
p36
(g3
tp37
Rp38
sbsS'SPEA2-SIP'
p39
g2
(g3
g4
(lp40
(dp41
g7
(F0.148
F0.701
F0.084
I12
I53
tp42
sg9
F0.01767706871032715
sg10
I100
sg11
I0
sa(dp43
g7
(F0.157
F0.827
F0.076
I13
I100
tp44
sg9
F152.87250304222107
sg10
I100
sg11
I100
sa(dp45
g7
(F0.157
F0.904
F0.076
I13
I100
tp46
sg9
F310.88471698760986
sg10
I100
sg11
I200
sa(dp47
g7
(F0.157
F0.947
F0.076
I13
I100
tp48
sg9
F469.6111159324646
sg10
I100
sg11
I300
sa(dp49
g7
(F0.157
F0.99
F0.076
I13
I100
tp50
sg9
F627.9278249740601
sg10
I100
sg11
I400
sa(dp51
g7
(F0.157
F0.817
F0.076
I13
I100
tp52
sg9
F786.7279629707336
sg10
I100
sg11
I500
satp53
Rp54
(dp55
g25
I01
sg26
g31
sg32
(lp56
I3
aI5
aI30
aI9
asg34
I6
sg35
g36
(g3
tp57
Rp58
sbsS'SPEA2'
p59
g2
(g3
g4
(lp60
(dp61
g7
(F0.071
F0.963
F0.102
I2
I2
tp62
sg9
F0.016972064971923828
sg10
I100
sg11
I0
sa(dp63
g7
(F0.087
F2.236
F0.121
I1
I1
tp64
sg9
F122.6379930973053
sg10
I100
sg11
I100
sa(dp65
g7
(I0
I0
I0
I0
I0
tp66
sg9
F247.449077129364
sg10
I100
sg11
I200
sa(dp67
g7
g66
sg9
F370.4690651893616
sg10
I100
sg11
I300
sa(dp68
g7
g66
sg9
F493.25057196617126
sg10
I100
sg11
I400
sa(dp69
g7
g66
sg9
F616.1478431224823
sg10
I100
sg11
I500
satp70
Rp71
(dp72
g25
I01
sg26
g31
sg32
(lp73
I3
aI5
aI30
aI9
asg34
I6
sg35
g36
(g3
tp74
Rp75
sbsS'IBEA-PEN'
p76
g2
(g3
g4
(lp77
(dp78
g7
(F0.114
F0.824
F0.0
I5
I60
tp79
sg9
F0.02255392074584961
sg10
I100
sg11
I0
sa(dp80
g7
(F0.156
F0.74
F0.11
I9
I47
tp81
sg9
F6.6596479415893555
sg10
I100
sg11
I100
sa(dp82
g7
(F0.148
F0.954
F0.057
I9
I47
tp83
sg9
F13.328130960464478
sg10
I100
sg11
I200
sa(dp84
g7
(F0.156
F0.822
F0.091
I9
I59
tp85
sg9
F19.990139961242676
sg10
I100
sg11
I300
sa(dp86
g7
(F0.136
F0.944
F0.059
I9
I52
tp87
sg9
F26.63091802597046
sg10
I100
sg11
I400
sa(dp88
g7
(F0.139
F0.799
F0.104
I9
I53
tp89
sg9
F33.30193281173706
sg10
I100
sg11
I500
satp90
Rp91
(dp92
g25
I01
sg26
g31
sg32
(lp93
I3
aI5
aI30
aI9
asg34
I6
sg35
g36
(g3
tp94
Rp95
sbsS'IBEA'
p96
g2
(g3
g4
(lp97
(dp98
g7
(F0.075
F0.933
F0.093
I2
I2
tp99
sg9
F0.016499042510986328
sg10
I100
sg11
I0
sa(dp100
g7
(F0.088
F2.407
F0.081
I1
I2
tp101
sg9
F6.444859981536865
sg10
I100
sg11
I100
sa(dp102
g7
(F0.1
F0.94
F0.09
I2
I5
tp103
sg9
F12.994910955429077
sg10
I100
sg11
I200
sa(dp104
g7
(F0.124
F0.932
F0.101
I2
I4
tp105
sg9
F19.561665058135986
sg10
I100
sg11
I300
sa(dp106
g7
(F0.037
F2.599
F0.099
I1
I3
tp107
sg9
F26.11748695373535
sg10
I100
sg11
I400
sa(dp108
g7
(F0.055
F2.5
F0.106
I1
I1
tp109
sg9
F32.68910193443298
sg10
I100
sg11
I500
satp110
Rp111
(dp112
g25
I01
sg26
g31
sg32
(lp113
I3
aI5
aI30
aI9
asg34
I6
sg35
g36
(g3
tp114
Rp115
sbsS'NSGA2'
p116
g2
(g3
g4
(lp117
(dp118
g7
(F0.121
F0.836
F0.069
I4
I4
tp119
sg9
F0.017391204833984375
sg10
I100
sg11
I0
sa(dp120
g7
g66
sg9
F5.998701095581055
sg10
I100
sg11
I100
sa(dp121
g7
g66
sg9
F11.978462219238281
sg10
I100
sg11
I200
sa(dp122
g7
(F0.055
F2.5
F0.106
I1
I1
tp123
sg9
F18.003742218017578
sg10
I100
sg11
I300
sa(dp124
g7
g66
sg9
F23.971288204193115
sg10
I100
sg11
I400
sa(dp125
g7
g66
sg9
F29.9094660282135
sg10
I100
sg11
I500
satp126
Rp127
(dp128
g25
I01
sg26
g31
sg32
(lp129
I3
aI5
aI30
aI9
asg34
I6
sg35
g36
(g3
tp130
Rp131
sbsS'IBEA-SIP'
p132
g2
(g3
g4
(lp133
(dp134
g7
(F0.138
F0.747
F0.062
I12
I55
tp135
sg9
F0.017158985137939453
sg10
I100
sg11
I0
sa(dp136
g7
(F0.138
F0.586
F0.082
I11
I100
tp137
sg9
F5.935215950012207
sg10
I100
sg11
I100
sa(dp138
g7
(F0.15
F0.956
F0.099
I9
I100
tp139
sg9
F12.052450895309448
sg10
I100
sg11
I200
sa(dp140
g7
(F0.139
F0.968
F0.08
I10
I100
tp141
sg9
F18.14307689666748
sg10
I100
sg11
I300
sa(dp142
g7
(F0.153
F0.787
F0.091
I9
I100
tp143
sg9
F24.1873459815979
sg10
I100
sg11
I400
sa(dp144
g7
(F0.137
F0.698
F0.084
I10
I100
tp145
sg9
F30.201247930526733
sg10
I100
sg11
I500
satp146
Rp147
(dp148
g25
I01
sg26
g31
sg32
(lp149
I3
aI5
aI30
aI9
asg34
I6
sg35
g36
(g3
tp150
Rp151
sbs.