(dp0
S'NSGA2-SIP'
p1
ccopy_reg
_reconstructor
p2
(cdeap.tools.support
Logbook
p3
c__builtin__
list
p4
(lp5
(dp6
S'hv|spread|igd|frontier#|valid#'
p7
(F0.15
F0.799
F0.069
I11
I53
tp8
sS'timestamp'
p9
F0.01679396629333496
sS'evals'
p10
I100
sS'gen'
p11
I0
sa(dp12
g7
(F0.157
F0.817
F0.076
I13
I100
tp13
sg9
F2.2894749641418457
sg10
I100
sg11
I100
sa(dp14
g7
(F0.157
F0.734
F0.076
I13
I100
tp15
sg9
F4.57516884803772
sg10
I100
sg11
I200
sa(dp16
g7
(F0.157
F0.867
F0.076
I13
I100
tp17
sg9
F6.845473051071167
sg10
I100
sg11
I300
sa(dp18
g7
(F0.157
F0.867
F0.076
I13
I100
tp19
sg9
F9.1076500415802
sg10
I100
sg11
I400
sa(dp20
g7
(F0.157
F0.811
F0.076
I13
I100
tp21
sg9
F11.368695974349976
sg10
I100
sg11
I500
satp22
Rp23
(dp24
S'log_header'
p25
I01
sS'header'
p26
(S'gen'
p27
S'evals'
p28
S'hv|spread|igd|frontier#|valid#'
p29
S'timestamp'
p30
tp31
sS'columns_len'
p32
(lp33
I3
aI5
aI30
aI9
asS'buffindex'
p34
I6
sS'chapters'
p35
ccollections
defaultdict
p36
(g3
tp37
Rp38
sbsS'SPEA2-SIP'
p39
g2
(g3
g4
(lp40
(dp41
g7
(F0.156
F0.794
F0.085
I11
I54
tp42
sg9
F0.017105817794799805
sg10
I100
sg11
I0
sa(dp43
g7
(F0.157
F0.805
F0.076
I13
I100
tp44
sg9
F156.68296694755554
sg10
I100
sg11
I100
sa(dp45
g7
(F0.157
F0.895
F0.076
I13
I100
tp46
sg9
F314.94997477531433
sg10
I100
sg11
I200
sa(dp47
g7
(F0.157
F0.808
F0.076
I13
I100
tp48
sg9
F476.6089699268341
sg10
I100
sg11
I300
sa(dp49
g7
(F0.157
F0.837
F0.076
I13
I100
tp50
sg9
F634.8255639076233
sg10
I100
sg11
I400
sa(dp51
g7
(F0.157
F0.817
F0.076
I13
I100
tp52
sg9
F792.5743939876556
sg10
I100
sg11
I500
satp53
Rp54
(dp55
g25
I01
sg26
g31
sg32
(lp56
I3
aI5
aI30
aI9
asg34
I6
sg35
g36
(g3
tp57
Rp58
sbsS'SPEA2'
p59
g2
(g3
g4
(lp60
(dp61
g7
(F0.058
F0.968
F0.102
I2
I3
tp62
sg9
F0.016843080520629883
sg10
I100
sg11
I0
sa(dp63
g7
(I0
I0
I0
I0
I0
tp64
sg9
F125.9049460887909
sg10
I100
sg11
I100
sa(dp65
g7
g64
sg9
F251.35412406921387
sg10
I100
sg11
I200
sa(dp66
g7
g64
sg9
F376.0012261867523
sg10
I100
sg11
I300
sa(dp67
g7
g64
sg9
F502.762659072876
sg10
I100
sg11
I400
sa(dp68
g7
g64
sg9
F625.9106030464172
sg10
I100
sg11
I500
satp69
Rp70
(dp71
g25
I01
sg26
g31
sg32
(lp72
I3
aI5
aI30
aI9
asg34
I6
sg35
g36
(g3
tp73
Rp74
sbsS'IBEA-PEN'
p75
g2
(g3
g4
(lp76
(dp77
g7
(F0.114
F0.824
F0.0
I5
I63
tp78
sg9
F0.021491050720214844
sg10
I100
sg11
I0
sa(dp79
g7
(F0.123
F0.71
F0.127
I6
I34
tp80
sg9
F6.606348037719727
sg10
I100
sg11
I100
sa(dp81
g7
(F0.128
F0.777
F0.076
I9
I54
tp82
sg9
F13.26004695892334
sg10
I100
sg11
I200
sa(dp83
g7
(F0.142
F0.949
F0.12
I7
I39
tp84
sg9
F19.91256594657898
sg10
I100
sg11
I300
sa(dp85
g7
(F0.149
F0.958
F0.061
I11
I62
tp86
sg9
F26.558099031448364
sg10
I100
sg11
I400
sa(dp87
g7
(F0.137
F0.989
F0.065
I9
I53
tp88
sg9
F33.235954999923706
sg10
I100
sg11
I500
satp89
Rp90
(dp91
g25
I01
sg26
g31
sg32
(lp92
I3
aI5
aI30
aI9
asg34
I6
sg35
g36
(g3
tp93
Rp94
sbsS'IBEA'
p95
g2
(g3
g4
(lp96
(dp97
g7
(F0.094
F0.843
F0.094
I4
I5
tp98
sg9
F0.01655101776123047
sg10
I100
sg11
I0
sa(dp99
g7
(F0.037
F2.599
F0.099
I1
I1
tp100
sg9
F6.351501941680908
sg10
I100
sg11
I100
sa(dp101
g7
(F0.047
F2.5
F0.083
I1
I1
tp102
sg9
F12.898026943206787
sg10
I100
sg11
I200
sa(dp103
g7
(F0.037
F2.599
F0.099
I1
I1
tp104
sg9
F19.457377910614014
sg10
I100
sg11
I300
sa(dp105
g7
(F0.124
F0.932
F0.101
I2
I2
tp106
sg9
F26.016777992248535
sg10
I100
sg11
I400
sa(dp107
g7
(F0.098
F0.968
F0.094
I2
I4
tp108
sg9
F32.56507682800293
sg10
I100
sg11
I500
satp109
Rp110
(dp111
g25
I01
sg26
g31
sg32
(lp112
I3
aI5
aI30
aI9
asg34
I6
sg35
g36
(g3
tp113
Rp114
sbsS'NSGA2'
p115
g2
(g3
g4
(lp116
(dp117
g7
(F0.118
F0.846
F0.077
I6
I8
tp118
sg9
F0.017962932586669922
sg10
I100
sg11
I0
sa(dp119
g7
(F0.092
F2.312
F0.154
I1
I1
tp120
sg9
F6.006074905395508
sg10
I100
sg11
I100
sa(dp121
g7
g64
sg9
F11.976906061172485
sg10
I100
sg11
I200
sa(dp122
g7
g64
sg9
F17.99258589744568
sg10
I100
sg11
I300
sa(dp123
g7
g64
sg9
F23.973665952682495
sg10
I100
sg11
I400
sa(dp124
g7
(F0.092
F2.312
F0.154
I1
I1
tp125
sg9
F29.971992015838623
sg10
I100
sg11
I500
satp126
Rp127
(dp128
g25
I01
sg26
g31
sg32
(lp129
I3
aI5
aI30
aI9
asg34
I6
sg35
g36
(g3
tp130
Rp131
sbsS'IBEA-SIP'
p132
g2
(g3
g4
(lp133
(dp134
g7
(F0.142
F0.809
F0.064
I13
I53
tp135
sg9
F0.017171144485473633
sg10
I100
sg11
I0
sa(dp136
g7
(F0.151
F0.944
F0.076
I10
I100
tp137
sg9
F5.930727005004883
sg10
I100
sg11
I100
sa(dp138
g7
(F0.157
F0.897
F0.08
I11
I100
tp139
sg9
F12.03331995010376
sg10
I100
sg11
I200
sa(dp140
g7
(F0.157
F0.755
F0.08
I11
I100
tp141
sg9
F18.135998964309692
sg10
I100
sg11
I300
sa(dp142
g7
(F0.143
F1.005
F0.091
I10
I100
tp143
sg9
F24.188838005065918
sg10
I100
sg11
I400
sa(dp144
g7
(F0.144
F0.974
F0.057
I10
I100
tp145
sg9
F30.166277170181274
sg10
I100
sg11
I500
satp146
Rp147
(dp148
g25
I01
sg26
g31
sg32
(lp149
I3
aI5
aI30
aI9
asg34
I6
sg35
g36
(g3
tp150
Rp151
sbs.