(dp0
S'NSGA2-SIP'
p1
ccopy_reg
_reconstructor
p2
(cdeap.tools.support
Logbook
p3
c__builtin__
list
p4
(lp5
(dp6
S'hv|spread|igd|frontier#|valid#'
p7
(F0.157
F0.754
F0.076
I13
I54
tp8
sS'timestamp'
p9
F0.018362045288085938
sS'evals'
p10
I100
sS'gen'
p11
I0
sa(dp12
g7
(F0.157
F0.81
F0.076
I13
I100
tp13
sg9
F2.33156418800354
sg10
I100
sg11
I100
sa(dp14
g7
(F0.157
F0.815
F0.076
I13
I100
tp15
sg9
F4.612812042236328
sg10
I100
sg11
I200
sa(dp16
g7
(F0.157
F0.668
F0.076
I13
I100
tp17
sg9
F6.908799171447754
sg10
I100
sg11
I300
sa(dp18
g7
(F0.157
F0.827
F0.076
I13
I100
tp19
sg9
F9.291511058807373
sg10
I100
sg11
I400
sa(dp20
g7
(F0.157
F0.726
F0.076
I13
I100
tp21
sg9
F11.66202998161316
sg10
I100
sg11
I500
satp22
Rp23
(dp24
S'log_header'
p25
I01
sS'header'
p26
(S'gen'
p27
S'evals'
p28
S'hv|spread|igd|frontier#|valid#'
p29
S'timestamp'
p30
tp31
sS'columns_len'
p32
(lp33
I3
aI5
aI30
aI9
asS'buffindex'
p34
I6
sS'chapters'
p35
ccollections
defaultdict
p36
(g3
tp37
Rp38
sbsS'SPEA2-SIP'
p39
g2
(g3
g4
(lp40
(dp41
g7
(F0.155
F0.855
F0.086
I10
I48
tp42
sg9
F0.016611099243164062
sg10
I100
sg11
I0
sa(dp43
g7
(F0.157
F0.867
F0.076
I13
I100
tp44
sg9
F159.87635397911072
sg10
I100
sg11
I100
sa(dp45
g7
(F0.157
F0.86
F0.076
I13
I100
tp46
sg9
F320.1504740715027
sg10
I100
sg11
I200
sa(dp47
g7
(F0.157
F0.827
F0.076
I13
I100
tp48
sg9
F479.65264797210693
sg10
I100
sg11
I300
sa(dp49
g7
(F0.157
F0.734
F0.076
I13
I100
tp50
sg9
F637.5958030223846
sg10
I100
sg11
I400
sa(dp51
g7
(F0.157
F0.837
F0.076
I13
I100
tp52
sg9
F795.341588973999
sg10
I100
sg11
I500
satp53
Rp54
(dp55
g25
I01
sg26
g31
sg32
(lp56
I3
aI5
aI30
aI9
asg34
I6
sg35
g36
(g3
tp57
Rp58
sbsS'SPEA2'
p59
g2
(g3
g4
(lp60
(dp61
g7
(F0.069
F0.876
F0.07
I2
I2
tp62
sg9
F0.016793012619018555
sg10
I100
sg11
I0
sa(dp63
g7
(I0
I0
I0
I0
I0
tp64
sg9
F125.4616711139679
sg10
I100
sg11
I100
sa(dp65
g7
g64
sg9
F250.64661812782288
sg10
I100
sg11
I200
sa(dp66
g7
g64
sg9
F376.32821822166443
sg10
I100
sg11
I300
sa(dp67
g7
g64
sg9
F500.6084420681
sg10
I100
sg11
I400
sa(dp68
g7
g64
sg9
F624.7534110546112
sg10
I100
sg11
I500
satp69
Rp70
(dp71
g25
I01
sg26
g31
sg32
(lp72
I3
aI5
aI30
aI9
asg34
I6
sg35
g36
(g3
tp73
Rp74
sbsS'IBEA-PEN'
p75
g2
(g3
g4
(lp76
(dp77
g7
(F0.111
F0.899
F0.006
I5
I66
tp78
sg9
F0.02817702293395996
sg10
I100
sg11
I0
sa(dp79
g7
(F0.114
F0.941
F0.114
I3
I4
tp80
sg9
F6.774529933929443
sg10
I100
sg11
I100
sa(dp81
g7
(F0.111
F0.934
F0.13
I2
I3
tp82
sg9
F13.556609153747559
sg10
I100
sg11
I200
sa(dp83
g7
(F0.1
F0.94
F0.09
I2
I3
tp84
sg9
F20.34218692779541
sg10
I100
sg11
I300
sa(dp85
g7
(F0.037
F2.599
F0.099
I1
I2
tp86
sg9
F27.099167108535767
sg10
I100
sg11
I400
sa(dp87
g7
g64
sg9
F33.744734048843384
sg10
I100
sg11
I500
satp88
Rp89
(dp90
g25
I01
sg26
g31
sg32
(lp91
I3
aI5
aI30
aI9
asg34
I6
sg35
g36
(g3
tp92
Rp93
sbsS'IBEA'
p94
g2
(g3
g4
(lp95
(dp96
g7
(F0.108
F0.809
F0.11
I7
I9
tp97
sg9
F0.018356800079345703
sg10
I100
sg11
I0
sa(dp98
g7
g64
sg9
F6.523484945297241
sg10
I100
sg11
I100
sa(dp99
g7
(F0.098
F0.968
F0.094
I2
I2
tp100
sg9
F13.084709882736206
sg10
I100
sg11
I200
sa(dp101
g7
(F0.037
F2.599
F0.099
I1
I5
tp102
sg9
F19.661383867263794
sg10
I100
sg11
I300
sa(dp103
g7
(F0.113
F0.934
F0.13
I2
I3
tp104
sg9
F26.234251022338867
sg10
I100
sg11
I400
sa(dp105
g7
(F0.055
F2.5
F0.106
I1
I1
tp106
sg9
F32.81231880187988
sg10
I100
sg11
I500
satp107
Rp108
(dp109
g25
I01
sg26
g31
sg32
(lp110
I3
aI5
aI30
aI9
asg34
I6
sg35
g36
(g3
tp111
Rp112
sbsS'NSGA2'
p113
g2
(g3
g4
(lp114
(dp115
g7
(F0.097
F0.933
F0.09
I2
I3
tp116
sg9
F0.016595125198364258
sg10
I100
sg11
I0
sa(dp117
g7
g64
sg9
F5.8108971118927
sg10
I100
sg11
I100
sa(dp118
g7
g64
sg9
F11.793713092803955
sg10
I100
sg11
I200
sa(dp119
g7
g64
sg9
F17.745575189590454
sg10
I100
sg11
I300
sa(dp120
g7
g64
sg9
F23.706130027770996
sg10
I100
sg11
I400
sa(dp121
g7
g64
sg9
F29.637073040008545
sg10
I100
sg11
I500
satp122
Rp123
(dp124
g25
I01
sg26
g31
sg32
(lp125
I3
aI5
aI30
aI9
asg34
I6
sg35
g36
(g3
tp126
Rp127
sbsS'IBEA-SIP'
p128
g2
(g3
g4
(lp129
(dp130
g7
(F0.148
F0.544
F0.101
I11
I56
tp131
sg9
F0.017125844955444336
sg10
I100
sg11
I0
sa(dp132
g7
(F0.137
F0.878
F0.101
I9
I100
tp133
sg9
F6.03017783164978
sg10
I100
sg11
I100
sa(dp134
g7
(F0.155
F0.774
F0.098
I9
I100
tp135
sg9
F12.181561946868896
sg10
I100
sg11
I200
sa(dp136
g7
(F0.149
F0.946
F0.067
I10
I100
tp137
sg9
F18.360240936279297
sg10
I100
sg11
I300
sa(dp138
g7
(F0.149
F0.939
F0.06
I10
I100
tp139
sg9
F24.44545292854309
sg10
I100
sg11
I400
sa(dp140
g7
(F0.152
F0.793
F0.084
I9
I100
tp141
sg9
F30.55585479736328
sg10
I100
sg11
I500
satp142
Rp143
(dp144
g25
I01
sg26
g31
sg32
(lp145
I3
aI5
aI30
aI9
asg34
I6
sg35
g36
(g3
tp146
Rp147
sbs.