(dp0
S'NSGA2-SIP'
p1
ccopy_reg
_reconstructor
p2
(cdeap.tools.support
Logbook
p3
c__builtin__
list
p4
(lp5
(dp6
S'hv|spread|igd|frontier#|valid#'
p7
(F0.157
F0.732
F0.082
I12
I64
tp8
sS'timestamp'
p9
F0.020891189575195312
sS'evals'
p10
I100
sS'gen'
p11
I0
sa(dp12
g7
(F0.157
F0.726
F0.076
I13
I100
tp13
sg9
F2.648308038711548
sg10
I100
sg11
I100
sa(dp14
g7
(F0.157
F0.809
F0.076
I13
I100
tp15
sg9
F5.347241163253784
sg10
I100
sg11
I200
sa(dp16
g7
(F0.157
F0.63
F0.076
I13
I100
tp17
sg9
F8.051546096801758
sg10
I100
sg11
I300
sa(dp18
g7
(F0.157
F0.668
F0.076
I13
I100
tp19
sg9
F10.745009183883667
sg10
I100
sg11
I400
sa(dp20
g7
(F0.157
F0.895
F0.076
I13
I100
tp21
sg9
F13.44291615486145
sg10
I100
sg11
I500
satp22
Rp23
(dp24
S'log_header'
p25
I01
sS'header'
p26
(S'gen'
p27
S'evals'
p28
S'hv|spread|igd|frontier#|valid#'
p29
S'timestamp'
p30
tp31
sS'columns_len'
p32
(lp33
I3
aI5
aI30
aI9
asS'buffindex'
p34
I6
sS'chapters'
p35
ccollections
defaultdict
p36
(g3
tp37
Rp38
sbsS'SPEA2-SIP'
p39
g2
(g3
g4
(lp40
(dp41
g7
(F0.157
F0.693
F0.074
I12
I58
tp42
sg9
F0.02056407928466797
sg10
I100
sg11
I0
sa(dp43
g7
(F0.157
F0.867
F0.076
I13
I100
tp44
sg9
F164.4553520679474
sg10
I100
sg11
I100
sa(dp45
g7
(F0.157
F0.815
F0.076
I13
I100
tp46
sg9
F334.8393859863281
sg10
I100
sg11
I200
sa(dp47
g7
(F0.157
F0.895
F0.076
I13
I100
tp48
sg9
F503.1958899497986
sg10
I100
sg11
I300
sa(dp49
g7
(F0.157
F0.809
F0.076
I13
I100
tp50
sg9
F670.2242269515991
sg10
I100
sg11
I400
sa(dp51
g7
(F0.157
F0.808
F0.076
I13
I100
tp52
sg9
F837.6274840831757
sg10
I100
sg11
I500
satp53
Rp54
(dp55
g25
I01
sg26
g31
sg32
(lp56
I3
aI5
aI30
aI9
asg34
I6
sg35
g36
(g3
tp57
Rp58
sbsS'SPEA2'
p59
g2
(g3
g4
(lp60
(dp61
g7
(F0.084
F0.941
F0.104
I3
I3
tp62
sg9
F0.019421100616455078
sg10
I100
sg11
I0
sa(dp63
g7
(I0
I0
I0
I0
I0
tp64
sg9
F128.56652808189392
sg10
I100
sg11
I100
sa(dp65
g7
g64
sg9
F263.1572759151459
sg10
I100
sg11
I200
sa(dp66
g7
g64
sg9
F394.9730598926544
sg10
I100
sg11
I300
sa(dp67
g7
g64
sg9
F527.088907957077
sg10
I100
sg11
I400
sa(dp68
g7
g64
sg9
F657.9249839782715
sg10
I100
sg11
I500
satp69
Rp70
(dp71
g25
I01
sg26
g31
sg32
(lp72
I3
aI5
aI30
aI9
asg34
I6
sg35
g36
(g3
tp73
Rp74
sbsS'IBEA-PEN'
p75
g2
(g3
g4
(lp76
(dp77
g7
(F0.114
F0.899
F0.0
I5
I68
tp78
sg9
F0.03250002861022949
sg10
I100
sg11
I0
sa(dp79
g7
(F0.1
F0.94
F0.09
I2
I3
tp80
sg9
F6.932037115097046
sg10
I100
sg11
I100
sa(dp81
g7
g64
sg9
F13.851004123687744
sg10
I100
sg11
I200
sa(dp82
g7
(F0.1
F0.94
F0.09
I2
I6
tp83
sg9
F20.735971212387085
sg10
I100
sg11
I300
sa(dp84
g7
(F0.067
F2.407
F0.0
I1
I1
tp85
sg9
F27.6427161693573
sg10
I100
sg11
I400
sa(dp86
g7
(F0.088
F2.407
F0.081
I1
I1
tp87
sg9
F34.54574418067932
sg10
I100
sg11
I500
satp88
Rp89
(dp90
g25
I01
sg26
g31
sg32
(lp91
I3
aI5
aI30
aI9
asg34
I6
sg35
g36
(g3
tp92
Rp93
sbsS'IBEA'
p94
g2
(g3
g4
(lp95
(dp96
g7
(F0.086
F0.932
F0.09
I2
I4
tp97
sg9
F0.019865036010742188
sg10
I100
sg11
I0
sa(dp98
g7
(F0.098
F0.968
F0.094
I2
I6
tp99
sg9
F6.820030212402344
sg10
I100
sg11
I100
sa(dp100
g7
g64
sg9
F13.631976127624512
sg10
I100
sg11
I200
sa(dp101
g7
(F0.088
F2.407
F0.081
I1
I1
tp102
sg9
F20.411816120147705
sg10
I100
sg11
I300
sa(dp103
g7
(F0.088
F2.407
F0.081
I1
I3
tp104
sg9
F27.253594160079956
sg10
I100
sg11
I400
sa(dp105
g7
(F0.088
F2.407
F0.081
I1
I3
tp106
sg9
F34.04930305480957
sg10
I100
sg11
I500
satp107
Rp108
(dp109
g25
I01
sg26
g31
sg32
(lp110
I3
aI5
aI30
aI9
asg34
I6
sg35
g36
(g3
tp111
Rp112
sbsS'NSGA2'
p113
g2
(g3
g4
(lp114
(dp115
g7
(F0.077
F0.923
F0.127
I4
I7
tp116
sg9
F0.020205020904541016
sg10
I100
sg11
I0
sa(dp117
g7
(F0.088
F2.407
F0.081
I1
I1
tp118
sg9
F6.858183145523071
sg10
I100
sg11
I100
sa(dp119
g7
g64
sg9
F13.812078952789307
sg10
I100
sg11
I200
sa(dp120
g7
g64
sg9
F20.70232892036438
sg10
I100
sg11
I300
sa(dp121
g7
g64
sg9
F27.71058201789856
sg10
I100
sg11
I400
sa(dp122
g7
(F0.088
F2.407
F0.081
I1
I1
tp123
sg9
F34.707786083221436
sg10
I100
sg11
I500
satp124
Rp125
(dp126
g25
I01
sg26
g31
sg32
(lp127
I3
aI5
aI30
aI9
asg34
I6
sg35
g36
(g3
tp128
Rp129
sbsS'IBEA-SIP'
p130
g2
(g3
g4
(lp131
(dp132
g7
(F0.156
F0.692
F0.078
I12
I56
tp133
sg9
F0.020173072814941406
sg10
I100
sg11
I0
sa(dp134
g7
(F0.143
F0.736
F0.082
I11
I100
tp135
sg9
F6.165421962738037
sg10
I100
sg11
I100
sa(dp136
g7
(F0.148
F0.924
F0.062
I9
I100
tp137
sg9
F12.479094982147217
sg10
I100
sg11
I200
sa(dp138
g7
(F0.149
F0.889
F0.072
I9
I100
tp139
sg9
F18.759087085723877
sg10
I100
sg11
I300
sa(dp140
g7
(F0.139
F0.707
F0.089
I9
I100
tp141
sg9
F24.98588514328003
sg10
I100
sg11
I400
sa(dp142
g7
(F0.148
F0.784
F0.082
I11
I100
tp143
sg9
F31.286175966262817
sg10
I100
sg11
I500
satp144
Rp145
(dp146
g25
I01
sg26
g31
sg32
(lp147
I3
aI5
aI30
aI9
asg34
I6
sg35
g36
(g3
tp148
Rp149
sbs.