(dp0
S'NSGA2-SIP'
p1
ccopy_reg
_reconstructor
p2
(cdeap.tools.support
Logbook
p3
c__builtin__
list
p4
(lp5
(dp6
S'hv|spread|igd|frontier#|valid#'
p7
(F0.157
F0.629
F0.08
I11
I52
tp8
sS'timestamp'
p9
F0.015259981155395508
sS'evals'
p10
I100
sS'gen'
p11
I0
sa(dp12
g7
(F0.157
F0.827
F0.076
I13
I100
tp13
sg9
F2.0943849086761475
sg10
I100
sg11
I100
sa(dp14
g7
(F0.157
F0.933
F0.076
I13
I100
tp15
sg9
F4.226967811584473
sg10
I100
sg11
I200
sa(dp16
g7
(F0.157
F0.895
F0.076
I13
I100
tp17
sg9
F6.357594013214111
sg10
I100
sg11
I300
sa(dp18
g7
(F0.157
F0.99
F0.076
I13
I100
tp19
sg9
F8.492977857589722
sg10
I100
sg11
I400
sa(dp20
g7
(F0.157
F0.726
F0.076
I13
I100
tp21
sg9
F10.622113943099976
sg10
I100
sg11
I500
satp22
Rp23
(dp24
S'log_header'
p25
I01
sS'header'
p26
(S'gen'
p27
S'evals'
p28
S'hv|spread|igd|frontier#|valid#'
p29
S'timestamp'
p30
tp31
sS'columns_len'
p32
(lp33
I3
aI5
aI30
aI9
asS'buffindex'
p34
I6
sS'chapters'
p35
ccollections
defaultdict
p36
(g3
tp37
Rp38
sbsS'SPEA2-SIP'
p39
g2
(g3
g4
(lp40
(dp41
g7
(F0.155
F0.801
F0.078
I11
I52
tp42
sg9
F0.015460014343261719
sg10
I100
sg11
I0
sa(dp43
g7
(F0.157
F0.808
F0.076
I13
I100
tp44
sg9
F143.20575499534607
sg10
I100
sg11
I100
sa(dp45
g7
(F0.157
F0.867
F0.076
I13
I100
tp46
sg9
F286.82928705215454
sg10
I100
sg11
I200
sa(dp47
g7
(F0.157
F0.668
F0.076
I13
I100
tp48
sg9
F431.9442820549011
sg10
I100
sg11
I300
sa(dp49
g7
(F0.157
F0.86
F0.076
I13
I100
tp50
sg9
F576.10320520401
sg10
I100
sg11
I400
sa(dp51
g7
(F0.157
F0.81
F0.076
I13
I100
tp52
sg9
F719.6323192119598
sg10
I100
sg11
I500
satp53
Rp54
(dp55
g25
I01
sg26
g31
sg32
(lp56
I3
aI5
aI30
aI9
asg34
I6
sg35
g36
(g3
tp57
Rp58
sbsS'SPEA2'
p59
g2
(g3
g4
(lp60
(dp61
g7
(F0.077
F0.874
F0.107
I3
I7
tp62
sg9
F0.015434026718139648
sg10
I100
sg11
I0
sa(dp63
g7
(I0
I0
I0
I0
I0
tp64
sg9
F110.52542805671692
sg10
I100
sg11
I100
sa(dp65
g7
g64
sg9
F224.56929898262024
sg10
I100
sg11
I200
sa(dp66
g7
(F0.087
F2.236
F0.121
I1
I1
tp67
sg9
F336.8122560977936
sg10
I100
sg11
I300
sa(dp68
g7
g64
sg9
F449.20134592056274
sg10
I100
sg11
I400
sa(dp69
g7
g64
sg9
F562.8752319812775
sg10
I100
sg11
I500
satp70
Rp71
(dp72
g25
I01
sg26
g31
sg32
(lp73
I3
aI5
aI30
aI9
asg34
I6
sg35
g36
(g3
tp74
Rp75
sbsS'IBEA'
p76
g2
(g3
g4
(lp77
(dp78
g7
(F0.084
F0.934
F0.079
I4
I4
tp79
sg9
F0.01574397087097168
sg10
I100
sg11
I0
sa(dp80
g7
(F0.088
F2.407
F0.081
I1
I1
tp81
sg9
F6.0422351360321045
sg10
I100
sg11
I100
sa(dp82
g7
(F0.058
F2.407
F0.103
I1
I1
tp83
sg9
F12.215383052825928
sg10
I100
sg11
I200
sa(dp84
g7
(F0.037
F2.599
F0.099
I1
I2
tp85
sg9
F18.38243007659912
sg10
I100
sg11
I300
sa(dp86
g7
(F0.1
F0.94
F0.09
I2
I4
tp87
sg9
F24.55985713005066
sg10
I100
sg11
I400
sa(dp88
g7
(F0.088
F2.407
F0.081
I1
I2
tp89
sg9
F30.726407051086426
sg10
I100
sg11
I500
satp90
Rp91
(dp92
g25
I01
sg26
g31
sg32
(lp93
I3
aI5
aI30
aI9
asg34
I6
sg35
g36
(g3
tp94
Rp95
sbsS'NSGA2'
p96
g2
(g3
g4
(lp97
(dp98
g7
(F0.097
F0.927
F0.121
I3
I5
tp99
sg9
F0.015556097030639648
sg10
I100
sg11
I0
sa(dp100
g7
g64
sg9
F5.526287078857422
sg10
I100
sg11
I100
sa(dp101
g7
g64
sg9
F11.040871143341064
sg10
I100
sg11
I200
sa(dp102
g7
(F0.092
F2.312
F0.154
I1
I1
tp103
sg9
F16.45530915260315
sg10
I100
sg11
I300
sa(dp104
g7
g64
sg9
F21.908724069595337
sg10
I100
sg11
I400
sa(dp105
g7
(F0.088
F2.407
F0.081
I1
I1
tp106
sg9
F27.414072036743164
sg10
I100
sg11
I500
satp107
Rp108
(dp109
g25
I01
sg26
g31
sg32
(lp110
I3
aI5
aI30
aI9
asg34
I6
sg35
g36
(g3
tp111
Rp112
sbsS'IBEA-SIP'
p113
g2
(g3
g4
(lp114
(dp115
g7
(F0.142
F0.842
F0.067
I11
I61
tp116
sg9
F0.016262054443359375
sg10
I100
sg11
I0
sa(dp117
g7
(F0.153
F0.83
F0.085
I10
I100
tp118
sg9
F5.585773944854736
sg10
I100
sg11
I100
sa(dp119
g7
(F0.143
F0.839
F0.091
I10
I100
tp120
sg9
F11.182068109512329
sg10
I100
sg11
I200
sa(dp121
g7
(F0.157
F0.788
F0.082
I12
I100
tp122
sg9
F16.76463294029236
sg10
I100
sg11
I300
sa(dp123
g7
(F0.138
F0.687
F0.081
I10
I100
tp124
sg9
F22.41328001022339
sg10
I100
sg11
I400
sa(dp125
g7
(F0.156
F0.699
F0.092
I10
I100
tp126
sg9
F28.006557941436768
sg10
I100
sg11
I500
satp127
Rp128
(dp129
g25
I01
sg26
g31
sg32
(lp130
I3
aI5
aI30
aI9
asg34
I6
sg35
g36
(g3
tp131
Rp132
sbs.