(dp0
S'NSGA2-SIP'
p1
ccopy_reg
_reconstructor
p2
(cdeap.tools.support
Logbook
p3
c__builtin__
list
p4
(lp5
(dp6
S'hv|spread|igd|frontier#|valid#'
p7
(F0.15
F0.697
F0.087
I13
I57
tp8
sS'timestamp'
p9
F0.022041797637939453
sS'evals'
p10
I100
sS'gen'
p11
I0
sa(dp12
g7
(F0.157
F0.867
F0.076
I13
I100
tp13
sg9
F2.653409957885742
sg10
I100
sg11
I100
sa(dp14
g7
(F0.157
F0.99
F0.076
I13
I100
tp15
sg9
F5.413651943206787
sg10
I100
sg11
I200
sa(dp16
g7
(F0.157
F0.933
F0.076
I13
I100
tp17
sg9
F8.160091876983643
sg10
I100
sg11
I300
sa(dp18
g7
(F0.157
F0.933
F0.076
I13
I100
tp19
sg9
F10.915412902832031
sg10
I100
sg11
I400
sa(dp20
g7
(F0.157
F0.99
F0.076
I13
I100
tp21
sg9
F13.660549879074097
sg10
I100
sg11
I500
satp22
Rp23
(dp24
S'log_header'
p25
I01
sS'header'
p26
(S'gen'
p27
S'evals'
p28
S'hv|spread|igd|frontier#|valid#'
p29
S'timestamp'
p30
tp31
sS'columns_len'
p32
(lp33
I3
aI5
aI30
aI9
asS'buffindex'
p34
I6
sS'chapters'
p35
ccollections
defaultdict
p36
(g3
tp37
Rp38
sbsS'SPEA2-SIP'
p39
g2
(g3
g4
(lp40
(dp41
g7
(F0.13
F0.679
F0.067
I12
I59
tp42
sg9
F0.020707130432128906
sg10
I100
sg11
I0
sa(dp43
g7
(F0.157
F0.726
F0.076
I13
I100
tp44
sg9
F170.80281901359558
sg10
I100
sg11
I100
sa(dp45
g7
(F0.157
F0.933
F0.076
I13
I100
tp46
sg9
F343.2921621799469
sg10
I100
sg11
I200
sa(dp47
g7
(F0.157
F0.998
F0.076
I13
I100
tp48
sg9
F516.5500271320343
sg10
I100
sg11
I300
sa(dp49
g7
(F0.157
F0.63
F0.076
I13
I100
tp50
sg9
F689.7464129924774
sg10
I100
sg11
I400
sa(dp51
g7
(F0.157
F0.86
F0.076
I13
I100
tp52
sg9
F864.4980790615082
sg10
I100
sg11
I500
satp53
Rp54
(dp55
g25
I01
sg26
g31
sg32
(lp56
I3
aI5
aI30
aI9
asg34
I6
sg35
g36
(g3
tp57
Rp58
sbsS'SPEA2'
p59
g2
(g3
g4
(lp60
(dp61
g7
(F0.06
F2.236
F0.112
I1
I1
tp62
sg9
F0.019509077072143555
sg10
I100
sg11
I0
sa(dp63
g7
(I0
I0
I0
I0
I0
tp64
sg9
F130.44582104682922
sg10
I100
sg11
I100
sa(dp65
g7
g64
sg9
F263.1166341304779
sg10
I100
sg11
I200
sa(dp66
g7
g64
sg9
F396.95572996139526
sg10
I100
sg11
I300
sa(dp67
g7
g64
sg9
F532.2213411331177
sg10
I100
sg11
I400
sa(dp68
g7
g64
sg9
F667.652694940567
sg10
I100
sg11
I500
satp69
Rp70
(dp71
g25
I01
sg26
g31
sg32
(lp72
I3
aI5
aI30
aI9
asg34
I6
sg35
g36
(g3
tp73
Rp74
sbsS'IBEA'
p75
g2
(g3
g4
(lp76
(dp77
g7
(F0.119
F0.836
F0.112
I6
I8
tp78
sg9
F0.021265029907226562
sg10
I100
sg11
I0
sa(dp79
g7
(F0.11
F0.908
F0.127
I2
I3
tp80
sg9
F6.9312660694122314
sg10
I100
sg11
I100
sa(dp81
g7
(F0.061
F0.97
F0.103
I2
I3
tp82
sg9
F13.820806980133057
sg10
I100
sg11
I200
sa(dp83
g7
(F0.125
F0.884
F0.112
I3
I5
tp84
sg9
F20.717751026153564
sg10
I100
sg11
I300
sa(dp85
g7
(F0.059
F0.97
F0.103
I2
I3
tp86
sg9
F27.639147996902466
sg10
I100
sg11
I400
sa(dp87
g7
(F0.098
F0.968
F0.094
I2
I4
tp88
sg9
F34.501124143600464
sg10
I100
sg11
I500
satp89
Rp90
(dp91
g25
I01
sg26
g31
sg32
(lp92
I3
aI5
aI30
aI9
asg34
I6
sg35
g36
(g3
tp93
Rp94
sbsS'NSGA2'
p95
g2
(g3
g4
(lp96
(dp97
g7
(F0.062
F0.88
F0.112
I3
I4
tp98
sg9
F0.019919872283935547
sg10
I100
sg11
I0
sa(dp99
g7
(F0.088
F2.407
F0.081
I1
I1
tp100
sg9
F7.026892900466919
sg10
I100
sg11
I100
sa(dp101
g7
g64
sg9
F13.964072942733765
sg10
I100
sg11
I200
sa(dp102
g7
g64
sg9
F20.991758823394775
sg10
I100
sg11
I300
sa(dp103
g7
g64
sg9
F28.027536869049072
sg10
I100
sg11
I400
sa(dp104
g7
g64
sg9
F35.020174980163574
sg10
I100
sg11
I500
satp105
Rp106
(dp107
g25
I01
sg26
g31
sg32
(lp108
I3
aI5
aI30
aI9
asg34
I6
sg35
g36
(g3
tp109
Rp110
sbsS'IBEA-SIP'
p111
g2
(g3
g4
(lp112
(dp113
g7
(F0.156
F0.725
F0.073
I12
I55
tp114
sg9
F0.020768165588378906
sg10
I100
sg11
I0
sa(dp115
g7
(F0.156
F0.651
F0.089
I10
I100
tp116
sg9
F6.249720096588135
sg10
I100
sg11
I100
sa(dp117
g7
(F0.156
F0.793
F0.098
I9
I100
tp118
sg9
F12.564731121063232
sg10
I100
sg11
I200
sa(dp119
g7
(F0.148
F0.709
F0.073
I11
I100
tp120
sg9
F18.90871810913086
sg10
I100
sg11
I300
sa(dp121
g7
(F0.157
F0.925
F0.09
I11
I100
tp122
sg9
F25.264219045639038
sg10
I100
sg11
I400
sa(dp123
g7
(F0.139
F0.781
F0.091
I10
I100
tp124
sg9
F31.690902948379517
sg10
I100
sg11
I500
satp125
Rp126
(dp127
g25
I01
sg26
g31
sg32
(lp128
I3
aI5
aI30
aI9
asg34
I6
sg35
g36
(g3
tp129
Rp130
sbs.