(dp0
S'NSGA2-SIP'
p1
ccopy_reg
_reconstructor
p2
(cdeap.tools.support
Logbook
p3
c__builtin__
list
p4
(lp5
(dp6
S'hv|spread|igd|frontier#|valid#'
p7
(F0.147
F0.868
F0.054
I10
I54
tp8
sS'timestamp'
p9
F0.01715087890625
sS'evals'
p10
I100
sS'gen'
p11
I0
sa(dp12
g7
(F0.157
F0.815
F0.076
I13
I100
tp13
sg9
F2.487172842025757
sg10
I100
sg11
I100
sa(dp14
g7
(F0.157
F0.726
F0.076
I13
I100
tp15
sg9
F4.93466591835022
sg10
I100
sg11
I200
sa(dp16
g7
(F0.157
F0.827
F0.076
I13
I100
tp17
sg9
F7.503453016281128
sg10
I100
sg11
I300
sa(dp18
g7
(F0.157
F0.805
F0.076
I13
I100
tp19
sg9
F10.04735803604126
sg10
I100
sg11
I400
sa(dp20
g7
(F0.157
F0.827
F0.076
I13
I100
tp21
sg9
F12.617671012878418
sg10
I100
sg11
I500
satp22
Rp23
(dp24
S'log_header'
p25
I01
sS'header'
p26
(S'gen'
p27
S'evals'
p28
S'hv|spread|igd|frontier#|valid#'
p29
S'timestamp'
p30
tp31
sS'columns_len'
p32
(lp33
I3
aI5
aI30
aI9
asS'buffindex'
p34
I6
sS'chapters'
p35
ccollections
defaultdict
p36
(g3
tp37
Rp38
sbsS'SPEA2-SIP'
p39
g2
(g3
g4
(lp40
(dp41
g7
(F0.157
F0.754
F0.076
I13
I53
tp42
sg9
F0.019401073455810547
sg10
I100
sg11
I0
sa(dp43
g7
(F0.157
F0.81
F0.076
I13
I100
tp44
sg9
F170.11586499214172
sg10
I100
sg11
I100
sa(dp45
g7
(F0.157
F0.63
F0.076
I13
I100
tp46
sg9
F340.9787349700928
sg10
I100
sg11
I200
sa(dp47
g7
(F0.157
F0.827
F0.076
I13
I100
tp48
sg9
F514.5130529403687
sg10
I100
sg11
I300
sa(dp49
g7
(F0.157
F0.904
F0.076
I13
I100
tp50
sg9
F684.588917016983
sg10
I100
sg11
I400
sa(dp51
g7
(F0.157
F0.805
F0.076
I13
I100
tp52
sg9
F858.2720201015472
sg10
I100
sg11
I500
satp53
Rp54
(dp55
g25
I01
sg26
g31
sg32
(lp56
I3
aI5
aI30
aI9
asg34
I6
sg35
g36
(g3
tp57
Rp58
sbsS'SPEA2'
p59
g2
(g3
g4
(lp60
(dp61
g7
(F0.119
F0.929
F0.083
I3
I5
tp62
sg9
F0.018652915954589844
sg10
I100
sg11
I0
sa(dp63
g7
(I0
I0
I0
I0
I0
tp64
sg9
F132.64008498191833
sg10
I100
sg11
I100
sa(dp65
g7
(F0.087
F2.236
F0.121
I1
I1
tp66
sg9
F269.8497049808502
sg10
I100
sg11
I200
sa(dp67
g7
g64
sg9
F404.09112310409546
sg10
I100
sg11
I300
sa(dp68
g7
g64
sg9
F540.0819120407104
sg10
I100
sg11
I400
sa(dp69
g7
g64
sg9
F676.6478419303894
sg10
I100
sg11
I500
satp70
Rp71
(dp72
g25
I01
sg26
g31
sg32
(lp73
I3
aI5
aI30
aI9
asg34
I6
sg35
g36
(g3
tp74
Rp75
sbsS'IBEA'
p76
g2
(g3
g4
(lp77
(dp78
g7
(F0.111
F0.879
F0.159
I3
I6
tp79
sg9
F0.018436908721923828
sg10
I100
sg11
I0
sa(dp80
g7
(F0.051
F2.5
F0.106
I1
I1
tp81
sg9
F7.134720087051392
sg10
I100
sg11
I100
sa(dp82
g7
(F0.088
F2.407
F0.081
I1
I1
tp83
sg9
F14.318429946899414
sg10
I100
sg11
I200
sa(dp84
g7
(F0.104
F0.94
F0.096
I3
I4
tp85
sg9
F21.498210906982422
sg10
I100
sg11
I300
sa(dp86
g7
g64
sg9
F28.673362016677856
sg10
I100
sg11
I400
sa(dp87
g7
g64
sg9
F35.83621001243591
sg10
I100
sg11
I500
satp88
Rp89
(dp90
g25
I01
sg26
g31
sg32
(lp91
I3
aI5
aI30
aI9
asg34
I6
sg35
g36
(g3
tp92
Rp93
sbsS'NSGA2'
p94
g2
(g3
g4
(lp95
(dp96
g7
(F0.112
F0.943
F0.102
I5
I6
tp97
sg9
F0.018949031829833984
sg10
I100
sg11
I0
sa(dp98
g7
g64
sg9
F6.500226020812988
sg10
I100
sg11
I100
sa(dp99
g7
g64
sg9
F13.149797916412354
sg10
I100
sg11
I200
sa(dp100
g7
g64
sg9
F19.692265033721924
sg10
I100
sg11
I300
sa(dp101
g7
g64
sg9
F26.22657585144043
sg10
I100
sg11
I400
sa(dp102
g7
g64
sg9
F32.79217791557312
sg10
I100
sg11
I500
satp103
Rp104
(dp105
g25
I01
sg26
g31
sg32
(lp106
I3
aI5
aI30
aI9
asg34
I6
sg35
g36
(g3
tp107
Rp108
sbsS'IBEA-SIP'
p109
g2
(g3
g4
(lp110
(dp111
g7
(F0.156
F0.754
F0.072
I13
I61
tp112
sg9
F0.019524097442626953
sg10
I100
sg11
I0
sa(dp113
g7
(F0.137
F0.811
F0.088
I8
I100
tp114
sg9
F6.439052104949951
sg10
I100
sg11
I100
sa(dp115
g7
(F0.15
F0.874
F0.056
I12
I100
tp116
sg9
F12.993070125579834
sg10
I100
sg11
I200
sa(dp117
g7
(F0.155
F0.596
F0.08
I11
I100
tp118
sg9
F19.525411128997803
sg10
I100
sg11
I300
sa(dp119
g7
(F0.13
F0.607
F0.082
I10
I100
tp120
sg9
F26.083563089370728
sg10
I100
sg11
I400
sa(dp121
g7
(F0.144
F1.019
F0.052
I9
I100
tp122
sg9
F32.68857192993164
sg10
I100
sg11
I500
satp123
Rp124
(dp125
g25
I01
sg26
g31
sg32
(lp126
I3
aI5
aI30
aI9
asg34
I6
sg35
g36
(g3
tp127
Rp128
sbs.