(dp0
S'NSGA2-SIP'
p1
ccopy_reg
_reconstructor
p2
(cdeap.tools.support
Logbook
p3
c__builtin__
list
p4
(lp5
(dp6
S'hv|spread|igd|frontier#|valid#'
p7
(F0.151
F0.796
F0.07
I12
I58
tp8
sS'timestamp'
p9
F0.01900196075439453
sS'evals'
p10
I100
sS'gen'
p11
I0
sa(dp12
g7
(F0.157
F0.947
F0.076
I13
I100
tp13
sg9
F2.4893689155578613
sg10
I100
sg11
I100
sa(dp14
g7
(F0.157
F0.805
F0.076
I13
I100
tp15
sg9
F4.929646968841553
sg10
I100
sg11
I200
sa(dp16
g7
(F0.157
F0.904
F0.076
I13
I100
tp17
sg9
F7.404879808425903
sg10
I100
sg11
I300
sa(dp18
g7
(F0.157
F0.904
F0.076
I13
I100
tp19
sg9
F9.881816864013672
sg10
I100
sg11
I400
sa(dp20
g7
(F0.157
F0.86
F0.076
I13
I100
tp21
sg9
F12.338565826416016
sg10
I100
sg11
I500
satp22
Rp23
(dp24
S'log_header'
p25
I01
sS'header'
p26
(S'gen'
p27
S'evals'
p28
S'hv|spread|igd|frontier#|valid#'
p29
S'timestamp'
p30
tp31
sS'columns_len'
p32
(lp33
I3
aI5
aI30
aI9
asS'buffindex'
p34
I6
sS'chapters'
p35
ccollections
defaultdict
p36
(g3
tp37
Rp38
sbsS'SPEA2-SIP'
p39
g2
(g3
g4
(lp40
(dp41
g7
(F0.153
F0.834
F0.088
I11
I56
tp42
sg9
F0.018377065658569336
sg10
I100
sg11
I0
sa(dp43
g7
(F0.157
F0.808
F0.076
I13
I100
tp44
sg9
F167.320298910141
sg10
I100
sg11
I100
sa(dp45
g7
(F0.157
F0.827
F0.076
I13
I100
tp46
sg9
F336.48612785339355
sg10
I100
sg11
I200
sa(dp47
g7
(F0.157
F0.809
F0.076
I13
I100
tp48
sg9
F505.4747669696808
sg10
I100
sg11
I300
sa(dp49
g7
(F0.157
F0.63
F0.076
I13
I100
tp50
sg9
F673.2232530117035
sg10
I100
sg11
I400
sa(dp51
g7
(F0.157
F0.726
F0.076
I13
I100
tp52
sg9
F842.9911999702454
sg10
I100
sg11
I500
satp53
Rp54
(dp55
g25
I01
sg26
g31
sg32
(lp56
I3
aI5
aI30
aI9
asg34
I6
sg35
g36
(g3
tp57
Rp58
sbsS'SPEA2'
p59
g2
(g3
g4
(lp60
(dp61
g7
(F0.103
F0.874
F0.142
I3
I7
tp62
sg9
F0.018682003021240234
sg10
I100
sg11
I0
sa(dp63
g7
(I0
I0
I0
I0
I0
tp64
sg9
F129.11426186561584
sg10
I100
sg11
I100
sa(dp65
g7
g64
sg9
F260.94718194007874
sg10
I100
sg11
I200
sa(dp66
g7
g64
sg9
F391.014771938324
sg10
I100
sg11
I300
sa(dp67
g7
g64
sg9
F523.8254418373108
sg10
I100
sg11
I400
sa(dp68
g7
g64
sg9
F653.4665539264679
sg10
I100
sg11
I500
satp69
Rp70
(dp71
g25
I01
sg26
g31
sg32
(lp72
I3
aI5
aI30
aI9
asg34
I6
sg35
g36
(g3
tp73
Rp74
sbsS'IBEA-PEN'
p75
g2
(g3
g4
(lp76
(dp77
g7
(F0.114
F0.824
F0.0
I5
I67
tp78
sg9
F0.024219036102294922
sg10
I100
sg11
I0
sa(dp79
g7
(F0.141
F0.959
F0.049
I9
I47
tp80
sg9
F7.0125908851623535
sg10
I100
sg11
I100
sa(dp81
g7
(F0.148
F0.845
F0.075
I8
I49
tp82
sg9
F14.050364017486572
sg10
I100
sg11
I200
sa(dp83
g7
(F0.14
F0.934
F0.08
I8
I52
tp84
sg9
F21.094671964645386
sg10
I100
sg11
I300
sa(dp85
g7
(F0.141
F0.855
F0.065
I8
I31
tp86
sg9
F28.120256900787354
sg10
I100
sg11
I400
sa(dp87
g7
(F0.151
F0.62
F0.105
I10
I67
tp88
sg9
F35.15794801712036
sg10
I100
sg11
I500
satp89
Rp90
(dp91
g25
I01
sg26
g31
sg32
(lp92
I3
aI5
aI30
aI9
asg34
I6
sg35
g36
(g3
tp93
Rp94
sbsS'IBEA'
p95
g2
(g3
g4
(lp96
(dp97
g7
(F0.081
F0.896
F0.087
I4
I6
tp98
sg9
F0.01854705810546875
sg10
I100
sg11
I0
sa(dp99
g7
(F0.051
F2.5
F0.106
I1
I2
tp100
sg9
F6.864126920700073
sg10
I100
sg11
I100
sa(dp101
g7
(F0.1
F0.883
F0.06
I3
I3
tp102
sg9
F13.791974067687988
sg10
I100
sg11
I200
sa(dp103
g7
(F0.1
F0.94
F0.09
I2
I6
tp104
sg9
F20.741101026535034
sg10
I100
sg11
I300
sa(dp105
g7
(F0.037
F2.599
F0.099
I1
I1
tp106
sg9
F27.668381929397583
sg10
I100
sg11
I400
sa(dp107
g7
(F0.098
F0.968
F0.094
I2
I8
tp108
sg9
F34.58668398857117
sg10
I100
sg11
I500
satp109
Rp110
(dp111
g25
I01
sg26
g31
sg32
(lp112
I3
aI5
aI30
aI9
asg34
I6
sg35
g36
(g3
tp113
Rp114
sbsS'NSGA2'
p115
g2
(g3
g4
(lp116
(dp117
g7
(F0.114
F0.881
F0.124
I4
I6
tp118
sg9
F0.01857614517211914
sg10
I100
sg11
I0
sa(dp119
g7
g64
sg9
F6.418347120285034
sg10
I100
sg11
I100
sa(dp120
g7
(F0.055
F2.5
F0.106
I1
I1
tp121
sg9
F12.945868968963623
sg10
I100
sg11
I200
sa(dp122
g7
g64
sg9
F19.4257071018219
sg10
I100
sg11
I300
sa(dp123
g7
(F0.088
F2.407
F0.081
I1
I1
tp124
sg9
F25.9132821559906
sg10
I100
sg11
I400
sa(dp125
g7
g64
sg9
F32.42186713218689
sg10
I100
sg11
I500
satp126
Rp127
(dp128
g25
I01
sg26
g31
sg32
(lp129
I3
aI5
aI30
aI9
asg34
I6
sg35
g36
(g3
tp130
Rp131
sbsS'IBEA-SIP'
p132
g2
(g3
g4
(lp133
(dp134
g7
(F0.142
F0.765
F0.092
I9
I53
tp135
sg9
F0.016957998275756836
sg10
I100
sg11
I0
sa(dp136
g7
(F0.157
F0.96
F0.09
I11
I100
tp137
sg9
F6.2458860874176025
sg10
I100
sg11
I100
sa(dp138
g7
(F0.15
F0.874
F0.056
I12
I100
tp139
sg9
F12.569865942001343
sg10
I100
sg11
I200
sa(dp140
g7
(F0.143
F0.751
F0.082
I11
I100
tp141
sg9
F18.927258014678955
sg10
I100
sg11
I300
sa(dp142
g7
(F0.157
F0.848
F0.099
I10
I100
tp143
sg9
F25.23395800590515
sg10
I100
sg11
I400
sa(dp144
g7
(F0.132
F0.681
F0.071
I12
I100
tp145
sg9
F31.659898042678833
sg10
I100
sg11
I500
satp146
Rp147
(dp148
g25
I01
sg26
g31
sg32
(lp149
I3
aI5
aI30
aI9
asg34
I6
sg35
g36
(g3
tp150
Rp151
sbs.