(dp0
S'NSGA2-SIP'
p1
ccopy_reg
_reconstructor
p2
(cdeap.tools.support
Logbook
p3
c__builtin__
list
p4
(lp5
(dp6
S'hv|spread|igd|frontier#|valid#'
p7
(F0.157
F0.754
F0.076
I13
I62
tp8
sS'timestamp'
p9
F0.0180208683013916
sS'evals'
p10
I100
sS'gen'
p11
I0
sa(dp12
g7
(F0.157
F0.815
F0.076
I13
I100
tp13
sg9
F2.261842966079712
sg10
I100
sg11
I100
sa(dp14
g7
(F0.157
F0.998
F0.076
I13
I100
tp15
sg9
F4.503772974014282
sg10
I100
sg11
I200
sa(dp16
g7
(F0.157
F0.815
F0.076
I13
I100
tp17
sg9
F6.793398857116699
sg10
I100
sg11
I300
sa(dp18
g7
(F0.157
F0.827
F0.076
I13
I100
tp19
sg9
F9.048902034759521
sg10
I100
sg11
I400
sa(dp20
g7
(F0.157
F0.808
F0.076
I13
I100
tp21
sg9
F11.274307012557983
sg10
I100
sg11
I500
satp22
Rp23
(dp24
S'log_header'
p25
I01
sS'header'
p26
(S'gen'
p27
S'evals'
p28
S'hv|spread|igd|frontier#|valid#'
p29
S'timestamp'
p30
tp31
sS'columns_len'
p32
(lp33
I3
aI5
aI30
aI9
asS'buffindex'
p34
I6
sS'chapters'
p35
ccollections
defaultdict
p36
(g3
tp37
Rp38
sbsS'SPEA2-SIP'
p39
g2
(g3
g4
(lp40
(dp41
g7
(F0.153
F0.748
F0.084
I12
I56
tp42
sg9
F0.01738715171813965
sg10
I100
sg11
I0
sa(dp43
g7
(F0.157
F0.734
F0.076
I13
I100
tp44
sg9
F158.8915410041809
sg10
I100
sg11
I100
sa(dp45
g7
(F0.157
F0.947
F0.076
I13
I100
tp46
sg9
F319.31859612464905
sg10
I100
sg11
I200
sa(dp47
g7
(F0.157
F0.86
F0.076
I13
I100
tp48
sg9
F479.15777611732483
sg10
I100
sg11
I300
sa(dp49
g7
(F0.157
F0.726
F0.076
I13
I100
tp50
sg9
F640.7575690746307
sg10
I100
sg11
I400
sa(dp51
g7
(F0.157
F0.81
F0.076
I13
I100
tp52
sg9
F801.0704941749573
sg10
I100
sg11
I500
satp53
Rp54
(dp55
g25
I01
sg26
g31
sg32
(lp56
I3
aI5
aI30
aI9
asg34
I6
sg35
g36
(g3
tp57
Rp58
sbsS'SPEA2'
p59
g2
(g3
g4
(lp60
(dp61
g7
(F0.119
F0.89
F0.102
I6
I9
tp62
sg9
F0.017498016357421875
sg10
I100
sg11
I0
sa(dp63
g7
(I0
I0
I0
I0
I0
tp64
sg9
F121.104905128479
sg10
I100
sg11
I100
sa(dp65
g7
g64
sg9
F247.2591519355774
sg10
I100
sg11
I200
sa(dp66
g7
g64
sg9
F372.08259892463684
sg10
I100
sg11
I300
sa(dp67
g7
g64
sg9
F497.6378481388092
sg10
I100
sg11
I400
sa(dp68
g7
g64
sg9
F623.5966639518738
sg10
I100
sg11
I500
satp69
Rp70
(dp71
g25
I01
sg26
g31
sg32
(lp72
I3
aI5
aI30
aI9
asg34
I6
sg35
g36
(g3
tp73
Rp74
sbsS'IBEA-PEN'
p75
g2
(g3
g4
(lp76
(dp77
g7
(F0.114
F0.824
F0.0
I5
I69
tp78
sg9
F0.022449016571044922
sg10
I100
sg11
I0
sa(dp79
g7
(F0.139
F0.855
F0.058
I9
I51
tp80
sg9
F6.421117067337036
sg10
I100
sg11
I100
sa(dp81
g7
(F0.128
F0.798
F0.113
I7
I34
tp82
sg9
F13.036204099655151
sg10
I100
sg11
I200
sa(dp83
g7
(F0.156
F0.792
F0.098
I9
I46
tp84
sg9
F19.67795205116272
sg10
I100
sg11
I300
sa(dp85
g7
(F0.153
F0.85
F0.09
I9
I48
tp86
sg9
F26.336086988449097
sg10
I100
sg11
I400
sa(dp87
g7
(F0.131
F0.714
F0.092
I9
I50
tp88
sg9
F32.99233603477478
sg10
I100
sg11
I500
satp89
Rp90
(dp91
g25
I01
sg26
g31
sg32
(lp92
I3
aI5
aI30
aI9
asg34
I6
sg35
g36
(g3
tp93
Rp94
sbsS'IBEA'
p95
g2
(g3
g4
(lp96
(dp97
g7
(F0.081
F0.89
F0.114
I6
I9
tp98
sg9
F0.01695704460144043
sg10
I100
sg11
I0
sa(dp99
g7
(F0.088
F2.407
F0.081
I1
I1
tp100
sg9
F6.230764865875244
sg10
I100
sg11
I100
sa(dp101
g7
(F0.051
F2.5
F0.106
I1
I1
tp102
sg9
F12.762403964996338
sg10
I100
sg11
I200
sa(dp103
g7
(F0.125
F0.884
F0.112
I3
I3
tp104
sg9
F19.297335863113403
sg10
I100
sg11
I300
sa(dp105
g7
(F0.088
F2.407
F0.081
I1
I1
tp106
sg9
F25.849150896072388
sg10
I100
sg11
I400
sa(dp107
g7
(F0.088
F2.407
F0.081
I1
I1
tp108
sg9
F32.39579892158508
sg10
I100
sg11
I500
satp109
Rp110
(dp111
g25
I01
sg26
g31
sg32
(lp112
I3
aI5
aI30
aI9
asg34
I6
sg35
g36
(g3
tp113
Rp114
sbsS'NSGA2'
p115
g2
(g3
g4
(lp116
(dp117
g7
(F0.093
F0.884
F0.083
I3
I4
tp118
sg9
F0.016783952713012695
sg10
I100
sg11
I0
sa(dp119
g7
(F0.092
F2.312
F0.154
I1
I1
tp120
sg9
F5.830568075180054
sg10
I100
sg11
I100
sa(dp121
g7
g64
sg9
F11.747743129730225
sg10
I100
sg11
I200
sa(dp122
g7
(F0.088
F2.407
F0.081
I1
I1
tp123
sg9
F17.654242992401123
sg10
I100
sg11
I300
sa(dp124
g7
g64
sg9
F23.546667098999023
sg10
I100
sg11
I400
sa(dp125
g7
(F0.092
F2.312
F0.154
I1
I1
tp126
sg9
F29.475664138793945
sg10
I100
sg11
I500
satp127
Rp128
(dp129
g25
I01
sg26
g31
sg32
(lp130
I3
aI5
aI30
aI9
asg34
I6
sg35
g36
(g3
tp131
Rp132
sbsS'IBEA-SIP'
p133
g2
(g3
g4
(lp134
(dp135
g7
(F0.145
F0.62
F0.092
I13
I54
tp136
sg9
F0.017683982849121094
sg10
I100
sg11
I0
sa(dp137
g7
(F0.149
F0.989
F0.074
I9
I100
tp138
sg9
F5.945821046829224
sg10
I100
sg11
I100
sa(dp139
g7
(F0.153
F0.878
F0.084
I9
I100
tp140
sg9
F12.003300905227661
sg10
I100
sg11
I200
sa(dp141
g7
(F0.139
F0.719
F0.094
I10
I100
tp142
sg9
F18.02039885520935
sg10
I100
sg11
I300
sa(dp143
g7
(F0.156
F0.774
F0.11
I9
I100
tp144
sg9
F24.005539894104004
sg10
I100
sg11
I400
sa(dp145
g7
(F0.137
F0.851
F0.062
I9
I100
tp146
sg9
F30.002707958221436
sg10
I100
sg11
I500
satp147
Rp148
(dp149
g25
I01
sg26
g31
sg32
(lp150
I3
aI5
aI30
aI9
asg34
I6
sg35
g36
(g3
tp151
Rp152
sbs.