(dp0
S'NSGA2-SIP'
p1
ccopy_reg
_reconstructor
p2
(cdeap.tools.support
Logbook
p3
c__builtin__
list
p4
(lp5
(dp6
S'hv|spread|igd|frontier#|valid#'
p7
(F0.157
F0.739
F0.09
I11
I58
tp8
sS'timestamp'
p9
F0.019500017166137695
sS'evals'
p10
I100
sS'gen'
p11
I0
sa(dp12
g7
(F0.157
F0.811
F0.076
I13
I100
tp13
sg9
F2.6537580490112305
sg10
I100
sg11
I100
sa(dp14
g7
(F0.157
F0.827
F0.076
I13
I100
tp15
sg9
F5.361962080001831
sg10
I100
sg11
I200
sa(dp16
g7
(F0.157
F0.726
F0.076
I13
I100
tp17
sg9
F8.051880121231079
sg10
I100
sg11
I300
sa(dp18
g7
(F0.157
F0.895
F0.076
I13
I100
tp19
sg9
F10.745023965835571
sg10
I100
sg11
I400
sa(dp20
g7
(F0.157
F0.805
F0.076
I13
I100
tp21
sg9
F13.442271947860718
sg10
I100
sg11
I500
satp22
Rp23
(dp24
S'log_header'
p25
I01
sS'header'
p26
(S'gen'
p27
S'evals'
p28
S'hv|spread|igd|frontier#|valid#'
p29
S'timestamp'
p30
tp31
sS'columns_len'
p32
(lp33
I3
aI5
aI30
aI9
asS'buffindex'
p34
I6
sS'chapters'
p35
ccollections
defaultdict
p36
(g3
tp37
Rp38
sbsS'SPEA2-SIP'
p39
g2
(g3
g4
(lp40
(dp41
g7
(F0.157
F0.809
F0.082
I12
I54
tp42
sg9
F0.01999807357788086
sg10
I100
sg11
I0
sa(dp43
g7
(F0.157
F0.837
F0.076
I13
I100
tp44
sg9
F175.72400903701782
sg10
I100
sg11
I100
sa(dp45
g7
(F0.157
F0.895
F0.076
I13
I100
tp46
sg9
F348.53538608551025
sg10
I100
sg11
I200
sa(dp47
g7
(F0.157
F0.805
F0.076
I13
I100
tp48
sg9
F521.7826600074768
sg10
I100
sg11
I300
sa(dp49
g7
(F0.157
F0.805
F0.076
I13
I100
tp50
sg9
F694.7819700241089
sg10
I100
sg11
I400
sa(dp51
g7
(F0.157
F0.99
F0.076
I13
I100
tp52
sg9
F863.808865070343
sg10
I100
sg11
I500
satp53
Rp54
(dp55
g25
I01
sg26
g31
sg32
(lp56
I3
aI5
aI30
aI9
asg34
I6
sg35
g36
(g3
tp57
Rp58
sbsS'SPEA2'
p59
g2
(g3
g4
(lp60
(dp61
g7
(F0.07
F1.0
F0.08
I3
I5
tp62
sg9
F0.019454002380371094
sg10
I100
sg11
I0
sa(dp63
g7
(I0
I0
I0
I0
I0
tp64
sg9
F132.56390690803528
sg10
I100
sg11
I100
sa(dp65
g7
g64
sg9
F266.1879050731659
sg10
I100
sg11
I200
sa(dp66
g7
g64
sg9
F401.83503103256226
sg10
I100
sg11
I300
sa(dp67
g7
g64
sg9
F534.5006899833679
sg10
I100
sg11
I400
sa(dp68
g7
(F0.087
F2.236
F0.121
I1
I1
tp69
sg9
F665.6839480400085
sg10
I100
sg11
I500
satp70
Rp71
(dp72
g25
I01
sg26
g31
sg32
(lp73
I3
aI5
aI30
aI9
asg34
I6
sg35
g36
(g3
tp74
Rp75
sbsS'IBEA-PEN'
p76
g2
(g3
g4
(lp77
(dp78
g7
(F0.114
F0.899
F0.0
I5
I68
tp79
sg9
F0.03175616264343262
sg10
I100
sg11
I0
sa(dp80
g7
(F0.098
F0.968
F0.094
I2
I2
tp81
sg9
F6.918580055236816
sg10
I100
sg11
I100
sa(dp82
g7
(F0.092
F2.312
F0.154
I1
I1
tp83
sg9
F13.836933135986328
sg10
I100
sg11
I200
sa(dp84
g7
(F0.037
F2.599
F0.099
I1
I3
tp85
sg9
F20.753276109695435
sg10
I100
sg11
I300
sa(dp86
g7
(F0.088
F2.407
F0.081
I1
I1
tp87
sg9
F27.668320178985596
sg10
I100
sg11
I400
sa(dp88
g7
(F0.092
F2.312
F0.154
I1
I1
tp89
sg9
F34.49716901779175
sg10
I100
sg11
I500
satp90
Rp91
(dp92
g25
I01
sg26
g31
sg32
(lp93
I3
aI5
aI30
aI9
asg34
I6
sg35
g36
(g3
tp94
Rp95
sbsS'IBEA'
p96
g2
(g3
g4
(lp97
(dp98
g7
(F0.083
F0.933
F0.106
I3
I5
tp99
sg9
F0.020171165466308594
sg10
I100
sg11
I0
sa(dp100
g7
g64
sg9
F6.789734125137329
sg10
I100
sg11
I100
sa(dp101
g7
(F0.088
F2.407
F0.081
I1
I2
tp102
sg9
F13.531316995620728
sg10
I100
sg11
I200
sa(dp103
g7
(F0.1
F0.94
F0.09
I2
I3
tp104
sg9
F20.25890612602234
sg10
I100
sg11
I300
sa(dp105
g7
g64
sg9
F27.002657175064087
sg10
I100
sg11
I400
sa(dp106
g7
g64
sg9
F33.75062322616577
sg10
I100
sg11
I500
satp107
Rp108
(dp109
g25
I01
sg26
g31
sg32
(lp110
I3
aI5
aI30
aI9
asg34
I6
sg35
g36
(g3
tp111
Rp112
sbsS'NSGA2'
p113
g2
(g3
g4
(lp114
(dp115
g7
(F0.097
F0.839
F0.066
I5
I7
tp116
sg9
F0.020073890686035156
sg10
I100
sg11
I0
sa(dp117
g7
g64
sg9
F6.790911912918091
sg10
I100
sg11
I100
sa(dp118
g7
g64
sg9
F13.676345109939575
sg10
I100
sg11
I200
sa(dp119
g7
(F0.088
F2.407
F0.081
I1
I1
tp120
sg9
F20.580540895462036
sg10
I100
sg11
I300
sa(dp121
g7
g64
sg9
F27.50687003135681
sg10
I100
sg11
I400
sa(dp122
g7
g64
sg9
F34.454116106033325
sg10
I100
sg11
I500
satp123
Rp124
(dp125
g25
I01
sg26
g31
sg32
(lp126
I3
aI5
aI30
aI9
asg34
I6
sg35
g36
(g3
tp127
Rp128
sbsS'IBEA-SIP'
p129
g2
(g3
g4
(lp130
(dp131
g7
(F0.155
F0.724
F0.102
I8
I56
tp132
sg9
F0.01803302764892578
sg10
I100
sg11
I0
sa(dp133
g7
(F0.143
F0.971
F0.082
I11
I100
tp134
sg9
F6.14963698387146
sg10
I100
sg11
I100
sa(dp135
g7
(F0.147
F0.918
F0.054
I10
I100
tp136
sg9
F12.440773010253906
sg10
I100
sg11
I200
sa(dp137
g7
(F0.149
F0.946
F0.067
I10
I100
tp138
sg9
F18.716369152069092
sg10
I100
sg11
I300
sa(dp139
g7
(F0.137
F0.795
F0.089
I9
I100
tp140
sg9
F25.0306179523468
sg10
I100
sg11
I400
sa(dp141
g7
(F0.149
F0.891
F0.074
I9
I100
tp142
sg9
F31.33956813812256
sg10
I100
sg11
I500
satp143
Rp144
(dp145
g25
I01
sg26
g31
sg32
(lp146
I3
aI5
aI30
aI9
asg34
I6
sg35
g36
(g3
tp147
Rp148
sbs.