(dp0
S'NSGA2-SIP'
p1
ccopy_reg
_reconstructor
p2
(cdeap.tools.support
Logbook
p3
c__builtin__
list
p4
(lp5
(dp6
S'hv|spread|igd|frontier#|valid#'
p7
(F0.153
F0.778
F0.076
I14
I58
tp8
sS'timestamp'
p9
F0.016048908233642578
sS'evals'
p10
I100
sS'gen'
p11
I0
sa(dp12
g7
(F0.157
F0.947
F0.076
I13
I100
tp13
sg9
F2.0588459968566895
sg10
I100
sg11
I100
sa(dp14
g7
(F0.157
F0.947
F0.076
I13
I100
tp15
sg9
F4.092839002609253
sg10
I100
sg11
I200
sa(dp16
g7
(F0.157
F0.998
F0.076
I13
I100
tp17
sg9
F6.106282949447632
sg10
I100
sg11
I300
sa(dp18
g7
(F0.157
F0.734
F0.076
I13
I100
tp19
sg9
F8.125945091247559
sg10
I100
sg11
I400
sa(dp20
g7
(F0.157
F0.805
F0.076
I13
I100
tp21
sg9
F10.179076910018921
sg10
I100
sg11
I500
satp22
Rp23
(dp24
S'log_header'
p25
I01
sS'header'
p26
(S'gen'
p27
S'evals'
p28
S'hv|spread|igd|frontier#|valid#'
p29
S'timestamp'
p30
tp31
sS'columns_len'
p32
(lp33
I3
aI5
aI30
aI9
asS'buffindex'
p34
I6
sS'chapters'
p35
ccollections
defaultdict
p36
(g3
tp37
Rp38
sbsS'SPEA2-SIP'
p39
g2
(g3
g4
(lp40
(dp41
g7
(F0.149
F0.854
F0.058
I12
I52
tp42
sg9
F0.015390872955322266
sg10
I100
sg11
I0
sa(dp43
g7
(F0.157
F0.817
F0.076
I13
I100
tp44
sg9
F138.82489490509033
sg10
I100
sg11
I100
sa(dp45
g7
(F0.157
F0.805
F0.076
I13
I100
tp46
sg9
F282.1778509616852
sg10
I100
sg11
I200
sa(dp47
g7
(F0.157
F0.817
F0.076
I13
I100
tp48
sg9
F428.27115988731384
sg10
I100
sg11
I300
sa(dp49
g7
(F0.157
F0.734
F0.076
I13
I100
tp50
sg9
F571.9533100128174
sg10
I100
sg11
I400
sa(dp51
g7
(F0.157
F0.895
F0.076
I13
I100
tp52
sg9
F715.6328320503235
sg10
I100
sg11
I500
satp53
Rp54
(dp55
g25
I01
sg26
g31
sg32
(lp56
I3
aI5
aI30
aI9
asg34
I6
sg35
g36
(g3
tp57
Rp58
sbsS'SPEA2'
p59
g2
(g3
g4
(lp60
(dp61
g7
(F0.077
F0.977
F0.131
I4
I6
tp62
sg9
F0.015371084213256836
sg10
I100
sg11
I0
sa(dp63
g7
(I0
I0
I0
I0
I0
tp64
sg9
F112.12405705451965
sg10
I100
sg11
I100
sa(dp65
g7
g64
sg9
F223.1109230518341
sg10
I100
sg11
I200
sa(dp66
g7
g64
sg9
F334.9342451095581
sg10
I100
sg11
I300
sa(dp67
g7
g64
sg9
F448.3076012134552
sg10
I100
sg11
I400
sa(dp68
g7
g64
sg9
F561.610109090805
sg10
I100
sg11
I500
satp69
Rp70
(dp71
g25
I01
sg26
g31
sg32
(lp72
I3
aI5
aI30
aI9
asg34
I6
sg35
g36
(g3
tp73
Rp74
sbsS'IBEA'
p75
g2
(g3
g4
(lp76
(dp77
g7
(F0.084
F0.882
F0.071
I3
I3
tp78
sg9
F0.01589679718017578
sg10
I100
sg11
I0
sa(dp79
g7
g64
sg9
F5.898507833480835
sg10
I100
sg11
I100
sa(dp80
g7
g64
sg9
F11.898960828781128
sg10
I100
sg11
I200
sa(dp81
g7
(F0.113
F0.934
F0.13
I2
I2
tp82
sg9
F17.83341884613037
sg10
I100
sg11
I300
sa(dp83
g7
(F0.1
F0.94
F0.09
I2
I3
tp84
sg9
F23.74784779548645
sg10
I100
sg11
I400
sa(dp85
g7
(F0.088
F2.407
F0.081
I1
I1
tp86
sg9
F29.646293878555298
sg10
I100
sg11
I500
satp87
Rp88
(dp89
g25
I01
sg26
g31
sg32
(lp90
I3
aI5
aI30
aI9
asg34
I6
sg35
g36
(g3
tp91
Rp92
sbsS'NSGA2'
p93
g2
(g3
g4
(lp94
(dp95
g7
(F0.11
F0.796
F0.096
I5
I7
tp96
sg9
F0.015872955322265625
sg10
I100
sg11
I0
sa(dp97
g7
(F0.055
F2.5
F0.106
I1
I1
tp98
sg9
F5.261525869369507
sg10
I100
sg11
I100
sa(dp99
g7
g64
sg9
F10.645757913589478
sg10
I100
sg11
I200
sa(dp100
g7
g64
sg9
F15.908739805221558
sg10
I100
sg11
I300
sa(dp101
g7
g64
sg9
F21.20463800430298
sg10
I100
sg11
I400
sa(dp102
g7
g64
sg9
F26.569410800933838
sg10
I100
sg11
I500
satp103
Rp104
(dp105
g25
I01
sg26
g31
sg32
(lp106
I3
aI5
aI30
aI9
asg34
I6
sg35
g36
(g3
tp107
Rp108
sbsS'IBEA-SIP'
p109
g2
(g3
g4
(lp110
(dp111
g7
(F0.156
F0.725
F0.073
I12
I63
tp112
sg9
F0.016459941864013672
sg10
I100
sg11
I0
sa(dp113
g7
(F0.156
F0.855
F0.077
I12
I100
tp114
sg9
F5.339562892913818
sg10
I100
sg11
I100
sa(dp115
g7
(F0.139
F0.968
F0.08
I10
I100
tp116
sg9
F10.852283000946045
sg10
I100
sg11
I200
sa(dp117
g7
(F0.139
F0.969
F0.082
I11
I100
tp118
sg9
F16.32665705680847
sg10
I100
sg11
I300
sa(dp119
g7
(F0.138
F0.907
F0.089
I9
I100
tp120
sg9
F21.76993203163147
sg10
I100
sg11
I400
sa(dp121
g7
(F0.157
F0.804
F0.082
I12
I100
tp122
sg9
F27.280282020568848
sg10
I100
sg11
I500
satp123
Rp124
(dp125
g25
I01
sg26
g31
sg32
(lp126
I3
aI5
aI30
aI9
asg34
I6
sg35
g36
(g3
tp127
Rp128
sbs.