(dp0
S'NSGA2-SIP'
p1
ccopy_reg
_reconstructor
p2
(cdeap.tools.support
Logbook
p3
c__builtin__
list
p4
(lp5
(dp6
S'hv|spread|igd|frontier#|valid#'
p7
(F0.15
F0.658
F0.09
I12
I58
tp8
sS'timestamp'
p9
F0.020431995391845703
sS'evals'
p10
I100
sS'gen'
p11
I0
sa(dp12
g7
(F0.157
F0.726
F0.076
I13
I100
tp13
sg9
F2.6466121673583984
sg10
I100
sg11
I100
sa(dp14
g7
(F0.157
F0.726
F0.076
I13
I100
tp15
sg9
F5.3976051807403564
sg10
I100
sg11
I200
sa(dp16
g7
(F0.157
F0.726
F0.076
I13
I100
tp17
sg9
F8.113815069198608
sg10
I100
sg11
I300
sa(dp18
g7
(F0.157
F0.726
F0.076
I13
I100
tp19
sg9
F10.866806030273438
sg10
I100
sg11
I400
sa(dp20
g7
(F0.157
F0.808
F0.076
I13
I100
tp21
sg9
F13.603593111038208
sg10
I100
sg11
I500
satp22
Rp23
(dp24
S'log_header'
p25
I01
sS'header'
p26
(S'gen'
p27
S'evals'
p28
S'hv|spread|igd|frontier#|valid#'
p29
S'timestamp'
p30
tp31
sS'columns_len'
p32
(lp33
I3
aI5
aI30
aI9
asS'buffindex'
p34
I6
sS'chapters'
p35
ccollections
defaultdict
p36
(g3
tp37
Rp38
sbsS'SPEA2-SIP'
p39
g2
(g3
g4
(lp40
(dp41
g7
(F0.157
F0.754
F0.076
I13
I58
tp42
sg9
F0.021641016006469727
sg10
I100
sg11
I0
sa(dp43
g7
(F0.157
F0.805
F0.076
I13
I100
tp44
sg9
F164.38742804527283
sg10
I100
sg11
I100
sa(dp45
g7
(F0.157
F0.933
F0.076
I13
I100
tp46
sg9
F336.14308500289917
sg10
I100
sg11
I200
sa(dp47
g7
(F0.157
F0.86
F0.076
I13
I100
tp48
sg9
F507.0962359905243
sg10
I100
sg11
I300
sa(dp49
g7
(F0.157
F0.726
F0.076
I13
I100
tp50
sg9
F678.1612541675568
sg10
I100
sg11
I400
sa(dp51
g7
(F0.157
F0.99
F0.076
I13
I100
tp52
sg9
F846.9996111392975
sg10
I100
sg11
I500
satp53
Rp54
(dp55
g25
I01
sg26
g31
sg32
(lp56
I3
aI5
aI30
aI9
asg34
I6
sg35
g36
(g3
tp57
Rp58
sbsS'SPEA2'
p59
g2
(g3
g4
(lp60
(dp61
g7
(F0.118
F0.88
F0.098
I3
I3
tp62
sg9
F0.020250797271728516
sg10
I100
sg11
I0
sa(dp63
g7
(I0
I0
I0
I0
I0
tp64
sg9
F129.53716397285461
sg10
I100
sg11
I100
sa(dp65
g7
g64
sg9
F264.89478278160095
sg10
I100
sg11
I200
sa(dp66
g7
g64
sg9
F398.9003698825836
sg10
I100
sg11
I300
sa(dp67
g7
g64
sg9
F534.0503067970276
sg10
I100
sg11
I400
sa(dp68
g7
g64
sg9
F668.9942629337311
sg10
I100
sg11
I500
satp69
Rp70
(dp71
g25
I01
sg26
g31
sg32
(lp72
I3
aI5
aI30
aI9
asg34
I6
sg35
g36
(g3
tp73
Rp74
sbsS'IBEA'
p75
g2
(g3
g4
(lp76
(dp77
g7
(F0.111
F0.971
F0.122
I4
I7
tp78
sg9
F0.020735979080200195
sg10
I100
sg11
I0
sa(dp79
g7
(F0.092
F2.312
F0.154
I1
I1
tp80
sg9
F6.873970985412598
sg10
I100
sg11
I100
sa(dp81
g7
(F0.037
F2.599
F0.099
I1
I3
tp82
sg9
F13.826082944869995
sg10
I100
sg11
I200
sa(dp83
g7
g64
sg9
F20.711269855499268
sg10
I100
sg11
I300
sa(dp84
g7
(F0.113
F0.963
F0.118
I2
I3
tp85
sg9
F27.736055850982666
sg10
I100
sg11
I400
sa(dp86
g7
g64
sg9
F34.70187497138977
sg10
I100
sg11
I500
satp87
Rp88
(dp89
g25
I01
sg26
g31
sg32
(lp90
I3
aI5
aI30
aI9
asg34
I6
sg35
g36
(g3
tp91
Rp92
sbsS'NSGA2'
p93
g2
(g3
g4
(lp94
(dp95
g7
(F0.084
F0.933
F0.091
I2
I2
tp96
sg9
F0.019797801971435547
sg10
I100
sg11
I0
sa(dp97
g7
g64
sg9
F6.9508209228515625
sg10
I100
sg11
I100
sa(dp98
g7
(F0.092
F2.312
F0.154
I1
I1
tp99
sg9
F13.96607780456543
sg10
I100
sg11
I200
sa(dp100
g7
g64
sg9
F21.106700897216797
sg10
I100
sg11
I300
sa(dp101
g7
(F0.074
F2.312
F0.136
I1
I1
tp102
sg9
F28.10226798057556
sg10
I100
sg11
I400
sa(dp103
g7
(F0.109
F0.966
F0.138
I2
I2
tp104
sg9
F35.05215787887573
sg10
I100
sg11
I500
satp105
Rp106
(dp107
g25
I01
sg26
g31
sg32
(lp108
I3
aI5
aI30
aI9
asg34
I6
sg35
g36
(g3
tp109
Rp110
sbsS'IBEA-SIP'
p111
g2
(g3
g4
(lp112
(dp113
g7
(F0.149
F0.885
F0.061
I11
I55
tp114
sg9
F0.01946091651916504
sg10
I100
sg11
I0
sa(dp115
g7
(F0.155
F0.891
F0.078
I11
I100
tp116
sg9
F6.260499000549316
sg10
I100
sg11
I100
sa(dp117
g7
(F0.143
F0.961
F0.091
I10
I100
tp118
sg9
F12.674715995788574
sg10
I100
sg11
I200
sa(dp119
g7
(F0.149
F0.867
F0.06
I11
I100
tp120
sg9
F19.079118967056274
sg10
I100
sg11
I300
sa(dp121
g7
(F0.157
F0.923
F0.08
I11
I100
tp122
sg9
F25.49107599258423
sg10
I100
sg11
I400
sa(dp123
g7
(F0.156
F0.644
F0.098
I10
I100
tp124
sg9
F31.87574005126953
sg10
I100
sg11
I500
satp125
Rp126
(dp127
g25
I01
sg26
g31
sg32
(lp128
I3
aI5
aI30
aI9
asg34
I6
sg35
g36
(g3
tp129
Rp130
sbs.