(dp0
S'NSGA2-SIP'
p1
ccopy_reg
_reconstructor
p2
(cdeap.tools.support
Logbook
p3
c__builtin__
list
p4
(lp5
(dp6
S'hv|spread|igd|frontier#|valid#'
p7
(F0.155
F0.801
F0.078
I11
I55
tp8
sS'timestamp'
p9
F0.018028974533081055
sS'evals'
p10
I100
sS'gen'
p11
I0
sa(dp12
g7
(F0.157
F0.726
F0.076
I13
I100
tp13
sg9
F2.424894094467163
sg10
I100
sg11
I100
sa(dp14
g7
(F0.157
F0.809
F0.076
I13
I100
tp15
sg9
F4.899328947067261
sg10
I100
sg11
I200
sa(dp16
g7
(F0.157
F0.726
F0.076
I13
I100
tp17
sg9
F7.377920866012573
sg10
I100
sg11
I300
sa(dp18
g7
(F0.157
F0.63
F0.076
I13
I100
tp19
sg9
F9.842545986175537
sg10
I100
sg11
I400
sa(dp20
g7
(F0.157
F0.809
F0.076
I13
I100
tp21
sg9
F12.318136930465698
sg10
I100
sg11
I500
satp22
Rp23
(dp24
S'log_header'
p25
I01
sS'header'
p26
(S'gen'
p27
S'evals'
p28
S'hv|spread|igd|frontier#|valid#'
p29
S'timestamp'
p30
tp31
sS'columns_len'
p32
(lp33
I3
aI5
aI30
aI9
asS'buffindex'
p34
I6
sS'chapters'
p35
ccollections
defaultdict
p36
(g3
tp37
Rp38
sbsS'SPEA2-SIP'
p39
g2
(g3
g4
(lp40
(dp41
g7
(F0.157
F0.732
F0.082
I12
I61
tp42
sg9
F0.019283056259155273
sg10
I100
sg11
I0
sa(dp43
g7
(F0.157
F0.86
F0.076
I13
I100
tp44
sg9
F162.44840097427368
sg10
I100
sg11
I100
sa(dp45
g7
(F0.157
F0.904
F0.076
I13
I100
tp46
sg9
F330.14165711402893
sg10
I100
sg11
I200
sa(dp47
g7
(F0.157
F0.726
F0.076
I13
I100
tp48
sg9
F500.84935998916626
sg10
I100
sg11
I300
sa(dp49
g7
(F0.157
F0.947
F0.076
I13
I100
tp50
sg9
F668.7085399627686
sg10
I100
sg11
I400
sa(dp51
g7
(F0.157
F0.805
F0.076
I13
I100
tp52
sg9
F833.4345791339874
sg10
I100
sg11
I500
satp53
Rp54
(dp55
g25
I01
sg26
g31
sg32
(lp56
I3
aI5
aI30
aI9
asg34
I6
sg35
g36
(g3
tp57
Rp58
sbsS'SPEA2'
p59
g2
(g3
g4
(lp60
(dp61
g7
(F0.059
F0.934
F0.123
I2
I2
tp62
sg9
F0.017605066299438477
sg10
I100
sg11
I0
sa(dp63
g7
(I0
I0
I0
I0
I0
tp64
sg9
F129.81157612800598
sg10
I100
sg11
I100
sa(dp65
g7
g64
sg9
F262.0233781337738
sg10
I100
sg11
I200
sa(dp66
g7
g64
sg9
F393.73056292533875
sg10
I100
sg11
I300
sa(dp67
g7
g64
sg9
F526.5562000274658
sg10
I100
sg11
I400
sa(dp68
g7
g64
sg9
F659.8122599124908
sg10
I100
sg11
I500
satp69
Rp70
(dp71
g25
I01
sg26
g31
sg32
(lp72
I3
aI5
aI30
aI9
asg34
I6
sg35
g36
(g3
tp73
Rp74
sbsS'IBEA-PEN'
p75
g2
(g3
g4
(lp76
(dp77
g7
(F0.111
F0.824
F0.006
I5
I69
tp78
sg9
F0.04267001152038574
sg10
I100
sg11
I0
sa(dp79
g7
(F0.151
F0.981
F0.094
I8
I38
tp80
sg9
F7.107853889465332
sg10
I100
sg11
I100
sa(dp81
g7
(F0.137
F0.775
F0.063
I8
I59
tp82
sg9
F14.165376901626587
sg10
I100
sg11
I200
sa(dp83
g7
(F0.145
F0.69
F0.083
I11
I63
tp84
sg9
F21.233779907226562
sg10
I100
sg11
I300
sa(dp85
g7
(F0.137
F0.842
F0.061
I9
I51
tp86
sg9
F28.299253940582275
sg10
I100
sg11
I400
sa(dp87
g7
(F0.149
F0.92
F0.063
I9
I42
tp88
sg9
F35.36851906776428
sg10
I100
sg11
I500
satp89
Rp90
(dp91
g25
I01
sg26
g31
sg32
(lp92
I3
aI5
aI30
aI9
asg34
I6
sg35
g36
(g3
tp93
Rp94
sbsS'IBEA'
p95
g2
(g3
g4
(lp96
(dp97
g7
(F0.109
F0.853
F0.122
I6
I9
tp98
sg9
F0.019176006317138672
sg10
I100
sg11
I0
sa(dp99
g7
g64
sg9
F6.893886089324951
sg10
I100
sg11
I100
sa(dp100
g7
(F0.055
F2.5
F0.106
I1
I1
tp101
sg9
F13.82599401473999
sg10
I100
sg11
I200
sa(dp102
g7
(F0.1
F0.94
F0.09
I2
I4
tp103
sg9
F20.768484115600586
sg10
I100
sg11
I300
sa(dp104
g7
(F0.037
F2.599
F0.099
I1
I1
tp105
sg9
F27.738569974899292
sg10
I100
sg11
I400
sa(dp106
g7
(F0.051
F2.5
F0.106
I1
I2
tp107
sg9
F34.692404985427856
sg10
I100
sg11
I500
satp108
Rp109
(dp110
g25
I01
sg26
g31
sg32
(lp111
I3
aI5
aI30
aI9
asg34
I6
sg35
g36
(g3
tp112
Rp113
sbsS'NSGA2'
p114
g2
(g3
g4
(lp115
(dp116
g7
(F0.084
F0.933
F0.104
I2
I3
tp117
sg9
F0.017878055572509766
sg10
I100
sg11
I0
sa(dp118
g7
g64
sg9
F6.184890985488892
sg10
I100
sg11
I100
sa(dp119
g7
(F0.092
F2.312
F0.154
I1
I1
tp120
sg9
F12.411014080047607
sg10
I100
sg11
I200
sa(dp121
g7
g64
sg9
F18.720052003860474
sg10
I100
sg11
I300
sa(dp122
g7
g64
sg9
F25.083359003067017
sg10
I100
sg11
I400
sa(dp123
g7
g64
sg9
F31.36845111846924
sg10
I100
sg11
I500
satp124
Rp125
(dp126
g25
I01
sg26
g31
sg32
(lp127
I3
aI5
aI30
aI9
asg34
I6
sg35
g36
(g3
tp128
Rp129
sbsS'IBEA-SIP'
p130
g2
(g3
g4
(lp131
(dp132
g7
(F0.151
F0.582
F0.096
I11
I55
tp133
sg9
F0.018059968948364258
sg10
I100
sg11
I0
sa(dp134
g7
(F0.149
F0.958
F0.056
I10
I100
tp135
sg9
F6.299582004547119
sg10
I100
sg11
I100
sa(dp136
g7
(F0.157
F0.917
F0.09
I11
I100
tp137
sg9
F12.644694805145264
sg10
I100
sg11
I200
sa(dp138
g7
(F0.143
F0.645
F0.091
I10
I100
tp139
sg9
F19.10121989250183
sg10
I100
sg11
I300
sa(dp140
g7
(F0.155
F0.651
F0.078
I10
I100
tp141
sg9
F25.581193923950195
sg10
I100
sg11
I400
sa(dp142
g7
(F0.139
F0.971
F0.082
I11
I100
tp143
sg9
F32.049988985061646
sg10
I100
sg11
I500
satp144
Rp145
(dp146
g25
I01
sg26
g31
sg32
(lp147
I3
aI5
aI30
aI9
asg34
I6
sg35
g36
(g3
tp148
Rp149
sbs.