(dp0
S'NSGA2-SIP'
p1
ccopy_reg
_reconstructor
p2
(cdeap.tools.support
Logbook
p3
c__builtin__
list
p4
(lp5
(dp6
S'hv|spread|igd|frontier#|valid#'
p7
(F0.15
F0.757
F0.082
I14
I60
tp8
sS'timestamp'
p9
F0.02162790298461914
sS'evals'
p10
I100
sS'gen'
p11
I0
sa(dp12
g7
(F0.157
F0.805
F0.076
I13
I100
tp13
sg9
F2.649909019470215
sg10
I100
sg11
I100
sa(dp14
g7
(F0.157
F0.808
F0.076
I13
I100
tp15
sg9
F5.356288909912109
sg10
I100
sg11
I200
sa(dp16
g7
(F0.157
F0.933
F0.076
I13
I100
tp17
sg9
F8.054905891418457
sg10
I100
sg11
I300
sa(dp18
g7
(F0.157
F0.86
F0.076
I13
I100
tp19
sg9
F10.755225896835327
sg10
I100
sg11
I400
sa(dp20
g7
(F0.157
F0.99
F0.076
I13
I100
tp21
sg9
F13.471075057983398
sg10
I100
sg11
I500
satp22
Rp23
(dp24
S'log_header'
p25
I01
sS'header'
p26
(S'gen'
p27
S'evals'
p28
S'hv|spread|igd|frontier#|valid#'
p29
S'timestamp'
p30
tp31
sS'columns_len'
p32
(lp33
I3
aI5
aI30
aI9
asS'buffindex'
p34
I6
sS'chapters'
p35
ccollections
defaultdict
p36
(g3
tp37
Rp38
sbsS'SPEA2-SIP'
p39
g2
(g3
g4
(lp40
(dp41
g7
(F0.155
F0.721
F0.078
I10
I51
tp42
sg9
F0.01888585090637207
sg10
I100
sg11
I0
sa(dp43
g7
(F0.157
F0.798
F0.082
I12
I100
tp44
sg9
F173.06337594985962
sg10
I100
sg11
I100
sa(dp45
g7
(F0.157
F0.852
F0.082
I12
I100
tp46
sg9
F346.7306590080261
sg10
I100
sg11
I200
sa(dp47
g7
(F0.157
F0.839
F0.082
I12
I100
tp48
sg9
F520.220685005188
sg10
I100
sg11
I300
sa(dp49
g7
(F0.157
F0.954
F0.082
I12
I100
tp50
sg9
F694.3158850669861
sg10
I100
sg11
I400
sa(dp51
g7
(F0.157
F0.81
F0.076
I13
I100
tp52
sg9
F867.260892868042
sg10
I100
sg11
I500
satp53
Rp54
(dp55
g25
I01
sg26
g31
sg32
(lp56
I3
aI5
aI30
aI9
asg34
I6
sg35
g36
(g3
tp57
Rp58
sbsS'SPEA2'
p59
g2
(g3
g4
(lp60
(dp61
g7
(F0.108
F0.933
F0.104
I2
I4
tp62
sg9
F0.01943206787109375
sg10
I100
sg11
I0
sa(dp63
g7
(I0
I0
I0
I0
I0
tp64
sg9
F132.79368090629578
sg10
I100
sg11
I100
sa(dp65
g7
g64
sg9
F265.4932539463043
sg10
I100
sg11
I200
sa(dp66
g7
g64
sg9
F397.86457204818726
sg10
I100
sg11
I300
sa(dp67
g7
g64
sg9
F530.5529019832611
sg10
I100
sg11
I400
sa(dp68
g7
(F0.087
F2.236
F0.121
I1
I1
tp69
sg9
F663.0292139053345
sg10
I100
sg11
I500
satp70
Rp71
(dp72
g25
I01
sg26
g31
sg32
(lp73
I3
aI5
aI30
aI9
asg34
I6
sg35
g36
(g3
tp74
Rp75
sbsS'IBEA-PEN'
p76
g2
(g3
g4
(lp77
(dp78
g7
(F0.114
F0.9
F0.0
I5
I72
tp79
sg9
F0.03266501426696777
sg10
I100
sg11
I0
sa(dp80
g7
(F0.059
F0.97
F0.103
I2
I4
tp81
sg9
F6.873645782470703
sg10
I100
sg11
I100
sa(dp82
g7
g64
sg9
F13.698776960372925
sg10
I100
sg11
I200
sa(dp83
g7
(F0.088
F2.407
F0.081
I1
I2
tp84
sg9
F20.550292015075684
sg10
I100
sg11
I300
sa(dp85
g7
(F0.096
F0.968
F0.094
I2
I5
tp86
sg9
F27.353171825408936
sg10
I100
sg11
I400
sa(dp87
g7
(F0.125
F0.884
F0.112
I3
I8
tp88
sg9
F34.17708396911621
sg10
I100
sg11
I500
satp89
Rp90
(dp91
g25
I01
sg26
g31
sg32
(lp92
I3
aI5
aI30
aI9
asg34
I6
sg35
g36
(g3
tp93
Rp94
sbsS'IBEA'
p95
g2
(g3
g4
(lp96
(dp97
g7
(F0.05
F0.93
F0.157
I3
I3
tp98
sg9
F0.019855022430419922
sg10
I100
sg11
I0
sa(dp99
g7
(F0.1
F0.94
F0.09
I2
I4
tp100
sg9
F6.804293870925903
sg10
I100
sg11
I100
sa(dp101
g7
(F0.096
F0.968
F0.094
I2
I2
tp102
sg9
F13.572531938552856
sg10
I100
sg11
I200
sa(dp103
g7
(F0.096
F0.968
F0.094
I2
I6
tp104
sg9
F20.34305691719055
sg10
I100
sg11
I300
sa(dp105
g7
(F0.088
F2.407
F0.081
I1
I2
tp106
sg9
F27.140650033950806
sg10
I100
sg11
I400
sa(dp107
g7
(F0.1
F0.94
F0.09
I2
I6
tp108
sg9
F33.9637348651886
sg10
I100
sg11
I500
satp109
Rp110
(dp111
g25
I01
sg26
g31
sg32
(lp112
I3
aI5
aI30
aI9
asg34
I6
sg35
g36
(g3
tp113
Rp114
sbsS'NSGA2'
p115
g2
(g3
g4
(lp116
(dp117
g7
(F0.07
F0.963
F0.137
I2
I2
tp118
sg9
F0.02074408531188965
sg10
I100
sg11
I0
sa(dp119
g7
g64
sg9
F6.912424087524414
sg10
I100
sg11
I100
sa(dp120
g7
g64
sg9
F13.896632194519043
sg10
I100
sg11
I200
sa(dp121
g7
g64
sg9
F20.811432123184204
sg10
I100
sg11
I300
sa(dp122
g7
(F0.113
F0.963
F0.118
I2
I2
tp123
sg9
F27.68865203857422
sg10
I100
sg11
I400
sa(dp124
g7
(F0.055
F2.5
F0.106
I1
I1
tp125
sg9
F34.67707800865173
sg10
I100
sg11
I500
satp126
Rp127
(dp128
g25
I01
sg26
g31
sg32
(lp129
I3
aI5
aI30
aI9
asg34
I6
sg35
g36
(g3
tp130
Rp131
sbsS'IBEA-SIP'
p132
g2
(g3
g4
(lp133
(dp134
g7
(F0.157
F0.754
F0.076
I13
I59
tp135
sg9
F0.02115797996520996
sg10
I100
sg11
I0
sa(dp136
g7
(F0.149
F0.951
F0.067
I10
I100
tp137
sg9
F6.242837905883789
sg10
I100
sg11
I100
sa(dp138
g7
(F0.152
F0.824
F0.076
I10
I100
tp139
sg9
F12.547921895980835
sg10
I100
sg11
I200
sa(dp140
g7
(F0.148
F0.905
F0.067
I9
I100
tp141
sg9
F18.863165855407715
sg10
I100
sg11
I300
sa(dp142
g7
(F0.134
F0.922
F0.08
I10
I100
tp143
sg9
F25.16705298423767
sg10
I100
sg11
I400
sa(dp144
g7
(F0.137
F0.73
F0.084
I10
I100
tp145
sg9
F31.489787817001343
sg10
I100
sg11
I500
satp146
Rp147
(dp148
g25
I01
sg26
g31
sg32
(lp149
I3
aI5
aI30
aI9
asg34
I6
sg35
g36
(g3
tp150
Rp151
sbs.