(dp0
S'NSGA2-SIP'
p1
ccopy_reg
_reconstructor
p2
(cdeap.tools.support
Logbook
p3
c__builtin__
list
p4
(lp5
(dp6
S'hv|spread|igd|frontier#|valid#'
p7
(F0.146
F0.893
F0.044
I11
I61
tp8
sS'timestamp'
p9
F0.01977705955505371
sS'evals'
p10
I100
sS'gen'
p11
I0
sa(dp12
g7
(F0.157
F0.998
F0.076
I13
I100
tp13
sg9
F2.6400160789489746
sg10
I100
sg11
I100
sa(dp14
g7
(F0.157
F0.815
F0.076
I13
I100
tp15
sg9
F5.276220083236694
sg10
I100
sg11
I200
sa(dp16
g7
(F0.157
F0.998
F0.076
I13
I100
tp17
sg9
F7.893221139907837
sg10
I100
sg11
I300
sa(dp18
g7
(F0.157
F0.815
F0.076
I13
I100
tp19
sg9
F10.537991046905518
sg10
I100
sg11
I400
sa(dp20
g7
(F0.157
F0.827
F0.076
I13
I100
tp21
sg9
F13.135423183441162
sg10
I100
sg11
I500
satp22
Rp23
(dp24
S'log_header'
p25
I01
sS'header'
p26
(S'gen'
p27
S'evals'
p28
S'hv|spread|igd|frontier#|valid#'
p29
S'timestamp'
p30
tp31
sS'columns_len'
p32
(lp33
I3
aI5
aI30
aI9
asS'buffindex'
p34
I6
sS'chapters'
p35
ccollections
defaultdict
p36
(g3
tp37
Rp38
sbsS'SPEA2-SIP'
p39
g2
(g3
g4
(lp40
(dp41
g7
(F0.143
F0.771
F0.08
I13
I63
tp42
sg9
F0.020838022232055664
sg10
I100
sg11
I0
sa(dp43
g7
(F0.157
F0.808
F0.076
I13
I100
tp44
sg9
F168.05669116973877
sg10
I100
sg11
I100
sa(dp45
g7
(F0.157
F0.895
F0.076
I13
I100
tp46
sg9
F337.19856214523315
sg10
I100
sg11
I200
sa(dp47
g7
(F0.157
F0.805
F0.076
I13
I100
tp48
sg9
F506.43884015083313
sg10
I100
sg11
I300
sa(dp49
g7
(F0.157
F0.809
F0.076
I13
I100
tp50
sg9
F675.679113149643
sg10
I100
sg11
I400
sa(dp51
g7
(F0.157
F0.683
F0.076
I13
I100
tp52
sg9
F844.5711870193481
sg10
I100
sg11
I500
satp53
Rp54
(dp55
g25
I01
sg26
g31
sg32
(lp56
I3
aI5
aI30
aI9
asg34
I6
sg35
g36
(g3
tp57
Rp58
sbsS'SPEA2'
p59
g2
(g3
g4
(lp60
(dp61
g7
(F0.114
F0.853
F0.109
I6
I8
tp62
sg9
F0.021384000778198242
sg10
I100
sg11
I0
sa(dp63
g7
(F0.087
F2.236
F0.121
I1
I1
tp64
sg9
F129.32338190078735
sg10
I100
sg11
I100
sa(dp65
g7
(I0
I0
I0
I0
I0
tp66
sg9
F263.55722284317017
sg10
I100
sg11
I200
sa(dp67
g7
g66
sg9
F395.61675000190735
sg10
I100
sg11
I300
sa(dp68
g7
g66
sg9
F526.289960861206
sg10
I100
sg11
I400
sa(dp69
g7
g66
sg9
F659.4397859573364
sg10
I100
sg11
I500
satp70
Rp71
(dp72
g25
I01
sg26
g31
sg32
(lp73
I3
aI5
aI30
aI9
asg34
I6
sg35
g36
(g3
tp74
Rp75
sbsS'IBEA-PEN'
p76
g2
(g3
g4
(lp77
(dp78
g7
(F0.114
F0.899
F0.0
I5
I68
tp79
sg9
F0.03245997428894043
sg10
I100
sg11
I0
sa(dp80
g7
(F0.061
F0.97
F0.103
I2
I5
tp81
sg9
F6.890683889389038
sg10
I100
sg11
I100
sa(dp82
g7
(F0.127
F0.893
F0.108
I4
I9
tp83
sg9
F13.716379880905151
sg10
I100
sg11
I200
sa(dp84
g7
(F0.1
F0.94
F0.09
I2
I2
tp85
sg9
F20.55140995979309
sg10
I100
sg11
I300
sa(dp86
g7
(F0.088
F2.407
F0.081
I1
I2
tp87
sg9
F27.405460834503174
sg10
I100
sg11
I400
sa(dp88
g7
(F0.125
F0.884
F0.112
I3
I3
tp89
sg9
F34.213042974472046
sg10
I100
sg11
I500
satp90
Rp91
(dp92
g25
I01
sg26
g31
sg32
(lp93
I3
aI5
aI30
aI9
asg34
I6
sg35
g36
(g3
tp94
Rp95
sbsS'IBEA'
p96
g2
(g3
g4
(lp97
(dp98
g7
(F0.074
F1.0
F0.122
I3
I3
tp99
sg9
F0.020130157470703125
sg10
I100
sg11
I0
sa(dp100
g7
g66
sg9
F6.704970121383667
sg10
I100
sg11
I100
sa(dp101
g7
(F0.098
F0.968
F0.094
I2
I3
tp102
sg9
F13.484730005264282
sg10
I100
sg11
I200
sa(dp103
g7
(F0.113
F0.963
F0.118
I2
I2
tp104
sg9
F20.228441953659058
sg10
I100
sg11
I300
sa(dp105
g7
(F0.055
F2.5
F0.106
I1
I1
tp106
sg9
F27.02851414680481
sg10
I100
sg11
I400
sa(dp107
g7
(F0.037
F2.599
F0.099
I1
I1
tp108
sg9
F33.799185037612915
sg10
I100
sg11
I500
satp109
Rp110
(dp111
g25
I01
sg26
g31
sg32
(lp112
I3
aI5
aI30
aI9
asg34
I6
sg35
g36
(g3
tp113
Rp114
sbsS'NSGA2'
p115
g2
(g3
g4
(lp116
(dp117
g7
(F0.097
F0.971
F0.123
I4
I6
tp118
sg9
F0.0201568603515625
sg10
I100
sg11
I0
sa(dp119
g7
(F0.107
F0.963
F0.11
I2
I2
tp120
sg9
F6.94557785987854
sg10
I100
sg11
I100
sa(dp121
g7
(F0.055
F2.5
F0.106
I1
I1
tp122
sg9
F13.781614065170288
sg10
I100
sg11
I200
sa(dp123
g7
g66
sg9
F20.631778955459595
sg10
I100
sg11
I300
sa(dp124
g7
g66
sg9
F27.564225912094116
sg10
I100
sg11
I400
sa(dp125
g7
g66
sg9
F34.458993911743164
sg10
I100
sg11
I500
satp126
Rp127
(dp128
g25
I01
sg26
g31
sg32
(lp129
I3
aI5
aI30
aI9
asg34
I6
sg35
g36
(g3
tp130
Rp131
sbsS'IBEA-SIP'
p132
g2
(g3
g4
(lp133
(dp134
g7
(F0.143
F0.677
F0.097
I15
I59
tp135
sg9
F0.02199387550354004
sg10
I100
sg11
I0
sa(dp136
g7
(F0.143
F0.957
F0.091
I10
I100
tp137
sg9
F6.13878607749939
sg10
I100
sg11
I100
sa(dp138
g7
(F0.137
F0.817
F0.101
I9
I100
tp139
sg9
F12.35548996925354
sg10
I100
sg11
I200
sa(dp140
g7
(F0.157
F0.867
F0.082
I12
I100
tp141
sg9
F18.56534194946289
sg10
I100
sg11
I300
sa(dp142
g7
(F0.157
F0.685
F0.099
I10
I100
tp143
sg9
F24.768894910812378
sg10
I100
sg11
I400
sa(dp144
g7
(F0.151
F0.947
F0.071
I10
I100
tp145
sg9
F31.01833486557007
sg10
I100
sg11
I500
satp146
Rp147
(dp148
g25
I01
sg26
g31
sg32
(lp149
I3
aI5
aI30
aI9
asg34
I6
sg35
g36
(g3
tp150
Rp151
sbs.