(dp0
S'NSGA2-SIP'
p1
ccopy_reg
_reconstructor
p2
(cdeap.tools.support
Logbook
p3
c__builtin__
list
p4
(lp5
(dp6
S'hv|spread|igd|frontier#|valid#'
p7
(F0.145
F0.77
F0.087
I13
I48
tp8
sS'timestamp'
p9
F0.017203092575073242
sS'evals'
p10
I100
sS'gen'
p11
I0
sa(dp12
g7
(F0.157
F0.805
F0.076
I13
I100
tp13
sg9
F2.2920491695404053
sg10
I100
sg11
I100
sa(dp14
g7
(F0.157
F0.895
F0.076
I13
I100
tp15
sg9
F4.415335178375244
sg10
I100
sg11
I200
sa(dp16
g7
(F0.157
F0.809
F0.076
I13
I100
tp17
sg9
F6.54229998588562
sg10
I100
sg11
I300
sa(dp18
g7
(F0.157
F0.99
F0.076
I13
I100
tp19
sg9
F8.664414167404175
sg10
I100
sg11
I400
sa(dp20
g7
(F0.157
F0.811
F0.076
I13
I100
tp21
sg9
F10.7867910861969
sg10
I100
sg11
I500
satp22
Rp23
(dp24
S'log_header'
p25
I01
sS'header'
p26
(S'gen'
p27
S'evals'
p28
S'hv|spread|igd|frontier#|valid#'
p29
S'timestamp'
p30
tp31
sS'columns_len'
p32
(lp33
I3
aI5
aI30
aI9
asS'buffindex'
p34
I6
sS'chapters'
p35
ccollections
defaultdict
p36
(g3
tp37
Rp38
sbsS'SPEA2-SIP'
p39
g2
(g3
g4
(lp40
(dp41
g7
(F0.15
F0.622
F0.082
I14
I63
tp42
sg9
F0.020598888397216797
sg10
I100
sg11
I0
sa(dp43
g7
(F0.157
F0.895
F0.076
I13
I100
tp44
sg9
F139.71520686149597
sg10
I100
sg11
I100
sa(dp45
g7
(F0.157
F0.904
F0.076
I13
I100
tp46
sg9
F283.04350686073303
sg10
I100
sg11
I200
sa(dp47
g7
(F0.157
F0.895
F0.076
I13
I100
tp48
sg9
F427.3131868839264
sg10
I100
sg11
I300
sa(dp49
g7
(F0.157
F0.867
F0.076
I13
I100
tp50
sg9
F571.5484728813171
sg10
I100
sg11
I400
sa(dp51
g7
(F0.157
F0.805
F0.076
I13
I100
tp52
sg9
F713.3634009361267
sg10
I100
sg11
I500
satp53
Rp54
(dp55
g25
I01
sg26
g31
sg32
(lp56
I3
aI5
aI30
aI9
asg34
I6
sg35
g36
(g3
tp57
Rp58
sbsS'SPEA2'
p59
g2
(g3
g4
(lp60
(dp61
g7
(F0.087
F0.818
F0.063
I4
I6
tp62
sg9
F0.01718306541442871
sg10
I100
sg11
I0
sa(dp63
g7
(I0
I0
I0
I0
I0
tp64
sg9
F113.88941097259521
sg10
I100
sg11
I100
sa(dp65
g7
g64
sg9
F228.902498960495
sg10
I100
sg11
I200
sa(dp66
g7
g64
sg9
F342.12567806243896
sg10
I100
sg11
I300
sa(dp67
g7
g64
sg9
F453.81858587265015
sg10
I100
sg11
I400
sa(dp68
g7
g64
sg9
F565.40669298172
sg10
I100
sg11
I500
satp69
Rp70
(dp71
g25
I01
sg26
g31
sg32
(lp72
I3
aI5
aI30
aI9
asg34
I6
sg35
g36
(g3
tp73
Rp74
sbsS'IBEA-PEN'
p75
g2
(g3
g4
(lp76
(dp77
g7
(F0.111
F0.9
F0.006
I5
I65
tp78
sg9
F0.02778005599975586
sg10
I100
sg11
I0
sa(dp79
g7
(F0.1
F0.94
F0.09
I2
I5
tp80
sg9
F6.247502088546753
sg10
I100
sg11
I100
sa(dp81
g7
g64
sg9
F12.234039068222046
sg10
I100
sg11
I200
sa(dp82
g7
(F0.037
F2.599
F0.099
I1
I1
tp83
sg9
F18.198893070220947
sg10
I100
sg11
I300
sa(dp84
g7
(F0.124
F0.913
F0.106
I4
I10
tp85
sg9
F24.18735098838806
sg10
I100
sg11
I400
sa(dp86
g7
(F0.088
F2.407
F0.081
I1
I3
tp87
sg9
F30.159188985824585
sg10
I100
sg11
I500
satp88
Rp89
(dp90
g25
I01
sg26
g31
sg32
(lp91
I3
aI5
aI30
aI9
asg34
I6
sg35
g36
(g3
tp92
Rp93
sbsS'IBEA'
p94
g2
(g3
g4
(lp95
(dp96
g7
(F0.105
F0.87
F0.096
I6
I6
tp97
sg9
F0.018558025360107422
sg10
I100
sg11
I0
sa(dp98
g7
(F0.037
F2.599
F0.099
I1
I2
tp99
sg9
F6.078584909439087
sg10
I100
sg11
I100
sa(dp100
g7
(F0.088
F2.407
F0.081
I1
I2
tp101
sg9
F11.984717845916748
sg10
I100
sg11
I200
sa(dp102
g7
(F0.104
F0.943
F0.096
I3
I4
tp103
sg9
F17.893332958221436
sg10
I100
sg11
I300
sa(dp104
g7
(F0.037
F2.599
F0.099
I1
I1
tp105
sg9
F23.802737951278687
sg10
I100
sg11
I400
sa(dp106
g7
g64
sg9
F29.701602935791016
sg10
I100
sg11
I500
satp107
Rp108
(dp109
g25
I01
sg26
g31
sg32
(lp110
I3
aI5
aI30
aI9
asg34
I6
sg35
g36
(g3
tp111
Rp112
sbsS'NSGA2'
p113
g2
(g3
g4
(lp114
(dp115
g7
(F0.115
F0.89
F0.096
I5
I6
tp116
sg9
F0.017447948455810547
sg10
I100
sg11
I0
sa(dp117
g7
(F0.084
F2.312
F0.139
I1
I1
tp118
sg9
F5.539642095565796
sg10
I100
sg11
I100
sa(dp119
g7
g64
sg9
F10.91571307182312
sg10
I100
sg11
I200
sa(dp120
g7
g64
sg9
F16.340569019317627
sg10
I100
sg11
I300
sa(dp121
g7
g64
sg9
F21.766870975494385
sg10
I100
sg11
I400
sa(dp122
g7
g64
sg9
F27.16389012336731
sg10
I100
sg11
I500
satp123
Rp124
(dp125
g25
I01
sg26
g31
sg32
(lp126
I3
aI5
aI30
aI9
asg34
I6
sg35
g36
(g3
tp127
Rp128
sbsS'IBEA-SIP'
p129
g2
(g3
g4
(lp130
(dp131
g7
(F0.153
F0.635
F0.078
I14
I52
tp132
sg9
F0.017938852310180664
sg10
I100
sg11
I0
sa(dp133
g7
(F0.139
F0.753
F0.091
I10
I100
tp134
sg9
F5.5562050342559814
sg10
I100
sg11
I100
sa(dp135
g7
(F0.149
F0.939
F0.06
I10
I100
tp136
sg9
F11.054111003875732
sg10
I100
sg11
I200
sa(dp137
g7
(F0.149
F0.833
F0.091
I10
I100
tp138
sg9
F16.511526823043823
sg10
I100
sg11
I300
sa(dp139
g7
(F0.151
F1.004
F0.084
I9
I100
tp140
sg9
F21.90870189666748
sg10
I100
sg11
I400
sa(dp141
g7
(F0.143
F0.92
F0.058
I12
I100
tp142
sg9
F27.316890001296997
sg10
I100
sg11
I500
satp143
Rp144
(dp145
g25
I01
sg26
g31
sg32
(lp146
I3
aI5
aI30
aI9
asg34
I6
sg35
g36
(g3
tp147
Rp148
sbs.