(dp0
S'NSGA2-SIP'
p1
ccopy_reg
_reconstructor
p2
(cdeap.tools.support
Logbook
p3
c__builtin__
list
p4
(lp5
(dp6
S'hv|spread|igd|frontier#|valid#'
p7
(F0.138
F0.795
F0.065
I11
I54
tp8
sS'timestamp'
p9
F0.0159609317779541
sS'evals'
p10
I100
sS'gen'
p11
I0
sa(dp12
g7
(F0.157
F0.837
F0.076
I13
I100
tp13
sg9
F2.163490056991577
sg10
I100
sg11
I100
sa(dp14
g7
(F0.157
F0.86
F0.076
I13
I100
tp15
sg9
F4.3212549686431885
sg10
I100
sg11
I200
sa(dp16
g7
(F0.157
F0.895
F0.076
I13
I100
tp17
sg9
F6.557034969329834
sg10
I100
sg11
I300
sa(dp18
g7
(F0.157
F0.933
F0.076
I13
I100
tp19
sg9
F8.79116702079773
sg10
I100
sg11
I400
sa(dp20
g7
(F0.157
F0.809
F0.076
I13
I100
tp21
sg9
F11.02515697479248
sg10
I100
sg11
I500
satp22
Rp23
(dp24
S'log_header'
p25
I01
sS'header'
p26
(S'gen'
p27
S'evals'
p28
S'hv|spread|igd|frontier#|valid#'
p29
S'timestamp'
p30
tp31
sS'columns_len'
p32
(lp33
I3
aI5
aI30
aI9
asS'buffindex'
p34
I6
sS'chapters'
p35
ccollections
defaultdict
p36
(g3
tp37
Rp38
sbsS'SPEA2-SIP'
p39
g2
(g3
g4
(lp40
(dp41
g7
(F0.155
F0.801
F0.078
I11
I62
tp42
sg9
F0.017113208770751953
sg10
I100
sg11
I0
sa(dp43
g7
(F0.157
F0.947
F0.076
I13
I100
tp44
sg9
F147.87157320976257
sg10
I100
sg11
I100
sa(dp45
g7
(F0.157
F0.904
F0.076
I13
I100
tp46
sg9
F298.172336101532
sg10
I100
sg11
I200
sa(dp47
g7
(F0.157
F0.817
F0.076
I13
I100
tp48
sg9
F447.44916319847107
sg10
I100
sg11
I300
sa(dp49
g7
(F0.157
F0.81
F0.076
I13
I100
tp50
sg9
F596.3303802013397
sg10
I100
sg11
I400
sa(dp51
g7
(F0.157
F0.86
F0.076
I13
I100
tp52
sg9
F749.072674036026
sg10
I100
sg11
I500
satp53
Rp54
(dp55
g25
I01
sg26
g31
sg32
(lp56
I3
aI5
aI30
aI9
asg34
I6
sg35
g36
(g3
tp57
Rp58
sbsS'SPEA2'
p59
g2
(g3
g4
(lp60
(dp61
g7
(F0.097
F0.905
F0.118
I2
I5
tp62
sg9
F0.015971899032592773
sg10
I100
sg11
I0
sa(dp63
g7
(I0
I0
I0
I0
I0
tp64
sg9
F115.77645301818848
sg10
I100
sg11
I100
sa(dp65
g7
g64
sg9
F233.03894090652466
sg10
I100
sg11
I200
sa(dp66
g7
g64
sg9
F350.22829699516296
sg10
I100
sg11
I300
sa(dp67
g7
g64
sg9
F467.6333420276642
sg10
I100
sg11
I400
sa(dp68
g7
(F0.087
F2.236
F0.121
I1
I1
tp69
sg9
F583.8771569728851
sg10
I100
sg11
I500
satp70
Rp71
(dp72
g25
I01
sg26
g31
sg32
(lp73
I3
aI5
aI30
aI9
asg34
I6
sg35
g36
(g3
tp74
Rp75
sbsS'IBEA-PEN'
p76
g2
(g3
g4
(lp77
(dp78
g7
(F0.114
F0.824
F0.0
I5
I71
tp79
sg9
F0.021785974502563477
sg10
I100
sg11
I0
sa(dp80
g7
(F0.153
F0.711
F0.079
I10
I65
tp81
sg9
F6.30902886390686
sg10
I100
sg11
I100
sa(dp82
g7
(F0.156
F0.729
F0.08
I11
I53
tp83
sg9
F12.643136978149414
sg10
I100
sg11
I200
sa(dp84
g7
(F0.138
F0.808
F0.122
I6
I52
tp85
sg9
F18.919377088546753
sg10
I100
sg11
I300
sa(dp86
g7
(F0.149
F0.854
F0.093
I7
I62
tp87
sg9
F25.060797929763794
sg10
I100
sg11
I400
sa(dp88
g7
(F0.142
F0.982
F0.084
I11
I52
tp89
sg9
F31.391812086105347
sg10
I100
sg11
I500
satp90
Rp91
(dp92
g25
I01
sg26
g31
sg32
(lp93
I3
aI5
aI30
aI9
asg34
I6
sg35
g36
(g3
tp94
Rp95
sbsS'IBEA'
p96
g2
(g3
g4
(lp97
(dp98
g7
(F0.05
F0.932
F0.106
I2
I2
tp99
sg9
F0.016093015670776367
sg10
I100
sg11
I0
sa(dp100
g7
(F0.1
F0.94
F0.09
I2
I2
tp101
sg9
F6.173891067504883
sg10
I100
sg11
I100
sa(dp102
g7
(F0.092
F2.312
F0.154
I1
I1
tp103
sg9
F12.391491174697876
sg10
I100
sg11
I200
sa(dp104
g7
(F0.088
F2.407
F0.081
I1
I5
tp105
sg9
F18.61426305770874
sg10
I100
sg11
I300
sa(dp106
g7
(F0.1
F0.94
F0.09
I2
I3
tp107
sg9
F24.858004093170166
sg10
I100
sg11
I400
sa(dp108
g7
g64
sg9
F31.07842707633972
sg10
I100
sg11
I500
satp109
Rp110
(dp111
g25
I01
sg26
g31
sg32
(lp112
I3
aI5
aI30
aI9
asg34
I6
sg35
g36
(g3
tp113
Rp114
sbsS'NSGA2'
p115
g2
(g3
g4
(lp116
(dp117
g7
(F0.081
F0.933
F0.205
I3
I3
tp118
sg9
F0.016002893447875977
sg10
I100
sg11
I0
sa(dp119
g7
(F0.088
F2.407
F0.081
I1
I1
tp120
sg9
F5.773124933242798
sg10
I100
sg11
I100
sa(dp121
g7
g64
sg9
F11.495522022247314
sg10
I100
sg11
I200
sa(dp122
g7
g64
sg9
F17.143597841262817
sg10
I100
sg11
I300
sa(dp123
g7
(F0.055
F2.5
F0.106
I1
I1
tp124
sg9
F22.830490827560425
sg10
I100
sg11
I400
sa(dp125
g7
g64
sg9
F28.426666021347046
sg10
I100
sg11
I500
satp126
Rp127
(dp128
g25
I01
sg26
g31
sg32
(lp129
I3
aI5
aI30
aI9
asg34
I6
sg35
g36
(g3
tp130
Rp131
sbsS'IBEA-SIP'
p132
g2
(g3
g4
(lp133
(dp134
g7
(F0.155
F0.669
F0.085
I11
I54
tp135
sg9
F0.016417980194091797
sg10
I100
sg11
I0
sa(dp136
g7
(F0.149
F0.856
F0.056
I10
I100
tp137
sg9
F5.67790412902832
sg10
I100
sg11
I100
sa(dp138
g7
(F0.139
F0.968
F0.08
I10
I100
tp139
sg9
F11.496277093887329
sg10
I100
sg11
I200
sa(dp140
g7
(F0.157
F0.793
F0.099
I10
I100
tp141
sg9
F17.25816798210144
sg10
I100
sg11
I300
sa(dp142
g7
(F0.149
F0.959
F0.061
I11
I100
tp143
sg9
F22.9543559551239
sg10
I100
sg11
I400
sa(dp144
g7
(F0.149
F0.859
F0.06
I10
I100
tp145
sg9
F28.661452054977417
sg10
I100
sg11
I500
satp146
Rp147
(dp148
g25
I01
sg26
g31
sg32
(lp149
I3
aI5
aI30
aI9
asg34
I6
sg35
g36
(g3
tp150
Rp151
sbs.