(dp0
S'NSGA2-SIP'
p1
ccopy_reg
_reconstructor
p2
(cdeap.tools.support
Logbook
p3
c__builtin__
list
p4
(lp5
(dp6
S'hv|spread|igd|frontier#|valid#'
p7
(F0.157
F0.766
F0.085
I12
I57
tp8
sS'timestamp'
p9
F0.019932985305786133
sS'evals'
p10
I100
sS'gen'
p11
I0
sa(dp12
g7
(F0.157
F0.99
F0.076
I13
I100
tp13
sg9
F2.6376519203186035
sg10
I100
sg11
I100
sa(dp14
g7
(F0.157
F0.805
F0.076
I13
I100
tp15
sg9
F5.336992979049683
sg10
I100
sg11
I200
sa(dp16
g7
(F0.157
F0.933
F0.076
I13
I100
tp17
sg9
F8.024301052093506
sg10
I100
sg11
I300
sa(dp18
g7
(F0.157
F0.86
F0.076
I13
I100
tp19
sg9
F10.715460062026978
sg10
I100
sg11
I400
sa(dp20
g7
(F0.157
F0.805
F0.076
I13
I100
tp21
sg9
F13.406280994415283
sg10
I100
sg11
I500
satp22
Rp23
(dp24
S'log_header'
p25
I01
sS'header'
p26
(S'gen'
p27
S'evals'
p28
S'hv|spread|igd|frontier#|valid#'
p29
S'timestamp'
p30
tp31
sS'columns_len'
p32
(lp33
I3
aI5
aI30
aI9
asS'buffindex'
p34
I6
sS'chapters'
p35
ccollections
defaultdict
p36
(g3
tp37
Rp38
sbsS'SPEA2-SIP'
p39
g2
(g3
g4
(lp40
(dp41
g7
(F0.157
F0.809
F0.082
I12
I52
tp42
sg9
F0.020335912704467773
sg10
I100
sg11
I0
sa(dp43
g7
(F0.157
F0.683
F0.076
I13
I100
tp44
sg9
F165.2370970249176
sg10
I100
sg11
I100
sa(dp45
g7
(F0.157
F0.815
F0.076
I13
I100
tp46
sg9
F332.9451069831848
sg10
I100
sg11
I200
sa(dp47
g7
(F0.157
F0.86
F0.076
I13
I100
tp48
sg9
F497.680557012558
sg10
I100
sg11
I300
sa(dp49
g7
(F0.157
F0.808
F0.076
I13
I100
tp50
sg9
F667.0116319656372
sg10
I100
sg11
I400
sa(dp51
g7
(F0.157
F0.99
F0.076
I13
I100
tp52
sg9
F833.6879029273987
sg10
I100
sg11
I500
satp53
Rp54
(dp55
g25
I01
sg26
g31
sg32
(lp56
I3
aI5
aI30
aI9
asg34
I6
sg35
g36
(g3
tp57
Rp58
sbsS'SPEA2'
p59
g2
(g3
g4
(lp60
(dp61
g7
(F0.097
F0.93
F0.149
I3
I5
tp62
sg9
F0.020536184310913086
sg10
I100
sg11
I0
sa(dp63
g7
(I0
I0
I0
I0
I0
tp64
sg9
F148.18154311180115
sg10
I100
sg11
I100
sa(dp65
g7
g64
sg9
F300.91288805007935
sg10
I100
sg11
I200
sa(dp66
g7
g64
sg9
F455.0497691631317
sg10
I100
sg11
I300
sa(dp67
g7
g64
sg9
F608.8012571334839
sg10
I100
sg11
I400
sa(dp68
g7
g64
sg9
F761.9298601150513
sg10
I100
sg11
I500
satp69
Rp70
(dp71
g25
I01
sg26
g31
sg32
(lp72
I3
aI5
aI30
aI9
asg34
I6
sg35
g36
(g3
tp73
Rp74
sbsS'IBEA-PEN'
p75
g2
(g3
g4
(lp76
(dp77
g7
(F0.114
F0.899
F0.0
I5
I61
tp78
sg9
F0.03248000144958496
sg10
I100
sg11
I0
sa(dp79
g7
g64
sg9
F6.855650901794434
sg10
I100
sg11
I100
sa(dp80
g7
(F0.113
F0.963
F0.118
I2
I2
tp81
sg9
F13.720195770263672
sg10
I100
sg11
I200
sa(dp82
g7
(F0.088
F2.407
F0.081
I1
I2
tp83
sg9
F20.565563917160034
sg10
I100
sg11
I300
sa(dp84
g7
(F0.092
F2.312
F0.154
I1
I1
tp85
sg9
F27.3578519821167
sg10
I100
sg11
I400
sa(dp86
g7
(F0.054
F0.97
F0.091
I2
I4
tp87
sg9
F34.13936996459961
sg10
I100
sg11
I500
satp88
Rp89
(dp90
g25
I01
sg26
g31
sg32
(lp91
I3
aI5
aI30
aI9
asg34
I6
sg35
g36
(g3
tp92
Rp93
sbsS'IBEA'
p94
g2
(g3
g4
(lp95
(dp96
g7
(F0.055
F1.0
F0.135
I3
I3
tp97
sg9
F0.01996302604675293
sg10
I100
sg11
I0
sa(dp98
g7
(F0.098
F0.968
F0.094
I2
I5
tp99
sg9
F6.858976125717163
sg10
I100
sg11
I100
sa(dp100
g7
g64
sg9
F13.692608118057251
sg10
I100
sg11
I200
sa(dp101
g7
(F0.051
F2.5
F0.106
I1
I1
tp102
sg9
F20.517946004867554
sg10
I100
sg11
I300
sa(dp103
g7
(F0.051
F2.5
F0.106
I1
I1
tp104
sg9
F27.3757221698761
sg10
I100
sg11
I400
sa(dp105
g7
(F0.092
F0.94
F0.081
I2
I2
tp106
sg9
F34.244805097579956
sg10
I100
sg11
I500
satp107
Rp108
(dp109
g25
I01
sg26
g31
sg32
(lp110
I3
aI5
aI30
aI9
asg34
I6
sg35
g36
(g3
tp111
Rp112
sbsS'NSGA2'
p113
g2
(g3
g4
(lp114
(dp115
g7
(F0.076
F0.917
F0.12
I4
I5
tp116
sg9
F0.020713090896606445
sg10
I100
sg11
I0
sa(dp117
g7
(F0.098
F0.968
F0.094
I2
I2
tp118
sg9
F6.834349155426025
sg10
I100
sg11
I100
sa(dp119
g7
g64
sg9
F13.753368139266968
sg10
I100
sg11
I200
sa(dp120
g7
(F0.088
F2.407
F0.081
I1
I1
tp121
sg9
F20.681522130966187
sg10
I100
sg11
I300
sa(dp122
g7
(F0.088
F2.407
F0.081
I1
I1
tp123
sg9
F27.49579906463623
sg10
I100
sg11
I400
sa(dp124
g7
(F0.088
F2.407
F0.081
I1
I1
tp125
sg9
F34.37426018714905
sg10
I100
sg11
I500
satp126
Rp127
(dp128
g25
I01
sg26
g31
sg32
(lp129
I3
aI5
aI30
aI9
asg34
I6
sg35
g36
(g3
tp130
Rp131
sbsS'IBEA-SIP'
p132
g2
(g3
g4
(lp133
(dp134
g7
(F0.149
F0.918
F0.093
I10
I45
tp135
sg9
F0.018611907958984375
sg10
I100
sg11
I0
sa(dp136
g7
(F0.148
F0.794
F0.055
I9
I100
tp137
sg9
F6.184068918228149
sg10
I100
sg11
I100
sa(dp138
g7
(F0.152
F0.922
F0.091
I9
I100
tp139
sg9
F12.468937873840332
sg10
I100
sg11
I200
sa(dp140
g7
(F0.157
F0.881
F0.09
I11
I100
tp141
sg9
F18.754535913467407
sg10
I100
sg11
I300
sa(dp142
g7
(F0.152
F0.767
F0.076
I10
I100
tp143
sg9
F25.043312788009644
sg10
I100
sg11
I400
sa(dp144
g7
(F0.156
F0.743
F0.084
I11
I100
tp145
sg9
F31.30435800552368
sg10
I100
sg11
I500
satp146
Rp147
(dp148
g25
I01
sg26
g31
sg32
(lp149
I3
aI5
aI30
aI9
asg34
I6
sg35
g36
(g3
tp150
Rp151
sbs.