(dp0
S'NSGA2-SIP'
p1
ccopy_reg
_reconstructor
p2
(cdeap.tools.support
Logbook
p3
c__builtin__
list
p4
(lp5
(dp6
S'hv|spread|igd|frontier#|valid#'
p7
(F0.149
F0.822
F0.061
I11
I57
tp8
sS'timestamp'
p9
F0.019443035125732422
sS'evals'
p10
I100
sS'gen'
p11
I0
sa(dp12
g7
(F0.157
F0.834
F0.076
I13
I100
tp13
sg9
F2.607710123062134
sg10
I100
sg11
I100
sa(dp14
g7
(F0.157
F0.817
F0.076
I13
I100
tp15
sg9
F5.247422933578491
sg10
I100
sg11
I200
sa(dp16
g7
(F0.157
F0.815
F0.076
I13
I100
tp17
sg9
F7.816880941390991
sg10
I100
sg11
I300
sa(dp18
g7
(F0.157
F0.904
F0.076
I13
I100
tp19
sg9
F10.458712100982666
sg10
I100
sg11
I400
sa(dp20
g7
(F0.157
F0.824
F0.076
I13
I100
tp21
sg9
F13.064756155014038
sg10
I100
sg11
I500
satp22
Rp23
(dp24
S'log_header'
p25
I01
sS'header'
p26
(S'gen'
p27
S'evals'
p28
S'hv|spread|igd|frontier#|valid#'
p29
S'timestamp'
p30
tp31
sS'columns_len'
p32
(lp33
I3
aI5
aI30
aI9
asS'buffindex'
p34
I6
sS'chapters'
p35
ccollections
defaultdict
p36
(g3
tp37
Rp38
sbsS'SPEA2-SIP'
p39
g2
(g3
g4
(lp40
(dp41
g7
(F0.143
F0.831
F0.062
I13
I57
tp42
sg9
F0.020582914352416992
sg10
I100
sg11
I0
sa(dp43
g7
(F0.157
F0.642
F0.076
I13
I100
tp44
sg9
F161.39320993423462
sg10
I100
sg11
I100
sa(dp45
g7
(F0.157
F0.817
F0.076
I13
I100
tp46
sg9
F327.2677698135376
sg10
I100
sg11
I200
sa(dp47
g7
(F0.157
F0.726
F0.076
I13
I100
tp48
sg9
F493.74800395965576
sg10
I100
sg11
I300
sa(dp49
g7
(F0.157
F0.904
F0.076
I13
I100
tp50
sg9
F662.0095608234406
sg10
I100
sg11
I400
sa(dp51
g7
(F0.157
F0.817
F0.076
I13
I100
tp52
sg9
F828.5521428585052
sg10
I100
sg11
I500
satp53
Rp54
(dp55
g25
I01
sg26
g31
sg32
(lp56
I3
aI5
aI30
aI9
asg34
I6
sg35
g36
(g3
tp57
Rp58
sbsS'SPEA2'
p59
g2
(g3
g4
(lp60
(dp61
g7
(F0.106
F0.891
F0.101
I5
I7
tp62
sg9
F0.020233869552612305
sg10
I100
sg11
I0
sa(dp63
g7
(I0
I0
I0
I0
I0
tp64
sg9
F127.85974979400635
sg10
I100
sg11
I100
sa(dp65
g7
g64
sg9
F259.2945318222046
sg10
I100
sg11
I200
sa(dp66
g7
g64
sg9
F392.0446879863739
sg10
I100
sg11
I300
sa(dp67
g7
g64
sg9
F523.8235838413239
sg10
I100
sg11
I400
sa(dp68
g7
g64
sg9
F655.8194608688354
sg10
I100
sg11
I500
satp69
Rp70
(dp71
g25
I01
sg26
g31
sg32
(lp72
I3
aI5
aI30
aI9
asg34
I6
sg35
g36
(g3
tp73
Rp74
sbsS'IBEA-PEN'
p75
g2
(g3
g4
(lp76
(dp77
g7
(F0.114
F0.9
F0.0
I5
I55
tp78
sg9
F0.032135963439941406
sg10
I100
sg11
I0
sa(dp79
g7
(F0.102
F0.943
F0.08
I3
I5
tp80
sg9
F6.885111093521118
sg10
I100
sg11
I100
sa(dp81
g7
(F0.059
F0.97
F0.103
I2
I2
tp82
sg9
F13.75598692893982
sg10
I100
sg11
I200
sa(dp83
g7
(F0.1
F0.94
F0.09
I2
I3
tp84
sg9
F20.698668956756592
sg10
I100
sg11
I300
sa(dp85
g7
g64
sg9
F27.609230041503906
sg10
I100
sg11
I400
sa(dp86
g7
(F0.037
F2.599
F0.099
I1
I1
tp87
sg9
F34.47803592681885
sg10
I100
sg11
I500
satp88
Rp89
(dp90
g25
I01
sg26
g31
sg32
(lp91
I3
aI5
aI30
aI9
asg34
I6
sg35
g36
(g3
tp92
Rp93
sbsS'IBEA'
p94
g2
(g3
g4
(lp95
(dp96
g7
(F0.098
F0.812
F0.113
I5
I6
tp97
sg9
F0.02041482925415039
sg10
I100
sg11
I0
sa(dp98
g7
(F0.037
F2.599
F0.099
I1
I3
tp99
sg9
F6.781961917877197
sg10
I100
sg11
I100
sa(dp100
g7
(F0.088
F2.407
F0.081
I1
I2
tp101
sg9
F13.582725048065186
sg10
I100
sg11
I200
sa(dp102
g7
(F0.118
F0.942
F0.12
I3
I4
tp103
sg9
F20.421445846557617
sg10
I100
sg11
I300
sa(dp104
g7
(F0.037
F2.599
F0.099
I1
I2
tp105
sg9
F27.25163984298706
sg10
I100
sg11
I400
sa(dp106
g7
(F0.088
F2.407
F0.081
I1
I2
tp107
sg9
F34.10069394111633
sg10
I100
sg11
I500
satp108
Rp109
(dp110
g25
I01
sg26
g31
sg32
(lp111
I3
aI5
aI30
aI9
asg34
I6
sg35
g36
(g3
tp112
Rp113
sbsS'NSGA2'
p114
g2
(g3
g4
(lp115
(dp116
g7
(F0.102
F0.866
F0.102
I4
I5
tp117
sg9
F0.02004408836364746
sg10
I100
sg11
I0
sa(dp118
g7
g64
sg9
F6.8847129344940186
sg10
I100
sg11
I100
sa(dp119
g7
(F0.098
F0.968
F0.094
I2
I2
tp120
sg9
F13.751135110855103
sg10
I100
sg11
I200
sa(dp121
g7
(F0.092
F2.312
F0.154
I1
I1
tp122
sg9
F20.706033945083618
sg10
I100
sg11
I300
sa(dp123
g7
g64
sg9
F27.635645151138306
sg10
I100
sg11
I400
sa(dp124
g7
g64
sg9
F34.58149814605713
sg10
I100
sg11
I500
satp125
Rp126
(dp127
g25
I01
sg26
g31
sg32
(lp128
I3
aI5
aI30
aI9
asg34
I6
sg35
g36
(g3
tp129
Rp130
sbsS'IBEA-SIP'
p131
g2
(g3
g4
(lp132
(dp133
g7
(F0.157
F0.781
F0.082
I12
I56
tp134
sg9
F0.019958972930908203
sg10
I100
sg11
I0
sa(dp135
g7
(F0.151
F0.789
F0.084
I9
I100
tp136
sg9
F6.252265930175781
sg10
I100
sg11
I100
sa(dp137
g7
(F0.136
F0.777
F0.065
I8
I100
tp138
sg9
F12.596939086914062
sg10
I100
sg11
I200
sa(dp139
g7
(F0.149
F0.956
F0.056
I10
I100
tp140
sg9
F18.920727014541626
sg10
I100
sg11
I300
sa(dp141
g7
(F0.149
F0.867
F0.055
I11
I100
tp142
sg9
F25.280997037887573
sg10
I100
sg11
I400
sa(dp143
g7
(F0.139
F0.834
F0.094
I10
I100
tp144
sg9
F31.615153074264526
sg10
I100
sg11
I500
satp145
Rp146
(dp147
g25
I01
sg26
g31
sg32
(lp148
I3
aI5
aI30
aI9
asg34
I6
sg35
g36
(g3
tp149
Rp150
sbs.