(dp0
S'NSGA2-SIP'
p1
ccopy_reg
_reconstructor
p2
(cdeap.tools.support
Logbook
p3
c__builtin__
list
p4
(lp5
(dp6
S'hv|spread|igd|frontier#|valid#'
p7
(F0.157
F0.754
F0.076
I13
I65
tp8
sS'timestamp'
p9
F0.01861882209777832
sS'evals'
p10
I100
sS'gen'
p11
I0
sa(dp12
g7
(F0.157
F0.998
F0.076
I13
I100
tp13
sg9
F2.282240867614746
sg10
I100
sg11
I100
sa(dp14
g7
(F0.157
F0.81
F0.076
I13
I100
tp15
sg9
F4.574504852294922
sg10
I100
sg11
I200
sa(dp16
g7
(F0.157
F0.867
F0.076
I13
I100
tp17
sg9
F6.83623194694519
sg10
I100
sg11
I300
sa(dp18
g7
(F0.157
F0.933
F0.076
I13
I100
tp19
sg9
F9.067794799804688
sg10
I100
sg11
I400
sa(dp20
g7
(F0.157
F0.867
F0.076
I13
I100
tp21
sg9
F11.30075979232788
sg10
I100
sg11
I500
satp22
Rp23
(dp24
S'log_header'
p25
I01
sS'header'
p26
(S'gen'
p27
S'evals'
p28
S'hv|spread|igd|frontier#|valid#'
p29
S'timestamp'
p30
tp31
sS'columns_len'
p32
(lp33
I3
aI5
aI30
aI9
asS'buffindex'
p34
I6
sS'chapters'
p35
ccollections
defaultdict
p36
(g3
tp37
Rp38
sbsS'SPEA2-SIP'
p39
g2
(g3
g4
(lp40
(dp41
g7
(F0.152
F0.774
F0.083
I11
I58
tp42
sg9
F0.01726508140563965
sg10
I100
sg11
I0
sa(dp43
g7
(F0.157
F0.734
F0.076
I13
I100
tp44
sg9
F155.74506616592407
sg10
I100
sg11
I100
sa(dp45
g7
(F0.157
F0.827
F0.076
I13
I100
tp46
sg9
F312.27234506607056
sg10
I100
sg11
I200
sa(dp47
g7
(F0.157
F0.947
F0.076
I13
I100
tp48
sg9
F472.4835259914398
sg10
I100
sg11
I300
sa(dp49
g7
(F0.157
F0.815
F0.076
I13
I100
tp50
sg9
F630.8314139842987
sg10
I100
sg11
I400
sa(dp51
g7
(F0.157
F0.808
F0.076
I13
I100
tp52
sg9
F787.9476180076599
sg10
I100
sg11
I500
satp53
Rp54
(dp55
g25
I01
sg26
g31
sg32
(lp56
I3
aI5
aI30
aI9
asg34
I6
sg35
g36
(g3
tp57
Rp58
sbsS'SPEA2'
p59
g2
(g3
g4
(lp60
(dp61
g7
(F0.081
F0.968
F0.103
I4
I5
tp62
sg9
F0.016933917999267578
sg10
I100
sg11
I0
sa(dp63
g7
(I0
I0
I0
I0
I0
tp64
sg9
F125.38087105751038
sg10
I100
sg11
I100
sa(dp65
g7
g64
sg9
F251.01539087295532
sg10
I100
sg11
I200
sa(dp66
g7
g64
sg9
F372.9376120567322
sg10
I100
sg11
I300
sa(dp67
g7
g64
sg9
F495.68880105018616
sg10
I100
sg11
I400
sa(dp68
g7
(F0.087
F2.236
F0.121
I1
I1
tp69
sg9
F618.8037250041962
sg10
I100
sg11
I500
satp70
Rp71
(dp72
g25
I01
sg26
g31
sg32
(lp73
I3
aI5
aI30
aI9
asg34
I6
sg35
g36
(g3
tp74
Rp75
sbsS'IBEA-PEN'
p76
g2
(g3
g4
(lp77
(dp78
g7
(F0.114
F0.824
F0.0
I5
I67
tp79
sg9
F0.03354907035827637
sg10
I100
sg11
I0
sa(dp80
g7
(F0.143
F0.843
F0.055
I7
I54
tp81
sg9
F6.278116941452026
sg10
I100
sg11
I100
sa(dp82
g7
(F0.156
F0.793
F0.098
I9
I52
tp83
sg9
F12.560182094573975
sg10
I100
sg11
I200
sa(dp84
g7
(F0.142
F0.895
F0.067
I11
I62
tp85
sg9
F18.863733053207397
sg10
I100
sg11
I300
sa(dp86
g7
(F0.153
F0.749
F0.089
I8
I67
tp87
sg9
F25.143717050552368
sg10
I100
sg11
I400
sa(dp88
g7
(F0.157
F0.845
F0.09
I11
I60
tp89
sg9
F31.4353609085083
sg10
I100
sg11
I500
satp90
Rp91
(dp92
g25
I01
sg26
g31
sg32
(lp93
I3
aI5
aI30
aI9
asg34
I6
sg35
g36
(g3
tp94
Rp95
sbsS'IBEA'
p96
g2
(g3
g4
(lp97
(dp98
g7
(F0.072
F0.941
F0.171
I3
I3
tp99
sg9
F0.016169071197509766
sg10
I100
sg11
I0
sa(dp100
g7
(F0.088
F2.407
F0.081
I1
I3
tp101
sg9
F6.131416082382202
sg10
I100
sg11
I100
sa(dp102
g7
(F0.088
F2.407
F0.081
I1
I1
tp103
sg9
F12.314910173416138
sg10
I100
sg11
I200
sa(dp104
g7
(F0.13
F0.891
F0.11
I4
I7
tp105
sg9
F18.635210037231445
sg10
I100
sg11
I300
sa(dp106
g7
(F0.037
F2.599
F0.099
I1
I2
tp107
sg9
F25.162269115447998
sg10
I100
sg11
I400
sa(dp108
g7
(F0.037
F2.599
F0.099
I1
I4
tp109
sg9
F31.682942152023315
sg10
I100
sg11
I500
satp110
Rp111
(dp112
g25
I01
sg26
g31
sg32
(lp113
I3
aI5
aI30
aI9
asg34
I6
sg35
g36
(g3
tp114
Rp115
sbsS'NSGA2'
p116
g2
(g3
g4
(lp117
(dp118
g7
(F0.103
F0.963
F0.111
I2
I3
tp119
sg9
F0.016754150390625
sg10
I100
sg11
I0
sa(dp120
g7
(F0.055
F2.5
F0.106
I1
I1
tp121
sg9
F5.781785011291504
sg10
I100
sg11
I100
sa(dp122
g7
g64
sg9
F11.731575965881348
sg10
I100
sg11
I200
sa(dp123
g7
g64
sg9
F17.705584049224854
sg10
I100
sg11
I300
sa(dp124
g7
(F0.092
F2.312
F0.154
I1
I1
tp125
sg9
F23.643840074539185
sg10
I100
sg11
I400
sa(dp126
g7
g64
sg9
F29.608850955963135
sg10
I100
sg11
I500
satp127
Rp128
(dp129
g25
I01
sg26
g31
sg32
(lp130
I3
aI5
aI30
aI9
asg34
I6
sg35
g36
(g3
tp131
Rp132
sbsS'IBEA-SIP'
p133
g2
(g3
g4
(lp134
(dp135
g7
(F0.156
F0.706
F0.084
I12
I65
tp136
sg9
F0.017925024032592773
sg10
I100
sg11
I0
sa(dp137
g7
(F0.137
F0.789
F0.086
I9
I100
tp138
sg9
F5.935462951660156
sg10
I100
sg11
I100
sa(dp139
g7
(F0.154
F0.985
F0.086
I10
I100
tp140
sg9
F11.948683023452759
sg10
I100
sg11
I200
sa(dp141
g7
(F0.137
F0.937
F0.101
I8
I100
tp142
sg9
F18.01756501197815
sg10
I100
sg11
I300
sa(dp143
g7
(F0.15
F0.833
F0.056
I12
I100
tp144
sg9
F23.841063022613525
sg10
I100
sg11
I400
sa(dp145
g7
(F0.143
F0.738
F0.091
I10
I100
tp146
sg9
F29.91620111465454
sg10
I100
sg11
I500
satp147
Rp148
(dp149
g25
I01
sg26
g31
sg32
(lp150
I3
aI5
aI30
aI9
asg34
I6
sg35
g36
(g3
tp151
Rp152
sbs.