(dp0
S'NSGA2-SIP'
p1
ccopy_reg
_reconstructor
p2
(cdeap.tools.support
Logbook
p3
c__builtin__
list
p4
(lp5
(dp6
S'hv|spread|igd|frontier#|valid#'
p7
(F0.157
F0.754
F0.076
I13
I56
tp8
sS'timestamp'
p9
F0.017453908920288086
sS'evals'
p10
I100
sS'gen'
p11
I0
sa(dp12
g7
(F0.157
F0.815
F0.076
I13
I100
tp13
sg9
F2.2829620838165283
sg10
I100
sg11
I100
sa(dp14
g7
(F0.157
F0.808
F0.076
I13
I100
tp15
sg9
F4.538646936416626
sg10
I100
sg11
I200
sa(dp16
g7
(F0.157
F0.668
F0.076
I13
I100
tp17
sg9
F6.849433898925781
sg10
I100
sg11
I300
sa(dp18
g7
(F0.157
F0.808
F0.076
I13
I100
tp19
sg9
F9.190558910369873
sg10
I100
sg11
I400
sa(dp20
g7
(F0.157
F0.895
F0.076
I13
I100
tp21
sg9
F11.540908098220825
sg10
I100
sg11
I500
satp22
Rp23
(dp24
S'log_header'
p25
I01
sS'header'
p26
(S'gen'
p27
S'evals'
p28
S'hv|spread|igd|frontier#|valid#'
p29
S'timestamp'
p30
tp31
sS'columns_len'
p32
(lp33
I3
aI5
aI30
aI9
asS'buffindex'
p34
I6
sS'chapters'
p35
ccollections
defaultdict
p36
(g3
tp37
Rp38
sbsS'SPEA2-SIP'
p39
g2
(g3
g4
(lp40
(dp41
g7
(F0.135
F0.852
F0.066
I11
I54
tp42
sg9
F0.01709890365600586
sg10
I100
sg11
I0
sa(dp43
g7
(F0.157
F0.834
F0.076
I13
I100
tp44
sg9
F157.04488492012024
sg10
I100
sg11
I100
sa(dp45
g7
(F0.157
F0.904
F0.076
I13
I100
tp46
sg9
F316.75607204437256
sg10
I100
sg11
I200
sa(dp47
g7
(F0.157
F0.895
F0.076
I13
I100
tp48
sg9
F474.17404890060425
sg10
I100
sg11
I300
sa(dp49
g7
(F0.157
F0.904
F0.076
I13
I100
tp50
sg9
F634.7287838459015
sg10
I100
sg11
I400
sa(dp51
g7
(F0.157
F0.998
F0.076
I13
I100
tp52
sg9
F794.7357308864594
sg10
I100
sg11
I500
satp53
Rp54
(dp55
g25
I01
sg26
g31
sg32
(lp56
I3
aI5
aI30
aI9
asg34
I6
sg35
g36
(g3
tp57
Rp58
sbsS'SPEA2'
p59
g2
(g3
g4
(lp60
(dp61
g7
(F0.071
F0.934
F0.056
I2
I2
tp62
sg9
F0.016970157623291016
sg10
I100
sg11
I0
sa(dp63
g7
(I0
I0
I0
I0
I0
tp64
sg9
F121.55144500732422
sg10
I100
sg11
I100
sa(dp65
g7
g64
sg9
F242.19836711883545
sg10
I100
sg11
I200
sa(dp66
g7
g64
sg9
F366.86403703689575
sg10
I100
sg11
I300
sa(dp67
g7
g64
sg9
F491.66574597358704
sg10
I100
sg11
I400
sa(dp68
g7
g64
sg9
F615.6536691188812
sg10
I100
sg11
I500
satp69
Rp70
(dp71
g25
I01
sg26
g31
sg32
(lp72
I3
aI5
aI30
aI9
asg34
I6
sg35
g36
(g3
tp73
Rp74
sbsS'IBEA-PEN'
p75
g2
(g3
g4
(lp76
(dp77
g7
(F0.114
F0.824
F0.0
I5
I65
tp78
sg9
F0.02281785011291504
sg10
I100
sg11
I0
sa(dp79
g7
(F0.142
F0.765
F0.053
I7
I51
tp80
sg9
F6.669881820678711
sg10
I100
sg11
I100
sa(dp81
g7
(F0.141
F0.841
F0.113
I8
I35
tp82
sg9
F13.36395788192749
sg10
I100
sg11
I200
sa(dp83
g7
(F0.144
F1.019
F0.052
I9
I76
tp84
sg9
F20.045581817626953
sg10
I100
sg11
I300
sa(dp85
g7
(F0.13
F0.79
F0.057
I9
I44
tp86
sg9
F26.75061798095703
sg10
I100
sg11
I400
sa(dp87
g7
(F0.141
F0.666
F0.082
I9
I67
tp88
sg9
F33.52637195587158
sg10
I100
sg11
I500
satp89
Rp90
(dp91
g25
I01
sg26
g31
sg32
(lp92
I3
aI5
aI30
aI9
asg34
I6
sg35
g36
(g3
tp93
Rp94
sbsS'IBEA'
p95
g2
(g3
g4
(lp96
(dp97
g7
(F0.062
F0.902
F0.125
I2
I2
tp98
sg9
F0.017406940460205078
sg10
I100
sg11
I0
sa(dp99
g7
(F0.088
F2.407
F0.081
I1
I1
tp100
sg9
F6.631624937057495
sg10
I100
sg11
I100
sa(dp101
g7
(F0.1
F0.94
F0.09
I2
I3
tp102
sg9
F13.277379035949707
sg10
I100
sg11
I200
sa(dp103
g7
(F0.047
F2.5
F0.083
I1
I1
tp104
sg9
F20.00453209877014
sg10
I100
sg11
I300
sa(dp105
g7
g64
sg9
F26.721739053726196
sg10
I100
sg11
I400
sa(dp106
g7
(F0.059
F0.97
F0.103
I2
I2
tp107
sg9
F33.44933795928955
sg10
I100
sg11
I500
satp108
Rp109
(dp110
g25
I01
sg26
g31
sg32
(lp111
I3
aI5
aI30
aI9
asg34
I6
sg35
g36
(g3
tp112
Rp113
sbsS'NSGA2'
p114
g2
(g3
g4
(lp115
(dp116
g7
(F0.091
F0.963
F0.094
I2
I2
tp117
sg9
F0.01706099510192871
sg10
I100
sg11
I0
sa(dp118
g7
g64
sg9
F5.886368989944458
sg10
I100
sg11
I100
sa(dp119
g7
g64
sg9
F11.854557037353516
sg10
I100
sg11
I200
sa(dp120
g7
g64
sg9
F17.798507928848267
sg10
I100
sg11
I300
sa(dp121
g7
(F0.092
F2.312
F0.154
I1
I1
tp122
sg9
F23.803010940551758
sg10
I100
sg11
I400
sa(dp123
g7
g64
sg9
F29.819793939590454
sg10
I100
sg11
I500
satp124
Rp125
(dp126
g25
I01
sg26
g31
sg32
(lp127
I3
aI5
aI30
aI9
asg34
I6
sg35
g36
(g3
tp128
Rp129
sbsS'IBEA-SIP'
p130
g2
(g3
g4
(lp131
(dp132
g7
(F0.143
F0.831
F0.062
I13
I59
tp133
sg9
F0.018229007720947266
sg10
I100
sg11
I0
sa(dp134
g7
(F0.156
F0.832
F0.099
I10
I100
tp135
sg9
F6.072124004364014
sg10
I100
sg11
I100
sa(dp136
g7
(F0.127
F0.822
F0.058
I10
I100
tp137
sg9
F12.220600843429565
sg10
I100
sg11
I200
sa(dp138
g7
(F0.157
F0.881
F0.09
I11
I100
tp139
sg9
F18.592005968093872
sg10
I100
sg11
I300
sa(dp140
g7
(F0.139
F0.787
F0.082
I11
I100
tp141
sg9
F24.8692889213562
sg10
I100
sg11
I400
sa(dp142
g7
(F0.137
F0.808
F0.065
I9
I100
tp143
sg9
F31.087576866149902
sg10
I100
sg11
I500
satp144
Rp145
(dp146
g25
I01
sg26
g31
sg32
(lp147
I3
aI5
aI30
aI9
asg34
I6
sg35
g36
(g3
tp148
Rp149
sbs.