(dp0
S'NSGA2-SIP'
p1
ccopy_reg
_reconstructor
p2
(cdeap.tools.support
Logbook
p3
c__builtin__
list
p4
(lp5
(dp6
S'hv|spread|igd|frontier#|valid#'
p7
(F0.146
F0.697
F0.085
I10
I55
tp8
sS'timestamp'
p9
F0.017600059509277344
sS'evals'
p10
I100
sS'gen'
p11
I0
sa(dp12
g7
(F0.157
F0.809
F0.076
I13
I100
tp13
sg9
F2.405301094055176
sg10
I100
sg11
I100
sa(dp14
g7
(F0.157
F0.827
F0.076
I13
I100
tp15
sg9
F4.909048080444336
sg10
I100
sg11
I200
sa(dp16
g7
(F0.157
F0.827
F0.076
I13
I100
tp17
sg9
F7.40229606628418
sg10
I100
sg11
I300
sa(dp18
g7
(F0.157
F0.933
F0.076
I13
I100
tp19
sg9
F9.88505506515503
sg10
I100
sg11
I400
sa(dp20
g7
(F0.157
F0.86
F0.076
I13
I100
tp21
sg9
F12.37399697303772
sg10
I100
sg11
I500
satp22
Rp23
(dp24
S'log_header'
p25
I01
sS'header'
p26
(S'gen'
p27
S'evals'
p28
S'hv|spread|igd|frontier#|valid#'
p29
S'timestamp'
p30
tp31
sS'columns_len'
p32
(lp33
I3
aI5
aI30
aI9
asS'buffindex'
p34
I6
sS'chapters'
p35
ccollections
defaultdict
p36
(g3
tp37
Rp38
sbsS'SPEA2-SIP'
p39
g2
(g3
g4
(lp40
(dp41
g7
(F0.152
F0.72
F0.079
I11
I60
tp42
sg9
F0.018577098846435547
sg10
I100
sg11
I0
sa(dp43
g7
(F0.157
F0.895
F0.076
I13
I100
tp44
sg9
F166.9307999610901
sg10
I100
sg11
I100
sa(dp45
g7
(F0.157
F0.86
F0.076
I13
I100
tp46
sg9
F334.96723198890686
sg10
I100
sg11
I200
sa(dp47
g7
(F0.157
F0.947
F0.076
I13
I100
tp48
sg9
F505.39160418510437
sg10
I100
sg11
I300
sa(dp49
g7
(F0.157
F0.805
F0.076
I13
I100
tp50
sg9
F676.0991370677948
sg10
I100
sg11
I400
sa(dp51
g7
(F0.157
F0.998
F0.076
I13
I100
tp52
sg9
F843.8937220573425
sg10
I100
sg11
I500
satp53
Rp54
(dp55
g25
I01
sg26
g31
sg32
(lp56
I3
aI5
aI30
aI9
asg34
I6
sg35
g36
(g3
tp57
Rp58
sbsS'SPEA2'
p59
g2
(g3
g4
(lp60
(dp61
g7
(F0.067
F0.939
F0.113
I3
I3
tp62
sg9
F0.018381118774414062
sg10
I100
sg11
I0
sa(dp63
g7
(I0
I0
I0
I0
I0
tp64
sg9
F132.7504689693451
sg10
I100
sg11
I100
sa(dp65
g7
g64
sg9
F267.06269693374634
sg10
I100
sg11
I200
sa(dp66
g7
g64
sg9
F403.4592590332031
sg10
I100
sg11
I300
sa(dp67
g7
g64
sg9
F539.4894771575928
sg10
I100
sg11
I400
sa(dp68
g7
g64
sg9
F675.1689629554749
sg10
I100
sg11
I500
satp69
Rp70
(dp71
g25
I01
sg26
g31
sg32
(lp72
I3
aI5
aI30
aI9
asg34
I6
sg35
g36
(g3
tp73
Rp74
sbsS'IBEA'
p75
g2
(g3
g4
(lp76
(dp77
g7
(F0.114
F0.874
F0.121
I3
I6
tp78
sg9
F0.01869797706604004
sg10
I100
sg11
I0
sa(dp79
g7
g64
sg9
F7.003355979919434
sg10
I100
sg11
I100
sa(dp80
g7
(F0.037
F2.599
F0.099
I1
I1
tp81
sg9
F14.053990840911865
sg10
I100
sg11
I200
sa(dp82
g7
(F0.088
F2.407
F0.081
I1
I3
tp83
sg9
F21.123028993606567
sg10
I100
sg11
I300
sa(dp84
g7
g64
sg9
F28.19571590423584
sg10
I100
sg11
I400
sa(dp85
g7
(F0.037
F2.599
F0.099
I1
I3
tp86
sg9
F35.25383687019348
sg10
I100
sg11
I500
satp87
Rp88
(dp89
g25
I01
sg26
g31
sg32
(lp90
I3
aI5
aI30
aI9
asg34
I6
sg35
g36
(g3
tp91
Rp92
sbsS'NSGA2'
p93
g2
(g3
g4
(lp94
(dp95
g7
(F0.07
F1.0
F0.055
I2
I3
tp96
sg9
F0.018049001693725586
sg10
I100
sg11
I0
sa(dp97
g7
g64
sg9
F6.37178897857666
sg10
I100
sg11
I100
sa(dp98
g7
g64
sg9
F12.776084899902344
sg10
I100
sg11
I200
sa(dp99
g7
(F0.088
F2.407
F0.081
I1
I1
tp100
sg9
F19.148398876190186
sg10
I100
sg11
I300
sa(dp101
g7
(F0.092
F2.312
F0.154
I1
I1
tp102
sg9
F25.498580932617188
sg10
I100
sg11
I400
sa(dp103
g7
g64
sg9
F31.858237981796265
sg10
I100
sg11
I500
satp104
Rp105
(dp106
g25
I01
sg26
g31
sg32
(lp107
I3
aI5
aI30
aI9
asg34
I6
sg35
g36
(g3
tp108
Rp109
sbsS'IBEA-SIP'
p110
g2
(g3
g4
(lp111
(dp112
g7
(F0.152
F0.867
F0.076
I10
I60
tp113
sg9
F0.017988920211791992
sg10
I100
sg11
I0
sa(dp114
g7
(F0.148
F0.834
F0.052
I12
I100
tp115
sg9
F6.357707977294922
sg10
I100
sg11
I100
sa(dp116
g7
(F0.151
F0.942
F0.076
I10
I100
tp117
sg9
F12.84116005897522
sg10
I100
sg11
I200
sa(dp118
g7
(F0.136
F0.774
F0.048
I10
I100
tp119
sg9
F19.310575008392334
sg10
I100
sg11
I300
sa(dp120
g7
(F0.137
F0.889
F0.089
I9
I100
tp121
sg9
F25.825166940689087
sg10
I100
sg11
I400
sa(dp122
g7
(F0.139
F0.693
F0.091
I10
I100
tp123
sg9
F32.28963804244995
sg10
I100
sg11
I500
satp124
Rp125
(dp126
g25
I01
sg26
g31
sg32
(lp127
I3
aI5
aI30
aI9
asg34
I6
sg35
g36
(g3
tp128
Rp129
sbs.