(dp0
S'NSGA2-SIP'
p1
ccopy_reg
_reconstructor
p2
(cdeap.tools.support
Logbook
p3
c__builtin__
list
p4
(lp5
(dp6
S'hv|spread|igd|frontier#|valid#'
p7
(F0.157
F0.797
F0.082
I12
I58
tp8
sS'timestamp'
p9
F0.018535852432250977
sS'evals'
p10
I100
sS'gen'
p11
I0
sa(dp12
g7
(F0.157
F0.817
F0.076
I13
I100
tp13
sg9
F2.5115230083465576
sg10
I100
sg11
I100
sa(dp14
g7
(F0.157
F0.837
F0.076
I13
I100
tp15
sg9
F4.993734836578369
sg10
I100
sg11
I200
sa(dp16
g7
(F0.157
F0.867
F0.076
I13
I100
tp17
sg9
F7.458801031112671
sg10
I100
sg11
I300
sa(dp18
g7
(F0.157
F0.808
F0.076
I13
I100
tp19
sg9
F9.928999900817871
sg10
I100
sg11
I400
sa(dp20
g7
(F0.157
F0.99
F0.076
I13
I100
tp21
sg9
F12.469718933105469
sg10
I100
sg11
I500
satp22
Rp23
(dp24
S'log_header'
p25
I01
sS'header'
p26
(S'gen'
p27
S'evals'
p28
S'hv|spread|igd|frontier#|valid#'
p29
S'timestamp'
p30
tp31
sS'columns_len'
p32
(lp33
I3
aI5
aI30
aI9
asS'buffindex'
p34
I6
sS'chapters'
p35
ccollections
defaultdict
p36
(g3
tp37
Rp38
sbsS'SPEA2-SIP'
p39
g2
(g3
g4
(lp40
(dp41
g7
(F0.148
F0.846
F0.09
I11
I51
tp42
sg9
F0.018085002899169922
sg10
I100
sg11
I0
sa(dp43
g7
(F0.157
F0.642
F0.076
I13
I100
tp44
sg9
F165.10509085655212
sg10
I100
sg11
I100
sa(dp45
g7
(F0.157
F0.99
F0.076
I13
I100
tp46
sg9
F333.69129490852356
sg10
I100
sg11
I200
sa(dp47
g7
(F0.157
F0.81
F0.076
I13
I100
tp48
sg9
F502.7921290397644
sg10
I100
sg11
I300
sa(dp49
g7
(F0.157
F0.904
F0.076
I13
I100
tp50
sg9
F673.9262878894806
sg10
I100
sg11
I400
sa(dp51
g7
(F0.157
F0.726
F0.076
I13
I100
tp52
sg9
F841.8807010650635
sg10
I100
sg11
I500
satp53
Rp54
(dp55
g25
I01
sg26
g31
sg32
(lp56
I3
aI5
aI30
aI9
asg34
I6
sg35
g36
(g3
tp57
Rp58
sbsS'SPEA2'
p59
g2
(g3
g4
(lp60
(dp61
g7
(F0.089
F0.937
F0.069
I3
I3
tp62
sg9
F0.018254995346069336
sg10
I100
sg11
I0
sa(dp63
g7
(I0
I0
I0
I0
I0
tp64
sg9
F128.83875799179077
sg10
I100
sg11
I100
sa(dp65
g7
g64
sg9
F262.34436798095703
sg10
I100
sg11
I200
sa(dp66
g7
g64
sg9
F395.8406038284302
sg10
I100
sg11
I300
sa(dp67
g7
g64
sg9
F529.1831369400024
sg10
I100
sg11
I400
sa(dp68
g7
g64
sg9
F661.4422528743744
sg10
I100
sg11
I500
satp69
Rp70
(dp71
g25
I01
sg26
g31
sg32
(lp72
I3
aI5
aI30
aI9
asg34
I6
sg35
g36
(g3
tp73
Rp74
sbsS'IBEA-PEN'
p75
g2
(g3
g4
(lp76
(dp77
g7
(F0.111
F0.824
F0.006
I5
I65
tp78
sg9
F0.024311065673828125
sg10
I100
sg11
I0
sa(dp79
g7
(F0.142
F0.747
F0.094
I10
I46
tp80
sg9
F7.041069984436035
sg10
I100
sg11
I100
sa(dp81
g7
(F0.151
F0.988
F0.089
I10
I70
tp82
sg9
F14.104367971420288
sg10
I100
sg11
I200
sa(dp83
g7
(F0.146
F0.967
F0.059
I8
I61
tp84
sg9
F21.14669704437256
sg10
I100
sg11
I300
sa(dp85
g7
(F0.149
F0.92
F0.074
I9
I61
tp86
sg9
F28.196917057037354
sg10
I100
sg11
I400
sa(dp87
g7
(F0.143
F0.927
F0.099
I8
I42
tp88
sg9
F35.25074911117554
sg10
I100
sg11
I500
satp89
Rp90
(dp91
g25
I01
sg26
g31
sg32
(lp92
I3
aI5
aI30
aI9
asg34
I6
sg35
g36
(g3
tp93
Rp94
sbsS'IBEA'
p95
g2
(g3
g4
(lp96
(dp97
g7
(F0.132
F0.815
F0.119
I5
I6
tp98
sg9
F0.018980979919433594
sg10
I100
sg11
I0
sa(dp99
g7
(F0.088
F2.407
F0.081
I1
I1
tp100
sg9
F6.875679016113281
sg10
I100
sg11
I100
sa(dp101
g7
g64
sg9
F13.828728914260864
sg10
I100
sg11
I200
sa(dp102
g7
(F0.037
F2.599
F0.099
I1
I2
tp103
sg9
F20.9129638671875
sg10
I100
sg11
I300
sa(dp104
g7
(F0.088
F2.407
F0.081
I1
I5
tp105
sg9
F27.875234842300415
sg10
I100
sg11
I400
sa(dp106
g7
(F0.11
F0.908
F0.127
I2
I2
tp107
sg9
F34.83218789100647
sg10
I100
sg11
I500
satp108
Rp109
(dp110
g25
I01
sg26
g31
sg32
(lp111
I3
aI5
aI30
aI9
asg34
I6
sg35
g36
(g3
tp112
Rp113
sbsS'NSGA2'
p114
g2
(g3
g4
(lp115
(dp116
g7
(F0.086
F0.934
F0.115
I3
I6
tp117
sg9
F0.018695831298828125
sg10
I100
sg11
I0
sa(dp118
g7
g64
sg9
F6.489844799041748
sg10
I100
sg11
I100
sa(dp119
g7
(F0.087
F2.236
F0.121
I1
I1
tp120
sg9
F12.987558841705322
sg10
I100
sg11
I200
sa(dp121
g7
(F0.088
F2.407
F0.081
I1
I1
tp122
sg9
F19.53394889831543
sg10
I100
sg11
I300
sa(dp123
g7
(F0.113
F0.963
F0.118
I2
I2
tp124
sg9
F25.990684986114502
sg10
I100
sg11
I400
sa(dp125
g7
(F0.047
F2.5
F0.083
I1
I1
tp126
sg9
F32.48409390449524
sg10
I100
sg11
I500
satp127
Rp128
(dp129
g25
I01
sg26
g31
sg32
(lp130
I3
aI5
aI30
aI9
asg34
I6
sg35
g36
(g3
tp131
Rp132
sbsS'IBEA-SIP'
p133
g2
(g3
g4
(lp134
(dp135
g7
(F0.15
F0.854
F0.056
I12
I56
tp136
sg9
F0.018770933151245117
sg10
I100
sg11
I0
sa(dp137
g7
(F0.153
F0.729
F0.082
I10
I100
tp138
sg9
F6.254611015319824
sg10
I100
sg11
I100
sa(dp139
g7
(F0.139
F0.834
F0.089
I10
I100
tp140
sg9
F12.630381107330322
sg10
I100
sg11
I200
sa(dp141
g7
(F0.136
F0.882
F0.094
I10
I100
tp142
sg9
F19.050761938095093
sg10
I100
sg11
I300
sa(dp143
g7
(F0.149
F0.951
F0.067
I10
I100
tp144
sg9
F25.46238613128662
sg10
I100
sg11
I400
sa(dp145
g7
(F0.149
F0.884
F0.061
I11
I100
tp146
sg9
F31.88904595375061
sg10
I100
sg11
I500
satp147
Rp148
(dp149
g25
I01
sg26
g31
sg32
(lp150
I3
aI5
aI30
aI9
asg34
I6
sg35
g36
(g3
tp151
Rp152
sbs.