(dp0
S'NSGA2-SIP'
p1
ccopy_reg
_reconstructor
p2
(cdeap.tools.support
Logbook
p3
c__builtin__
list
p4
(lp5
(dp6
S'hv|spread|igd|frontier#|valid#'
p7
(F0.149
F0.856
F0.074
I8
I56
tp8
sS'timestamp'
p9
F0.016009092330932617
sS'evals'
p10
I100
sS'gen'
p11
I0
sa(dp12
g7
(F0.157
F0.947
F0.076
I13
I100
tp13
sg9
F2.3030059337615967
sg10
I100
sg11
I100
sa(dp14
g7
(F0.157
F0.904
F0.076
I13
I100
tp15
sg9
F4.583194971084595
sg10
I100
sg11
I200
sa(dp16
g7
(F0.157
F0.81
F0.076
I13
I100
tp17
sg9
F6.82690691947937
sg10
I100
sg11
I300
sa(dp18
g7
(F0.157
F0.81
F0.076
I13
I100
tp19
sg9
F9.085124015808105
sg10
I100
sg11
I400
sa(dp20
g7
(F0.157
F0.895
F0.076
I13
I100
tp21
sg9
F11.343325138092041
sg10
I100
sg11
I500
satp22
Rp23
(dp24
S'log_header'
p25
I01
sS'header'
p26
(S'gen'
p27
S'evals'
p28
S'hv|spread|igd|frontier#|valid#'
p29
S'timestamp'
p30
tp31
sS'columns_len'
p32
(lp33
I3
aI5
aI30
aI9
asS'buffindex'
p34
I6
sS'chapters'
p35
ccollections
defaultdict
p36
(g3
tp37
Rp38
sbsS'SPEA2-SIP'
p39
g2
(g3
g4
(lp40
(dp41
g7
(F0.155
F0.847
F0.072
I12
I52
tp42
sg9
F0.01768183708190918
sg10
I100
sg11
I0
sa(dp43
g7
(F0.157
F0.904
F0.076
I13
I100
tp44
sg9
F160.01301884651184
sg10
I100
sg11
I100
sa(dp45
g7
(F0.157
F0.998
F0.076
I13
I100
tp46
sg9
F322.20133900642395
sg10
I100
sg11
I200
sa(dp47
g7
(F0.157
F0.805
F0.076
I13
I100
tp48
sg9
F485.0090548992157
sg10
I100
sg11
I300
sa(dp49
g7
(F0.157
F0.734
F0.076
I13
I100
tp50
sg9
F649.5524559020996
sg10
I100
sg11
I400
sa(dp51
g7
(F0.157
F0.904
F0.076
I13
I100
tp52
sg9
F812.2805509567261
sg10
I100
sg11
I500
satp53
Rp54
(dp55
g25
I01
sg26
g31
sg32
(lp56
I3
aI5
aI30
aI9
asg34
I6
sg35
g36
(g3
tp57
Rp58
sbsS'SPEA2'
p59
g2
(g3
g4
(lp60
(dp61
g7
(F0.056
F0.965
F0.091
I2
I2
tp62
sg9
F0.016733884811401367
sg10
I100
sg11
I0
sa(dp63
g7
(I0
I0
I0
I0
I0
tp64
sg9
F121.60749387741089
sg10
I100
sg11
I100
sa(dp65
g7
g64
sg9
F250.59049487113953
sg10
I100
sg11
I200
sa(dp66
g7
g64
sg9
F375.3865270614624
sg10
I100
sg11
I300
sa(dp67
g7
g64
sg9
F501.27864599227905
sg10
I100
sg11
I400
sa(dp68
g7
g64
sg9
F626.625424861908
sg10
I100
sg11
I500
satp69
Rp70
(dp71
g25
I01
sg26
g31
sg32
(lp72
I3
aI5
aI30
aI9
asg34
I6
sg35
g36
(g3
tp73
Rp74
sbsS'IBEA-PEN'
p75
g2
(g3
g4
(lp76
(dp77
g7
(F0.114
F0.824
F0.0
I5
I64
tp78
sg9
F0.022623062133789062
sg10
I100
sg11
I0
sa(dp79
g7
(F0.144
F0.787
F0.076
I8
I39
tp80
sg9
F6.684558153152466
sg10
I100
sg11
I100
sa(dp81
g7
(F0.154
F0.866
F0.088
I9
I61
tp82
sg9
F13.411748170852661
sg10
I100
sg11
I200
sa(dp83
g7
(F0.141
F0.77
F0.101
I7
I41
tp84
sg9
F20.126139163970947
sg10
I100
sg11
I300
sa(dp85
g7
(F0.11
F0.946
F0.053
I7
I68
tp86
sg9
F26.82447600364685
sg10
I100
sg11
I400
sa(dp87
g7
(F0.149
F0.768
F0.086
I8
I39
tp88
sg9
F33.53744602203369
sg10
I100
sg11
I500
satp89
Rp90
(dp91
g25
I01
sg26
g31
sg32
(lp92
I3
aI5
aI30
aI9
asg34
I6
sg35
g36
(g3
tp93
Rp94
sbsS'IBEA'
p95
g2
(g3
g4
(lp96
(dp97
g7
(F0.074
F0.933
F0.109
I2
I2
tp98
sg9
F0.017084121704101562
sg10
I100
sg11
I0
sa(dp99
g7
(F0.092
F2.312
F0.154
I1
I1
tp100
sg9
F6.5610032081604
sg10
I100
sg11
I100
sa(dp101
g7
(F0.088
F2.407
F0.081
I1
I1
tp102
sg9
F13.153555154800415
sg10
I100
sg11
I200
sa(dp103
g7
(F0.055
F2.5
F0.106
I1
I1
tp104
sg9
F19.749675035476685
sg10
I100
sg11
I300
sa(dp105
g7
g64
sg9
F26.34979820251465
sg10
I100
sg11
I400
sa(dp106
g7
(F0.1
F0.94
F0.09
I2
I3
tp107
sg9
F32.94387912750244
sg10
I100
sg11
I500
satp108
Rp109
(dp110
g25
I01
sg26
g31
sg32
(lp111
I3
aI5
aI30
aI9
asg34
I6
sg35
g36
(g3
tp112
Rp113
sbsS'NSGA2'
p114
g2
(g3
g4
(lp115
(dp116
g7
(F0.056
F2.312
F0.107
I1
I1
tp117
sg9
F0.01644301414489746
sg10
I100
sg11
I0
sa(dp118
g7
(F0.088
F2.407
F0.081
I1
I1
tp119
sg9
F5.936715126037598
sg10
I100
sg11
I100
sa(dp120
g7
(F0.092
F2.312
F0.154
I1
I1
tp121
sg9
F12.015608072280884
sg10
I100
sg11
I200
sa(dp122
g7
(F0.088
F2.407
F0.081
I1
I1
tp123
sg9
F18.02358913421631
sg10
I100
sg11
I300
sa(dp124
g7
g64
sg9
F24.024948120117188
sg10
I100
sg11
I400
sa(dp125
g7
(F0.088
F2.407
F0.081
I1
I1
tp126
sg9
F30.047624111175537
sg10
I100
sg11
I500
satp127
Rp128
(dp129
g25
I01
sg26
g31
sg32
(lp130
I3
aI5
aI30
aI9
asg34
I6
sg35
g36
(g3
tp131
Rp132
sbsS'IBEA-SIP'
p133
g2
(g3
g4
(lp134
(dp135
g7
(F0.151
F0.808
F0.087
I13
I57
tp136
sg9
F0.018011093139648438
sg10
I100
sg11
I0
sa(dp137
g7
(F0.149
F0.888
F0.065
I9
I100
tp138
sg9
F5.973802089691162
sg10
I100
sg11
I100
sa(dp139
g7
(F0.156
F0.785
F0.099
I10
I100
tp140
sg9
F12.095381021499634
sg10
I100
sg11
I200
sa(dp141
g7
(F0.149
F0.735
F0.055
I12
I100
tp142
sg9
F18.18291711807251
sg10
I100
sg11
I300
sa(dp143
g7
(F0.139
F0.828
F0.091
I10
I100
tp144
sg9
F24.23716902732849
sg10
I100
sg11
I400
sa(dp145
g7
(F0.157
F0.597
F0.089
I10
I100
tp146
sg9
F30.283207178115845
sg10
I100
sg11
I500
satp147
Rp148
(dp149
g25
I01
sg26
g31
sg32
(lp150
I3
aI5
aI30
aI9
asg34
I6
sg35
g36
(g3
tp151
Rp152
sbs.