(dp0
S'NSGA2-SIP'
p1
ccopy_reg
_reconstructor
p2
(cdeap.tools.support
Logbook
p3
c__builtin__
list
p4
(lp5
(dp6
S'hv|spread|igd|frontier#|valid#'
p7
(F0.142
F0.803
F0.104
I9
I46
tp8
sS'timestamp'
p9
F0.013907909393310547
sS'evals'
p10
I100
sS'gen'
p11
I0
sa(dp12
g7
(F0.157
F0.947
F0.076
I13
I100
tp13
sg9
F2.0759119987487793
sg10
I100
sg11
I100
sa(dp14
g7
(F0.157
F0.824
F0.076
I13
I100
tp15
sg9
F4.088525772094727
sg10
I100
sg11
I200
sa(dp16
g7
(F0.157
F0.837
F0.076
I13
I100
tp17
sg9
F6.163140773773193
sg10
I100
sg11
I300
sa(dp18
g7
(F0.157
F0.834
F0.076
I13
I100
tp19
sg9
F8.21437382698059
sg10
I100
sg11
I400
sa(dp20
g7
(F0.157
F0.947
F0.076
I13
I100
tp21
sg9
F10.258119821548462
sg10
I100
sg11
I500
satp22
Rp23
(dp24
S'log_header'
p25
I01
sS'header'
p26
(S'gen'
p27
S'evals'
p28
S'hv|spread|igd|frontier#|valid#'
p29
S'timestamp'
p30
tp31
sS'columns_len'
p32
(lp33
I3
aI5
aI30
aI9
asS'buffindex'
p34
I6
sS'chapters'
p35
ccollections
defaultdict
p36
(g3
tp37
Rp38
sbsS'SPEA2-SIP'
p39
g2
(g3
g4
(lp40
(dp41
g7
(F0.149
F0.768
F0.093
I12
I59
tp42
sg9
F0.015522956848144531
sg10
I100
sg11
I0
sa(dp43
g7
(F0.157
F0.808
F0.076
I13
I100
tp44
sg9
F138.73542881011963
sg10
I100
sg11
I100
sa(dp45
g7
(F0.157
F0.808
F0.076
I13
I100
tp46
sg9
F278.4313049316406
sg10
I100
sg11
I200
sa(dp47
g7
(F0.157
F0.668
F0.076
I13
I100
tp48
sg9
F419.55660581588745
sg10
I100
sg11
I300
sa(dp49
g7
(F0.157
F0.867
F0.076
I13
I100
tp50
sg9
F558.8047518730164
sg10
I100
sg11
I400
sa(dp51
g7
(F0.157
F0.947
F0.076
I13
I100
tp52
sg9
F700.5417678356171
sg10
I100
sg11
I500
satp53
Rp54
(dp55
g25
I01
sg26
g31
sg32
(lp56
I3
aI5
aI30
aI9
asg34
I6
sg35
g36
(g3
tp57
Rp58
sbsS'SPEA2'
p59
g2
(g3
g4
(lp60
(dp61
g7
(F0.084
F2.236
F0.109
I1
I2
tp62
sg9
F0.015119075775146484
sg10
I100
sg11
I0
sa(dp63
g7
(I0
I0
I0
I0
I0
tp64
sg9
F108.95186495780945
sg10
I100
sg11
I100
sa(dp65
g7
g64
sg9
F221.28841996192932
sg10
I100
sg11
I200
sa(dp66
g7
g64
sg9
F333.9994239807129
sg10
I100
sg11
I300
sa(dp67
g7
g64
sg9
F445.3536009788513
sg10
I100
sg11
I400
sa(dp68
g7
g64
sg9
F555.9965879917145
sg10
I100
sg11
I500
satp69
Rp70
(dp71
g25
I01
sg26
g31
sg32
(lp72
I3
aI5
aI30
aI9
asg34
I6
sg35
g36
(g3
tp73
Rp74
sbsS'IBEA'
p75
g2
(g3
g4
(lp76
(dp77
g7
(F0.103
F0.868
F0.094
I5
I6
tp78
sg9
F0.01621413230895996
sg10
I100
sg11
I0
sa(dp79
g7
(F0.1
F0.94
F0.09
I2
I2
tp80
sg9
F5.9126060009002686
sg10
I100
sg11
I100
sa(dp81
g7
(F0.12
F0.942
F0.12
I3
I4
tp82
sg9
F11.92064905166626
sg10
I100
sg11
I200
sa(dp83
g7
(F0.125
F0.884
F0.112
I3
I6
tp84
sg9
F17.847309112548828
sg10
I100
sg11
I300
sa(dp85
g7
(F0.088
F2.407
F0.081
I1
I3
tp86
sg9
F23.869413137435913
sg10
I100
sg11
I400
sa(dp87
g7
(F0.084
F2.236
F0.109
I1
I1
tp88
sg9
F29.769586086273193
sg10
I100
sg11
I500
satp89
Rp90
(dp91
g25
I01
sg26
g31
sg32
(lp92
I3
aI5
aI30
aI9
asg34
I6
sg35
g36
(g3
tp93
Rp94
sbsS'NSGA2'
p95
g2
(g3
g4
(lp96
(dp97
g7
(F0.092
F2.312
F0.154
I1
I4
tp98
sg9
F0.015033960342407227
sg10
I100
sg11
I0
sa(dp99
g7
g64
sg9
F5.371546030044556
sg10
I100
sg11
I100
sa(dp100
g7
(F0.092
F2.312
F0.154
I1
I1
tp101
sg9
F10.617491960525513
sg10
I100
sg11
I200
sa(dp102
g7
(F0.088
F2.407
F0.081
I1
I1
tp103
sg9
F16.07594895362854
sg10
I100
sg11
I300
sa(dp104
g7
g64
sg9
F21.555824041366577
sg10
I100
sg11
I400
sa(dp105
g7
(F0.037
F2.599
F0.099
I1
I1
tp106
sg9
F26.9773428440094
sg10
I100
sg11
I500
satp107
Rp108
(dp109
g25
I01
sg26
g31
sg32
(lp110
I3
aI5
aI30
aI9
asg34
I6
sg35
g36
(g3
tp111
Rp112
sbsS'IBEA-SIP'
p113
g2
(g3
g4
(lp114
(dp115
g7
(F0.149
F0.734
F0.067
I11
I64
tp116
sg9
F0.01595902442932129
sg10
I100
sg11
I0
sa(dp117
g7
(F0.149
F0.931
F0.061
I11
I100
tp118
sg9
F5.357043027877808
sg10
I100
sg11
I100
sa(dp119
g7
(F0.151
F0.944
F0.076
I10
I100
tp120
sg9
F10.79393196105957
sg10
I100
sg11
I200
sa(dp121
g7
(F0.157
F0.833
F0.08
I11
I100
tp122
sg9
F16.281855821609497
sg10
I100
sg11
I300
sa(dp123
g7
(F0.142
F0.63
F0.1
I9
I100
tp124
sg9
F21.59652304649353
sg10
I100
sg11
I400
sa(dp125
g7
(F0.155
F0.862
F0.072
I12
I100
tp126
sg9
F26.962749004364014
sg10
I100
sg11
I500
satp127
Rp128
(dp129
g25
I01
sg26
g31
sg32
(lp130
I3
aI5
aI30
aI9
asg34
I6
sg35
g36
(g3
tp131
Rp132
sbs.