(dp0
S'NSGA2-SIP'
p1
ccopy_reg
_reconstructor
p2
(cdeap.tools.support
Logbook
p3
c__builtin__
list
p4
(lp5
(dp6
S'hv|spread|igd|frontier#|valid#'
p7
(F0.157
F0.809
F0.082
I12
I67
tp8
sS'timestamp'
p9
F0.02049398422241211
sS'evals'
p10
I100
sS'gen'
p11
I0
sa(dp12
g7
(F0.157
F0.734
F0.076
I13
I100
tp13
sg9
F2.649841070175171
sg10
I100
sg11
I100
sa(dp14
g7
(F0.157
F0.837
F0.076
I13
I100
tp15
sg9
F5.2848780155181885
sg10
I100
sg11
I200
sa(dp16
g7
(F0.157
F0.815
F0.076
I13
I100
tp17
sg9
F7.871978044509888
sg10
I100
sg11
I300
sa(dp18
g7
(F0.157
F0.726
F0.076
I13
I100
tp19
sg9
F10.452342987060547
sg10
I100
sg11
I400
sa(dp20
g7
(F0.157
F0.805
F0.076
I13
I100
tp21
sg9
F13.14106011390686
sg10
I100
sg11
I500
satp22
Rp23
(dp24
S'log_header'
p25
I01
sS'header'
p26
(S'gen'
p27
S'evals'
p28
S'hv|spread|igd|frontier#|valid#'
p29
S'timestamp'
p30
tp31
sS'columns_len'
p32
(lp33
I3
aI5
aI30
aI9
asS'buffindex'
p34
I6
sS'chapters'
p35
ccollections
defaultdict
p36
(g3
tp37
Rp38
sbsS'SPEA2-SIP'
p39
g2
(g3
g4
(lp40
(dp41
g7
(F0.155
F0.725
F0.082
I13
I48
tp42
sg9
F0.019707918167114258
sg10
I100
sg11
I0
sa(dp43
g7
(F0.157
F0.827
F0.076
I13
I100
tp44
sg9
F163.19797801971436
sg10
I100
sg11
I100
sa(dp45
g7
(F0.157
F0.904
F0.076
I13
I100
tp46
sg9
F330.8514199256897
sg10
I100
sg11
I200
sa(dp47
g7
(F0.157
F0.895
F0.076
I13
I100
tp48
sg9
F497.92933201789856
sg10
I100
sg11
I300
sa(dp49
g7
(F0.157
F0.867
F0.076
I13
I100
tp50
sg9
F664.8561859130859
sg10
I100
sg11
I400
sa(dp51
g7
(F0.157
F0.805
F0.076
I13
I100
tp52
sg9
F831.8003430366516
sg10
I100
sg11
I500
satp53
Rp54
(dp55
g25
I01
sg26
g31
sg32
(lp56
I3
aI5
aI30
aI9
asg34
I6
sg35
g36
(g3
tp57
Rp58
sbsS'SPEA2'
p59
g2
(g3
g4
(lp60
(dp61
g7
(F0.084
F0.93
F0.123
I3
I4
tp62
sg9
F0.019896984100341797
sg10
I100
sg11
I0
sa(dp63
g7
(I0
I0
I0
I0
I0
tp64
sg9
F128.42706108093262
sg10
I100
sg11
I100
sa(dp65
g7
g64
sg9
F262.2535979747772
sg10
I100
sg11
I200
sa(dp66
g7
g64
sg9
F395.0577471256256
sg10
I100
sg11
I300
sa(dp67
g7
g64
sg9
F525.235004901886
sg10
I100
sg11
I400
sa(dp68
g7
g64
sg9
F655.5290660858154
sg10
I100
sg11
I500
satp69
Rp70
(dp71
g25
I01
sg26
g31
sg32
(lp72
I3
aI5
aI30
aI9
asg34
I6
sg35
g36
(g3
tp73
Rp74
sbsS'IBEA-PEN'
p75
g2
(g3
g4
(lp76
(dp77
g7
(F0.111
F0.9
F0.006
I5
I57
tp78
sg9
F0.03284406661987305
sg10
I100
sg11
I0
sa(dp79
g7
(F0.088
F2.407
F0.081
I1
I2
tp80
sg9
F6.820801019668579
sg10
I100
sg11
I100
sa(dp81
g7
(F0.059
F0.97
F0.103
I2
I2
tp82
sg9
F13.656836986541748
sg10
I100
sg11
I200
sa(dp83
g7
(F0.092
F2.312
F0.154
I1
I1
tp84
sg9
F20.477208137512207
sg10
I100
sg11
I300
sa(dp85
g7
(F0.098
F0.968
F0.094
I2
I6
tp86
sg9
F27.331043004989624
sg10
I100
sg11
I400
sa(dp87
g7
(F0.088
F2.407
F0.081
I1
I5
tp88
sg9
F34.14597010612488
sg10
I100
sg11
I500
satp89
Rp90
(dp91
g25
I01
sg26
g31
sg32
(lp92
I3
aI5
aI30
aI9
asg34
I6
sg35
g36
(g3
tp93
Rp94
sbsS'IBEA'
p95
g2
(g3
g4
(lp96
(dp97
g7
(F0.077
F0.939
F0.115
I3
I4
tp98
sg9
F0.019894123077392578
sg10
I100
sg11
I0
sa(dp99
g7
(F0.061
F0.97
F0.103
I2
I2
tp100
sg9
F6.787618160247803
sg10
I100
sg11
I100
sa(dp101
g7
(F0.061
F0.97
F0.103
I2
I5
tp102
sg9
F13.559080123901367
sg10
I100
sg11
I200
sa(dp103
g7
(F0.105
F0.88
F0.107
I2
I2
tp104
sg9
F20.31985592842102
sg10
I100
sg11
I300
sa(dp105
g7
(F0.1
F0.94
F0.09
I2
I4
tp106
sg9
F27.102216958999634
sg10
I100
sg11
I400
sa(dp107
g7
(F0.037
F2.599
F0.099
I1
I2
tp108
sg9
F33.87631797790527
sg10
I100
sg11
I500
satp109
Rp110
(dp111
g25
I01
sg26
g31
sg32
(lp112
I3
aI5
aI30
aI9
asg34
I6
sg35
g36
(g3
tp113
Rp114
sbsS'NSGA2'
p115
g2
(g3
g4
(lp116
(dp117
g7
(F0.081
F0.965
F0.078
I2
I3
tp118
sg9
F0.019895076751708984
sg10
I100
sg11
I0
sa(dp119
g7
g64
sg9
F6.894204139709473
sg10
I100
sg11
I100
sa(dp120
g7
g64
sg9
F13.843822002410889
sg10
I100
sg11
I200
sa(dp121
g7
g64
sg9
F20.72135901451111
sg10
I100
sg11
I300
sa(dp122
g7
g64
sg9
F27.605470180511475
sg10
I100
sg11
I400
sa(dp123
g7
g64
sg9
F34.47967600822449
sg10
I100
sg11
I500
satp124
Rp125
(dp126
g25
I01
sg26
g31
sg32
(lp127
I3
aI5
aI30
aI9
asg34
I6
sg35
g36
(g3
tp128
Rp129
sbsS'IBEA-SIP'
p130
g2
(g3
g4
(lp131
(dp132
g7
(F0.147
F0.822
F0.059
I11
I50
tp133
sg9
F0.01888298988342285
sg10
I100
sg11
I0
sa(dp134
g7
(F0.154
F0.959
F0.078
I11
I100
tp135
sg9
F6.143560171127319
sg10
I100
sg11
I100
sa(dp136
g7
(F0.148
F0.8
F0.056
I10
I100
tp137
sg9
F12.483597040176392
sg10
I100
sg11
I200
sa(dp138
g7
(F0.15
F0.948
F0.056
I12
I100
tp139
sg9
F18.74780511856079
sg10
I100
sg11
I300
sa(dp140
g7
(F0.153
F0.722
F0.068
I11
I100
tp141
sg9
F25.007054090499878
sg10
I100
sg11
I400
sa(dp142
g7
(F0.141
F0.717
F0.092
I8
I100
tp143
sg9
F31.271260976791382
sg10
I100
sg11
I500
satp144
Rp145
(dp146
g25
I01
sg26
g31
sg32
(lp147
I3
aI5
aI30
aI9
asg34
I6
sg35
g36
(g3
tp148
Rp149
sbs.