(dp0
S'NSGA2-SIP'
p1
ccopy_reg
_reconstructor
p2
(cdeap.tools.support
Logbook
p3
c__builtin__
list
p4
(lp5
(dp6
S'hv|spread|igd|frontier#|valid#'
p7
(F0.15
F0.61
F0.08
I14
I51
tp8
sS'timestamp'
p9
F0.017817020416259766
sS'evals'
p10
I100
sS'gen'
p11
I0
sa(dp12
g7
(F0.157
F0.904
F0.076
I13
I100
tp13
sg9
F2.289604902267456
sg10
I100
sg11
I100
sa(dp14
g7
(F0.157
F0.734
F0.076
I13
I100
tp15
sg9
F4.539786100387573
sg10
I100
sg11
I200
sa(dp16
g7
(F0.157
F0.817
F0.076
I13
I100
tp17
sg9
F6.791642904281616
sg10
I100
sg11
I300
sa(dp18
g7
(F0.157
F0.904
F0.076
I13
I100
tp19
sg9
F9.075350046157837
sg10
I100
sg11
I400
sa(dp20
g7
(F0.157
F0.947
F0.076
I13
I100
tp21
sg9
F11.34675407409668
sg10
I100
sg11
I500
satp22
Rp23
(dp24
S'log_header'
p25
I01
sS'header'
p26
(S'gen'
p27
S'evals'
p28
S'hv|spread|igd|frontier#|valid#'
p29
S'timestamp'
p30
tp31
sS'columns_len'
p32
(lp33
I3
aI5
aI30
aI9
asS'buffindex'
p34
I6
sS'chapters'
p35
ccollections
defaultdict
p36
(g3
tp37
Rp38
sbsS'SPEA2-SIP'
p39
g2
(g3
g4
(lp40
(dp41
g7
(F0.15
F0.697
F0.087
I13
I61
tp42
sg9
F0.018412113189697266
sg10
I100
sg11
I0
sa(dp43
g7
(F0.157
F0.809
F0.076
I13
I100
tp44
sg9
F156.39367413520813
sg10
I100
sg11
I100
sa(dp45
g7
(F0.157
F0.837
F0.076
I13
I100
tp46
sg9
F316.77957701683044
sg10
I100
sg11
I200
sa(dp47
g7
(F0.157
F0.642
F0.076
I13
I100
tp48
sg9
F475.9205219745636
sg10
I100
sg11
I300
sa(dp49
g7
(F0.157
F0.668
F0.076
I13
I100
tp50
sg9
F636.9993481636047
sg10
I100
sg11
I400
sa(dp51
g7
(F0.157
F0.834
F0.076
I13
I100
tp52
sg9
F795.5398621559143
sg10
I100
sg11
I500
satp53
Rp54
(dp55
g25
I01
sg26
g31
sg32
(lp56
I3
aI5
aI30
aI9
asg34
I6
sg35
g36
(g3
tp57
Rp58
sbsS'SPEA2'
p59
g2
(g3
g4
(lp60
(dp61
g7
(F0.094
F0.932
F0.128
I2
I3
tp62
sg9
F0.016484975814819336
sg10
I100
sg11
I0
sa(dp63
g7
(I0
I0
I0
I0
I0
tp64
sg9
F121.72259998321533
sg10
I100
sg11
I100
sa(dp65
g7
g64
sg9
F246.457515001297
sg10
I100
sg11
I200
sa(dp66
g7
g64
sg9
F372.1731770038605
sg10
I100
sg11
I300
sa(dp67
g7
g64
sg9
F494.3476800918579
sg10
I100
sg11
I400
sa(dp68
g7
g64
sg9
F620.7473180294037
sg10
I100
sg11
I500
satp69
Rp70
(dp71
g25
I01
sg26
g31
sg32
(lp72
I3
aI5
aI30
aI9
asg34
I6
sg35
g36
(g3
tp73
Rp74
sbsS'IBEA-PEN'
p75
g2
(g3
g4
(lp76
(dp77
g7
(F0.114
F0.824
F0.0
I5
I60
tp78
sg9
F0.0335080623626709
sg10
I100
sg11
I0
sa(dp79
g7
(F0.136
F0.683
F0.075
I9
I62
tp80
sg9
F6.455238103866577
sg10
I100
sg11
I100
sa(dp81
g7
(F0.129
F0.851
F0.101
I6
I34
tp82
sg9
F12.904374122619629
sg10
I100
sg11
I200
sa(dp83
g7
(F0.14
F0.858
F0.092
I9
I76
tp84
sg9
F19.384042024612427
sg10
I100
sg11
I300
sa(dp85
g7
(F0.152
F0.778
F0.081
I11
I60
tp86
sg9
F25.83721399307251
sg10
I100
sg11
I400
sa(dp87
g7
(F0.133
F0.739
F0.088
I7
I36
tp88
sg9
F32.28779602050781
sg10
I100
sg11
I500
satp89
Rp90
(dp91
g25
I01
sg26
g31
sg32
(lp92
I3
aI5
aI30
aI9
asg34
I6
sg35
g36
(g3
tp93
Rp94
sbsS'IBEA'
p95
g2
(g3
g4
(lp96
(dp97
g7
(F0.051
F2.312
F0.137
I1
I1
tp98
sg9
F0.015736103057861328
sg10
I100
sg11
I0
sa(dp99
g7
(F0.12
F0.942
F0.12
I3
I3
tp100
sg9
F6.271605968475342
sg10
I100
sg11
I100
sa(dp101
g7
(F0.113
F0.963
F0.118
I2
I2
tp102
sg9
F12.602265119552612
sg10
I100
sg11
I200
sa(dp103
g7
(F0.096
F0.968
F0.094
I2
I3
tp104
sg9
F19.20361614227295
sg10
I100
sg11
I300
sa(dp105
g7
(F0.088
F2.407
F0.081
I1
I4
tp106
sg9
F25.97765803337097
sg10
I100
sg11
I400
sa(dp107
g7
(F0.11
F0.908
F0.127
I2
I2
tp108
sg9
F32.69775700569153
sg10
I100
sg11
I500
satp109
Rp110
(dp111
g25
I01
sg26
g31
sg32
(lp112
I3
aI5
aI30
aI9
asg34
I6
sg35
g36
(g3
tp113
Rp114
sbsS'NSGA2'
p115
g2
(g3
g4
(lp116
(dp117
g7
(F0.084
F0.93
F0.117
I3
I3
tp118
sg9
F0.01761007308959961
sg10
I100
sg11
I0
sa(dp119
g7
g64
sg9
F6.118213176727295
sg10
I100
sg11
I100
sa(dp120
g7
g64
sg9
F12.164605140686035
sg10
I100
sg11
I200
sa(dp121
g7
g64
sg9
F18.206400156021118
sg10
I100
sg11
I300
sa(dp122
g7
g64
sg9
F24.1845600605011
sg10
I100
sg11
I400
sa(dp123
g7
(F0.088
F2.407
F0.081
I1
I1
tp124
sg9
F30.168487071990967
sg10
I100
sg11
I500
satp125
Rp126
(dp127
g25
I01
sg26
g31
sg32
(lp128
I3
aI5
aI30
aI9
asg34
I6
sg35
g36
(g3
tp129
Rp130
sbsS'IBEA-SIP'
p131
g2
(g3
g4
(lp132
(dp133
g7
(F0.147
F0.839
F0.082
I10
I47
tp134
sg9
F0.016527891159057617
sg10
I100
sg11
I0
sa(dp135
g7
(F0.155
F0.764
F0.074
I12
I100
tp136
sg9
F6.005490779876709
sg10
I100
sg11
I100
sa(dp137
g7
(F0.152
F0.916
F0.076
I10
I100
tp138
sg9
F12.073767900466919
sg10
I100
sg11
I200
sa(dp139
g7
(F0.149
F0.743
F0.082
I11
I100
tp140
sg9
F18.113287925720215
sg10
I100
sg11
I300
sa(dp141
g7
(F0.149
F0.958
F0.061
I11
I100
tp142
sg9
F24.00178098678589
sg10
I100
sg11
I400
sa(dp143
g7
(F0.155
F0.942
F0.078
I11
I100
tp144
sg9
F30.086920976638794
sg10
I100
sg11
I500
satp145
Rp146
(dp147
g25
I01
sg26
g31
sg32
(lp148
I3
aI5
aI30
aI9
asg34
I6
sg35
g36
(g3
tp149
Rp150
sbs.