(dp0
S'NSGA2-SIP'
p1
ccopy_reg
_reconstructor
p2
(cdeap.tools.support
Logbook
p3
c__builtin__
list
p4
(lp5
(dp6
S'hv|spread|igd|frontier#|valid#'
p7
(F0.157
F0.809
F0.082
I12
I59
tp8
sS'timestamp'
p9
F0.020618915557861328
sS'evals'
p10
I100
sS'gen'
p11
I0
sa(dp12
g7
(F0.157
F0.702
F0.082
I12
I100
tp13
sg9
F2.705728054046631
sg10
I100
sg11
I100
sa(dp14
g7
(F0.157
F0.899
F0.082
I12
I100
tp15
sg9
F5.399945974349976
sg10
I100
sg11
I200
sa(dp16
g7
(F0.157
F0.815
F0.076
I13
I100
tp17
sg9
F8.079718112945557
sg10
I100
sg11
I300
sa(dp18
g7
(F0.157
F0.947
F0.076
I13
I100
tp19
sg9
F10.737652063369751
sg10
I100
sg11
I400
sa(dp20
g7
(F0.157
F0.867
F0.076
I13
I100
tp21
sg9
F13.41270899772644
sg10
I100
sg11
I500
satp22
Rp23
(dp24
S'log_header'
p25
I01
sS'header'
p26
(S'gen'
p27
S'evals'
p28
S'hv|spread|igd|frontier#|valid#'
p29
S'timestamp'
p30
tp31
sS'columns_len'
p32
(lp33
I3
aI5
aI30
aI9
asS'buffindex'
p34
I6
sS'chapters'
p35
ccollections
defaultdict
p36
(g3
tp37
Rp38
sbsS'SPEA2-SIP'
p39
g2
(g3
g4
(lp40
(dp41
g7
(F0.146
F0.712
F0.085
I13
I54
tp42
sg9
F0.02112889289855957
sg10
I100
sg11
I0
sa(dp43
g7
(F0.157
F0.86
F0.076
I13
I100
tp44
sg9
F172.76702094078064
sg10
I100
sg11
I100
sa(dp45
g7
(F0.157
F0.904
F0.076
I13
I100
tp46
sg9
F347.21140599250793
sg10
I100
sg11
I200
sa(dp47
g7
(F0.157
F0.808
F0.076
I13
I100
tp48
sg9
F523.8466589450836
sg10
I100
sg11
I300
sa(dp49
g7
(F0.157
F0.837
F0.076
I13
I100
tp50
sg9
F700.2637329101562
sg10
I100
sg11
I400
sa(dp51
g7
(F0.157
F0.837
F0.076
I13
I100
tp52
sg9
F873.4373381137848
sg10
I100
sg11
I500
satp53
Rp54
(dp55
g25
I01
sg26
g31
sg32
(lp56
I3
aI5
aI30
aI9
asg34
I6
sg35
g36
(g3
tp57
Rp58
sbsS'SPEA2'
p59
g2
(g3
g4
(lp60
(dp61
g7
(F0.115
F0.839
F0.108
I5
I6
tp62
sg9
F0.020726919174194336
sg10
I100
sg11
I0
sa(dp63
g7
(I0
I0
I0
I0
I0
tp64
sg9
F135.2382049560547
sg10
I100
sg11
I100
sa(dp65
g7
g64
sg9
F271.0053389072418
sg10
I100
sg11
I200
sa(dp66
g7
(F0.087
F2.236
F0.121
I1
I1
tp67
sg9
F406.72340393066406
sg10
I100
sg11
I300
sa(dp68
g7
g64
sg9
F539.9842569828033
sg10
I100
sg11
I400
sa(dp69
g7
(F0.087
F2.236
F0.121
I1
I1
tp70
sg9
F672.5905799865723
sg10
I100
sg11
I500
satp71
Rp72
(dp73
g25
I01
sg26
g31
sg32
(lp74
I3
aI5
aI30
aI9
asg34
I6
sg35
g36
(g3
tp75
Rp76
sbsS'IBEA'
p77
g2
(g3
g4
(lp78
(dp79
g7
(F0.075
F0.933
F0.109
I2
I3
tp80
sg9
F0.019677162170410156
sg10
I100
sg11
I0
sa(dp81
g7
g64
sg9
F6.855541229248047
sg10
I100
sg11
I100
sa(dp82
g7
(F0.037
F2.599
F0.099
I1
I3
tp83
sg9
F13.757644176483154
sg10
I100
sg11
I200
sa(dp84
g7
(F0.116
F1.0
F0.122
I3
I3
tp85
sg9
F20.590501070022583
sg10
I100
sg11
I300
sa(dp86
g7
(F0.088
F2.407
F0.081
I1
I1
tp87
sg9
F27.53362011909485
sg10
I100
sg11
I400
sa(dp88
g7
(F0.11
F0.908
F0.127
I2
I3
tp89
sg9
F34.38511300086975
sg10
I100
sg11
I500
satp90
Rp91
(dp92
g25
I01
sg26
g31
sg32
(lp93
I3
aI5
aI30
aI9
asg34
I6
sg35
g36
(g3
tp94
Rp95
sbsS'NSGA2'
p96
g2
(g3
g4
(lp97
(dp98
g7
(F0.092
F0.934
F0.15
I4
I4
tp99
sg9
F0.020692110061645508
sg10
I100
sg11
I0
sa(dp100
g7
g64
sg9
F7.050256967544556
sg10
I100
sg11
I100
sa(dp101
g7
g64
sg9
F14.198966979980469
sg10
I100
sg11
I200
sa(dp102
g7
(F0.074
F2.312
F0.136
I1
I1
tp103
sg9
F21.202640056610107
sg10
I100
sg11
I300
sa(dp104
g7
g64
sg9
F28.183935165405273
sg10
I100
sg11
I400
sa(dp105
g7
g64
sg9
F35.10846710205078
sg10
I100
sg11
I500
satp106
Rp107
(dp108
g25
I01
sg26
g31
sg32
(lp109
I3
aI5
aI30
aI9
asg34
I6
sg35
g36
(g3
tp110
Rp111
sbsS'IBEA-SIP'
p112
g2
(g3
g4
(lp113
(dp114
g7
(F0.148
F0.822
F0.056
I11
I49
tp115
sg9
F0.019634008407592773
sg10
I100
sg11
I0
sa(dp116
g7
(F0.143
F0.909
F0.082
I11
I100
tp117
sg9
F6.297821998596191
sg10
I100
sg11
I100
sa(dp118
g7
(F0.157
F0.711
F0.099
I10
I100
tp119
sg9
F12.638811826705933
sg10
I100
sg11
I200
sa(dp120
g7
(F0.143
F0.693
F0.091
I10
I100
tp121
sg9
F19.02621603012085
sg10
I100
sg11
I300
sa(dp122
g7
(F0.156
F0.881
F0.098
I9
I100
tp123
sg9
F25.448072910308838
sg10
I100
sg11
I400
sa(dp124
g7
(F0.156
F0.628
F0.074
I11
I100
tp125
sg9
F31.882316827774048
sg10
I100
sg11
I500
satp126
Rp127
(dp128
g25
I01
sg26
g31
sg32
(lp129
I3
aI5
aI30
aI9
asg34
I6
sg35
g36
(g3
tp130
Rp131
sbs.