(dp0
S'NSGA2-SIP'
p1
ccopy_reg
_reconstructor
p2
(cdeap.tools.support
Logbook
p3
c__builtin__
list
p4
(lp5
(dp6
S'hv|spread|igd|frontier#|valid#'
p7
(F0.154
F0.928
F0.089
I10
I59
tp8
sS'timestamp'
p9
F0.020135879516601562
sS'evals'
p10
I100
sS'gen'
p11
I0
sa(dp12
g7
(F0.157
F0.837
F0.076
I13
I100
tp13
sg9
F2.61181902885437
sg10
I100
sg11
I100
sa(dp14
g7
(F0.157
F0.668
F0.076
I13
I100
tp15
sg9
F5.287147045135498
sg10
I100
sg11
I200
sa(dp16
g7
(F0.157
F0.86
F0.076
I13
I100
tp17
sg9
F8.000060081481934
sg10
I100
sg11
I300
sa(dp18
g7
(F0.157
F0.895
F0.076
I13
I100
tp19
sg9
F10.72421908378601
sg10
I100
sg11
I400
sa(dp20
g7
(F0.157
F0.86
F0.076
I13
I100
tp21
sg9
F13.474300861358643
sg10
I100
sg11
I500
satp22
Rp23
(dp24
S'log_header'
p25
I01
sS'header'
p26
(S'gen'
p27
S'evals'
p28
S'hv|spread|igd|frontier#|valid#'
p29
S'timestamp'
p30
tp31
sS'columns_len'
p32
(lp33
I3
aI5
aI30
aI9
asS'buffindex'
p34
I6
sS'chapters'
p35
ccollections
defaultdict
p36
(g3
tp37
Rp38
sbsS'SPEA2-SIP'
p39
g2
(g3
g4
(lp40
(dp41
g7
(F0.142
F0.697
F0.065
I11
I53
tp42
sg9
F0.0195310115814209
sg10
I100
sg11
I0
sa(dp43
g7
(F0.157
F0.895
F0.076
I13
I100
tp44
sg9
F166.36881303787231
sg10
I100
sg11
I100
sa(dp45
g7
(F0.157
F0.867
F0.076
I13
I100
tp46
sg9
F337.3699550628662
sg10
I100
sg11
I200
sa(dp47
g7
(F0.157
F0.933
F0.076
I13
I100
tp48
sg9
F509.50785994529724
sg10
I100
sg11
I300
sa(dp49
g7
(F0.157
F0.726
F0.076
I13
I100
tp50
sg9
F679.5896420478821
sg10
I100
sg11
I400
sa(dp51
g7
(F0.157
F0.734
F0.076
I13
I100
tp52
sg9
F847.764711856842
sg10
I100
sg11
I500
satp53
Rp54
(dp55
g25
I01
sg26
g31
sg32
(lp56
I3
aI5
aI30
aI9
asg34
I6
sg35
g36
(g3
tp57
Rp58
sbsS'SPEA2'
p59
g2
(g3
g4
(lp60
(dp61
g7
(F0.097
F0.934
F0.07
I3
I5
tp62
sg9
F0.01984691619873047
sg10
I100
sg11
I0
sa(dp63
g7
(I0
I0
I0
I0
I0
tp64
sg9
F135.65090489387512
sg10
I100
sg11
I100
sa(dp65
g7
g64
sg9
F280.30343103408813
sg10
I100
sg11
I200
sa(dp66
g7
g64
sg9
F422.5911979675293
sg10
I100
sg11
I300
sa(dp67
g7
g64
sg9
F564.6930680274963
sg10
I100
sg11
I400
sa(dp68
g7
g64
sg9
F706.8473370075226
sg10
I100
sg11
I500
satp69
Rp70
(dp71
g25
I01
sg26
g31
sg32
(lp72
I3
aI5
aI30
aI9
asg34
I6
sg35
g36
(g3
tp73
Rp74
sbsS'IBEA'
p75
g2
(g3
g4
(lp76
(dp77
g7
(F0.11
F0.939
F0.084
I3
I5
tp78
sg9
F0.020234107971191406
sg10
I100
sg11
I0
sa(dp79
g7
(F0.142
F0.828
F0.092
I4
I7
tp80
sg9
F6.78181004524231
sg10
I100
sg11
I100
sa(dp81
g7
(F0.1
F0.94
F0.09
I2
I4
tp82
sg9
F13.617578983306885
sg10
I100
sg11
I200
sa(dp83
g7
g64
sg9
F20.359255075454712
sg10
I100
sg11
I300
sa(dp84
g7
(F0.1
F0.94
F0.09
I2
I3
tp85
sg9
F27.199229955673218
sg10
I100
sg11
I400
sa(dp86
g7
(F0.037
F2.599
F0.099
I1
I1
tp87
sg9
F34.09656000137329
sg10
I100
sg11
I500
satp88
Rp89
(dp90
g25
I01
sg26
g31
sg32
(lp91
I3
aI5
aI30
aI9
asg34
I6
sg35
g36
(g3
tp92
Rp93
sbsS'NSGA2'
p94
g2
(g3
g4
(lp95
(dp96
g7
(F0.047
F0.884
F0.154
I3
I3
tp97
sg9
F0.02001786231994629
sg10
I100
sg11
I0
sa(dp98
g7
(F0.088
F2.407
F0.081
I1
I1
tp99
sg9
F6.790411949157715
sg10
I100
sg11
I100
sa(dp100
g7
g64
sg9
F13.664898872375488
sg10
I100
sg11
I200
sa(dp101
g7
(F0.092
F2.312
F0.154
I1
I1
tp102
sg9
F20.55610203742981
sg10
I100
sg11
I300
sa(dp103
g7
g64
sg9
F27.26707100868225
sg10
I100
sg11
I400
sa(dp104
g7
(F0.055
F2.5
F0.106
I1
I1
tp105
sg9
F34.09344291687012
sg10
I100
sg11
I500
satp106
Rp107
(dp108
g25
I01
sg26
g31
sg32
(lp109
I3
aI5
aI30
aI9
asg34
I6
sg35
g36
(g3
tp110
Rp111
sbsS'IBEA-SIP'
p112
g2
(g3
g4
(lp113
(dp114
g7
(F0.153
F0.794
F0.092
I12
I60
tp115
sg9
F0.020601987838745117
sg10
I100
sg11
I0
sa(dp116
g7
(F0.148
F0.688
F0.082
I11
I100
tp117
sg9
F6.259658098220825
sg10
I100
sg11
I100
sa(dp118
g7
(F0.147
F0.917
F0.054
I10
I100
tp119
sg9
F12.582490921020508
sg10
I100
sg11
I200
sa(dp120
g7
(F0.128
F0.82
F0.065
I9
I100
tp121
sg9
F18.901474952697754
sg10
I100
sg11
I300
sa(dp122
g7
(F0.144
F0.907
F0.057
I10
I100
tp123
sg9
F25.27317500114441
sg10
I100
sg11
I400
sa(dp124
g7
(F0.157
F0.911
F0.076
I13
I100
tp125
sg9
F31.581634998321533
sg10
I100
sg11
I500
satp126
Rp127
(dp128
g25
I01
sg26
g31
sg32
(lp129
I3
aI5
aI30
aI9
asg34
I6
sg35
g36
(g3
tp130
Rp131
sbs.