(dp0
S'NSGA2-SIP'
p1
ccopy_reg
_reconstructor
p2
(cdeap.tools.support
Logbook
p3
c__builtin__
list
p4
(lp5
(dp6
S'hv|spread|igd|frontier#|valid#'
p7
(F0.153
F0.802
F0.082
I13
I66
tp8
sS'timestamp'
p9
F0.021106958389282227
sS'evals'
p10
I100
sS'gen'
p11
I0
sa(dp12
g7
(F0.157
F0.805
F0.076
I13
I100
tp13
sg9
F2.6705751419067383
sg10
I100
sg11
I100
sa(dp14
g7
(F0.157
F0.827
F0.076
I13
I100
tp15
sg9
F5.368402004241943
sg10
I100
sg11
I200
sa(dp16
g7
(F0.157
F0.99
F0.076
I13
I100
tp17
sg9
F8.059330940246582
sg10
I100
sg11
I300
sa(dp18
g7
(F0.157
F0.895
F0.076
I13
I100
tp19
sg9
F10.769735097885132
sg10
I100
sg11
I400
sa(dp20
g7
(F0.157
F0.827
F0.076
I13
I100
tp21
sg9
F13.469159126281738
sg10
I100
sg11
I500
satp22
Rp23
(dp24
S'log_header'
p25
I01
sS'header'
p26
(S'gen'
p27
S'evals'
p28
S'hv|spread|igd|frontier#|valid#'
p29
S'timestamp'
p30
tp31
sS'columns_len'
p32
(lp33
I3
aI5
aI30
aI9
asS'buffindex'
p34
I6
sS'chapters'
p35
ccollections
defaultdict
p36
(g3
tp37
Rp38
sbsS'SPEA2-SIP'
p39
g2
(g3
g4
(lp40
(dp41
g7
(F0.157
F0.754
F0.076
I13
I65
tp42
sg9
F0.02124810218811035
sg10
I100
sg11
I0
sa(dp43
g7
(F0.157
F0.808
F0.076
I13
I100
tp44
sg9
F196.44185996055603
sg10
I100
sg11
I100
sa(dp45
g7
(F0.157
F0.668
F0.076
I13
I100
tp46
sg9
F394.1038570404053
sg10
I100
sg11
I200
sa(dp47
g7
(F0.157
F0.947
F0.076
I13
I100
tp48
sg9
F587.8933029174805
sg10
I100
sg11
I300
sa(dp49
g7
(F0.157
F0.734
F0.076
I13
I100
tp50
sg9
F782.0620241165161
sg10
I100
sg11
I400
sa(dp51
g7
(F0.157
F0.63
F0.076
I13
I100
tp52
sg9
F975.3962750434875
sg10
I100
sg11
I500
satp53
Rp54
(dp55
g25
I01
sg26
g31
sg32
(lp56
I3
aI5
aI30
aI9
asg34
I6
sg35
g36
(g3
tp57
Rp58
sbsS'SPEA2'
p59
g2
(g3
g4
(lp60
(dp61
g7
(F0.085
F0.869
F0.13
I4
I6
tp62
sg9
F0.020075082778930664
sg10
I100
sg11
I0
sa(dp63
g7
(I0
I0
I0
I0
I0
tp64
sg9
F130.762629032135
sg10
I100
sg11
I100
sa(dp65
g7
(F0.087
F2.236
F0.121
I1
I1
tp66
sg9
F262.27784395217896
sg10
I100
sg11
I200
sa(dp67
g7
g64
sg9
F393.78008699417114
sg10
I100
sg11
I300
sa(dp68
g7
g64
sg9
F525.5472910404205
sg10
I100
sg11
I400
sa(dp69
g7
g64
sg9
F657.361652135849
sg10
I100
sg11
I500
satp70
Rp71
(dp72
g25
I01
sg26
g31
sg32
(lp73
I3
aI5
aI30
aI9
asg34
I6
sg35
g36
(g3
tp74
Rp75
sbsS'IBEA-PEN'
p76
g2
(g3
g4
(lp77
(dp78
g7
(F0.114
F0.9
F0.0
I5
I72
tp79
sg9
F0.03218698501586914
sg10
I100
sg11
I0
sa(dp80
g7
g64
sg9
F6.768095970153809
sg10
I100
sg11
I100
sa(dp81
g7
(F0.061
F0.97
F0.103
I2
I2
tp82
sg9
F13.575720071792603
sg10
I100
sg11
I200
sa(dp83
g7
(F0.037
F2.599
F0.099
I1
I1
tp84
sg9
F20.310096979141235
sg10
I100
sg11
I300
sa(dp85
g7
(F0.092
F2.312
F0.154
I1
I1
tp86
sg9
F27.124109029769897
sg10
I100
sg11
I400
sa(dp87
g7
(F0.1
F0.94
F0.09
I2
I3
tp88
sg9
F33.93289089202881
sg10
I100
sg11
I500
satp89
Rp90
(dp91
g25
I01
sg26
g31
sg32
(lp92
I3
aI5
aI30
aI9
asg34
I6
sg35
g36
(g3
tp93
Rp94
sbsS'IBEA'
p95
g2
(g3
g4
(lp96
(dp97
g7
(F0.079
F0.934
F0.111
I4
I4
tp98
sg9
F0.020138025283813477
sg10
I100
sg11
I0
sa(dp99
g7
(F0.118
F0.942
F0.12
I3
I7
tp100
sg9
F6.658253908157349
sg10
I100
sg11
I100
sa(dp101
g7
(F0.088
F2.407
F0.081
I1
I1
tp102
sg9
F13.31634783744812
sg10
I100
sg11
I200
sa(dp103
g7
(F0.092
F2.312
F0.154
I1
I1
tp104
sg9
F20.041327953338623
sg10
I100
sg11
I300
sa(dp105
g7
(F0.088
F2.407
F0.081
I1
I2
tp106
sg9
F26.73692488670349
sg10
I100
sg11
I400
sa(dp107
g7
(F0.037
F2.599
F0.099
I1
I1
tp108
sg9
F33.444026947021484
sg10
I100
sg11
I500
satp109
Rp110
(dp111
g25
I01
sg26
g31
sg32
(lp112
I3
aI5
aI30
aI9
asg34
I6
sg35
g36
(g3
tp113
Rp114
sbsS'NSGA2'
p115
g2
(g3
g4
(lp116
(dp117
g7
(F0.099
F0.904
F0.121
I5
I5
tp118
sg9
F0.02054309844970703
sg10
I100
sg11
I0
sa(dp119
g7
g64
sg9
F6.88779091835022
sg10
I100
sg11
I100
sa(dp120
g7
g64
sg9
F13.77155590057373
sg10
I100
sg11
I200
sa(dp121
g7
g64
sg9
F20.648014068603516
sg10
I100
sg11
I300
sa(dp122
g7
g64
sg9
F27.46733593940735
sg10
I100
sg11
I400
sa(dp123
g7
(F0.088
F2.407
F0.081
I1
I1
tp124
sg9
F34.34083104133606
sg10
I100
sg11
I500
satp125
Rp126
(dp127
g25
I01
sg26
g31
sg32
(lp128
I3
aI5
aI30
aI9
asg34
I6
sg35
g36
(g3
tp129
Rp130
sbsS'IBEA-SIP'
p131
g2
(g3
g4
(lp132
(dp133
g7
(F0.15
F0.622
F0.082
I14
I64
tp134
sg9
F0.021589040756225586
sg10
I100
sg11
I0
sa(dp135
g7
(F0.157
F0.724
F0.09
I11
I100
tp136
sg9
F6.071635007858276
sg10
I100
sg11
I100
sa(dp137
g7
(F0.146
F0.991
F0.06
I9
I100
tp138
sg9
F12.26137113571167
sg10
I100
sg11
I200
sa(dp139
g7
(F0.142
F0.879
F0.064
I11
I100
tp140
sg9
F18.456525087356567
sg10
I100
sg11
I300
sa(dp141
g7
(F0.157
F0.784
F0.08
I11
I100
tp142
sg9
F24.680721044540405
sg10
I100
sg11
I400
sa(dp143
g7
(F0.15
F0.902
F0.084
I9
I100
tp144
sg9
F30.881189107894897
sg10
I100
sg11
I500
satp145
Rp146
(dp147
g25
I01
sg26
g31
sg32
(lp148
I3
aI5
aI30
aI9
asg34
I6
sg35
g36
(g3
tp149
Rp150
sbs.