(dp0
S'NSGA2-SIP'
p1
ccopy_reg
_reconstructor
p2
(cdeap.tools.support
Logbook
p3
c__builtin__
list
p4
(lp5
(dp6
S'hv|spread|igd|frontier#|valid#'
p7
(F0.157
F0.809
F0.082
I12
I54
tp8
sS'timestamp'
p9
F0.02053213119506836
sS'evals'
p10
I100
sS'gen'
p11
I0
sa(dp12
g7
(F0.157
F0.683
F0.076
I13
I100
tp13
sg9
F2.686126947402954
sg10
I100
sg11
I100
sa(dp14
g7
(F0.157
F0.933
F0.076
I13
I100
tp15
sg9
F5.364776134490967
sg10
I100
sg11
I200
sa(dp16
g7
(F0.157
F0.99
F0.076
I13
I100
tp17
sg9
F7.992938995361328
sg10
I100
sg11
I300
sa(dp18
g7
(F0.157
F0.808
F0.076
I13
I100
tp19
sg9
F10.751310110092163
sg10
I100
sg11
I400
sa(dp20
g7
(F0.157
F0.726
F0.076
I13
I100
tp21
sg9
F13.508182048797607
sg10
I100
sg11
I500
satp22
Rp23
(dp24
S'log_header'
p25
I01
sS'header'
p26
(S'gen'
p27
S'evals'
p28
S'hv|spread|igd|frontier#|valid#'
p29
S'timestamp'
p30
tp31
sS'columns_len'
p32
(lp33
I3
aI5
aI30
aI9
asS'buffindex'
p34
I6
sS'chapters'
p35
ccollections
defaultdict
p36
(g3
tp37
Rp38
sbsS'SPEA2-SIP'
p39
g2
(g3
g4
(lp40
(dp41
g7
(F0.144
F0.881
F0.055
I11
I61
tp42
sg9
F0.020308971405029297
sg10
I100
sg11
I0
sa(dp43
g7
(F0.157
F0.805
F0.076
I13
I100
tp44
sg9
F171.68433594703674
sg10
I100
sg11
I100
sa(dp45
g7
(F0.157
F0.99
F0.076
I13
I100
tp46
sg9
F346.3238649368286
sg10
I100
sg11
I200
sa(dp47
g7
(F0.157
F0.834
F0.076
I13
I100
tp48
sg9
F520.5295689105988
sg10
I100
sg11
I300
sa(dp49
g7
(F0.157
F0.827
F0.076
I13
I100
tp50
sg9
F693.5265419483185
sg10
I100
sg11
I400
sa(dp51
g7
(F0.157
F0.63
F0.076
I13
I100
tp52
sg9
F868.4365859031677
sg10
I100
sg11
I500
satp53
Rp54
(dp55
g25
I01
sg26
g31
sg32
(lp56
I3
aI5
aI30
aI9
asg34
I6
sg35
g36
(g3
tp57
Rp58
sbsS'SPEA2'
p59
g2
(g3
g4
(lp60
(dp61
g7
(F0.085
F0.927
F0.127
I2
I2
tp62
sg9
F0.01984691619873047
sg10
I100
sg11
I0
sa(dp63
g7
(I0
I0
I0
I0
I0
tp64
sg9
F137.39237189292908
sg10
I100
sg11
I100
sa(dp65
g7
g64
sg9
F275.89159989356995
sg10
I100
sg11
I200
sa(dp66
g7
g64
sg9
F412.9162437915802
sg10
I100
sg11
I300
sa(dp67
g7
g64
sg9
F547.735408782959
sg10
I100
sg11
I400
sa(dp68
g7
g64
sg9
F685.3736817836761
sg10
I100
sg11
I500
satp69
Rp70
(dp71
g25
I01
sg26
g31
sg32
(lp72
I3
aI5
aI30
aI9
asg34
I6
sg35
g36
(g3
tp73
Rp74
sbsS'IBEA'
p75
g2
(g3
g4
(lp76
(dp77
g7
(F0.072
F0.755
F0.113
I6
I6
tp78
sg9
F0.021409034729003906
sg10
I100
sg11
I0
sa(dp79
g7
(F0.037
F2.599
F0.099
I1
I1
tp80
sg9
F6.886461973190308
sg10
I100
sg11
I100
sa(dp81
g7
(F0.061
F0.97
F0.103
I2
I2
tp82
sg9
F13.811999082565308
sg10
I100
sg11
I200
sa(dp83
g7
(F0.1
F0.94
F0.09
I2
I3
tp84
sg9
F20.751729011535645
sg10
I100
sg11
I300
sa(dp85
g7
(F0.1
F0.94
F0.09
I2
I2
tp86
sg9
F27.701080083847046
sg10
I100
sg11
I400
sa(dp87
g7
g64
sg9
F34.673402070999146
sg10
I100
sg11
I500
satp88
Rp89
(dp90
g25
I01
sg26
g31
sg32
(lp91
I3
aI5
aI30
aI9
asg34
I6
sg35
g36
(g3
tp92
Rp93
sbsS'NSGA2'
p94
g2
(g3
g4
(lp95
(dp96
g7
(F0.116
F0.836
F0.123
I4
I7
tp97
sg9
F0.020465850830078125
sg10
I100
sg11
I0
sa(dp98
g7
(F0.088
F2.407
F0.081
I1
I1
tp99
sg9
F6.751036882400513
sg10
I100
sg11
I100
sa(dp100
g7
(F0.124
F0.938
F0.114
I3
I3
tp101
sg9
F13.629961967468262
sg10
I100
sg11
I200
sa(dp102
g7
g64
sg9
F20.61038899421692
sg10
I100
sg11
I300
sa(dp103
g7
(F0.055
F2.5
F0.106
I1
I1
tp104
sg9
F27.548518896102905
sg10
I100
sg11
I400
sa(dp105
g7
g64
sg9
F34.4192099571228
sg10
I100
sg11
I500
satp106
Rp107
(dp108
g25
I01
sg26
g31
sg32
(lp109
I3
aI5
aI30
aI9
asg34
I6
sg35
g36
(g3
tp110
Rp111
sbsS'IBEA-SIP'
p112
g2
(g3
g4
(lp113
(dp114
g7
(F0.149
F0.854
F0.058
I12
I56
tp115
sg9
F0.020631074905395508
sg10
I100
sg11
I0
sa(dp116
g7
(F0.157
F0.664
F0.082
I12
I100
tp117
sg9
F6.246654033660889
sg10
I100
sg11
I100
sa(dp118
g7
(F0.143
F0.751
F0.082
I11
I100
tp119
sg9
F12.626439094543457
sg10
I100
sg11
I200
sa(dp120
g7
(F0.155
F0.678
F0.08
I11
I100
tp121
sg9
F19.018728017807007
sg10
I100
sg11
I300
sa(dp122
g7
(F0.15
F0.87
F0.056
I12
I100
tp123
sg9
F25.410338163375854
sg10
I100
sg11
I400
sa(dp124
g7
(F0.153
F0.863
F0.069
I11
I100
tp125
sg9
F31.752556085586548
sg10
I100
sg11
I500
satp126
Rp127
(dp128
g25
I01
sg26
g31
sg32
(lp129
I3
aI5
aI30
aI9
asg34
I6
sg35
g36
(g3
tp130
Rp131
sbs.