(dp0
S'NSGA2-SIP'
p1
ccopy_reg
_reconstructor
p2
(cdeap.tools.support
Logbook
p3
c__builtin__
list
p4
(lp5
(dp6
S'hv|spread|igd|frontier#|valid#'
p7
(F0.148
F0.787
F0.08
I13
I59
tp8
sS'timestamp'
p9
F0.02043294906616211
sS'evals'
p10
I100
sS'gen'
p11
I0
sa(dp12
g7
(F0.157
F0.63
F0.076
I13
I100
tp13
sg9
F2.5955607891082764
sg10
I100
sg11
I100
sa(dp14
g7
(F0.157
F0.824
F0.076
I13
I100
tp15
sg9
F5.204486846923828
sg10
I100
sg11
I200
sa(dp16
g7
(F0.157
F0.642
F0.076
I13
I100
tp17
sg9
F7.808826923370361
sg10
I100
sg11
I300
sa(dp18
g7
(F0.157
F0.811
F0.076
I13
I100
tp19
sg9
F10.410732984542847
sg10
I100
sg11
I400
sa(dp20
g7
(F0.157
F0.99
F0.076
I13
I100
tp21
sg9
F13.102430820465088
sg10
I100
sg11
I500
satp22
Rp23
(dp24
S'log_header'
p25
I01
sS'header'
p26
(S'gen'
p27
S'evals'
p28
S'hv|spread|igd|frontier#|valid#'
p29
S'timestamp'
p30
tp31
sS'columns_len'
p32
(lp33
I3
aI5
aI30
aI9
asS'buffindex'
p34
I6
sS'chapters'
p35
ccollections
defaultdict
p36
(g3
tp37
Rp38
sbsS'SPEA2-SIP'
p39
g2
(g3
g4
(lp40
(dp41
g7
(F0.153
F0.771
F0.083
I12
I56
tp42
sg9
F0.02050614356994629
sg10
I100
sg11
I0
sa(dp43
g7
(F0.157
F0.683
F0.076
I13
I100
tp44
sg9
F170.3611831665039
sg10
I100
sg11
I100
sa(dp45
g7
(F0.157
F0.63
F0.076
I13
I100
tp46
sg9
F340.68252897262573
sg10
I100
sg11
I200
sa(dp47
g7
(F0.157
F0.734
F0.076
I13
I100
tp48
sg9
F509.67453598976135
sg10
I100
sg11
I300
sa(dp49
g7
(F0.157
F0.947
F0.076
I13
I100
tp50
sg9
F680.3372659683228
sg10
I100
sg11
I400
sa(dp51
g7
(F0.157
F0.99
F0.076
I13
I100
tp52
sg9
F852.8465061187744
sg10
I100
sg11
I500
satp53
Rp54
(dp55
g25
I01
sg26
g31
sg32
(lp56
I3
aI5
aI30
aI9
asg34
I6
sg35
g36
(g3
tp57
Rp58
sbsS'SPEA2'
p59
g2
(g3
g4
(lp60
(dp61
g7
(F0.112
F0.876
F0.074
I3
I5
tp62
sg9
F0.01954507827758789
sg10
I100
sg11
I0
sa(dp63
g7
(I0
I0
I0
I0
I0
tp64
sg9
F126.59162998199463
sg10
I100
sg11
I100
sa(dp65
g7
g64
sg9
F259.5062839984894
sg10
I100
sg11
I200
sa(dp66
g7
g64
sg9
F391.04161310195923
sg10
I100
sg11
I300
sa(dp67
g7
g64
sg9
F522.4426081180573
sg10
I100
sg11
I400
sa(dp68
g7
g64
sg9
F652.1127080917358
sg10
I100
sg11
I500
satp69
Rp70
(dp71
g25
I01
sg26
g31
sg32
(lp72
I3
aI5
aI30
aI9
asg34
I6
sg35
g36
(g3
tp73
Rp74
sbsS'IBEA-PEN'
p75
g2
(g3
g4
(lp76
(dp77
g7
(F0.114
F0.899
F0.0
I5
I58
tp78
sg9
F0.032195091247558594
sg10
I100
sg11
I0
sa(dp79
g7
(F0.051
F2.5
F0.106
I1
I1
tp80
sg9
F6.909444093704224
sg10
I100
sg11
I100
sa(dp81
g7
g64
sg9
F13.850228071212769
sg10
I100
sg11
I200
sa(dp82
g7
(F0.014
F2.599
F0.081
I1
I1
tp83
sg9
F20.744354963302612
sg10
I100
sg11
I300
sa(dp84
g7
g64
sg9
F27.629829168319702
sg10
I100
sg11
I400
sa(dp85
g7
(F0.088
F2.407
F0.081
I1
I1
tp86
sg9
F34.4858181476593
sg10
I100
sg11
I500
satp87
Rp88
(dp89
g25
I01
sg26
g31
sg32
(lp90
I3
aI5
aI30
aI9
asg34
I6
sg35
g36
(g3
tp91
Rp92
sbsS'IBEA'
p93
g2
(g3
g4
(lp94
(dp95
g7
(F0.091
F0.932
F0.125
I2
I4
tp96
sg9
F0.02004408836364746
sg10
I100
sg11
I0
sa(dp97
g7
(F0.062
F1.0
F0.091
I3
I3
tp98
sg9
F6.835386037826538
sg10
I100
sg11
I100
sa(dp99
g7
(F0.088
F2.407
F0.081
I1
I1
tp100
sg9
F13.68360710144043
sg10
I100
sg11
I200
sa(dp101
g7
(F0.1
F0.94
F0.09
I2
I4
tp102
sg9
F20.523959159851074
sg10
I100
sg11
I300
sa(dp103
g7
(F0.1
F0.94
F0.09
I2
I3
tp104
sg9
F27.394180059432983
sg10
I100
sg11
I400
sa(dp105
g7
(F0.092
F2.312
F0.154
I1
I1
tp106
sg9
F34.27117204666138
sg10
I100
sg11
I500
satp107
Rp108
(dp109
g25
I01
sg26
g31
sg32
(lp110
I3
aI5
aI30
aI9
asg34
I6
sg35
g36
(g3
tp111
Rp112
sbsS'NSGA2'
p113
g2
(g3
g4
(lp114
(dp115
g7
(F0.093
F0.921
F0.088
I4
I4
tp116
sg9
F0.01988983154296875
sg10
I100
sg11
I0
sa(dp117
g7
(F0.088
F2.407
F0.081
I1
I1
tp118
sg9
F6.944166898727417
sg10
I100
sg11
I100
sa(dp119
g7
(F0.055
F2.5
F0.106
I1
I1
tp120
sg9
F13.828559875488281
sg10
I100
sg11
I200
sa(dp121
g7
g64
sg9
F20.719393968582153
sg10
I100
sg11
I300
sa(dp122
g7
g64
sg9
F27.493443965911865
sg10
I100
sg11
I400
sa(dp123
g7
(F0.088
F2.407
F0.081
I1
I1
tp124
sg9
F34.46151280403137
sg10
I100
sg11
I500
satp125
Rp126
(dp127
g25
I01
sg26
g31
sg32
(lp128
I3
aI5
aI30
aI9
asg34
I6
sg35
g36
(g3
tp129
Rp130
sbsS'IBEA-SIP'
p131
g2
(g3
g4
(lp132
(dp133
g7
(F0.148
F0.762
F0.091
I10
I64
tp134
sg9
F0.019891977310180664
sg10
I100
sg11
I0
sa(dp135
g7
(F0.156
F0.822
F0.091
I9
I100
tp136
sg9
F6.153179883956909
sg10
I100
sg11
I100
sa(dp137
g7
(F0.149
F0.836
F0.067
I10
I100
tp138
sg9
F12.370635986328125
sg10
I100
sg11
I200
sa(dp139
g7
(F0.139
F0.822
F0.101
I9
I100
tp140
sg9
F18.6122829914093
sg10
I100
sg11
I300
sa(dp141
g7
(F0.157
F0.788
F0.09
I11
I100
tp142
sg9
F24.83647394180298
sg10
I100
sg11
I400
sa(dp143
g7
(F0.139
F0.774
F0.082
I11
I100
tp144
sg9
F31.128045797348022
sg10
I100
sg11
I500
satp145
Rp146
(dp147
g25
I01
sg26
g31
sg32
(lp148
I3
aI5
aI30
aI9
asg34
I6
sg35
g36
(g3
tp149
Rp150
sbs.