(dp0
S'NSGA2-SIP'
p1
ccopy_reg
_reconstructor
p2
(cdeap.tools.support
Logbook
p3
c__builtin__
list
p4
(lp5
(dp6
S'hv|spread|igd|frontier#|valid#'
p7
(F0.157
F0.754
F0.076
I13
I54
tp8
sS'timestamp'
p9
F0.015961170196533203
sS'evals'
p10
I100
sS'gen'
p11
I0
sa(dp12
g7
(F0.157
F0.827
F0.076
I13
I100
tp13
sg9
F2.052839994430542
sg10
I100
sg11
I100
sa(dp14
g7
(F0.157
F0.805
F0.076
I13
I100
tp15
sg9
F4.173952102661133
sg10
I100
sg11
I200
sa(dp16
g7
(F0.157
F0.86
F0.076
I13
I100
tp17
sg9
F6.283429145812988
sg10
I100
sg11
I300
sa(dp18
g7
(F0.157
F0.808
F0.076
I13
I100
tp19
sg9
F8.399578094482422
sg10
I100
sg11
I400
sa(dp20
g7
(F0.157
F0.808
F0.076
I13
I100
tp21
sg9
F10.511890172958374
sg10
I100
sg11
I500
satp22
Rp23
(dp24
S'log_header'
p25
I01
sS'header'
p26
(S'gen'
p27
S'evals'
p28
S'hv|spread|igd|frontier#|valid#'
p29
S'timestamp'
p30
tp31
sS'columns_len'
p32
(lp33
I3
aI5
aI30
aI9
asS'buffindex'
p34
I6
sS'chapters'
p35
ccollections
defaultdict
p36
(g3
tp37
Rp38
sbsS'SPEA2-SIP'
p39
g2
(g3
g4
(lp40
(dp41
g7
(F0.148
F0.875
F0.052
I10
I51
tp42
sg9
F0.014637947082519531
sg10
I100
sg11
I0
sa(dp43
g7
(F0.157
F0.834
F0.076
I13
I100
tp44
sg9
F139.56451296806335
sg10
I100
sg11
I100
sa(dp45
g7
(F0.157
F0.86
F0.076
I13
I100
tp46
sg9
F283.3600859642029
sg10
I100
sg11
I200
sa(dp47
g7
(F0.157
F0.734
F0.076
I13
I100
tp48
sg9
F427.94479298591614
sg10
I100
sg11
I300
sa(dp49
g7
(F0.157
F0.867
F0.076
I13
I100
tp50
sg9
F570.8856010437012
sg10
I100
sg11
I400
sa(dp51
g7
(F0.157
F0.726
F0.076
I13
I100
tp52
sg9
F715.1331388950348
sg10
I100
sg11
I500
satp53
Rp54
(dp55
g25
I01
sg26
g31
sg32
(lp56
I3
aI5
aI30
aI9
asg34
I6
sg35
g36
(g3
tp57
Rp58
sbsS'SPEA2'
p59
g2
(g3
g4
(lp60
(dp61
g7
(F0.107
F0.894
F0.131
I5
I7
tp62
sg9
F0.015836000442504883
sg10
I100
sg11
I0
sa(dp63
g7
(I0
I0
I0
I0
I0
tp64
sg9
F107.76054811477661
sg10
I100
sg11
I100
sa(dp65
g7
(F0.087
F2.236
F0.121
I1
I1
tp66
sg9
F219.51411509513855
sg10
I100
sg11
I200
sa(dp67
g7
g64
sg9
F331.7885479927063
sg10
I100
sg11
I300
sa(dp68
g7
g64
sg9
F442.6462559700012
sg10
I100
sg11
I400
sa(dp69
g7
g64
sg9
F554.5476801395416
sg10
I100
sg11
I500
satp70
Rp71
(dp72
g25
I01
sg26
g31
sg32
(lp73
I3
aI5
aI30
aI9
asg34
I6
sg35
g36
(g3
tp74
Rp75
sbsS'IBEA'
p76
g2
(g3
g4
(lp77
(dp78
g7
(F0.097
F0.771
F0.151
I3
I3
tp79
sg9
F0.015315055847167969
sg10
I100
sg11
I0
sa(dp80
g7
(F0.1
F0.94
F0.09
I2
I2
tp81
sg9
F5.997380018234253
sg10
I100
sg11
I100
sa(dp82
g7
(F0.1
F0.94
F0.09
I2
I6
tp83
sg9
F12.112613201141357
sg10
I100
sg11
I200
sa(dp84
g7
g64
sg9
F18.23767113685608
sg10
I100
sg11
I300
sa(dp85
g7
(F0.076
F0.94
F0.076
I2
I2
tp86
sg9
F24.31099510192871
sg10
I100
sg11
I400
sa(dp87
g7
g64
sg9
F30.315240144729614
sg10
I100
sg11
I500
satp88
Rp89
(dp90
g25
I01
sg26
g31
sg32
(lp91
I3
aI5
aI30
aI9
asg34
I6
sg35
g36
(g3
tp92
Rp93
sbsS'NSGA2'
p94
g2
(g3
g4
(lp95
(dp96
g7
(F0.088
F0.829
F0.112
I5
I5
tp97
sg9
F0.015646934509277344
sg10
I100
sg11
I0
sa(dp98
g7
g64
sg9
F5.366810083389282
sg10
I100
sg11
I100
sa(dp99
g7
g64
sg9
F10.857136964797974
sg10
I100
sg11
I200
sa(dp100
g7
g64
sg9
F16.27734613418579
sg10
I100
sg11
I300
sa(dp101
g7
g64
sg9
F21.679215908050537
sg10
I100
sg11
I400
sa(dp102
g7
g64
sg9
F27.11366105079651
sg10
I100
sg11
I500
satp103
Rp104
(dp105
g25
I01
sg26
g31
sg32
(lp106
I3
aI5
aI30
aI9
asg34
I6
sg35
g36
(g3
tp107
Rp108
sbsS'IBEA-SIP'
p109
g2
(g3
g4
(lp110
(dp111
g7
(F0.149
F0.85
F0.051
I11
I59
tp112
sg9
F0.015377044677734375
sg10
I100
sg11
I0
sa(dp113
g7
(F0.143
F0.751
F0.082
I11
I100
tp114
sg9
F5.457690000534058
sg10
I100
sg11
I100
sa(dp115
g7
(F0.156
F0.481
F0.098
I10
I100
tp116
sg9
F10.988793849945068
sg10
I100
sg11
I200
sa(dp117
g7
(F0.143
F0.71
F0.091
I10
I100
tp118
sg9
F16.5673508644104
sg10
I100
sg11
I300
sa(dp119
g7
(F0.146
F0.63
F0.085
I10
I100
tp120
sg9
F22.196388006210327
sg10
I100
sg11
I400
sa(dp121
g7
(F0.139
F0.789
F0.08
I10
I100
tp122
sg9
F27.807031869888306
sg10
I100
sg11
I500
satp123
Rp124
(dp125
g25
I01
sg26
g31
sg32
(lp126
I3
aI5
aI30
aI9
asg34
I6
sg35
g36
(g3
tp127
Rp128
sbs.