(dp0
S'NSGA2-SIP'
p1
ccopy_reg
_reconstructor
p2
(cdeap.tools.support
Logbook
p3
c__builtin__
list
p4
(lp5
(dp6
S'hv|spread|igd|frontier#|valid#'
p7
(F0.157
F0.797
F0.082
I12
I57
tp8
sS'timestamp'
p9
F0.01637101173400879
sS'evals'
p10
I100
sS'gen'
p11
I0
sa(dp12
g7
(F0.157
F0.734
F0.076
I13
I100
tp13
sg9
F2.170275926589966
sg10
I100
sg11
I100
sa(dp14
g7
(F0.157
F0.99
F0.076
I13
I100
tp15
sg9
F4.31685996055603
sg10
I100
sg11
I200
sa(dp16
g7
(F0.157
F0.99
F0.076
I13
I100
tp17
sg9
F6.523832082748413
sg10
I100
sg11
I300
sa(dp18
g7
(F0.157
F0.805
F0.076
I13
I100
tp19
sg9
F8.752618074417114
sg10
I100
sg11
I400
sa(dp20
g7
(F0.157
F0.726
F0.076
I13
I100
tp21
sg9
F10.979382991790771
sg10
I100
sg11
I500
satp22
Rp23
(dp24
S'log_header'
p25
I01
sS'header'
p26
(S'gen'
p27
S'evals'
p28
S'hv|spread|igd|frontier#|valid#'
p29
S'timestamp'
p30
tp31
sS'columns_len'
p32
(lp33
I3
aI5
aI30
aI9
asS'buffindex'
p34
I6
sS'chapters'
p35
ccollections
defaultdict
p36
(g3
tp37
Rp38
sbsS'SPEA2-SIP'
p39
g2
(g3
g4
(lp40
(dp41
g7
(F0.15
F0.854
F0.056
I12
I65
tp42
sg9
F0.017442941665649414
sg10
I100
sg11
I0
sa(dp43
g7
(F0.157
F0.815
F0.076
I13
I100
tp44
sg9
F145.64346194267273
sg10
I100
sg11
I100
sa(dp45
g7
(F0.157
F0.734
F0.076
I13
I100
tp46
sg9
F295.2862639427185
sg10
I100
sg11
I200
sa(dp47
g7
(F0.157
F0.726
F0.076
I13
I100
tp48
sg9
F444.06150007247925
sg10
I100
sg11
I300
sa(dp49
g7
(F0.157
F0.837
F0.076
I13
I100
tp50
sg9
F593.6679530143738
sg10
I100
sg11
I400
sa(dp51
g7
(F0.157
F0.734
F0.076
I13
I100
tp52
sg9
F742.3718841075897
sg10
I100
sg11
I500
satp53
Rp54
(dp55
g25
I01
sg26
g31
sg32
(lp56
I3
aI5
aI30
aI9
asg34
I6
sg35
g36
(g3
tp57
Rp58
sbsS'SPEA2'
p59
g2
(g3
g4
(lp60
(dp61
g7
(F0.084
F1.0
F0.102
I3
I4
tp62
sg9
F0.016017913818359375
sg10
I100
sg11
I0
sa(dp63
g7
(I0
I0
I0
I0
I0
tp64
sg9
F113.22910785675049
sg10
I100
sg11
I100
sa(dp65
g7
g64
sg9
F229.3596270084381
sg10
I100
sg11
I200
sa(dp66
g7
g64
sg9
F345.2856478691101
sg10
I100
sg11
I300
sa(dp67
g7
g64
sg9
F462.2750129699707
sg10
I100
sg11
I400
sa(dp68
g7
g64
sg9
F578.1925890445709
sg10
I100
sg11
I500
satp69
Rp70
(dp71
g25
I01
sg26
g31
sg32
(lp72
I3
aI5
aI30
aI9
asg34
I6
sg35
g36
(g3
tp73
Rp74
sbsS'IBEA-PEN'
p75
g2
(g3
g4
(lp76
(dp77
g7
(F0.114
F0.824
F0.0
I5
I69
tp78
sg9
F0.021903038024902344
sg10
I100
sg11
I0
sa(dp79
g7
(F0.141
F0.751
F0.063
I10
I43
tp80
sg9
F6.100809097290039
sg10
I100
sg11
I100
sa(dp81
g7
(F0.136
F0.744
F0.092
I9
I56
tp82
sg9
F12.45209288597107
sg10
I100
sg11
I200
sa(dp83
g7
(F0.127
F0.764
F0.073
I8
I57
tp84
sg9
F18.82863187789917
sg10
I100
sg11
I300
sa(dp85
g7
(F0.155
F0.449
F0.106
I8
I52
tp86
sg9
F25.16124391555786
sg10
I100
sg11
I400
sa(dp87
g7
(F0.149
F0.943
F0.093
I7
I72
tp88
sg9
F31.550337076187134
sg10
I100
sg11
I500
satp89
Rp90
(dp91
g25
I01
sg26
g31
sg32
(lp92
I3
aI5
aI30
aI9
asg34
I6
sg35
g36
(g3
tp93
Rp94
sbsS'IBEA'
p95
g2
(g3
g4
(lp96
(dp97
g7
(F0.058
F0.968
F0.137
I2
I2
tp98
sg9
F0.016109943389892578
sg10
I100
sg11
I0
sa(dp99
g7
(F0.037
F2.599
F0.099
I1
I1
tp100
sg9
F6.2387659549713135
sg10
I100
sg11
I100
sa(dp101
g7
g64
sg9
F12.469258785247803
sg10
I100
sg11
I200
sa(dp102
g7
(F0.088
F2.407
F0.081
I1
I2
tp103
sg9
F18.680258989334106
sg10
I100
sg11
I300
sa(dp104
g7
g64
sg9
F24.904597997665405
sg10
I100
sg11
I400
sa(dp105
g7
(F0.088
F2.407
F0.081
I1
I2
tp106
sg9
F31.140633821487427
sg10
I100
sg11
I500
satp107
Rp108
(dp109
g25
I01
sg26
g31
sg32
(lp110
I3
aI5
aI30
aI9
asg34
I6
sg35
g36
(g3
tp111
Rp112
sbsS'NSGA2'
p113
g2
(g3
g4
(lp114
(dp115
g7
(F0.103
F0.886
F0.115
I4
I5
tp116
sg9
F0.01626420021057129
sg10
I100
sg11
I0
sa(dp117
g7
(F0.088
F2.407
F0.081
I1
I1
tp118
sg9
F5.619808197021484
sg10
I100
sg11
I100
sa(dp119
g7
g64
sg9
F11.305981159210205
sg10
I100
sg11
I200
sa(dp120
g7
(F0.092
F2.312
F0.154
I1
I1
tp121
sg9
F16.932054042816162
sg10
I100
sg11
I300
sa(dp122
g7
(F0.055
F2.5
F0.106
I1
I1
tp123
sg9
F22.566920042037964
sg10
I100
sg11
I400
sa(dp124
g7
(F0.092
F2.312
F0.154
I1
I1
tp125
sg9
F28.222814083099365
sg10
I100
sg11
I500
satp126
Rp127
(dp128
g25
I01
sg26
g31
sg32
(lp129
I3
aI5
aI30
aI9
asg34
I6
sg35
g36
(g3
tp130
Rp131
sbsS'IBEA-SIP'
p132
g2
(g3
g4
(lp133
(dp134
g7
(F0.157
F0.732
F0.082
I12
I49
tp135
sg9
F0.01608896255493164
sg10
I100
sg11
I0
sa(dp136
g7
(F0.152
F0.753
F0.094
I8
I100
tp137
sg9
F5.642796993255615
sg10
I100
sg11
I100
sa(dp138
g7
(F0.142
F0.889
F0.089
I9
I100
tp139
sg9
F11.324606895446777
sg10
I100
sg11
I200
sa(dp140
g7
(F0.155
F0.784
F0.071
I11
I100
tp141
sg9
F17.009752988815308
sg10
I100
sg11
I300
sa(dp142
g7
(F0.155
F0.575
F0.088
I10
I100
tp143
sg9
F22.72177791595459
sg10
I100
sg11
I400
sa(dp144
g7
(F0.145
F0.925
F0.052
I11
I100
tp145
sg9
F28.436378955841064
sg10
I100
sg11
I500
satp146
Rp147
(dp148
g25
I01
sg26
g31
sg32
(lp149
I3
aI5
aI30
aI9
asg34
I6
sg35
g36
(g3
tp150
Rp151
sbs.