(dp0
S'NSGA2-SIP'
p1
ccopy_reg
_reconstructor
p2
(cdeap.tools.support
Logbook
p3
c__builtin__
list
p4
(lp5
(dp6
S'hv|spread|igd|frontier#|valid#'
p7
(F0.156
F0.63
F0.084
I13
I56
tp8
sS'timestamp'
p9
F0.01767897605895996
sS'evals'
p10
I100
sS'gen'
p11
I0
sa(dp12
g7
(F0.157
F0.824
F0.076
I13
I100
tp13
sg9
F2.287065029144287
sg10
I100
sg11
I100
sa(dp14
g7
(F0.157
F0.683
F0.076
I13
I100
tp15
sg9
F4.363887071609497
sg10
I100
sg11
I200
sa(dp16
g7
(F0.157
F0.683
F0.076
I13
I100
tp17
sg9
F6.433586120605469
sg10
I100
sg11
I300
sa(dp18
g7
(F0.157
F0.827
F0.076
I13
I100
tp19
sg9
F8.48378610610962
sg10
I100
sg11
I400
sa(dp20
g7
(F0.157
F0.734
F0.076
I13
I100
tp21
sg9
F10.570531129837036
sg10
I100
sg11
I500
satp22
Rp23
(dp24
S'log_header'
p25
I01
sS'header'
p26
(S'gen'
p27
S'evals'
p28
S'hv|spread|igd|frontier#|valid#'
p29
S'timestamp'
p30
tp31
sS'columns_len'
p32
(lp33
I3
aI5
aI30
aI9
asS'buffindex'
p34
I6
sS'chapters'
p35
ccollections
defaultdict
p36
(g3
tp37
Rp38
sbsS'SPEA2-SIP'
p39
g2
(g3
g4
(lp40
(dp41
g7
(F0.142
F0.731
F0.083
I13
I51
tp42
sg9
F0.01712203025817871
sg10
I100
sg11
I0
sa(dp43
g7
(F0.157
F0.895
F0.076
I13
I100
tp44
sg9
F138.16428899765015
sg10
I100
sg11
I100
sa(dp45
g7
(F0.157
F0.734
F0.076
I13
I100
tp46
sg9
F281.68541383743286
sg10
I100
sg11
I200
sa(dp47
g7
(F0.157
F0.726
F0.076
I13
I100
tp48
sg9
F425.6168830394745
sg10
I100
sg11
I300
sa(dp49
g7
(F0.157
F0.827
F0.076
I13
I100
tp50
sg9
F568.4257798194885
sg10
I100
sg11
I400
sa(dp51
g7
(F0.157
F0.734
F0.076
I13
I100
tp52
sg9
F711.6650199890137
sg10
I100
sg11
I500
satp53
Rp54
(dp55
g25
I01
sg26
g31
sg32
(lp56
I3
aI5
aI30
aI9
asg34
I6
sg35
g36
(g3
tp57
Rp58
sbsS'SPEA2'
p59
g2
(g3
g4
(lp60
(dp61
g7
(F0.102
F0.933
F0.092
I2
I4
tp62
sg9
F0.01696014404296875
sg10
I100
sg11
I0
sa(dp63
g7
(I0
I0
I0
I0
I0
tp64
sg9
F113.09287595748901
sg10
I100
sg11
I100
sa(dp65
g7
g64
sg9
F225.60404109954834
sg10
I100
sg11
I200
sa(dp66
g7
g64
sg9
F339.5616810321808
sg10
I100
sg11
I300
sa(dp67
g7
g64
sg9
F453.2651951313019
sg10
I100
sg11
I400
sa(dp68
g7
g64
sg9
F566.2013881206512
sg10
I100
sg11
I500
satp69
Rp70
(dp71
g25
I01
sg26
g31
sg32
(lp72
I3
aI5
aI30
aI9
asg34
I6
sg35
g36
(g3
tp73
Rp74
sbsS'IBEA-PEN'
p75
g2
(g3
g4
(lp76
(dp77
g7
(F0.114
F0.899
F0.0
I5
I67
tp78
sg9
F0.027753829956054688
sg10
I100
sg11
I0
sa(dp79
g7
(F0.088
F2.407
F0.081
I1
I1
tp80
sg9
F6.252604961395264
sg10
I100
sg11
I100
sa(dp81
g7
(F0.088
F2.407
F0.081
I1
I2
tp82
sg9
F12.249253988265991
sg10
I100
sg11
I200
sa(dp83
g7
(F0.123
F0.978
F0.106
I4
I7
tp84
sg9
F18.215966939926147
sg10
I100
sg11
I300
sa(dp85
g7
g64
sg9
F24.17581081390381
sg10
I100
sg11
I400
sa(dp86
g7
(F0.1
F0.94
F0.09
I2
I5
tp87
sg9
F30.137959003448486
sg10
I100
sg11
I500
satp88
Rp89
(dp90
g25
I01
sg26
g31
sg32
(lp91
I3
aI5
aI30
aI9
asg34
I6
sg35
g36
(g3
tp92
Rp93
sbsS'IBEA'
p94
g2
(g3
g4
(lp95
(dp96
g7
(F0.104
F0.938
F0.098
I3
I5
tp97
sg9
F0.024071931838989258
sg10
I100
sg11
I0
sa(dp98
g7
(F0.1
F0.94
F0.09
I2
I2
tp99
sg9
F6.113697052001953
sg10
I100
sg11
I100
sa(dp100
g7
g64
sg9
F12.029462099075317
sg10
I100
sg11
I200
sa(dp101
g7
(F0.1
F0.94
F0.09
I2
I2
tp102
sg9
F18.192466974258423
sg10
I100
sg11
I300
sa(dp103
g7
(F0.1
F0.94
F0.09
I2
I4
tp104
sg9
F24.1071879863739
sg10
I100
sg11
I400
sa(dp105
g7
(F0.092
F2.312
F0.154
I1
I1
tp106
sg9
F30.014091968536377
sg10
I100
sg11
I500
satp107
Rp108
(dp109
g25
I01
sg26
g31
sg32
(lp110
I3
aI5
aI30
aI9
asg34
I6
sg35
g36
(g3
tp111
Rp112
sbsS'NSGA2'
p113
g2
(g3
g4
(lp114
(dp115
g7
(F0.107
F0.933
F0.103
I6
I9
tp116
sg9
F0.018194198608398438
sg10
I100
sg11
I0
sa(dp117
g7
g64
sg9
F5.628106117248535
sg10
I100
sg11
I100
sa(dp118
g7
g64
sg9
F11.029791116714478
sg10
I100
sg11
I200
sa(dp119
g7
g64
sg9
F16.45599603652954
sg10
I100
sg11
I300
sa(dp120
g7
g64
sg9
F21.85069704055786
sg10
I100
sg11
I400
sa(dp121
g7
g64
sg9
F27.238165140151978
sg10
I100
sg11
I500
satp122
Rp123
(dp124
g25
I01
sg26
g31
sg32
(lp125
I3
aI5
aI30
aI9
asg34
I6
sg35
g36
(g3
tp126
Rp127
sbsS'IBEA-SIP'
p128
g2
(g3
g4
(lp129
(dp130
g7
(F0.151
F0.794
F0.07
I12
I46
tp131
sg9
F0.016752958297729492
sg10
I100
sg11
I0
sa(dp132
g7
(F0.137
F0.878
F0.101
I9
I100
tp133
sg9
F5.546669960021973
sg10
I100
sg11
I100
sa(dp134
g7
(F0.153
F0.776
F0.091
I9
I100
tp135
sg9
F11.022479772567749
sg10
I100
sg11
I200
sa(dp136
g7
(F0.143
F0.721
F0.082
I11
I100
tp137
sg9
F16.488890886306763
sg10
I100
sg11
I300
sa(dp138
g7
(F0.156
F0.775
F0.102
I9
I100
tp139
sg9
F21.89223885536194
sg10
I100
sg11
I400
sa(dp140
g7
(F0.153
F0.766
F0.069
I11
I100
tp141
sg9
F27.371880769729614
sg10
I100
sg11
I500
satp142
Rp143
(dp144
g25
I01
sg26
g31
sg32
(lp145
I3
aI5
aI30
aI9
asg34
I6
sg35
g36
(g3
tp146
Rp147
sbs.