(dp0
S'NSGA2-SIP'
p1
ccopy_reg
_reconstructor
p2
(cdeap.tools.support
Logbook
p3
c__builtin__
list
p4
(lp5
(dp6
S'hv|spread|igd|frontier#|valid#'
p7
(F0.152
F0.747
F0.082
I12
I47
tp8
sS'timestamp'
p9
F0.016849994659423828
sS'evals'
p10
I100
sS'gen'
p11
I0
sa(dp12
g7
(F0.157
F0.904
F0.076
I13
I100
tp13
sg9
F2.263111114501953
sg10
I100
sg11
I100
sa(dp14
g7
(F0.157
F0.668
F0.076
I13
I100
tp15
sg9
F4.335302114486694
sg10
I100
sg11
I200
sa(dp16
g7
(F0.157
F0.808
F0.076
I13
I100
tp17
sg9
F6.411282062530518
sg10
I100
sg11
I300
sa(dp18
g7
(F0.157
F0.734
F0.076
I13
I100
tp19
sg9
F8.44058895111084
sg10
I100
sg11
I400
sa(dp20
g7
(F0.157
F0.827
F0.076
I13
I100
tp21
sg9
F10.487112998962402
sg10
I100
sg11
I500
satp22
Rp23
(dp24
S'log_header'
p25
I01
sS'header'
p26
(S'gen'
p27
S'evals'
p28
S'hv|spread|igd|frontier#|valid#'
p29
S'timestamp'
p30
tp31
sS'columns_len'
p32
(lp33
I3
aI5
aI30
aI9
asS'buffindex'
p34
I6
sS'chapters'
p35
ccollections
defaultdict
p36
(g3
tp37
Rp38
sbsS'SPEA2-SIP'
p39
g2
(g3
g4
(lp40
(dp41
g7
(F0.156
F0.692
F0.081
I12
I56
tp42
sg9
F0.01775193214416504
sg10
I100
sg11
I0
sa(dp43
g7
(F0.157
F0.86
F0.076
I13
I100
tp44
sg9
F141.71279287338257
sg10
I100
sg11
I100
sa(dp45
g7
(F0.157
F0.86
F0.076
I13
I100
tp46
sg9
F284.4329550266266
sg10
I100
sg11
I200
sa(dp47
g7
(F0.157
F0.81
F0.076
I13
I100
tp48
sg9
F425.9686839580536
sg10
I100
sg11
I300
sa(dp49
g7
(F0.157
F0.734
F0.076
I13
I100
tp50
sg9
F569.1770739555359
sg10
I100
sg11
I400
sa(dp51
g7
(F0.157
F0.809
F0.076
I13
I100
tp52
sg9
F713.4534900188446
sg10
I100
sg11
I500
satp53
Rp54
(dp55
g25
I01
sg26
g31
sg32
(lp56
I3
aI5
aI30
aI9
asg34
I6
sg35
g36
(g3
tp57
Rp58
sbsS'SPEA2'
p59
g2
(g3
g4
(lp60
(dp61
g7
(F0.107
F0.817
F0.083
I6
I6
tp62
sg9
F0.026710987091064453
sg10
I100
sg11
I0
sa(dp63
g7
(I0
I0
I0
I0
I0
tp64
sg9
F108.79674005508423
sg10
I100
sg11
I100
sa(dp65
g7
(F0.087
F2.236
F0.121
I1
I1
tp66
sg9
F222.03248500823975
sg10
I100
sg11
I200
sa(dp67
g7
g64
sg9
F332.7273910045624
sg10
I100
sg11
I300
sa(dp68
g7
g64
sg9
F445.570827960968
sg10
I100
sg11
I400
sa(dp69
g7
g64
sg9
F558.684623003006
sg10
I100
sg11
I500
satp70
Rp71
(dp72
g25
I01
sg26
g31
sg32
(lp73
I3
aI5
aI30
aI9
asg34
I6
sg35
g36
(g3
tp74
Rp75
sbsS'IBEA'
p76
g2
(g3
g4
(lp77
(dp78
g7
(F0.081
F0.926
F0.12
I4
I6
tp79
sg9
F0.01767587661743164
sg10
I100
sg11
I0
sa(dp80
g7
(F0.061
F0.97
F0.103
I2
I6
tp81
sg9
F6.1593239307403564
sg10
I100
sg11
I100
sa(dp82
g7
(F0.11
F0.908
F0.127
I2
I4
tp83
sg9
F12.150030851364136
sg10
I100
sg11
I200
sa(dp84
g7
(F0.129
F0.891
F0.11
I4
I9
tp85
sg9
F18.223198890686035
sg10
I100
sg11
I300
sa(dp86
g7
(F0.125
F0.884
F0.112
I3
I8
tp87
sg9
F24.31273579597473
sg10
I100
sg11
I400
sa(dp88
g7
(F0.051
F2.5
F0.106
I1
I1
tp89
sg9
F30.390147924423218
sg10
I100
sg11
I500
satp90
Rp91
(dp92
g25
I01
sg26
g31
sg32
(lp93
I3
aI5
aI30
aI9
asg34
I6
sg35
g36
(g3
tp94
Rp95
sbsS'NSGA2'
p96
g2
(g3
g4
(lp97
(dp98
g7
(F0.107
F0.925
F0.186
I4
I5
tp99
sg9
F0.025680065155029297
sg10
I100
sg11
I0
sa(dp100
g7
g64
sg9
F5.546558141708374
sg10
I100
sg11
I100
sa(dp101
g7
(F0.055
F2.5
F0.106
I1
I1
tp102
sg9
F10.95593810081482
sg10
I100
sg11
I200
sa(dp103
g7
g64
sg9
F16.373191118240356
sg10
I100
sg11
I300
sa(dp104
g7
g64
sg9
F21.70649003982544
sg10
I100
sg11
I400
sa(dp105
g7
(F0.088
F2.407
F0.081
I1
I1
tp106
sg9
F27.20455312728882
sg10
I100
sg11
I500
satp107
Rp108
(dp109
g25
I01
sg26
g31
sg32
(lp110
I3
aI5
aI30
aI9
asg34
I6
sg35
g36
(g3
tp111
Rp112
sbsS'IBEA-SIP'
p113
g2
(g3
g4
(lp114
(dp115
g7
(F0.157
F0.766
F0.082
I12
I58
tp116
sg9
F0.026684999465942383
sg10
I100
sg11
I0
sa(dp117
g7
(F0.157
F0.942
F0.09
I11
I100
tp118
sg9
F5.637294054031372
sg10
I100
sg11
I100
sa(dp119
g7
(F0.157
F1.014
F0.089
I10
I100
tp120
sg9
F11.131485939025879
sg10
I100
sg11
I200
sa(dp121
g7
(F0.148
F0.905
F0.067
I9
I100
tp122
sg9
F16.61975598335266
sg10
I100
sg11
I300
sa(dp123
g7
(F0.143
F0.941
F0.101
I9
I100
tp124
sg9
F22.11963200569153
sg10
I100
sg11
I400
sa(dp125
g7
(F0.153
F0.847
F0.069
I11
I100
tp126
sg9
F27.70539689064026
sg10
I100
sg11
I500
satp127
Rp128
(dp129
g25
I01
sg26
g31
sg32
(lp130
I3
aI5
aI30
aI9
asg34
I6
sg35
g36
(g3
tp131
Rp132
sbs.