(dp0
S'NSGA2-SIP'
p1
ccopy_reg
_reconstructor
p2
(cdeap.tools.support
Logbook
p3
c__builtin__
list
p4
(lp5
(dp6
S'hv|spread|igd|frontier#|valid#'
p7
(F0.149
F0.733
F0.072
I11
I49
tp8
sS'timestamp'
p9
F0.016676902770996094
sS'evals'
p10
I100
sS'gen'
p11
I0
sa(dp12
g7
(F0.157
F0.998
F0.076
I13
I100
tp13
sg9
F2.2700917720794678
sg10
I100
sg11
I100
sa(dp14
g7
(F0.157
F0.734
F0.076
I13
I100
tp15
sg9
F4.569378852844238
sg10
I100
sg11
I200
sa(dp16
g7
(F0.157
F0.805
F0.076
I13
I100
tp17
sg9
F6.847538948059082
sg10
I100
sg11
I300
sa(dp18
g7
(F0.157
F0.817
F0.076
I13
I100
tp19
sg9
F9.108900785446167
sg10
I100
sg11
I400
sa(dp20
g7
(F0.157
F0.815
F0.076
I13
I100
tp21
sg9
F11.40891981124878
sg10
I100
sg11
I500
satp22
Rp23
(dp24
S'log_header'
p25
I01
sS'header'
p26
(S'gen'
p27
S'evals'
p28
S'hv|spread|igd|frontier#|valid#'
p29
S'timestamp'
p30
tp31
sS'columns_len'
p32
(lp33
I3
aI5
aI30
aI9
asS'buffindex'
p34
I6
sS'chapters'
p35
ccollections
defaultdict
p36
(g3
tp37
Rp38
sbsS'SPEA2-SIP'
p39
g2
(g3
g4
(lp40
(dp41
g7
(F0.143
F0.872
F0.078
I10
I51
tp42
sg9
F0.016570091247558594
sg10
I100
sg11
I0
sa(dp43
g7
(F0.157
F0.815
F0.076
I13
I100
tp44
sg9
F163.07638907432556
sg10
I100
sg11
I100
sa(dp45
g7
(F0.157
F0.726
F0.076
I13
I100
tp46
sg9
F323.6827461719513
sg10
I100
sg11
I200
sa(dp47
g7
(F0.157
F0.933
F0.076
I13
I100
tp48
sg9
F485.2385699748993
sg10
I100
sg11
I300
sa(dp49
g7
(F0.157
F0.809
F0.076
I13
I100
tp50
sg9
F645.5734369754791
sg10
I100
sg11
I400
sa(dp51
g7
(F0.157
F0.86
F0.076
I13
I100
tp52
sg9
F809.8287491798401
sg10
I100
sg11
I500
satp53
Rp54
(dp55
g25
I01
sg26
g31
sg32
(lp56
I3
aI5
aI30
aI9
asg34
I6
sg35
g36
(g3
tp57
Rp58
sbsS'SPEA2'
p59
g2
(g3
g4
(lp60
(dp61
g7
(F0.093
F0.934
F0.085
I3
I4
tp62
sg9
F0.017631053924560547
sg10
I100
sg11
I0
sa(dp63
g7
(I0
I0
I0
I0
I0
tp64
sg9
F123.33406209945679
sg10
I100
sg11
I100
sa(dp65
g7
g64
sg9
F252.12488508224487
sg10
I100
sg11
I200
sa(dp66
g7
g64
sg9
F380.66899514198303
sg10
I100
sg11
I300
sa(dp67
g7
g64
sg9
F507.91982102394104
sg10
I100
sg11
I400
sa(dp68
g7
g64
sg9
F635.4148900508881
sg10
I100
sg11
I500
satp69
Rp70
(dp71
g25
I01
sg26
g31
sg32
(lp72
I3
aI5
aI30
aI9
asg34
I6
sg35
g36
(g3
tp73
Rp74
sbsS'IBEA-PEN'
p75
g2
(g3
g4
(lp76
(dp77
g7
(F0.114
F0.9
F0.0
I5
I60
tp78
sg9
F0.02873396873474121
sg10
I100
sg11
I0
sa(dp79
g7
(F0.088
F2.407
F0.081
I1
I1
tp80
sg9
F6.9209489822387695
sg10
I100
sg11
I100
sa(dp81
g7
(F0.103
F0.943
F0.096
I3
I8
tp82
sg9
F13.70295000076294
sg10
I100
sg11
I200
sa(dp83
g7
(F0.096
F0.968
F0.094
I2
I4
tp84
sg9
F20.372169971466064
sg10
I100
sg11
I300
sa(dp85
g7
(F0.07
F1.0
F0.104
I3
I4
tp86
sg9
F27.04666495323181
sg10
I100
sg11
I400
sa(dp87
g7
(F0.055
F0.968
F0.056
I2
I2
tp88
sg9
F33.729920864105225
sg10
I100
sg11
I500
satp89
Rp90
(dp91
g25
I01
sg26
g31
sg32
(lp92
I3
aI5
aI30
aI9
asg34
I6
sg35
g36
(g3
tp93
Rp94
sbsS'IBEA'
p95
g2
(g3
g4
(lp96
(dp97
g7
(F0.096
F0.941
F0.09
I3
I4
tp98
sg9
F0.02259993553161621
sg10
I100
sg11
I0
sa(dp99
g7
(F0.088
F2.407
F0.081
I1
I3
tp100
sg9
F6.579761028289795
sg10
I100
sg11
I100
sa(dp101
g7
(F0.088
F2.407
F0.081
I1
I1
tp102
sg9
F13.18143081665039
sg10
I100
sg11
I200
sa(dp103
g7
(F0.125
F0.884
F0.112
I3
I3
tp104
sg9
F19.795336961746216
sg10
I100
sg11
I300
sa(dp105
g7
(F0.037
F2.599
F0.099
I1
I2
tp106
sg9
F26.424571990966797
sg10
I100
sg11
I400
sa(dp107
g7
(F0.113
F0.963
F0.118
I2
I3
tp108
sg9
F33.061362981796265
sg10
I100
sg11
I500
satp109
Rp110
(dp111
g25
I01
sg26
g31
sg32
(lp112
I3
aI5
aI30
aI9
asg34
I6
sg35
g36
(g3
tp113
Rp114
sbsS'NSGA2'
p115
g2
(g3
g4
(lp116
(dp117
g7
(F0.105
F0.968
F0.106
I4
I5
tp118
sg9
F0.01872992515563965
sg10
I100
sg11
I0
sa(dp119
g7
(F0.098
F0.968
F0.094
I2
I2
tp120
sg9
F6.112239837646484
sg10
I100
sg11
I100
sa(dp121
g7
g64
sg9
F12.280510902404785
sg10
I100
sg11
I200
sa(dp122
g7
g64
sg9
F18.386303901672363
sg10
I100
sg11
I300
sa(dp123
g7
g64
sg9
F24.533248901367188
sg10
I100
sg11
I400
sa(dp124
g7
g64
sg9
F30.667728900909424
sg10
I100
sg11
I500
satp125
Rp126
(dp127
g25
I01
sg26
g31
sg32
(lp128
I3
aI5
aI30
aI9
asg34
I6
sg35
g36
(g3
tp129
Rp130
sbsS'IBEA-SIP'
p131
g2
(g3
g4
(lp132
(dp133
g7
(F0.152
F0.767
F0.089
I9
I58
tp134
sg9
F0.0162961483001709
sg10
I100
sg11
I0
sa(dp135
g7
(F0.151
F1.046
F0.076
I10
I100
tp136
sg9
F6.050843000411987
sg10
I100
sg11
I100
sa(dp137
g7
(F0.143
F0.889
F0.091
I10
I100
tp138
sg9
F12.143249034881592
sg10
I100
sg11
I200
sa(dp139
g7
(F0.156
F0.802
F0.098
I9
I100
tp140
sg9
F18.260498046875
sg10
I100
sg11
I300
sa(dp141
g7
(F0.157
F0.827
F0.099
I10
I100
tp142
sg9
F24.413918018341064
sg10
I100
sg11
I400
sa(dp143
g7
(F0.157
F0.788
F0.08
I11
I100
tp144
sg9
F30.587944984436035
sg10
I100
sg11
I500
satp145
Rp146
(dp147
g25
I01
sg26
g31
sg32
(lp148
I3
aI5
aI30
aI9
asg34
I6
sg35
g36
(g3
tp149
Rp150
sbs.