(dp0
S'NSGA2-SIP'
p1
ccopy_reg
_reconstructor
p2
(cdeap.tools.support
Logbook
p3
c__builtin__
list
p4
(lp5
(dp6
S'hv|spread|igd|frontier#|valid#'
p7
(F0.155
F0.706
F0.078
I12
I58
tp8
sS'timestamp'
p9
F0.01748204231262207
sS'evals'
p10
I100
sS'gen'
p11
I0
sa(dp12
g7
(F0.157
F0.895
F0.076
I13
I100
tp13
sg9
F2.263643980026245
sg10
I100
sg11
I100
sa(dp14
g7
(F0.157
F0.726
F0.076
I13
I100
tp15
sg9
F4.397550821304321
sg10
I100
sg11
I200
sa(dp16
g7
(F0.157
F0.808
F0.076
I13
I100
tp17
sg9
F6.527169942855835
sg10
I100
sg11
I300
sa(dp18
g7
(F0.157
F0.827
F0.076
I13
I100
tp19
sg9
F8.66061782836914
sg10
I100
sg11
I400
sa(dp20
g7
(F0.157
F0.809
F0.076
I13
I100
tp21
sg9
F10.796380996704102
sg10
I100
sg11
I500
satp22
Rp23
(dp24
S'log_header'
p25
I01
sS'header'
p26
(S'gen'
p27
S'evals'
p28
S'hv|spread|igd|frontier#|valid#'
p29
S'timestamp'
p30
tp31
sS'columns_len'
p32
(lp33
I3
aI5
aI30
aI9
asS'buffindex'
p34
I6
sS'chapters'
p35
ccollections
defaultdict
p36
(g3
tp37
Rp38
sbsS'SPEA2-SIP'
p39
g2
(g3
g4
(lp40
(dp41
g7
(F0.151
F0.757
F0.08
I14
I52
tp42
sg9
F0.01677989959716797
sg10
I100
sg11
I0
sa(dp43
g7
(F0.157
F0.895
F0.076
I13
I100
tp44
sg9
F139.22939586639404
sg10
I100
sg11
I100
sa(dp45
g7
(F0.157
F0.805
F0.076
I13
I100
tp46
sg9
F283.1542489528656
sg10
I100
sg11
I200
sa(dp47
g7
(F0.157
F0.81
F0.076
I13
I100
tp48
sg9
F426.82078790664673
sg10
I100
sg11
I300
sa(dp49
g7
(F0.157
F0.734
F0.076
I13
I100
tp50
sg9
F574.6367218494415
sg10
I100
sg11
I400
sa(dp51
g7
(F0.157
F0.817
F0.076
I13
I100
tp52
sg9
F719.4879338741302
sg10
I100
sg11
I500
satp53
Rp54
(dp55
g25
I01
sg26
g31
sg32
(lp56
I3
aI5
aI30
aI9
asg34
I6
sg35
g36
(g3
tp57
Rp58
sbsS'SPEA2'
p59
g2
(g3
g4
(lp60
(dp61
g7
(F0.106
F0.894
F0.128
I5
I6
tp62
sg9
F0.017709970474243164
sg10
I100
sg11
I0
sa(dp63
g7
(I0
I0
I0
I0
I0
tp64
sg9
F109.71135687828064
sg10
I100
sg11
I100
sa(dp65
g7
g64
sg9
F221.6268928050995
sg10
I100
sg11
I200
sa(dp66
g7
g64
sg9
F334.99100494384766
sg10
I100
sg11
I300
sa(dp67
g7
g64
sg9
F448.6778597831726
sg10
I100
sg11
I400
sa(dp68
g7
g64
sg9
F561.2094619274139
sg10
I100
sg11
I500
satp69
Rp70
(dp71
g25
I01
sg26
g31
sg32
(lp72
I3
aI5
aI30
aI9
asg34
I6
sg35
g36
(g3
tp73
Rp74
sbsS'IBEA'
p75
g2
(g3
g4
(lp76
(dp77
g7
(F0.123
F0.882
F0.144
I5
I5
tp78
sg9
F0.025918006896972656
sg10
I100
sg11
I0
sa(dp79
g7
(F0.11
F0.908
F0.127
I2
I3
tp80
sg9
F6.258075952529907
sg10
I100
sg11
I100
sa(dp81
g7
(F0.067
F2.407
F0.0
I1
I1
tp82
sg9
F12.367982864379883
sg10
I100
sg11
I200
sa(dp83
g7
(F0.122
F0.938
F0.114
I3
I3
tp84
sg9
F18.40563678741455
sg10
I100
sg11
I300
sa(dp85
g7
g64
sg9
F24.43853187561035
sg10
I100
sg11
I400
sa(dp86
g7
(F0.063
F1.0
F0.106
I2
I2
tp87
sg9
F30.509467840194702
sg10
I100
sg11
I500
satp88
Rp89
(dp90
g25
I01
sg26
g31
sg32
(lp91
I3
aI5
aI30
aI9
asg34
I6
sg35
g36
(g3
tp92
Rp93
sbsS'NSGA2'
p94
g2
(g3
g4
(lp95
(dp96
g7
(F0.108
F0.817
F0.119
I4
I5
tp97
sg9
F0.025886058807373047
sg10
I100
sg11
I0
sa(dp98
g7
(F0.11
F0.934
F0.11
I2
I2
tp99
sg9
F5.604269981384277
sg10
I100
sg11
I100
sa(dp100
g7
(F0.092
F2.312
F0.154
I1
I1
tp101
sg9
F10.96096396446228
sg10
I100
sg11
I200
sa(dp102
g7
(F0.092
F2.312
F0.154
I1
I1
tp103
sg9
F16.321221113204956
sg10
I100
sg11
I300
sa(dp104
g7
g64
sg9
F21.7365300655365
sg10
I100
sg11
I400
sa(dp105
g7
g64
sg9
F27.113392114639282
sg10
I100
sg11
I500
satp106
Rp107
(dp108
g25
I01
sg26
g31
sg32
(lp109
I3
aI5
aI30
aI9
asg34
I6
sg35
g36
(g3
tp110
Rp111
sbsS'IBEA-SIP'
p112
g2
(g3
g4
(lp113
(dp114
g7
(F0.145
F0.872
F0.068
I11
I47
tp115
sg9
F0.016607046127319336
sg10
I100
sg11
I0
sa(dp116
g7
(F0.157
F0.703
F0.074
I12
I100
tp117
sg9
F5.668858051300049
sg10
I100
sg11
I100
sa(dp118
g7
(F0.143
F0.663
F0.101
I9
I100
tp119
sg9
F11.26584506034851
sg10
I100
sg11
I200
sa(dp120
g7
(F0.139
F0.787
F0.082
I11
I100
tp121
sg9
F16.835658073425293
sg10
I100
sg11
I300
sa(dp122
g7
(F0.152
F0.881
F0.084
I9
I100
tp123
sg9
F22.38649892807007
sg10
I100
sg11
I400
sa(dp124
g7
(F0.153
F0.893
F0.076
I10
I100
tp125
sg9
F27.946584939956665
sg10
I100
sg11
I500
satp126
Rp127
(dp128
g25
I01
sg26
g31
sg32
(lp129
I3
aI5
aI30
aI9
asg34
I6
sg35
g36
(g3
tp130
Rp131
sbs.