(dp0
S'NSGA2-SIP'
p1
ccopy_reg
_reconstructor
p2
(cdeap.tools.support
Logbook
p3
c__builtin__
list
p4
(lp5
(dp6
S'hv|spread|igd|frontier#|valid#'
p7
(F0.142
F0.753
F0.057
I11
I60
tp8
sS'timestamp'
p9
F0.017058849334716797
sS'evals'
p10
I100
sS'gen'
p11
I0
sa(dp12
g7
(F0.157
F0.726
F0.076
I13
I100
tp13
sg9
F2.2955148220062256
sg10
I100
sg11
I100
sa(dp14
g7
(F0.157
F0.668
F0.076
I13
I100
tp15
sg9
F4.64973783493042
sg10
I100
sg11
I200
sa(dp16
g7
(F0.157
F0.726
F0.076
I13
I100
tp17
sg9
F6.99564790725708
sg10
I100
sg11
I300
sa(dp18
g7
(F0.157
F0.827
F0.076
I13
I100
tp19
sg9
F9.344539880752563
sg10
I100
sg11
I400
sa(dp20
g7
(F0.157
F0.734
F0.076
I13
I100
tp21
sg9
F11.689616918563843
sg10
I100
sg11
I500
satp22
Rp23
(dp24
S'log_header'
p25
I01
sS'header'
p26
(S'gen'
p27
S'evals'
p28
S'hv|spread|igd|frontier#|valid#'
p29
S'timestamp'
p30
tp31
sS'columns_len'
p32
(lp33
I3
aI5
aI30
aI9
asS'buffindex'
p34
I6
sS'chapters'
p35
ccollections
defaultdict
p36
(g3
tp37
Rp38
sbsS'SPEA2-SIP'
p39
g2
(g3
g4
(lp40
(dp41
g7
(F0.157
F0.693
F0.074
I12
I55
tp42
sg9
F0.017961978912353516
sg10
I100
sg11
I0
sa(dp43
g7
(F0.157
F0.63
F0.076
I13
I100
tp44
sg9
F156.69043803215027
sg10
I100
sg11
I100
sa(dp45
g7
(F0.157
F0.81
F0.076
I13
I100
tp46
sg9
F314.6600980758667
sg10
I100
sg11
I200
sa(dp47
g7
(F0.157
F0.815
F0.076
I13
I100
tp48
sg9
F472.5254120826721
sg10
I100
sg11
I300
sa(dp49
g7
(F0.157
F0.726
F0.076
I13
I100
tp50
sg9
F630.6391129493713
sg10
I100
sg11
I400
sa(dp51
g7
(F0.157
F0.81
F0.076
I13
I100
tp52
sg9
F792.4820671081543
sg10
I100
sg11
I500
satp53
Rp54
(dp55
g25
I01
sg26
g31
sg32
(lp56
I3
aI5
aI30
aI9
asg34
I6
sg35
g36
(g3
tp57
Rp58
sbsS'SPEA2'
p59
g2
(g3
g4
(lp60
(dp61
g7
(F0.036
F2.236
F0.094
I1
I1
tp62
sg9
F0.016381025314331055
sg10
I100
sg11
I0
sa(dp63
g7
(I0
I0
I0
I0
I0
tp64
sg9
F125.47850298881531
sg10
I100
sg11
I100
sa(dp65
g7
g64
sg9
F251.33884620666504
sg10
I100
sg11
I200
sa(dp66
g7
g64
sg9
F375.7284691333771
sg10
I100
sg11
I300
sa(dp67
g7
g64
sg9
F499.1728889942169
sg10
I100
sg11
I400
sa(dp68
g7
g64
sg9
F625.1046431064606
sg10
I100
sg11
I500
satp69
Rp70
(dp71
g25
I01
sg26
g31
sg32
(lp72
I3
aI5
aI30
aI9
asg34
I6
sg35
g36
(g3
tp73
Rp74
sbsS'IBEA'
p75
g2
(g3
g4
(lp76
(dp77
g7
(F0.125
F0.959
F0.105
I5
I6
tp78
sg9
F0.01759195327758789
sg10
I100
sg11
I0
sa(dp79
g7
(F0.088
F2.407
F0.081
I1
I3
tp80
sg9
F6.606036901473999
sg10
I100
sg11
I100
sa(dp81
g7
(F0.092
F2.312
F0.154
I1
I1
tp82
sg9
F13.242222785949707
sg10
I100
sg11
I200
sa(dp83
g7
g64
sg9
F19.892030000686646
sg10
I100
sg11
I300
sa(dp84
g7
(F0.037
F2.599
F0.099
I1
I1
tp85
sg9
F26.534698009490967
sg10
I100
sg11
I400
sa(dp86
g7
g64
sg9
F33.18527698516846
sg10
I100
sg11
I500
satp87
Rp88
(dp89
g25
I01
sg26
g31
sg32
(lp90
I3
aI5
aI30
aI9
asg34
I6
sg35
g36
(g3
tp91
Rp92
sbsS'NSGA2'
p93
g2
(g3
g4
(lp94
(dp95
g7
(F0.061
F1.0
F0.081
I2
I2
tp96
sg9
F0.016983985900878906
sg10
I100
sg11
I0
sa(dp97
g7
g64
sg9
F5.8881731033325195
sg10
I100
sg11
I100
sa(dp98
g7
(F0.055
F2.5
F0.106
I1
I1
tp99
sg9
F11.911417961120605
sg10
I100
sg11
I200
sa(dp100
g7
(F0.088
F2.407
F0.081
I1
I1
tp101
sg9
F17.90304708480835
sg10
I100
sg11
I300
sa(dp102
g7
(F0.055
F2.5
F0.106
I1
I1
tp103
sg9
F23.83401393890381
sg10
I100
sg11
I400
sa(dp104
g7
(F0.113
F0.963
F0.118
I2
I2
tp105
sg9
F29.7921199798584
sg10
I100
sg11
I500
satp106
Rp107
(dp108
g25
I01
sg26
g31
sg32
(lp109
I3
aI5
aI30
aI9
asg34
I6
sg35
g36
(g3
tp110
Rp111
sbsS'IBEA-SIP'
p112
g2
(g3
g4
(lp113
(dp114
g7
(F0.141
F0.715
F0.063
I13
I56
tp115
sg9
F0.017447948455810547
sg10
I100
sg11
I0
sa(dp116
g7
(F0.151
F0.962
F0.089
I10
I100
tp117
sg9
F5.939191102981567
sg10
I100
sg11
I100
sa(dp118
g7
(F0.149
F0.855
F0.063
I9
I100
tp119
sg9
F11.974428176879883
sg10
I100
sg11
I200
sa(dp120
g7
(F0.149
F0.958
F0.056
I10
I100
tp121
sg9
F18.048310041427612
sg10
I100
sg11
I300
sa(dp122
g7
(F0.153
F0.875
F0.069
I11
I100
tp123
sg9
F24.120248079299927
sg10
I100
sg11
I400
sa(dp124
g7
(F0.149
F0.672
F0.066
I10
I100
tp125
sg9
F30.134579181671143
sg10
I100
sg11
I500
satp126
Rp127
(dp128
g25
I01
sg26
g31
sg32
(lp129
I3
aI5
aI30
aI9
asg34
I6
sg35
g36
(g3
tp130
Rp131
sbs.