(dp0
S'NSGA2-SIP'
p1
ccopy_reg
_reconstructor
p2
(cdeap.tools.support
Logbook
p3
c__builtin__
list
p4
(lp5
(dp6
S'hv|spread|igd|frontier#|valid#'
p7
(F0.139
F0.816
F0.063
I13
I64
tp8
sS'timestamp'
p9
F0.0195620059967041
sS'evals'
p10
I100
sS'gen'
p11
I0
sa(dp12
g7
(F0.157
F0.947
F0.076
I13
I100
tp13
sg9
F2.4947080612182617
sg10
I100
sg11
I100
sa(dp14
g7
(F0.157
F0.998
F0.076
I13
I100
tp15
sg9
F4.978176116943359
sg10
I100
sg11
I200
sa(dp16
g7
(F0.157
F0.867
F0.076
I13
I100
tp17
sg9
F7.451426029205322
sg10
I100
sg11
I300
sa(dp18
g7
(F0.157
F0.808
F0.076
I13
I100
tp19
sg9
F9.92174506187439
sg10
I100
sg11
I400
sa(dp20
g7
(F0.157
F0.63
F0.076
I13
I100
tp21
sg9
F12.480204105377197
sg10
I100
sg11
I500
satp22
Rp23
(dp24
S'log_header'
p25
I01
sS'header'
p26
(S'gen'
p27
S'evals'
p28
S'hv|spread|igd|frontier#|valid#'
p29
S'timestamp'
p30
tp31
sS'columns_len'
p32
(lp33
I3
aI5
aI30
aI9
asS'buffindex'
p34
I6
sS'chapters'
p35
ccollections
defaultdict
p36
(g3
tp37
Rp38
sbsS'SPEA2-SIP'
p39
g2
(g3
g4
(lp40
(dp41
g7
(F0.153
F0.846
F0.088
I11
I53
tp42
sg9
F0.019098997116088867
sg10
I100
sg11
I0
sa(dp43
g7
(F0.157
F0.817
F0.076
I13
I100
tp44
sg9
F169.51381301879883
sg10
I100
sg11
I100
sa(dp45
g7
(F0.157
F0.642
F0.076
I13
I100
tp46
sg9
F341.8833878040314
sg10
I100
sg11
I200
sa(dp47
g7
(F0.157
F0.668
F0.076
I13
I100
tp48
sg9
F516.4573378562927
sg10
I100
sg11
I300
sa(dp49
g7
(F0.157
F0.99
F0.076
I13
I100
tp50
sg9
F689.1398169994354
sg10
I100
sg11
I400
sa(dp51
g7
(F0.157
F0.824
F0.076
I13
I100
tp52
sg9
F862.8996469974518
sg10
I100
sg11
I500
satp53
Rp54
(dp55
g25
I01
sg26
g31
sg32
(lp56
I3
aI5
aI30
aI9
asg34
I6
sg35
g36
(g3
tp57
Rp58
sbsS'SPEA2'
p59
g2
(g3
g4
(lp60
(dp61
g7
(F0.117
F0.881
F0.086
I4
I10
tp62
sg9
F0.018584012985229492
sg10
I100
sg11
I0
sa(dp63
g7
(I0
I0
I0
I0
I0
tp64
sg9
F134.24237322807312
sg10
I100
sg11
I100
sa(dp65
g7
g64
sg9
F272.9289810657501
sg10
I100
sg11
I200
sa(dp66
g7
g64
sg9
F409.25788402557373
sg10
I100
sg11
I300
sa(dp67
g7
g64
sg9
F544.6738409996033
sg10
I100
sg11
I400
sa(dp68
g7
g64
sg9
F681.1395351886749
sg10
I100
sg11
I500
satp69
Rp70
(dp71
g25
I01
sg26
g31
sg32
(lp72
I3
aI5
aI30
aI9
asg34
I6
sg35
g36
(g3
tp73
Rp74
sbsS'IBEA-PEN'
p75
g2
(g3
g4
(lp76
(dp77
g7
(F0.114
F0.9
F0.0
I5
I56
tp78
sg9
F0.030520200729370117
sg10
I100
sg11
I0
sa(dp79
g7
(F0.04
F0.97
F0.049
I2
I2
tp80
sg9
F7.315502166748047
sg10
I100
sg11
I100
sa(dp81
g7
(F0.077
F0.968
F0.053
I2
I2
tp82
sg9
F14.62943410873413
sg10
I100
sg11
I200
sa(dp83
g7
g64
sg9
F21.945247173309326
sg10
I100
sg11
I300
sa(dp84
g7
(F0.037
F2.599
F0.099
I1
I2
tp85
sg9
F29.248823165893555
sg10
I100
sg11
I400
sa(dp86
g7
(F0.07
F1.0
F0.087
I3
I4
tp87
sg9
F36.558842182159424
sg10
I100
sg11
I500
satp88
Rp89
(dp90
g25
I01
sg26
g31
sg32
(lp91
I3
aI5
aI30
aI9
asg34
I6
sg35
g36
(g3
tp92
Rp93
sbsS'IBEA'
p94
g2
(g3
g4
(lp95
(dp96
g7
(F0.086
F0.889
F0.091
I4
I6
tp97
sg9
F0.01855182647705078
sg10
I100
sg11
I0
sa(dp98
g7
(F0.089
F1.0
F0.041
I2
I2
tp99
sg9
F7.053016901016235
sg10
I100
sg11
I100
sa(dp100
g7
(F0.11
F0.908
F0.127
I2
I5
tp101
sg9
F14.16570496559143
sg10
I100
sg11
I200
sa(dp102
g7
g64
sg9
F21.27277183532715
sg10
I100
sg11
I300
sa(dp103
g7
(F0.088
F2.407
F0.081
I1
I2
tp104
sg9
F28.37312078475952
sg10
I100
sg11
I400
sa(dp105
g7
g64
sg9
F35.465465784072876
sg10
I100
sg11
I500
satp106
Rp107
(dp108
g25
I01
sg26
g31
sg32
(lp109
I3
aI5
aI30
aI9
asg34
I6
sg35
g36
(g3
tp110
Rp111
sbsS'NSGA2'
p112
g2
(g3
g4
(lp113
(dp114
g7
(F0.102
F0.869
F0.133
I3
I4
tp115
sg9
F0.018131017684936523
sg10
I100
sg11
I0
sa(dp116
g7
g64
sg9
F6.602644920349121
sg10
I100
sg11
I100
sa(dp117
g7
(F0.088
F2.407
F0.081
I1
I2
tp118
sg9
F13.128872871398926
sg10
I100
sg11
I200
sa(dp119
g7
g64
sg9
F19.658556938171387
sg10
I100
sg11
I300
sa(dp120
g7
(F0.055
F2.5
F0.106
I1
I1
tp121
sg9
F26.242119789123535
sg10
I100
sg11
I400
sa(dp122
g7
g64
sg9
F32.76397681236267
sg10
I100
sg11
I500
satp123
Rp124
(dp125
g25
I01
sg26
g31
sg32
(lp126
I3
aI5
aI30
aI9
asg34
I6
sg35
g36
(g3
tp127
Rp128
sbsS'IBEA-SIP'
p129
g2
(g3
g4
(lp130
(dp131
g7
(F0.153
F0.847
F0.068
I12
I57
tp132
sg9
F0.01848316192626953
sg10
I100
sg11
I0
sa(dp133
g7
(F0.151
F0.943
F0.084
I9
I100
tp134
sg9
F6.466778039932251
sg10
I100
sg11
I100
sa(dp135
g7
(F0.142
F0.794
F0.08
I10
I100
tp136
sg9
F12.983402013778687
sg10
I100
sg11
I200
sa(dp137
g7
(F0.153
F0.683
F0.069
I11
I100
tp138
sg9
F19.511367082595825
sg10
I100
sg11
I300
sa(dp139
g7
(F0.142
F0.764
F0.113
I8
I100
tp140
sg9
F26.047969102859497
sg10
I100
sg11
I400
sa(dp141
g7
(F0.156
F0.793
F0.106
I9
I100
tp142
sg9
F32.60368895530701
sg10
I100
sg11
I500
satp143
Rp144
(dp145
g25
I01
sg26
g31
sg32
(lp146
I3
aI5
aI30
aI9
asg34
I6
sg35
g36
(g3
tp147
Rp148
sbs.