(dp0
S'NSGA2-SIP'
p1
ccopy_reg
_reconstructor
p2
(cdeap.tools.support
Logbook
p3
c__builtin__
list
p4
(lp5
(dp6
S'hv|spread|igd|frontier#|valid#'
p7
(F0.154
F0.878
F0.078
I11
I58
tp8
sS'timestamp'
p9
F0.015434026718139648
sS'evals'
p10
I100
sS'gen'
p11
I0
sa(dp12
g7
(F0.157
F0.834
F0.076
I13
I100
tp13
sg9
F2.0716609954833984
sg10
I100
sg11
I100
sa(dp14
g7
(F0.157
F0.827
F0.076
I13
I100
tp15
sg9
F4.145544052124023
sg10
I100
sg11
I200
sa(dp16
g7
(F0.157
F0.895
F0.076
I13
I100
tp17
sg9
F6.15060019493103
sg10
I100
sg11
I300
sa(dp18
g7
(F0.157
F0.63
F0.076
I13
I100
tp19
sg9
F8.254073143005371
sg10
I100
sg11
I400
sa(dp20
g7
(F0.157
F0.827
F0.076
I13
I100
tp21
sg9
F10.366461992263794
sg10
I100
sg11
I500
satp22
Rp23
(dp24
S'log_header'
p25
I01
sS'header'
p26
(S'gen'
p27
S'evals'
p28
g7
S'timestamp'
p29
tp30
sS'columns_len'
p31
(lp32
I3
aI5
aI30
aI9
asS'buffindex'
p33
I6
sS'chapters'
p34
ccollections
defaultdict
p35
(g3
tp36
Rp37
sbsS'SPEA2-SIP'
p38
g2
(g3
g4
(lp39
(dp40
g7
(F0.142
F0.868
F0.085
I11
I55
tp41
sg9
F0.016009092330932617
sg10
I100
sg11
I0
sa(dp42
g7
(F0.157
F0.817
F0.076
I13
I100
tp43
sg9
F144.42732691764832
sg10
I100
sg11
I100
sa(dp44
g7
(F0.157
F0.81
F0.076
I13
I100
tp45
sg9
F288.41919207572937
sg10
I100
sg11
I200
sa(dp46
g7
(F0.157
F0.809
F0.076
I13
I100
tp47
sg9
F433.2323360443115
sg10
I100
sg11
I300
sa(dp48
g7
(F0.157
F0.811
F0.076
I13
I100
tp49
sg9
F577.882511138916
sg10
I100
sg11
I400
sa(dp50
g7
(F0.157
F0.904
F0.076
I13
I100
tp51
sg9
F724.9645910263062
sg10
I100
sg11
I500
satp52
Rp53
(dp54
g25
I01
sg26
g30
sg31
(lp55
I3
aI5
aI30
aI9
asg33
I6
sg34
g35
(g3
tp56
Rp57
sbsS'SPEA2'
p58
g2
(g3
g4
(lp59
(dp60
g7
(F0.047
F0.891
F0.154
I4
I4
tp61
sg9
F0.015522003173828125
sg10
I100
sg11
I0
sa(dp62
g7
(I0
I0
I0
I0
I0
tp63
sg9
F111.39239501953125
sg10
I100
sg11
I100
sa(dp64
g7
g63
sg9
F225.32761216163635
sg10
I100
sg11
I200
sa(dp65
g7
g63
sg9
F338.70130705833435
sg10
I100
sg11
I300
sa(dp66
g7
g63
sg9
F451.4381880760193
sg10
I100
sg11
I400
sa(dp67
g7
g63
sg9
F563.580747127533
sg10
I100
sg11
I500
satp68
Rp69
(dp70
g25
I01
sg26
g30
sg31
(lp71
I3
aI5
aI30
aI9
asg33
I6
sg34
g35
(g3
tp72
Rp73
sbsS'IBEA'
p74
g2
(g3
g4
(lp75
(dp76
g7
(F0.095
F0.932
F0.094
I4
I4
tp77
sg9
F0.016942977905273438
sg10
I100
sg11
I0
sa(dp78
g7
(F0.088
F2.407
F0.081
I1
I2
tp79
sg9
F5.647356033325195
sg10
I100
sg11
I100
sa(dp80
g7
(F0.11
F0.908
F0.127
I2
I3
tp81
sg9
F11.280511856079102
sg10
I100
sg11
I200
sa(dp82
g7
g63
sg9
F16.920870065689087
sg10
I100
sg11
I300
sa(dp83
g7
(F0.103
F0.943
F0.096
I3
I4
tp84
sg9
F22.57197904586792
sg10
I100
sg11
I400
sa(dp85
g7
(F0.037
F2.599
F0.099
I1
I2
tp86
sg9
F28.223330974578857
sg10
I100
sg11
I500
satp87
Rp88
(dp89
g25
I01
sg26
g30
sg31
(lp90
I3
aI5
aI30
aI9
asg33
I6
sg34
g35
(g3
tp91
Rp92
sbsS'NSGA2'
p93
g2
(g3
g4
(lp94
(dp95
g7
(F0.108
F0.884
F0.109
I6
I7
tp96
sg9
F0.016028881072998047
sg10
I100
sg11
I0
sa(dp97
g7
(F0.092
F2.312
F0.154
I1
I1
tp98
sg9
F5.434090852737427
sg10
I100
sg11
I100
sa(dp99
g7
(F0.092
F2.312
F0.154
I1
I1
tp100
sg9
F10.892669916152954
sg10
I100
sg11
I200
sa(dp101
g7
g63
sg9
F16.260688066482544
sg10
I100
sg11
I300
sa(dp102
g7
g63
sg9
F21.691150903701782
sg10
I100
sg11
I400
sa(dp103
g7
(F0.113
F0.963
F0.118
I2
I2
tp104
sg9
F27.247463941574097
sg10
I100
sg11
I500
satp105
Rp106
(dp107
g25
I01
sg26
g30
sg31
(lp108
I3
aI5
aI30
aI9
asg33
I6
sg34
g35
(g3
tp109
Rp110
sbsS'IBEA-SIP'
p111
g2
(g3
g4
(lp112
(dp113
g7
(F0.153
F0.764
F0.072
I12
I57
tp114
sg9
F0.015475988388061523
sg10
I100
sg11
I0
sa(dp115
g7
(F0.156
F0.828
F0.091
I9
I100
tp116
sg9
F5.265692949295044
sg10
I100
sg11
I100
sa(dp117
g7
(F0.157
F0.624
F0.09
I11
I100
tp118
sg9
F10.687728881835938
sg10
I100
sg11
I200
sa(dp119
g7
(F0.149
F0.931
F0.061
I11
I100
tp120
sg9
F16.145532846450806
sg10
I100
sg11
I300
sa(dp121
g7
(F0.155
F0.837
F0.08
I11
I100
tp122
sg9
F21.60582399368286
sg10
I100
sg11
I400
sa(dp123
g7
(F0.157
F0.965
F0.09
I11
I100
tp124
sg9
F27.12165904045105
sg10
I100
sg11
I500
satp125
Rp126
(dp127
g25
I01
sg26
g30
sg31
(lp128
I3
aI5
aI30
aI9
asg33
I6
sg34
g35
(g3
tp129
Rp130
sbs.