(dp0
S'NSGA2-SIP'
p1
ccopy_reg
_reconstructor
p2
(cdeap.tools.support
Logbook
p3
c__builtin__
list
p4
(lp5
(dp6
S'hv|spread|igd|frontier#|valid#'
p7
(F0.144
F0.609
F0.083
I10
I42
tp8
sS'timestamp'
p9
F0.015785932540893555
sS'evals'
p10
I100
sS'gen'
p11
I0
sa(dp12
g7
(F0.157
F0.998
F0.076
I13
I100
tp13
sg9
F2.2593748569488525
sg10
I100
sg11
I100
sa(dp14
g7
(F0.157
F0.817
F0.076
I13
I100
tp15
sg9
F4.542534828186035
sg10
I100
sg11
I200
sa(dp16
g7
(F0.157
F0.837
F0.076
I13
I100
tp17
sg9
F6.801810026168823
sg10
I100
sg11
I300
sa(dp18
g7
(F0.157
F0.904
F0.076
I13
I100
tp19
sg9
F9.066192865371704
sg10
I100
sg11
I400
sa(dp20
g7
(F0.157
F0.904
F0.076
I13
I100
tp21
sg9
F11.347405910491943
sg10
I100
sg11
I500
satp22
Rp23
(dp24
S'log_header'
p25
I01
sS'header'
p26
(S'gen'
p27
S'evals'
p28
S'hv|spread|igd|frontier#|valid#'
p29
S'timestamp'
p30
tp31
sS'columns_len'
p32
(lp33
I3
aI5
aI30
aI9
asS'buffindex'
p34
I6
sS'chapters'
p35
ccollections
defaultdict
p36
(g3
tp37
Rp38
sbsS'SPEA2-SIP'
p39
g2
(g3
g4
(lp40
(dp41
g7
(F0.149
F0.618
F0.091
I12
I62
tp42
sg9
F0.01807403564453125
sg10
I100
sg11
I0
sa(dp43
g7
(F0.157
F0.824
F0.076
I13
I100
tp44
sg9
F158.16666412353516
sg10
I100
sg11
I100
sa(dp45
g7
(F0.157
F0.867
F0.076
I13
I100
tp46
sg9
F318.09335803985596
sg10
I100
sg11
I200
sa(dp47
g7
(F0.157
F0.827
F0.076
I13
I100
tp48
sg9
F478.7158100605011
sg10
I100
sg11
I300
sa(dp49
g7
(F0.157
F0.811
F0.076
I13
I100
tp50
sg9
F639.3385851383209
sg10
I100
sg11
I400
sa(dp51
g7
(F0.157
F0.817
F0.076
I13
I100
tp52
sg9
F797.3474831581116
sg10
I100
sg11
I500
satp53
Rp54
(dp55
g25
I01
sg26
g31
sg32
(lp56
I3
aI5
aI30
aI9
asg34
I6
sg35
g36
(g3
tp57
Rp58
sbsS'SPEA2'
p59
g2
(g3
g4
(lp60
(dp61
g7
(F0.099
F0.915
F0.101
I4
I5
tp62
sg9
F0.01728987693786621
sg10
I100
sg11
I0
sa(dp63
g7
(I0
I0
I0
I0
I0
tp64
sg9
F125.64349484443665
sg10
I100
sg11
I100
sa(dp65
g7
g64
sg9
F253.53637194633484
sg10
I100
sg11
I200
sa(dp66
g7
g64
sg9
F380.2637138366699
sg10
I100
sg11
I300
sa(dp67
g7
g64
sg9
F507.4731459617615
sg10
I100
sg11
I400
sa(dp68
g7
g64
sg9
F633.2118690013885
sg10
I100
sg11
I500
satp69
Rp70
(dp71
g25
I01
sg26
g31
sg32
(lp72
I3
aI5
aI30
aI9
asg34
I6
sg35
g36
(g3
tp73
Rp74
sbsS'IBEA-PEN'
p75
g2
(g3
g4
(lp76
(dp77
g7
(F0.114
F0.824
F0.0
I5
I69
tp78
sg9
F0.02278900146484375
sg10
I100
sg11
I0
sa(dp79
g7
(F0.147
F0.834
F0.082
I8
I51
tp80
sg9
F6.5225889682769775
sg10
I100
sg11
I100
sa(dp81
g7
(F0.145
F0.948
F0.054
I8
I62
tp82
sg9
F13.26862096786499
sg10
I100
sg11
I200
sa(dp83
g7
(F0.143
F0.773
F0.091
I10
I56
tp84
sg9
F20.04605984687805
sg10
I100
sg11
I300
sa(dp85
g7
(F0.149
F0.681
F0.105
I8
I59
tp86
sg9
F26.801604986190796
sg10
I100
sg11
I400
sa(dp87
g7
(F0.149
F0.797
F0.067
I10
I33
tp88
sg9
F33.53988599777222
sg10
I100
sg11
I500
satp89
Rp90
(dp91
g25
I01
sg26
g31
sg32
(lp92
I3
aI5
aI30
aI9
asg34
I6
sg35
g36
(g3
tp93
Rp94
sbsS'IBEA'
p95
g2
(g3
g4
(lp96
(dp97
g7
(F0.074
F0.977
F0.091
I4
I4
tp98
sg9
F0.01735091209411621
sg10
I100
sg11
I0
sa(dp99
g7
(F0.113
F0.963
F0.118
I2
I3
tp100
sg9
F6.6182780265808105
sg10
I100
sg11
I100
sa(dp101
g7
(F0.125
F0.884
F0.112
I3
I8
tp102
sg9
F13.25919485092163
sg10
I100
sg11
I200
sa(dp103
g7
(F0.037
F2.599
F0.099
I1
I2
tp104
sg9
F19.905292987823486
sg10
I100
sg11
I300
sa(dp105
g7
(F0.088
F2.407
F0.081
I1
I1
tp106
sg9
F26.56816291809082
sg10
I100
sg11
I400
sa(dp107
g7
(F0.088
F2.407
F0.081
I1
I1
tp108
sg9
F33.225297927856445
sg10
I100
sg11
I500
satp109
Rp110
(dp111
g25
I01
sg26
g31
sg32
(lp112
I3
aI5
aI30
aI9
asg34
I6
sg35
g36
(g3
tp113
Rp114
sbsS'NSGA2'
p115
g2
(g3
g4
(lp116
(dp117
g7
(F0.091
F0.87
F0.103
I3
I4
tp118
sg9
F0.017158985137939453
sg10
I100
sg11
I0
sa(dp119
g7
g64
sg9
F5.910409927368164
sg10
I100
sg11
I100
sa(dp120
g7
g64
sg9
F11.981501817703247
sg10
I100
sg11
I200
sa(dp121
g7
(F0.088
F2.407
F0.081
I1
I1
tp122
sg9
F17.98569393157959
sg10
I100
sg11
I300
sa(dp123
g7
g64
sg9
F24.05240488052368
sg10
I100
sg11
I400
sa(dp124
g7
(F0.092
F2.312
F0.154
I1
I1
tp125
sg9
F30.132227897644043
sg10
I100
sg11
I500
satp126
Rp127
(dp128
g25
I01
sg26
g31
sg32
(lp129
I3
aI5
aI30
aI9
asg34
I6
sg35
g36
(g3
tp130
Rp131
sbsS'IBEA-SIP'
p132
g2
(g3
g4
(lp133
(dp134
g7
(F0.139
F0.82
F0.068
I12
I65
tp135
sg9
F0.01795506477355957
sg10
I100
sg11
I0
sa(dp136
g7
(F0.149
F0.75
F0.086
I9
I100
tp137
sg9
F6.014718055725098
sg10
I100
sg11
I100
sa(dp138
g7
(F0.149
F0.868
F0.076
I12
I100
tp139
sg9
F12.114266157150269
sg10
I100
sg11
I200
sa(dp140
g7
(F0.137
F0.802
F0.101
I9
I100
tp141
sg9
F18.171704053878784
sg10
I100
sg11
I300
sa(dp142
g7
(F0.152
F0.83
F0.077
I9
I100
tp143
sg9
F24.266499042510986
sg10
I100
sg11
I400
sa(dp144
g7
(F0.142
F0.764
F0.084
I10
I100
tp145
sg9
F30.39150309562683
sg10
I100
sg11
I500
satp146
Rp147
(dp148
g25
I01
sg26
g31
sg32
(lp149
I3
aI5
aI30
aI9
asg34
I6
sg35
g36
(g3
tp150
Rp151
sbs.