(dp0
S'NSGA2-SIP'
p1
ccopy_reg
_reconstructor
p2
(cdeap.tools.support
Logbook
p3
c__builtin__
list
p4
(lp5
(dp6
S'hv|spread|igd|frontier#|valid#'
p7
(F0.157
F0.754
F0.076
I13
I58
tp8
sS'timestamp'
p9
F0.01926422119140625
sS'evals'
p10
I100
sS'gen'
p11
I0
sa(dp12
g7
(F0.157
F0.726
F0.076
I13
I100
tp13
sg9
F2.36617112159729
sg10
I100
sg11
I100
sa(dp14
g7
(F0.157
F0.895
F0.076
I13
I100
tp15
sg9
F4.834647178649902
sg10
I100
sg11
I200
sa(dp16
g7
(F0.157
F0.933
F0.076
I13
I100
tp17
sg9
F7.302769184112549
sg10
I100
sg11
I300
sa(dp18
g7
(F0.157
F0.726
F0.076
I13
I100
tp19
sg9
F9.76554012298584
sg10
I100
sg11
I400
sa(dp20
g7
(F0.157
F0.808
F0.076
I13
I100
tp21
sg9
F12.23042106628418
sg10
I100
sg11
I500
satp22
Rp23
(dp24
S'log_header'
p25
I01
sS'header'
p26
(S'gen'
p27
S'evals'
p28
S'hv|spread|igd|frontier#|valid#'
p29
S'timestamp'
p30
tp31
sS'columns_len'
p32
(lp33
I3
aI5
aI30
aI9
asS'buffindex'
p34
I6
sS'chapters'
p35
ccollections
defaultdict
p36
(g3
tp37
Rp38
sbsS'SPEA2-SIP'
p39
g2
(g3
g4
(lp40
(dp41
g7
(F0.149
F0.776
F0.082
I11
I60
tp42
sg9
F0.018307924270629883
sg10
I100
sg11
I0
sa(dp43
g7
(F0.157
F0.81
F0.076
I13
I100
tp44
sg9
F161.97600412368774
sg10
I100
sg11
I100
sa(dp45
g7
(F0.157
F0.867
F0.076
I13
I100
tp46
sg9
F327.41085410118103
sg10
I100
sg11
I200
sa(dp47
g7
(F0.157
F0.867
F0.076
I13
I100
tp48
sg9
F492.15629291534424
sg10
I100
sg11
I300
sa(dp49
g7
(F0.157
F0.817
F0.076
I13
I100
tp50
sg9
F657.8005239963531
sg10
I100
sg11
I400
sa(dp51
g7
(F0.157
F0.904
F0.076
I13
I100
tp52
sg9
F822.4686501026154
sg10
I100
sg11
I500
satp53
Rp54
(dp55
g25
I01
sg26
g31
sg32
(lp56
I3
aI5
aI30
aI9
asg34
I6
sg35
g36
(g3
tp57
Rp58
sbsS'SPEA2'
p59
g2
(g3
g4
(lp60
(dp61
g7
(F0.095
F0.945
F0.126
I5
I6
tp62
sg9
F0.018550872802734375
sg10
I100
sg11
I0
sa(dp63
g7
(I0
I0
I0
I0
I0
tp64
sg9
F129.53802394866943
sg10
I100
sg11
I100
sa(dp65
g7
g64
sg9
F261.2145519256592
sg10
I100
sg11
I200
sa(dp66
g7
g64
sg9
F395.40805888175964
sg10
I100
sg11
I300
sa(dp67
g7
g64
sg9
F524.7582669258118
sg10
I100
sg11
I400
sa(dp68
g7
g64
sg9
F654.425096988678
sg10
I100
sg11
I500
satp69
Rp70
(dp71
g25
I01
sg26
g31
sg32
(lp72
I3
aI5
aI30
aI9
asg34
I6
sg35
g36
(g3
tp73
Rp74
sbsS'IBEA-PEN'
p75
g2
(g3
g4
(lp76
(dp77
g7
(F0.114
F0.824
F0.0
I5
I70
tp78
sg9
F0.03251218795776367
sg10
I100
sg11
I0
sa(dp79
g7
(F0.138
F0.884
F0.056
I9
I48
tp80
sg9
F7.01766300201416
sg10
I100
sg11
I100
sa(dp81
g7
(F0.132
F0.787
F0.114
I7
I55
tp82
sg9
F14.11546802520752
sg10
I100
sg11
I200
sa(dp83
g7
(F0.136
F1.039
F0.101
I7
I41
tp84
sg9
F21.16642117500305
sg10
I100
sg11
I300
sa(dp85
g7
(F0.137
F0.876
F0.113
I8
I54
tp86
sg9
F28.305766105651855
sg10
I100
sg11
I400
sa(dp87
g7
(F0.143
F0.971
F0.065
I8
I41
tp88
sg9
F35.34530806541443
sg10
I100
sg11
I500
satp89
Rp90
(dp91
g25
I01
sg26
g31
sg32
(lp92
I3
aI5
aI30
aI9
asg34
I6
sg35
g36
(g3
tp93
Rp94
sbsS'IBEA'
p95
g2
(g3
g4
(lp96
(dp97
g7
(F0.074
F0.939
F0.103
I3
I4
tp98
sg9
F0.018054962158203125
sg10
I100
sg11
I0
sa(dp99
g7
(F0.11
F0.908
F0.127
I2
I4
tp100
sg9
F6.877928018569946
sg10
I100
sg11
I100
sa(dp101
g7
(F0.037
F2.599
F0.099
I1
I1
tp102
sg9
F13.953856945037842
sg10
I100
sg11
I200
sa(dp103
g7
(F0.037
F2.599
F0.099
I1
I3
tp104
sg9
F20.878386974334717
sg10
I100
sg11
I300
sa(dp105
g7
(F0.113
F0.963
F0.118
I2
I2
tp106
sg9
F27.85000205039978
sg10
I100
sg11
I400
sa(dp107
g7
g64
sg9
F34.80853796005249
sg10
I100
sg11
I500
satp108
Rp109
(dp110
g25
I01
sg26
g31
sg32
(lp111
I3
aI5
aI30
aI9
asg34
I6
sg35
g36
(g3
tp112
Rp113
sbsS'NSGA2'
p114
g2
(g3
g4
(lp115
(dp116
g7
(F0.074
F1.0
F0.102
I3
I5
tp117
sg9
F0.017749786376953125
sg10
I100
sg11
I0
sa(dp118
g7
g64
sg9
F6.364331007003784
sg10
I100
sg11
I100
sa(dp119
g7
g64
sg9
F12.7152419090271
sg10
I100
sg11
I200
sa(dp120
g7
g64
sg9
F19.056013822555542
sg10
I100
sg11
I300
sa(dp121
g7
g64
sg9
F25.438398838043213
sg10
I100
sg11
I400
sa(dp122
g7
g64
sg9
F31.821730852127075
sg10
I100
sg11
I500
satp123
Rp124
(dp125
g25
I01
sg26
g31
sg32
(lp126
I3
aI5
aI30
aI9
asg34
I6
sg35
g36
(g3
tp127
Rp128
sbsS'IBEA-SIP'
p129
g2
(g3
g4
(lp130
(dp131
g7
(F0.155
F0.725
F0.08
I13
I56
tp132
sg9
F0.019011974334716797
sg10
I100
sg11
I0
sa(dp133
g7
(F0.156
F0.663
F0.098
I9
I100
tp134
sg9
F6.2994019985198975
sg10
I100
sg11
I100
sa(dp135
g7
(F0.157
F0.724
F0.09
I11
I100
tp136
sg9
F12.731024980545044
sg10
I100
sg11
I200
sa(dp137
g7
(F0.137
F0.905
F0.065
I9
I100
tp138
sg9
F19.17552399635315
sg10
I100
sg11
I300
sa(dp139
g7
(F0.127
F0.764
F0.073
I8
I100
tp140
sg9
F25.58704400062561
sg10
I100
sg11
I400
sa(dp141
g7
(F0.157
F0.833
F0.082
I12
I100
tp142
sg9
F31.926651000976562
sg10
I100
sg11
I500
satp143
Rp144
(dp145
g25
I01
sg26
g31
sg32
(lp146
I3
aI5
aI30
aI9
asg34
I6
sg35
g36
(g3
tp147
Rp148
sbs.