(dp0
S'NSGA2-SIP'
p1
ccopy_reg
_reconstructor
p2
(cdeap.tools.support
Logbook
p3
c__builtin__
list
p4
(lp5
(dp6
S'hv|spread|igd|frontier#|valid#'
p7
(F0.151
F0.746
F0.085
I12
I59
tp8
sS'timestamp'
p9
F0.016087055206298828
sS'evals'
p10
I100
sS'gen'
p11
I0
sa(dp12
g7
(F0.157
F0.99
F0.076
I13
I100
tp13
sg9
F2.109670877456665
sg10
I100
sg11
I100
sa(dp14
g7
(F0.157
F0.811
F0.076
I13
I100
tp15
sg9
F4.250473976135254
sg10
I100
sg11
I200
sa(dp16
g7
(F0.157
F0.726
F0.076
I13
I100
tp17
sg9
F6.387036085128784
sg10
I100
sg11
I300
sa(dp18
g7
(F0.157
F0.86
F0.076
I13
I100
tp19
sg9
F8.524477005004883
sg10
I100
sg11
I400
sa(dp20
g7
(F0.157
F0.726
F0.076
I13
I100
tp21
sg9
F10.66665506362915
sg10
I100
sg11
I500
satp22
Rp23
(dp24
S'log_header'
p25
I01
sS'header'
p26
(S'gen'
p27
S'evals'
p28
S'hv|spread|igd|frontier#|valid#'
p29
S'timestamp'
p30
tp31
sS'columns_len'
p32
(lp33
I3
aI5
aI30
aI9
asS'buffindex'
p34
I6
sS'chapters'
p35
ccollections
defaultdict
p36
(g3
tp37
Rp38
sbsS'SPEA2-SIP'
p39
g2
(g3
g4
(lp40
(dp41
g7
(F0.157
F0.754
F0.076
I13
I66
tp42
sg9
F0.01702594757080078
sg10
I100
sg11
I0
sa(dp43
g7
(F0.157
F0.867
F0.076
I13
I100
tp44
sg9
F140.33638286590576
sg10
I100
sg11
I100
sa(dp45
g7
(F0.157
F0.86
F0.076
I13
I100
tp46
sg9
F283.5390589237213
sg10
I100
sg11
I200
sa(dp47
g7
(F0.157
F0.81
F0.076
I13
I100
tp48
sg9
F432.6640989780426
sg10
I100
sg11
I300
sa(dp49
g7
(F0.157
F0.81
F0.076
I13
I100
tp50
sg9
F578.4966289997101
sg10
I100
sg11
I400
sa(dp51
g7
(F0.157
F0.99
F0.076
I13
I100
tp52
sg9
F726.4351940155029
sg10
I100
sg11
I500
satp53
Rp54
(dp55
g25
I01
sg26
g31
sg32
(lp56
I3
aI5
aI30
aI9
asg34
I6
sg35
g36
(g3
tp57
Rp58
sbsS'SPEA2'
p59
g2
(g3
g4
(lp60
(dp61
g7
(F0.037
F2.312
F0.173
I1
I1
tp62
sg9
F0.015231847763061523
sg10
I100
sg11
I0
sa(dp63
g7
(I0
I0
I0
I0
I0
tp64
sg9
F112.09263896942139
sg10
I100
sg11
I100
sa(dp65
g7
g64
sg9
F225.73809099197388
sg10
I100
sg11
I200
sa(dp66
g7
g64
sg9
F340.0547180175781
sg10
I100
sg11
I300
sa(dp67
g7
g64
sg9
F453.7196509838104
sg10
I100
sg11
I400
sa(dp68
g7
g64
sg9
F567.0442018508911
sg10
I100
sg11
I500
satp69
Rp70
(dp71
g25
I01
sg26
g31
sg32
(lp72
I3
aI5
aI30
aI9
asg34
I6
sg35
g36
(g3
tp73
Rp74
sbsS'IBEA'
p75
g2
(g3
g4
(lp76
(dp77
g7
(F0.063
F0.977
F0.137
I4
I4
tp78
sg9
F0.01650714874267578
sg10
I100
sg11
I0
sa(dp79
g7
(F0.037
F2.599
F0.099
I1
I1
tp80
sg9
F5.93887996673584
sg10
I100
sg11
I100
sa(dp81
g7
g64
sg9
F11.990962982177734
sg10
I100
sg11
I200
sa(dp82
g7
(F0.1
F0.94
F0.09
I2
I2
tp83
sg9
F18.075865030288696
sg10
I100
sg11
I300
sa(dp84
g7
(F0.037
F2.599
F0.099
I1
I1
tp85
sg9
F24.148916006088257
sg10
I100
sg11
I400
sa(dp86
g7
g64
sg9
F30.20504403114319
sg10
I100
sg11
I500
satp87
Rp88
(dp89
g25
I01
sg26
g31
sg32
(lp90
I3
aI5
aI30
aI9
asg34
I6
sg35
g36
(g3
tp91
Rp92
sbsS'NSGA2'
p93
g2
(g3
g4
(lp94
(dp95
g7
(F0.111
F0.826
F0.122
I5
I6
tp96
sg9
F0.016212940216064453
sg10
I100
sg11
I0
sa(dp97
g7
g64
sg9
F5.483065843582153
sg10
I100
sg11
I100
sa(dp98
g7
(F0.113
F0.963
F0.118
I2
I2
tp99
sg9
F10.895628929138184
sg10
I100
sg11
I200
sa(dp100
g7
g64
sg9
F16.29642391204834
sg10
I100
sg11
I300
sa(dp101
g7
g64
sg9
F21.68138098716736
sg10
I100
sg11
I400
sa(dp102
g7
g64
sg9
F27.03749704360962
sg10
I100
sg11
I500
satp103
Rp104
(dp105
g25
I01
sg26
g31
sg32
(lp106
I3
aI5
aI30
aI9
asg34
I6
sg35
g36
(g3
tp107
Rp108
sbsS'IBEA-SIP'
p109
g2
(g3
g4
(lp110
(dp111
g7
(F0.15
F0.697
F0.087
I13
I69
tp112
sg9
F0.017214059829711914
sg10
I100
sg11
I0
sa(dp113
g7
(F0.157
F0.905
F0.082
I12
I100
tp114
sg9
F5.420405149459839
sg10
I100
sg11
I100
sa(dp115
g7
(F0.125
F1.017
F0.061
I8
I100
tp116
sg9
F10.861088037490845
sg10
I100
sg11
I200
sa(dp117
g7
(F0.154
F0.821
F0.078
I11
I100
tp118
sg9
F16.397478103637695
sg10
I100
sg11
I300
sa(dp119
g7
(F0.155
F0.703
F0.102
I8
I100
tp120
sg9
F21.950958967208862
sg10
I100
sg11
I400
sa(dp121
g7
(F0.149
F0.762
F0.082
I11
I100
tp122
sg9
F27.532111167907715
sg10
I100
sg11
I500
satp123
Rp124
(dp125
g25
I01
sg26
g31
sg32
(lp126
I3
aI5
aI30
aI9
asg34
I6
sg35
g36
(g3
tp127
Rp128
sbs.