(dp0
S'NSGA2-SIP'
p1
ccopy_reg
_reconstructor
p2
(cdeap.tools.support
Logbook
p3
c__builtin__
list
p4
(lp5
(dp6
S'hv|spread|igd|frontier#|valid#'
p7
(F0.155
F0.801
F0.078
I11
I66
tp8
sS'timestamp'
p9
F0.017817020416259766
sS'evals'
p10
I100
sS'gen'
p11
I0
sa(dp12
g7
(F0.157
F0.726
F0.076
I13
I100
tp13
sg9
F2.2676570415496826
sg10
I100
sg11
I100
sa(dp14
g7
(F0.157
F0.827
F0.076
I13
I100
tp15
sg9
F4.401890993118286
sg10
I100
sg11
I200
sa(dp16
g7
(F0.157
F0.99
F0.076
I13
I100
tp17
sg9
F6.535218954086304
sg10
I100
sg11
I300
sa(dp18
g7
(F0.157
F0.933
F0.076
I13
I100
tp19
sg9
F8.672086000442505
sg10
I100
sg11
I400
sa(dp20
g7
(F0.157
F0.809
F0.076
I13
I100
tp21
sg9
F10.803616046905518
sg10
I100
sg11
I500
satp22
Rp23
(dp24
S'log_header'
p25
I01
sS'header'
p26
(S'gen'
p27
S'evals'
p28
S'hv|spread|igd|frontier#|valid#'
p29
S'timestamp'
p30
tp31
sS'columns_len'
p32
(lp33
I3
aI5
aI30
aI9
asS'buffindex'
p34
I6
sS'chapters'
p35
ccollections
defaultdict
p36
(g3
tp37
Rp38
sbsS'SPEA2-SIP'
p39
g2
(g3
g4
(lp40
(dp41
g7
(F0.141
F0.686
F0.069
I12
I62
tp42
sg9
F0.0267331600189209
sg10
I100
sg11
I0
sa(dp43
g7
(F0.157
F0.808
F0.076
I13
I100
tp44
sg9
F138.4413092136383
sg10
I100
sg11
I100
sa(dp45
g7
(F0.157
F0.726
F0.076
I13
I100
tp46
sg9
F282.5611340999603
sg10
I100
sg11
I200
sa(dp47
g7
(F0.157
F0.734
F0.076
I13
I100
tp48
sg9
F426.5281660556793
sg10
I100
sg11
I300
sa(dp49
g7
(F0.157
F0.904
F0.076
I13
I100
tp50
sg9
F571.4868061542511
sg10
I100
sg11
I400
sa(dp51
g7
(F0.157
F0.808
F0.076
I13
I100
tp52
sg9
F715.4904642105103
sg10
I100
sg11
I500
satp53
Rp54
(dp55
g25
I01
sg26
g31
sg32
(lp56
I3
aI5
aI30
aI9
asg34
I6
sg35
g36
(g3
tp57
Rp58
sbsS'SPEA2'
p59
g2
(g3
g4
(lp60
(dp61
g7
(F0.094
F0.882
F0.101
I4
I4
tp62
sg9
F0.017245054244995117
sg10
I100
sg11
I0
sa(dp63
g7
(I0
I0
I0
I0
I0
tp64
sg9
F107.91373300552368
sg10
I100
sg11
I100
sa(dp65
g7
g64
sg9
F220.4907169342041
sg10
I100
sg11
I200
sa(dp66
g7
g64
sg9
F333.80673813819885
sg10
I100
sg11
I300
sa(dp67
g7
g64
sg9
F447.24354004859924
sg10
I100
sg11
I400
sa(dp68
g7
g64
sg9
F559.0527420043945
sg10
I100
sg11
I500
satp69
Rp70
(dp71
g25
I01
sg26
g31
sg32
(lp72
I3
aI5
aI30
aI9
asg34
I6
sg35
g36
(g3
tp73
Rp74
sbsS'IBEA'
p75
g2
(g3
g4
(lp76
(dp77
g7
(F0.071
F0.93
F0.14
I3
I3
tp78
sg9
F0.019327878952026367
sg10
I100
sg11
I0
sa(dp79
g7
(F0.12
F0.942
F0.12
I3
I5
tp80
sg9
F6.189165830612183
sg10
I100
sg11
I100
sa(dp81
g7
(F0.037
F2.599
F0.099
I1
I1
tp82
sg9
F12.204540967941284
sg10
I100
sg11
I200
sa(dp83
g7
(F0.088
F2.407
F0.081
I1
I1
tp84
sg9
F18.23211693763733
sg10
I100
sg11
I300
sa(dp85
g7
g64
sg9
F24.25362491607666
sg10
I100
sg11
I400
sa(dp86
g7
(F0.092
F2.312
F0.154
I1
I1
tp87
sg9
F30.27835178375244
sg10
I100
sg11
I500
satp88
Rp89
(dp90
g25
I01
sg26
g31
sg32
(lp91
I3
aI5
aI30
aI9
asg34
I6
sg35
g36
(g3
tp92
Rp93
sbsS'NSGA2'
p94
g2
(g3
g4
(lp95
(dp96
g7
(F0.114
F0.846
F0.105
I6
I9
tp97
sg9
F0.017954111099243164
sg10
I100
sg11
I0
sa(dp98
g7
g64
sg9
F5.5760979652404785
sg10
I100
sg11
I100
sa(dp99
g7
g64
sg9
F10.91712498664856
sg10
I100
sg11
I200
sa(dp100
g7
(F0.088
F2.407
F0.081
I1
I1
tp101
sg9
F16.343311071395874
sg10
I100
sg11
I300
sa(dp102
g7
(F0.092
F2.312
F0.154
I1
I1
tp103
sg9
F21.748095989227295
sg10
I100
sg11
I400
sa(dp104
g7
(F0.092
F2.312
F0.154
I1
I1
tp105
sg9
F27.10187315940857
sg10
I100
sg11
I500
satp106
Rp107
(dp108
g25
I01
sg26
g31
sg32
(lp109
I3
aI5
aI30
aI9
asg34
I6
sg35
g36
(g3
tp110
Rp111
sbsS'IBEA-SIP'
p112
g2
(g3
g4
(lp113
(dp114
g7
(F0.149
F0.868
F0.063
I9
I44
tp115
sg9
F0.023511171340942383
sg10
I100
sg11
I0
sa(dp116
g7
(F0.137
F0.986
F0.078
I9
I100
tp117
sg9
F5.671370983123779
sg10
I100
sg11
I100
sa(dp118
g7
(F0.143
F0.839
F0.091
I10
I100
tp119
sg9
F11.257426977157593
sg10
I100
sg11
I200
sa(dp120
g7
(F0.139
F0.753
F0.091
I10
I100
tp121
sg9
F16.849606037139893
sg10
I100
sg11
I300
sa(dp122
g7
(F0.143
F0.744
F0.082
I11
I100
tp123
sg9
F22.427195072174072
sg10
I100
sg11
I400
sa(dp124
g7
(F0.147
F0.839
F0.05
I9
I100
tp125
sg9
F27.945844173431396
sg10
I100
sg11
I500
satp126
Rp127
(dp128
g25
I01
sg26
g31
sg32
(lp129
I3
aI5
aI30
aI9
asg34
I6
sg35
g36
(g3
tp130
Rp131
sbs.