(dp0
S'NSGA2-SIP'
p1
ccopy_reg
_reconstructor
p2
(cdeap.tools.support
Logbook
p3
c__builtin__
list
p4
(lp5
(dp6
S'hv|spread|igd|frontier#|valid#'
p7
(F0.134
F0.709
F0.06
I9
I60
tp8
sS'timestamp'
p9
F0.016499042510986328
sS'evals'
p10
I100
sS'gen'
p11
I0
sa(dp12
g7
(F0.157
F0.99
F0.076
I13
I100
tp13
sg9
F2.325329065322876
sg10
I100
sg11
I100
sa(dp14
g7
(F0.157
F0.827
F0.076
I13
I100
tp15
sg9
F4.700911998748779
sg10
I100
sg11
I200
sa(dp16
g7
(F0.157
F0.809
F0.076
I13
I100
tp17
sg9
F7.0764241218566895
sg10
I100
sg11
I300
sa(dp18
g7
(F0.157
F0.805
F0.076
I13
I100
tp19
sg9
F9.438792943954468
sg10
I100
sg11
I400
sa(dp20
g7
(F0.157
F0.99
F0.076
I13
I100
tp21
sg9
F11.805597066879272
sg10
I100
sg11
I500
satp22
Rp23
(dp24
S'log_header'
p25
I01
sS'header'
p26
(S'gen'
p27
S'evals'
p28
S'hv|spread|igd|frontier#|valid#'
p29
S'timestamp'
p30
tp31
sS'columns_len'
p32
(lp33
I3
aI5
aI30
aI9
asS'buffindex'
p34
I6
sS'chapters'
p35
ccollections
defaultdict
p36
(g3
tp37
Rp38
sbsS'SPEA2-SIP'
p39
g2
(g3
g4
(lp40
(dp41
g7
(F0.151
F0.775
F0.072
I13
I57
tp42
sg9
F0.01866602897644043
sg10
I100
sg11
I0
sa(dp43
g7
(F0.157
F0.809
F0.076
I13
I100
tp44
sg9
F160.23699116706848
sg10
I100
sg11
I100
sa(dp45
g7
(F0.157
F0.805
F0.076
I13
I100
tp46
sg9
F319.99016404151917
sg10
I100
sg11
I200
sa(dp47
g7
(F0.157
F0.904
F0.076
I13
I100
tp48
sg9
F478.8422341346741
sg10
I100
sg11
I300
sa(dp49
g7
(F0.157
F0.815
F0.076
I13
I100
tp50
sg9
F639.4765520095825
sg10
I100
sg11
I400
sa(dp51
g7
(F0.157
F0.805
F0.076
I13
I100
tp52
sg9
F797.366457939148
sg10
I100
sg11
I500
satp53
Rp54
(dp55
g25
I01
sg26
g31
sg32
(lp56
I3
aI5
aI30
aI9
asg34
I6
sg35
g36
(g3
tp57
Rp58
sbsS'SPEA2'
p59
g2
(g3
g4
(lp60
(dp61
g7
(F0.077
F0.939
F0.102
I3
I3
tp62
sg9
F0.017081022262573242
sg10
I100
sg11
I0
sa(dp63
g7
(I0
I0
I0
I0
I0
tp64
sg9
F123.48295187950134
sg10
I100
sg11
I100
sa(dp65
g7
g64
sg9
F249.2833890914917
sg10
I100
sg11
I200
sa(dp66
g7
g64
sg9
F376.2862160205841
sg10
I100
sg11
I300
sa(dp67
g7
g64
sg9
F503.04243302345276
sg10
I100
sg11
I400
sa(dp68
g7
g64
sg9
F627.5269858837128
sg10
I100
sg11
I500
satp69
Rp70
(dp71
g25
I01
sg26
g31
sg32
(lp72
I3
aI5
aI30
aI9
asg34
I6
sg35
g36
(g3
tp73
Rp74
sbsS'IBEA-PEN'
p75
g2
(g3
g4
(lp76
(dp77
g7
(F0.111
F0.824
F0.006
I5
I58
tp78
sg9
F0.022561073303222656
sg10
I100
sg11
I0
sa(dp79
g7
(F0.142
F0.604
F0.1
I9
I51
tp80
sg9
F6.703913927078247
sg10
I100
sg11
I100
sa(dp81
g7
(F0.149
F0.941
F0.067
I10
I72
tp82
sg9
F13.576826095581055
sg10
I100
sg11
I200
sa(dp83
g7
(F0.142
F0.988
F0.105
I8
I52
tp84
sg9
F20.435476064682007
sg10
I100
sg11
I300
sa(dp85
g7
(F0.147
F0.761
F0.083
I10
I59
tp86
sg9
F27.29618000984192
sg10
I100
sg11
I400
sa(dp87
g7
(F0.141
F0.949
F0.114
I7
I54
tp88
sg9
F34.11207914352417
sg10
I100
sg11
I500
satp89
Rp90
(dp91
g25
I01
sg26
g31
sg32
(lp92
I3
aI5
aI30
aI9
asg34
I6
sg35
g36
(g3
tp93
Rp94
sbsS'IBEA'
p95
g2
(g3
g4
(lp96
(dp97
g7
(F0.099
F0.94
F0.106
I3
I4
tp98
sg9
F0.018021821975708008
sg10
I100
sg11
I0
sa(dp99
g7
(F0.088
F2.407
F0.081
I1
I3
tp100
sg9
F6.699289798736572
sg10
I100
sg11
I100
sa(dp101
g7
(F0.059
F0.97
F0.103
I2
I3
tp102
sg9
F13.454617977142334
sg10
I100
sg11
I200
sa(dp103
g7
(F0.088
F2.407
F0.081
I1
I2
tp104
sg9
F20.304507970809937
sg10
I100
sg11
I300
sa(dp105
g7
(F0.1
F0.94
F0.09
I2
I5
tp106
sg9
F27.170610904693604
sg10
I100
sg11
I400
sa(dp107
g7
(F0.088
F2.407
F0.081
I1
I2
tp108
sg9
F34.029918909072876
sg10
I100
sg11
I500
satp109
Rp110
(dp111
g25
I01
sg26
g31
sg32
(lp112
I3
aI5
aI30
aI9
asg34
I6
sg35
g36
(g3
tp113
Rp114
sbsS'NSGA2'
p115
g2
(g3
g4
(lp116
(dp117
g7
(F0.118
F0.84
F0.085
I5
I10
tp118
sg9
F0.01807093620300293
sg10
I100
sg11
I0
sa(dp119
g7
(F0.113
F0.963
F0.118
I2
I2
tp120
sg9
F5.96111798286438
sg10
I100
sg11
I100
sa(dp121
g7
g64
sg9
F12.066035985946655
sg10
I100
sg11
I200
sa(dp122
g7
(F0.098
F0.968
F0.094
I2
I2
tp123
sg9
F18.06879997253418
sg10
I100
sg11
I300
sa(dp124
g7
g64
sg9
F24.12272810935974
sg10
I100
sg11
I400
sa(dp125
g7
g64
sg9
F30.201755046844482
sg10
I100
sg11
I500
satp126
Rp127
(dp128
g25
I01
sg26
g31
sg32
(lp129
I3
aI5
aI30
aI9
asg34
I6
sg35
g36
(g3
tp130
Rp131
sbsS'IBEA-SIP'
p132
g2
(g3
g4
(lp133
(dp134
g7
(F0.149
F0.814
F0.064
I12
I61
tp135
sg9
F0.017951011657714844
sg10
I100
sg11
I0
sa(dp136
g7
(F0.143
F0.645
F0.091
I10
I100
tp137
sg9
F6.177175998687744
sg10
I100
sg11
I100
sa(dp138
g7
(F0.149
F0.835
F0.067
I10
I100
tp139
sg9
F12.393801927566528
sg10
I100
sg11
I200
sa(dp140
g7
(F0.148
F0.818
F0.06
I10
I100
tp141
sg9
F18.67423391342163
sg10
I100
sg11
I300
sa(dp142
g7
(F0.148
F0.905
F0.067
I9
I100
tp143
sg9
F24.88533091545105
sg10
I100
sg11
I400
sa(dp144
g7
(F0.148
F0.747
F0.082
I11
I100
tp145
sg9
F31.13586401939392
sg10
I100
sg11
I500
satp146
Rp147
(dp148
g25
I01
sg26
g31
sg32
(lp149
I3
aI5
aI30
aI9
asg34
I6
sg35
g36
(g3
tp150
Rp151
sbs.