(dp0
S'NSGA2-SIP'
p1
ccopy_reg
_reconstructor
p2
(cdeap.tools.support
Logbook
p3
c__builtin__
list
p4
(lp5
(dp6
S'hv|spread|igd|frontier#|valid#'
p7
(F0.149
F0.87
F0.061
I11
I59
tp8
sS'timestamp'
p9
F0.0163421630859375
sS'evals'
p10
I100
sS'gen'
p11
I0
sa(dp12
g7
(F0.157
F0.947
F0.076
I13
I100
tp13
sg9
F2.1550300121307373
sg10
I100
sg11
I100
sa(dp14
g7
(F0.157
F0.683
F0.076
I13
I100
tp15
sg9
F4.318936109542847
sg10
I100
sg11
I200
sa(dp16
g7
(F0.157
F0.904
F0.076
I13
I100
tp17
sg9
F6.488268136978149
sg10
I100
sg11
I300
sa(dp18
g7
(F0.157
F0.81
F0.076
I13
I100
tp19
sg9
F8.65306305885315
sg10
I100
sg11
I400
sa(dp20
g7
(F0.157
F0.81
F0.076
I13
I100
tp21
sg9
F10.782757997512817
sg10
I100
sg11
I500
satp22
Rp23
(dp24
S'log_header'
p25
I01
sS'header'
p26
(S'gen'
p27
S'evals'
p28
S'hv|spread|igd|frontier#|valid#'
p29
S'timestamp'
p30
tp31
sS'columns_len'
p32
(lp33
I3
aI5
aI30
aI9
asS'buffindex'
p34
I6
sS'chapters'
p35
ccollections
defaultdict
p36
(g3
tp37
Rp38
sbsS'SPEA2-SIP'
p39
g2
(g3
g4
(lp40
(dp41
g7
(F0.144
F0.637
F0.084
I11
I58
tp42
sg9
F0.016549110412597656
sg10
I100
sg11
I0
sa(dp43
g7
(F0.157
F0.827
F0.076
I13
I100
tp44
sg9
F146.61878609657288
sg10
I100
sg11
I100
sa(dp45
g7
(F0.157
F0.805
F0.076
I13
I100
tp46
sg9
F298.184690952301
sg10
I100
sg11
I200
sa(dp47
g7
(F0.157
F0.734
F0.076
I13
I100
tp48
sg9
F446.8985159397125
sg10
I100
sg11
I300
sa(dp49
g7
(F0.157
F0.81
F0.076
I13
I100
tp50
sg9
F596.2117140293121
sg10
I100
sg11
I400
sa(dp51
g7
(F0.157
F0.726
F0.076
I13
I100
tp52
sg9
F744.3322961330414
sg10
I100
sg11
I500
satp53
Rp54
(dp55
g25
I01
sg26
g31
sg32
(lp56
I3
aI5
aI30
aI9
asg34
I6
sg35
g36
(g3
tp57
Rp58
sbsS'SPEA2'
p59
g2
(g3
g4
(lp60
(dp61
g7
(F0.086
F0.971
F0.096
I4
I6
tp62
sg9
F0.01644611358642578
sg10
I100
sg11
I0
sa(dp63
g7
(F0.087
F2.236
F0.121
I1
I1
tp64
sg9
F113.25878810882568
sg10
I100
sg11
I100
sa(dp65
g7
(I0
I0
I0
I0
I0
tp66
sg9
F232.166836977005
sg10
I100
sg11
I200
sa(dp67
g7
g66
sg9
F351.3529942035675
sg10
I100
sg11
I300
sa(dp68
g7
g66
sg9
F466.44910311698914
sg10
I100
sg11
I400
sa(dp69
g7
g66
sg9
F583.6096520423889
sg10
I100
sg11
I500
satp70
Rp71
(dp72
g25
I01
sg26
g31
sg32
(lp73
I3
aI5
aI30
aI9
asg34
I6
sg35
g36
(g3
tp74
Rp75
sbsS'IBEA-PEN'
p76
g2
(g3
g4
(lp77
(dp78
g7
(F0.114
F0.824
F0.0
I5
I61
tp79
sg9
F0.021677017211914062
sg10
I100
sg11
I0
sa(dp80
g7
(F0.153
F0.832
F0.079
I10
I63
tp81
sg9
F6.121336936950684
sg10
I100
sg11
I100
sa(dp82
g7
(F0.148
F0.8
F0.06
I10
I73
tp83
sg9
F12.135802030563354
sg10
I100
sg11
I200
sa(dp84
g7
(F0.143
F0.915
F0.052
I10
I50
tp85
sg9
F18.377614974975586
sg10
I100
sg11
I300
sa(dp86
g7
(F0.135
F0.816
F0.062
I5
I53
tp87
sg9
F24.691503047943115
sg10
I100
sg11
I400
sa(dp88
g7
(F0.157
F0.685
F0.099
I10
I51
tp89
sg9
F31.020493984222412
sg10
I100
sg11
I500
satp90
Rp91
(dp92
g25
I01
sg26
g31
sg32
(lp93
I3
aI5
aI30
aI9
asg34
I6
sg35
g36
(g3
tp94
Rp95
sbsS'IBEA'
p96
g2
(g3
g4
(lp97
(dp98
g7
(F0.066
F2.169
F0.046
I1
I1
tp99
sg9
F0.016155004501342773
sg10
I100
sg11
I0
sa(dp100
g7
g66
sg9
F6.171103000640869
sg10
I100
sg11
I100
sa(dp101
g7
(F0.088
F2.407
F0.081
I1
I1
tp102
sg9
F12.18877100944519
sg10
I100
sg11
I200
sa(dp103
g7
g66
sg9
F18.38931703567505
sg10
I100
sg11
I300
sa(dp104
g7
(F0.1
F0.94
F0.09
I2
I4
tp105
sg9
F24.60659694671631
sg10
I100
sg11
I400
sa(dp106
g7
(F0.075
F0.968
F0.08
I2
I2
tp107
sg9
F30.81249690055847
sg10
I100
sg11
I500
satp108
Rp109
(dp110
g25
I01
sg26
g31
sg32
(lp111
I3
aI5
aI30
aI9
asg34
I6
sg35
g36
(g3
tp112
Rp113
sbsS'NSGA2'
p114
g2
(g3
g4
(lp115
(dp116
g7
(F0.05
F2.106
F0.175
I1
I1
tp117
sg9
F0.015530109405517578
sg10
I100
sg11
I0
sa(dp118
g7
g66
sg9
F5.5985400676727295
sg10
I100
sg11
I100
sa(dp119
g7
(F0.055
F2.5
F0.106
I1
I1
tp120
sg9
F11.281577110290527
sg10
I100
sg11
I200
sa(dp121
g7
g66
sg9
F16.868962049484253
sg10
I100
sg11
I300
sa(dp122
g7
g66
sg9
F22.513139009475708
sg10
I100
sg11
I400
sa(dp123
g7
g66
sg9
F28.225775003433228
sg10
I100
sg11
I500
satp124
Rp125
(dp126
g25
I01
sg26
g31
sg32
(lp127
I3
aI5
aI30
aI9
asg34
I6
sg35
g36
(g3
tp128
Rp129
sbsS'IBEA-SIP'
p130
g2
(g3
g4
(lp131
(dp132
g7
(F0.147
F0.893
F0.049
I11
I62
tp133
sg9
F0.016334056854248047
sg10
I100
sg11
I0
sa(dp134
g7
(F0.157
F0.729
F0.09
I11
I100
tp135
sg9
F5.641480922698975
sg10
I100
sg11
I100
sa(dp136
g7
(F0.149
F0.632
F0.082
I11
I100
tp137
sg9
F11.442507982254028
sg10
I100
sg11
I200
sa(dp138
g7
(F0.144
F0.976
F0.047
I9
I100
tp139
sg9
F17.167989015579224
sg10
I100
sg11
I300
sa(dp140
g7
(F0.157
F0.744
F0.09
I11
I100
tp141
sg9
F22.92913007736206
sg10
I100
sg11
I400
sa(dp142
g7
(F0.148
F0.829
F0.051
I11
I100
tp143
sg9
F28.700453996658325
sg10
I100
sg11
I500
satp144
Rp145
(dp146
g25
I01
sg26
g31
sg32
(lp147
I3
aI5
aI30
aI9
asg34
I6
sg35
g36
(g3
tp148
Rp149
sbs.