(dp0
S'NSGA2-SIP'
p1
ccopy_reg
_reconstructor
p2
(cdeap.tools.support
Logbook
p3
c__builtin__
list
p4
(lp5
(dp6
S'hv|spread|igd|frontier#|valid#'
p7
(F0.157
F0.754
F0.076
I13
I61
tp8
sS'timestamp'
p9
F0.018069982528686523
sS'evals'
p10
I100
sS'gen'
p11
I0
sa(dp12
g7
(F0.157
F0.827
F0.076
I13
I100
tp13
sg9
F2.3163349628448486
sg10
I100
sg11
I100
sa(dp14
g7
(F0.157
F0.99
F0.076
I13
I100
tp15
sg9
F4.454867839813232
sg10
I100
sg11
I200
sa(dp16
g7
(F0.157
F0.99
F0.076
I13
I100
tp17
sg9
F6.585877895355225
sg10
I100
sg11
I300
sa(dp18
g7
(F0.157
F0.99
F0.076
I13
I100
tp19
sg9
F8.721805810928345
sg10
I100
sg11
I400
sa(dp20
g7
(F0.157
F0.808
F0.076
I13
I100
tp21
sg9
F10.858031988143921
sg10
I100
sg11
I500
satp22
Rp23
(dp24
S'log_header'
p25
I01
sS'header'
p26
(S'gen'
p27
S'evals'
p28
S'hv|spread|igd|frontier#|valid#'
p29
S'timestamp'
p30
tp31
sS'columns_len'
p32
(lp33
I3
aI5
aI30
aI9
asS'buffindex'
p34
I6
sS'chapters'
p35
ccollections
defaultdict
p36
(g3
tp37
Rp38
sbsS'SPEA2-SIP'
p39
g2
(g3
g4
(lp40
(dp41
g7
(F0.149
F0.87
F0.061
I11
I52
tp42
sg9
F0.016671180725097656
sg10
I100
sg11
I0
sa(dp43
g7
(F0.157
F0.726
F0.076
I13
I100
tp44
sg9
F142.66638708114624
sg10
I100
sg11
I100
sa(dp45
g7
(F0.157
F0.726
F0.076
I13
I100
tp46
sg9
F284.8526771068573
sg10
I100
sg11
I200
sa(dp47
g7
(F0.157
F0.815
F0.076
I13
I100
tp48
sg9
F428.10577511787415
sg10
I100
sg11
I300
sa(dp49
g7
(F0.157
F0.815
F0.076
I13
I100
tp50
sg9
F569.7386031150818
sg10
I100
sg11
I400
sa(dp51
g7
(F0.157
F0.642
F0.076
I13
I100
tp52
sg9
F713.0848309993744
sg10
I100
sg11
I500
satp53
Rp54
(dp55
g25
I01
sg26
g31
sg32
(lp56
I3
aI5
aI30
aI9
asg34
I6
sg35
g36
(g3
tp57
Rp58
sbsS'SPEA2'
p59
g2
(g3
g4
(lp60
(dp61
g7
(F0.111
F0.847
F0.068
I5
I5
tp62
sg9
F0.01741313934326172
sg10
I100
sg11
I0
sa(dp63
g7
(I0
I0
I0
I0
I0
tp64
sg9
F112.48930311203003
sg10
I100
sg11
I100
sa(dp65
g7
g64
sg9
F224.59426093101501
sg10
I100
sg11
I200
sa(dp66
g7
g64
sg9
F337.7977831363678
sg10
I100
sg11
I300
sa(dp67
g7
g64
sg9
F450.5631251335144
sg10
I100
sg11
I400
sa(dp68
g7
g64
sg9
F563.2773871421814
sg10
I100
sg11
I500
satp69
Rp70
(dp71
g25
I01
sg26
g31
sg32
(lp72
I3
aI5
aI30
aI9
asg34
I6
sg35
g36
(g3
tp73
Rp74
sbsS'IBEA-PEN'
p75
g2
(g3
g4
(lp76
(dp77
g7
(F0.114
F0.9
F0.0
I5
I68
tp78
sg9
F0.027425050735473633
sg10
I100
sg11
I0
sa(dp79
g7
(F0.07
F1.0
F0.104
I3
I9
tp80
sg9
F6.164869070053101
sg10
I100
sg11
I100
sa(dp81
g7
g64
sg9
F12.144068002700806
sg10
I100
sg11
I200
sa(dp82
g7
g64
sg9
F18.12275195121765
sg10
I100
sg11
I300
sa(dp83
g7
(F0.102
F0.908
F0.119
I2
I3
tp84
sg9
F24.09117603302002
sg10
I100
sg11
I400
sa(dp85
g7
g64
sg9
F30.05820608139038
sg10
I100
sg11
I500
satp86
Rp87
(dp88
g25
I01
sg26
g31
sg32
(lp89
I3
aI5
aI30
aI9
asg34
I6
sg35
g36
(g3
tp90
Rp91
sbsS'IBEA'
p92
g2
(g3
g4
(lp93
(dp94
g7
(F0.077
F0.895
F0.129
I5
I5
tp95
sg9
F0.026513099670410156
sg10
I100
sg11
I0
sa(dp96
g7
(F0.037
F2.599
F0.099
I1
I2
tp97
sg9
F6.2006800174713135
sg10
I100
sg11
I100
sa(dp98
g7
(F0.088
F2.407
F0.081
I1
I1
tp99
sg9
F12.125683069229126
sg10
I100
sg11
I200
sa(dp100
g7
(F0.037
F2.599
F0.099
I1
I2
tp101
sg9
F18.056441068649292
sg10
I100
sg11
I300
sa(dp102
g7
(F0.037
F2.599
F0.099
I1
I1
tp103
sg9
F23.995094060897827
sg10
I100
sg11
I400
sa(dp104
g7
(F0.1
F0.94
F0.09
I2
I5
tp105
sg9
F29.9189350605011
sg10
I100
sg11
I500
satp106
Rp107
(dp108
g25
I01
sg26
g31
sg32
(lp109
I3
aI5
aI30
aI9
asg34
I6
sg35
g36
(g3
tp110
Rp111
sbsS'NSGA2'
p112
g2
(g3
g4
(lp113
(dp114
g7
(F0.068
F1.0
F0.097
I3
I5
tp115
sg9
F0.017385005950927734
sg10
I100
sg11
I0
sa(dp116
g7
g64
sg9
F5.668371915817261
sg10
I100
sg11
I100
sa(dp117
g7
(F0.088
F2.407
F0.081
I1
I1
tp118
sg9
F11.1125009059906
sg10
I100
sg11
I200
sa(dp119
g7
g64
sg9
F16.559149026870728
sg10
I100
sg11
I300
sa(dp120
g7
g64
sg9
F22.034897089004517
sg10
I100
sg11
I400
sa(dp121
g7
g64
sg9
F27.353336095809937
sg10
I100
sg11
I500
satp122
Rp123
(dp124
g25
I01
sg26
g31
sg32
(lp125
I3
aI5
aI30
aI9
asg34
I6
sg35
g36
(g3
tp126
Rp127
sbsS'IBEA-SIP'
p128
g2
(g3
g4
(lp129
(dp130
g7
(F0.141
F0.853
F0.063
I11
I48
tp131
sg9
F0.01842188835144043
sg10
I100
sg11
I0
sa(dp132
g7
(F0.149
F0.632
F0.082
I11
I100
tp133
sg9
F5.575262069702148
sg10
I100
sg11
I100
sa(dp134
g7
(F0.143
F0.905
F0.075
I9
I100
tp135
sg9
F10.977559089660645
sg10
I100
sg11
I200
sa(dp136
g7
(F0.139
F0.744
F0.091
I10
I100
tp137
sg9
F16.675894021987915
sg10
I100
sg11
I300
sa(dp138
g7
(F0.156
F0.838
F0.098
I9
I100
tp139
sg9
F22.188565015792847
sg10
I100
sg11
I400
sa(dp140
g7
(F0.155
F0.83
F0.081
I11
I100
tp141
sg9
F27.633186101913452
sg10
I100
sg11
I500
satp142
Rp143
(dp144
g25
I01
sg26
g31
sg32
(lp145
I3
aI5
aI30
aI9
asg34
I6
sg35
g36
(g3
tp146
Rp147
sbs.