(dp0
S'NSGA2-SIP'
p1
ccopy_reg
_reconstructor
p2
(cdeap.tools.support
Logbook
p3
c__builtin__
list
p4
(lp5
(dp6
S'hv|spread|igd|frontier#|valid#'
p7
(F0.153
F0.875
F0.074
I11
I50
tp8
sS'timestamp'
p9
F0.01569390296936035
sS'evals'
p10
I100
sS'gen'
p11
I0
sa(dp12
g7
(F0.157
F0.726
F0.076
I13
I100
tp13
sg9
F2.1449289321899414
sg10
I100
sg11
I100
sa(dp14
g7
(F0.157
F0.726
F0.076
I13
I100
tp15
sg9
F4.371801853179932
sg10
I100
sg11
I200
sa(dp16
g7
(F0.157
F0.726
F0.076
I13
I100
tp17
sg9
F6.593057870864868
sg10
I100
sg11
I300
sa(dp18
g7
(F0.157
F0.99
F0.076
I13
I100
tp19
sg9
F8.825062990188599
sg10
I100
sg11
I400
sa(dp20
g7
(F0.157
F0.668
F0.076
I13
I100
tp21
sg9
F11.053614854812622
sg10
I100
sg11
I500
satp22
Rp23
(dp24
S'log_header'
p25
I01
sS'header'
p26
(S'gen'
p27
S'evals'
p28
S'hv|spread|igd|frontier#|valid#'
p29
S'timestamp'
p30
tp31
sS'columns_len'
p32
(lp33
I3
aI5
aI30
aI9
asS'buffindex'
p34
I6
sS'chapters'
p35
ccollections
defaultdict
p36
(g3
tp37
Rp38
sbsS'SPEA2-SIP'
p39
g2
(g3
g4
(lp40
(dp41
g7
(F0.152
F0.796
F0.074
I12
I59
tp42
sg9
F0.01997685432434082
sg10
I100
sg11
I0
sa(dp43
g7
(F0.157
F0.809
F0.076
I13
I100
tp44
sg9
F146.1313238143921
sg10
I100
sg11
I100
sa(dp45
g7
(F0.157
F0.904
F0.076
I13
I100
tp46
sg9
F294.4312918186188
sg10
I100
sg11
I200
sa(dp47
g7
(F0.157
F0.827
F0.076
I13
I100
tp48
sg9
F444.2508409023285
sg10
I100
sg11
I300
sa(dp49
g7
(F0.157
F0.808
F0.076
I13
I100
tp50
sg9
F597.0680809020996
sg10
I100
sg11
I400
sa(dp51
g7
(F0.157
F0.998
F0.076
I13
I100
tp52
sg9
F746.9579889774323
sg10
I100
sg11
I500
satp53
Rp54
(dp55
g25
I01
sg26
g31
sg32
(lp56
I3
aI5
aI30
aI9
asg34
I6
sg35
g36
(g3
tp57
Rp58
sbsS'SPEA2'
p59
g2
(g3
g4
(lp60
(dp61
g7
(F0.052
F0.934
F0.135
I2
I2
tp62
sg9
F0.016084909439086914
sg10
I100
sg11
I0
sa(dp63
g7
(I0
I0
I0
I0
I0
tp64
sg9
F114.87185788154602
sg10
I100
sg11
I100
sa(dp65
g7
g64
sg9
F233.56164693832397
sg10
I100
sg11
I200
sa(dp66
g7
g64
sg9
F350.48530101776123
sg10
I100
sg11
I300
sa(dp67
g7
g64
sg9
F469.0845649242401
sg10
I100
sg11
I400
sa(dp68
g7
g64
sg9
F587.4247760772705
sg10
I100
sg11
I500
satp69
Rp70
(dp71
g25
I01
sg26
g31
sg32
(lp72
I3
aI5
aI30
aI9
asg34
I6
sg35
g36
(g3
tp73
Rp74
sbsS'IBEA-PEN'
p75
g2
(g3
g4
(lp76
(dp77
g7
(F0.114
F0.899
F0.0
I5
I64
tp78
sg9
F0.026105880737304688
sg10
I100
sg11
I0
sa(dp79
g7
g64
sg9
F6.357059955596924
sg10
I100
sg11
I100
sa(dp80
g7
(F0.092
F2.312
F0.154
I1
I1
tp81
sg9
F12.71969199180603
sg10
I100
sg11
I200
sa(dp82
g7
(F0.106
F0.963
F0.093
I2
I2
tp83
sg9
F19.095777988433838
sg10
I100
sg11
I300
sa(dp84
g7
(F0.055
F2.5
F0.106
I1
I2
tp85
sg9
F25.46424889564514
sg10
I100
sg11
I400
sa(dp86
g7
(F0.108
F0.934
F0.11
I3
I5
tp87
sg9
F31.82213306427002
sg10
I100
sg11
I500
satp88
Rp89
(dp90
g25
I01
sg26
g31
sg32
(lp91
I3
aI5
aI30
aI9
asg34
I6
sg35
g36
(g3
tp92
Rp93
sbsS'IBEA'
p94
g2
(g3
g4
(lp95
(dp96
g7
(F0.089
F0.968
F0.14
I4
I4
tp97
sg9
F0.02617621421813965
sg10
I100
sg11
I0
sa(dp98
g7
(F0.092
F2.312
F0.154
I1
I2
tp99
sg9
F6.200330018997192
sg10
I100
sg11
I100
sa(dp100
g7
g64
sg9
F12.394022226333618
sg10
I100
sg11
I200
sa(dp101
g7
(F0.106
F0.963
F0.093
I2
I2
tp102
sg9
F18.594898223876953
sg10
I100
sg11
I300
sa(dp103
g7
(F0.103
F0.943
F0.096
I3
I7
tp104
sg9
F24.788400173187256
sg10
I100
sg11
I400
sa(dp105
g7
g64
sg9
F30.985618114471436
sg10
I100
sg11
I500
satp106
Rp107
(dp108
g25
I01
sg26
g31
sg32
(lp109
I3
aI5
aI30
aI9
asg34
I6
sg35
g36
(g3
tp110
Rp111
sbsS'NSGA2'
p112
g2
(g3
g4
(lp113
(dp114
g7
(F0.1
F0.797
F0.081
I5
I5
tp115
sg9
F0.016620874404907227
sg10
I100
sg11
I0
sa(dp116
g7
(F0.092
F2.312
F0.154
I1
I1
tp117
sg9
F5.616201877593994
sg10
I100
sg11
I100
sa(dp118
g7
(F0.092
F2.312
F0.154
I1
I1
tp119
sg9
F11.228456974029541
sg10
I100
sg11
I200
sa(dp120
g7
g64
sg9
F16.94060182571411
sg10
I100
sg11
I300
sa(dp121
g7
g64
sg9
F22.61650586128235
sg10
I100
sg11
I400
sa(dp122
g7
g64
sg9
F28.265704870224
sg10
I100
sg11
I500
satp123
Rp124
(dp125
g25
I01
sg26
g31
sg32
(lp126
I3
aI5
aI30
aI9
asg34
I6
sg35
g36
(g3
tp127
Rp128
sbsS'IBEA-SIP'
p129
g2
(g3
g4
(lp130
(dp131
g7
(F0.154
F0.847
F0.078
I11
I58
tp132
sg9
F0.0160219669342041
sg10
I100
sg11
I0
sa(dp133
g7
(F0.157
F0.792
F0.09
I11
I100
tp134
sg9
F5.588364839553833
sg10
I100
sg11
I100
sa(dp135
g7
(F0.149
F0.907
F0.06
I11
I100
tp136
sg9
F11.296083927154541
sg10
I100
sg11
I200
sa(dp137
g7
(F0.155
F0.757
F0.083
I11
I100
tp138
sg9
F16.98248291015625
sg10
I100
sg11
I300
sa(dp139
g7
(F0.137
F0.916
F0.084
I10
I100
tp140
sg9
F22.672701835632324
sg10
I100
sg11
I400
sa(dp141
g7
(F0.137
F0.995
F0.078
I9
I100
tp142
sg9
F28.361063957214355
sg10
I100
sg11
I500
satp143
Rp144
(dp145
g25
I01
sg26
g31
sg32
(lp146
I3
aI5
aI30
aI9
asg34
I6
sg35
g36
(g3
tp147
Rp148
sbs.