(dp0
S'NSGA2-SIP'
p1
ccopy_reg
_reconstructor
p2
(cdeap.tools.support
Logbook
p3
c__builtin__
list
p4
(lp5
(dp6
S'hv|spread|igd|frontier#|valid#'
p7
(F0.15
F0.747
F0.086
I13
I58
tp8
sS'timestamp'
p9
F0.0179140567779541
sS'evals'
p10
I100
sS'gen'
p11
I0
sa(dp12
g7
(F0.157
F0.734
F0.076
I13
I100
tp13
sg9
F2.273819923400879
sg10
I100
sg11
I100
sa(dp14
g7
(F0.157
F0.998
F0.076
I13
I100
tp15
sg9
F4.561248064041138
sg10
I100
sg11
I200
sa(dp16
g7
(F0.157
F0.904
F0.076
I13
I100
tp17
sg9
F6.853884935379028
sg10
I100
sg11
I300
sa(dp18
g7
(F0.157
F0.81
F0.076
I13
I100
tp19
sg9
F9.097529888153076
sg10
I100
sg11
I400
sa(dp20
g7
(F0.157
F0.998
F0.076
I13
I100
tp21
sg9
F11.388046979904175
sg10
I100
sg11
I500
satp22
Rp23
(dp24
S'log_header'
p25
I01
sS'header'
p26
(S'gen'
p27
S'evals'
p28
S'hv|spread|igd|frontier#|valid#'
p29
S'timestamp'
p30
tp31
sS'columns_len'
p32
(lp33
I3
aI5
aI30
aI9
asS'buffindex'
p34
I6
sS'chapters'
p35
ccollections
defaultdict
p36
(g3
tp37
Rp38
sbsS'SPEA2-SIP'
p39
g2
(g3
g4
(lp40
(dp41
g7
(F0.144
F0.764
F0.079
I11
I62
tp42
sg9
F0.017694950103759766
sg10
I100
sg11
I0
sa(dp43
g7
(F0.157
F0.86
F0.076
I13
I100
tp44
sg9
F157.25830602645874
sg10
I100
sg11
I100
sa(dp45
g7
(F0.157
F0.808
F0.076
I13
I100
tp46
sg9
F318.351154088974
sg10
I100
sg11
I200
sa(dp47
g7
(F0.157
F0.867
F0.076
I13
I100
tp48
sg9
F475.91939210891724
sg10
I100
sg11
I300
sa(dp49
g7
(F0.157
F0.808
F0.076
I13
I100
tp50
sg9
F635.1975820064545
sg10
I100
sg11
I400
sa(dp51
g7
(F0.157
F0.809
F0.076
I13
I100
tp52
sg9
F795.451996088028
sg10
I100
sg11
I500
satp53
Rp54
(dp55
g25
I01
sg26
g31
sg32
(lp56
I3
aI5
aI30
aI9
asg34
I6
sg35
g36
(g3
tp57
Rp58
sbsS'SPEA2'
p59
g2
(g3
g4
(lp60
(dp61
g7
(F0.062
F0.941
F0.124
I3
I3
tp62
sg9
F0.01712489128112793
sg10
I100
sg11
I0
sa(dp63
g7
(I0
I0
I0
I0
I0
tp64
sg9
F120.03107690811157
sg10
I100
sg11
I100
sa(dp65
g7
g64
sg9
F243.59795594215393
sg10
I100
sg11
I200
sa(dp66
g7
g64
sg9
F368.66188192367554
sg10
I100
sg11
I300
sa(dp67
g7
g64
sg9
F491.6116850376129
sg10
I100
sg11
I400
sa(dp68
g7
g64
sg9
F613.2965550422668
sg10
I100
sg11
I500
satp69
Rp70
(dp71
g25
I01
sg26
g31
sg32
(lp72
I3
aI5
aI30
aI9
asg34
I6
sg35
g36
(g3
tp73
Rp74
sbsS'IBEA-PEN'
p75
g2
(g3
g4
(lp76
(dp77
g7
(F0.114
F0.824
F0.0
I5
I69
tp78
sg9
F0.02203202247619629
sg10
I100
sg11
I0
sa(dp79
g7
(F0.156
F0.663
F0.091
I9
I72
tp80
sg9
F6.5662548542022705
sg10
I100
sg11
I100
sa(dp81
g7
(F0.127
F0.77
F0.069
I6
I38
tp82
sg9
F13.21232295036316
sg10
I100
sg11
I200
sa(dp83
g7
(F0.142
F1.023
F0.046
I8
I53
tp84
sg9
F19.859461069107056
sg10
I100
sg11
I300
sa(dp85
g7
(F0.148
F0.967
F0.083
I8
I68
tp86
sg9
F26.503156900405884
sg10
I100
sg11
I400
sa(dp87
g7
(F0.155
F0.891
F0.117
I7
I35
tp88
sg9
F33.15646505355835
sg10
I100
sg11
I500
satp89
Rp90
(dp91
g25
I01
sg26
g31
sg32
(lp92
I3
aI5
aI30
aI9
asg34
I6
sg35
g36
(g3
tp93
Rp94
sbsS'IBEA'
p95
g2
(g3
g4
(lp96
(dp97
g7
(F0.082
F0.869
F0.118
I4
I4
tp98
sg9
F0.01791691780090332
sg10
I100
sg11
I0
sa(dp99
g7
(F0.088
F2.407
F0.081
I1
I1
tp100
sg9
F6.5105979442596436
sg10
I100
sg11
I100
sa(dp101
g7
(F0.088
F2.407
F0.081
I1
I2
tp102
sg9
F13.075433015823364
sg10
I100
sg11
I200
sa(dp103
g7
(F0.037
F2.599
F0.099
I1
I1
tp104
sg9
F19.628474950790405
sg10
I100
sg11
I300
sa(dp105
g7
(F0.037
F2.599
F0.099
I1
I2
tp106
sg9
F26.210904836654663
sg10
I100
sg11
I400
sa(dp107
g7
g64
sg9
F32.76476001739502
sg10
I100
sg11
I500
satp108
Rp109
(dp110
g25
I01
sg26
g31
sg32
(lp111
I3
aI5
aI30
aI9
asg34
I6
sg35
g36
(g3
tp112
Rp113
sbsS'NSGA2'
p114
g2
(g3
g4
(lp115
(dp116
g7
(F0.055
F0.942
F0.142
I5
I5
tp117
sg9
F0.016799211502075195
sg10
I100
sg11
I0
sa(dp118
g7
(F0.092
F2.312
F0.154
I1
I1
tp119
sg9
F5.806250095367432
sg10
I100
sg11
I100
sa(dp120
g7
(F0.088
F2.407
F0.081
I1
I1
tp121
sg9
F11.826163053512573
sg10
I100
sg11
I200
sa(dp122
g7
g64
sg9
F17.793090105056763
sg10
I100
sg11
I300
sa(dp123
g7
(F0.088
F2.407
F0.081
I1
I1
tp124
sg9
F23.810243129730225
sg10
I100
sg11
I400
sa(dp125
g7
g64
sg9
F29.802492141723633
sg10
I100
sg11
I500
satp126
Rp127
(dp128
g25
I01
sg26
g31
sg32
(lp129
I3
aI5
aI30
aI9
asg34
I6
sg35
g36
(g3
tp130
Rp131
sbsS'IBEA-SIP'
p132
g2
(g3
g4
(lp133
(dp134
g7
(F0.151
F0.794
F0.07
I12
I64
tp135
sg9
F0.01755690574645996
sg10
I100
sg11
I0
sa(dp136
g7
(F0.151
F0.753
F0.086
I8
I100
tp137
sg9
F5.933129072189331
sg10
I100
sg11
I100
sa(dp138
g7
(F0.143
F0.987
F0.091
I10
I100
tp139
sg9
F12.005321025848389
sg10
I100
sg11
I200
sa(dp140
g7
(F0.156
F0.879
F0.094
I10
I100
tp141
sg9
F17.994853019714355
sg10
I100
sg11
I300
sa(dp142
g7
(F0.137
F0.668
F0.093
I9
I100
tp143
sg9
F24.0307719707489
sg10
I100
sg11
I400
sa(dp144
g7
(F0.157
F0.888
F0.08
I11
I100
tp145
sg9
F29.82646608352661
sg10
I100
sg11
I500
satp146
Rp147
(dp148
g25
I01
sg26
g31
sg32
(lp149
I3
aI5
aI30
aI9
asg34
I6
sg35
g36
(g3
tp150
Rp151
sbs.