(dp0
S'NSGA2-SIP'
p1
ccopy_reg
_reconstructor
p2
(cdeap.tools.support
Logbook
p3
c__builtin__
list
p4
(lp5
(dp6
S'hv|spread|igd|frontier#|valid#'
p7
(F0.157
F0.766
F0.082
I12
I53
tp8
sS'timestamp'
p9
F0.025456905364990234
sS'evals'
p10
I100
sS'gen'
p11
I0
sa(dp12
g7
(F0.157
F0.904
F0.076
I13
I100
tp13
sg9
F2.315303087234497
sg10
I100
sg11
I100
sa(dp14
g7
(F0.157
F0.895
F0.076
I13
I100
tp15
sg9
F4.395127058029175
sg10
I100
sg11
I200
sa(dp16
g7
(F0.157
F0.815
F0.076
I13
I100
tp17
sg9
F6.426121950149536
sg10
I100
sg11
I300
sa(dp18
g7
(F0.157
F0.805
F0.076
I13
I100
tp19
sg9
F8.491699934005737
sg10
I100
sg11
I400
sa(dp20
g7
(F0.157
F0.805
F0.076
I13
I100
tp21
sg9
F10.556428909301758
sg10
I100
sg11
I500
satp22
Rp23
(dp24
S'log_header'
p25
I01
sS'header'
p26
(S'gen'
p27
S'evals'
p28
S'hv|spread|igd|frontier#|valid#'
p29
S'timestamp'
p30
tp31
sS'columns_len'
p32
(lp33
I3
aI5
aI30
aI9
asS'buffindex'
p34
I6
sS'chapters'
p35
ccollections
defaultdict
p36
(g3
tp37
Rp38
sbsS'SPEA2-SIP'
p39
g2
(g3
g4
(lp40
(dp41
g7
(F0.155
F0.801
F0.078
I11
I63
tp42
sg9
F0.02608203887939453
sg10
I100
sg11
I0
sa(dp43
g7
(F0.157
F0.726
F0.076
I13
I100
tp44
sg9
F141.05272388458252
sg10
I100
sg11
I100
sa(dp45
g7
(F0.157
F0.947
F0.076
I13
I100
tp46
sg9
F282.81911993026733
sg10
I100
sg11
I200
sa(dp47
g7
(F0.157
F0.834
F0.076
I13
I100
tp48
sg9
F427.25131702423096
sg10
I100
sg11
I300
sa(dp49
g7
(F0.157
F0.867
F0.076
I13
I100
tp50
sg9
F572.6802079677582
sg10
I100
sg11
I400
sa(dp51
g7
(F0.157
F0.817
F0.076
I13
I100
tp52
sg9
F720.4859540462494
sg10
I100
sg11
I500
satp53
Rp54
(dp55
g25
I01
sg26
g31
sg32
(lp56
I3
aI5
aI30
aI9
asg34
I6
sg35
g36
(g3
tp57
Rp58
sbsS'SPEA2'
p59
g2
(g3
g4
(lp60
(dp61
g7
(F0.084
F2.236
F0.109
I1
I3
tp62
sg9
F0.016510963439941406
sg10
I100
sg11
I0
sa(dp63
g7
(I0
I0
I0
I0
I0
tp64
sg9
F111.72483491897583
sg10
I100
sg11
I100
sa(dp65
g7
g64
sg9
F226.21195602416992
sg10
I100
sg11
I200
sa(dp66
g7
g64
sg9
F339.4966850280762
sg10
I100
sg11
I300
sa(dp67
g7
g64
sg9
F452.4028000831604
sg10
I100
sg11
I400
sa(dp68
g7
g64
sg9
F563.6369390487671
sg10
I100
sg11
I500
satp69
Rp70
(dp71
g25
I01
sg26
g31
sg32
(lp72
I3
aI5
aI30
aI9
asg34
I6
sg35
g36
(g3
tp73
Rp74
sbsS'IBEA'
p75
g2
(g3
g4
(lp76
(dp77
g7
(F0.077
F0.966
F0.121
I2
I2
tp78
sg9
F0.025516986846923828
sg10
I100
sg11
I0
sa(dp79
g7
g64
sg9
F6.232280015945435
sg10
I100
sg11
I100
sa(dp80
g7
(F0.059
F0.97
F0.103
I2
I5
tp81
sg9
F12.26705288887024
sg10
I100
sg11
I200
sa(dp82
g7
(F0.061
F0.97
F0.103
I2
I4
tp83
sg9
F18.29855489730835
sg10
I100
sg11
I300
sa(dp84
g7
g64
sg9
F24.32384705543518
sg10
I100
sg11
I400
sa(dp85
g7
g64
sg9
F30.351703882217407
sg10
I100
sg11
I500
satp86
Rp87
(dp88
g25
I01
sg26
g31
sg32
(lp89
I3
aI5
aI30
aI9
asg34
I6
sg35
g36
(g3
tp90
Rp91
sbsS'NSGA2'
p92
g2
(g3
g4
(lp93
(dp94
g7
(F0.117
F0.94
F0.105
I3
I4
tp95
sg9
F0.01640605926513672
sg10
I100
sg11
I0
sa(dp96
g7
g64
sg9
F5.712565183639526
sg10
I100
sg11
I100
sa(dp97
g7
g64
sg9
F11.453281164169312
sg10
I100
sg11
I200
sa(dp98
g7
g64
sg9
F17.1162371635437
sg10
I100
sg11
I300
sa(dp99
g7
g64
sg9
F22.834131002426147
sg10
I100
sg11
I400
sa(dp100
g7
g64
sg9
F28.577969074249268
sg10
I100
sg11
I500
satp101
Rp102
(dp103
g25
I01
sg26
g31
sg32
(lp104
I3
aI5
aI30
aI9
asg34
I6
sg35
g36
(g3
tp105
Rp106
sbsS'IBEA-SIP'
p107
g2
(g3
g4
(lp108
(dp109
g7
(F0.151
F0.725
F0.081
I13
I61
tp110
sg9
F0.026983022689819336
sg10
I100
sg11
I0
sa(dp111
g7
(F0.149
F0.705
F0.061
I11
I100
tp112
sg9
F5.711210012435913
sg10
I100
sg11
I100
sa(dp113
g7
(F0.149
F0.87
F0.056
I10
I100
tp114
sg9
F11.321284055709839
sg10
I100
sg11
I200
sa(dp115
g7
(F0.143
F0.783
F0.091
I10
I100
tp116
sg9
F16.910446166992188
sg10
I100
sg11
I300
sa(dp117
g7
(F0.157
F0.879
F0.08
I11
I100
tp118
sg9
F22.635969161987305
sg10
I100
sg11
I400
sa(dp119
g7
(F0.147
F0.853
F0.082
I11
I100
tp120
sg9
F28.549221992492676
sg10
I100
sg11
I500
satp121
Rp122
(dp123
g25
I01
sg26
g31
sg32
(lp124
I3
aI5
aI30
aI9
asg34
I6
sg35
g36
(g3
tp125
Rp126
sbs.