(dp0
S'NSGA2-SIP'
p1
ccopy_reg
_reconstructor
p2
(cdeap.tools.support
Logbook
p3
c__builtin__
list
p4
(lp5
(dp6
S'hv|spread|igd|frontier#|valid#'
p7
(F0.15
F0.668
F0.094
I12
I58
tp8
sS'timestamp'
p9
F0.017123937606811523
sS'evals'
p10
I100
sS'gen'
p11
I0
sa(dp12
g7
(F0.157
F0.808
F0.076
I13
I100
tp13
sg9
F2.2527599334716797
sg10
I100
sg11
I100
sa(dp14
g7
(F0.157
F0.808
F0.076
I13
I100
tp15
sg9
F4.522446870803833
sg10
I100
sg11
I200
sa(dp16
g7
(F0.157
F0.808
F0.076
I13
I100
tp17
sg9
F6.788177013397217
sg10
I100
sg11
I300
sa(dp18
g7
(F0.157
F0.808
F0.076
I13
I100
tp19
sg9
F9.057857990264893
sg10
I100
sg11
I400
sa(dp20
g7
(F0.157
F0.86
F0.076
I13
I100
tp21
sg9
F11.324599981307983
sg10
I100
sg11
I500
satp22
Rp23
(dp24
S'log_header'
p25
I01
sS'header'
p26
(S'gen'
p27
S'evals'
p28
S'hv|spread|igd|frontier#|valid#'
p29
S'timestamp'
p30
tp31
sS'columns_len'
p32
(lp33
I3
aI5
aI30
aI9
asS'buffindex'
p34
I6
sS'chapters'
p35
ccollections
defaultdict
p36
(g3
tp37
Rp38
sbsS'SPEA2-SIP'
p39
g2
(g3
g4
(lp40
(dp41
g7
(F0.157
F0.759
F0.08
I11
I51
tp42
sg9
F0.016371965408325195
sg10
I100
sg11
I0
sa(dp43
g7
(F0.157
F0.947
F0.076
I13
I100
tp44
sg9
F151.1924970149994
sg10
I100
sg11
I100
sa(dp45
g7
(F0.157
F0.809
F0.076
I13
I100
tp46
sg9
F304.3174078464508
sg10
I100
sg11
I200
sa(dp47
g7
(F0.157
F0.642
F0.076
I13
I100
tp48
sg9
F449.8975999355316
sg10
I100
sg11
I300
sa(dp49
g7
(F0.157
F0.895
F0.076
I13
I100
tp50
sg9
F600.4482719898224
sg10
I100
sg11
I400
sa(dp51
g7
(F0.157
F0.642
F0.076
I13
I100
tp52
sg9
F751.0835309028625
sg10
I100
sg11
I500
satp53
Rp54
(dp55
g25
I01
sg26
g31
sg32
(lp56
I3
aI5
aI30
aI9
asg34
I6
sg35
g36
(g3
tp57
Rp58
sbsS'SPEA2'
p59
g2
(g3
g4
(lp60
(dp61
g7
(F0.083
F0.899
F0.108
I5
I6
tp62
sg9
F0.016798019409179688
sg10
I100
sg11
I0
sa(dp63
g7
(I0
I0
I0
I0
I0
tp64
sg9
F115.16072511672974
sg10
I100
sg11
I100
sa(dp65
g7
g64
sg9
F235.74923014640808
sg10
I100
sg11
I200
sa(dp66
g7
g64
sg9
F352.23394203186035
sg10
I100
sg11
I300
sa(dp67
g7
g64
sg9
F472.18706917762756
sg10
I100
sg11
I400
sa(dp68
g7
g64
sg9
F591.0659680366516
sg10
I100
sg11
I500
satp69
Rp70
(dp71
g25
I01
sg26
g31
sg32
(lp72
I3
aI5
aI30
aI9
asg34
I6
sg35
g36
(g3
tp73
Rp74
sbsS'IBEA'
p75
g2
(g3
g4
(lp76
(dp77
g7
(F0.117
F0.897
F0.105
I7
I9
tp78
sg9
F0.01769089698791504
sg10
I100
sg11
I0
sa(dp79
g7
(F0.037
F2.599
F0.099
I1
I1
tp80
sg9
F6.262569904327393
sg10
I100
sg11
I100
sa(dp81
g7
g64
sg9
F12.624796867370605
sg10
I100
sg11
I200
sa(dp82
g7
g64
sg9
F18.935163974761963
sg10
I100
sg11
I300
sa(dp83
g7
(F0.104
F0.94
F0.096
I3
I8
tp84
sg9
F25.228617906570435
sg10
I100
sg11
I400
sa(dp85
g7
(F0.088
F2.407
F0.081
I1
I1
tp86
sg9
F31.52211284637451
sg10
I100
sg11
I500
satp87
Rp88
(dp89
g25
I01
sg26
g31
sg32
(lp90
I3
aI5
aI30
aI9
asg34
I6
sg35
g36
(g3
tp91
Rp92
sbsS'NSGA2'
p93
g2
(g3
g4
(lp94
(dp95
g7
(F0.057
F0.968
F0.105
I2
I3
tp96
sg9
F0.016123056411743164
sg10
I100
sg11
I0
sa(dp97
g7
g64
sg9
F5.781710147857666
sg10
I100
sg11
I100
sa(dp98
g7
g64
sg9
F11.493875980377197
sg10
I100
sg11
I200
sa(dp99
g7
g64
sg9
F17.20508599281311
sg10
I100
sg11
I300
sa(dp100
g7
g64
sg9
F22.844813108444214
sg10
I100
sg11
I400
sa(dp101
g7
(F0.084
F2.236
F0.109
I1
I1
tp102
sg9
F28.567254066467285
sg10
I100
sg11
I500
satp103
Rp104
(dp105
g25
I01
sg26
g31
sg32
(lp106
I3
aI5
aI30
aI9
asg34
I6
sg35
g36
(g3
tp107
Rp108
sbsS'IBEA-SIP'
p109
g2
(g3
g4
(lp110
(dp111
g7
(F0.157
F0.827
F0.09
I11
I53
tp112
sg9
F0.01641678810119629
sg10
I100
sg11
I0
sa(dp113
g7
(F0.156
F0.688
F0.092
I10
I100
tp114
sg9
F5.870131969451904
sg10
I100
sg11
I100
sa(dp115
g7
(F0.156
F0.802
F0.098
I9
I100
tp116
sg9
F11.746770858764648
sg10
I100
sg11
I200
sa(dp117
g7
(F0.143
F0.733
F0.091
I10
I100
tp118
sg9
F17.589078903198242
sg10
I100
sg11
I300
sa(dp119
g7
(F0.148
F0.9
F0.082
I11
I100
tp120
sg9
F23.389057874679565
sg10
I100
sg11
I400
sa(dp121
g7
(F0.156
F0.916
F0.089
I10
I100
tp122
sg9
F29.149014949798584
sg10
I100
sg11
I500
satp123
Rp124
(dp125
g25
I01
sg26
g31
sg32
(lp126
I3
aI5
aI30
aI9
asg34
I6
sg35
g36
(g3
tp127
Rp128
sbs.