(dp0
S'NSGA2-SIP'
p1
ccopy_reg
_reconstructor
p2
(cdeap.tools.support
Logbook
p3
c__builtin__
list
p4
(lp5
(dp6
S'hv|spread|igd|frontier#|valid#'
p7
(F0.157
F0.754
F0.078
I13
I53
tp8
sS'timestamp'
p9
F0.017678022384643555
sS'evals'
p10
I100
sS'gen'
p11
I0
sa(dp12
g7
(F0.157
F0.81
F0.076
I13
I100
tp13
sg9
F2.240154981613159
sg10
I100
sg11
I100
sa(dp14
g7
(F0.157
F0.726
F0.076
I13
I100
tp15
sg9
F4.551037073135376
sg10
I100
sg11
I200
sa(dp16
g7
(F0.157
F0.726
F0.076
I13
I100
tp17
sg9
F6.89302396774292
sg10
I100
sg11
I300
sa(dp18
g7
(F0.157
F0.99
F0.076
I13
I100
tp19
sg9
F9.239513874053955
sg10
I100
sg11
I400
sa(dp20
g7
(F0.157
F0.726
F0.076
I13
I100
tp21
sg9
F11.5919828414917
sg10
I100
sg11
I500
satp22
Rp23
(dp24
S'log_header'
p25
I01
sS'header'
p26
(S'gen'
p27
S'evals'
p28
S'hv|spread|igd|frontier#|valid#'
p29
S'timestamp'
p30
tp31
sS'columns_len'
p32
(lp33
I3
aI5
aI30
aI9
asS'buffindex'
p34
I6
sS'chapters'
p35
ccollections
defaultdict
p36
(g3
tp37
Rp38
sbsS'SPEA2-SIP'
p39
g2
(g3
g4
(lp40
(dp41
g7
(F0.157
F0.697
F0.09
I11
I54
tp42
sg9
F0.017267942428588867
sg10
I100
sg11
I0
sa(dp43
g7
(F0.157
F0.726
F0.076
I13
I100
tp44
sg9
F158.98621106147766
sg10
I100
sg11
I100
sa(dp45
g7
(F0.157
F0.867
F0.076
I13
I100
tp46
sg9
F319.3328790664673
sg10
I100
sg11
I200
sa(dp47
g7
(F0.157
F0.808
F0.076
I13
I100
tp48
sg9
F479.86598896980286
sg10
I100
sg11
I300
sa(dp49
g7
(F0.157
F0.809
F0.076
I13
I100
tp50
sg9
F640.4580209255219
sg10
I100
sg11
I400
sa(dp51
g7
(F0.157
F0.904
F0.076
I13
I100
tp52
sg9
F801.6492359638214
sg10
I100
sg11
I500
satp53
Rp54
(dp55
g25
I01
sg26
g31
sg32
(lp56
I3
aI5
aI30
aI9
asg34
I6
sg35
g36
(g3
tp57
Rp58
sbsS'SPEA2'
p59
g2
(g3
g4
(lp60
(dp61
g7
(F0.129
F0.82
F0.102
I8
I10
tp62
sg9
F0.018095016479492188
sg10
I100
sg11
I0
sa(dp63
g7
(F0.037
F2.599
F0.099
I1
I1
tp64
sg9
F125.6582498550415
sg10
I100
sg11
I100
sa(dp65
g7
(I0
I0
I0
I0
I0
tp66
sg9
F250.2854278087616
sg10
I100
sg11
I200
sa(dp67
g7
g66
sg9
F375.397362947464
sg10
I100
sg11
I300
sa(dp68
g7
g66
sg9
F499.8891668319702
sg10
I100
sg11
I400
sa(dp69
g7
g66
sg9
F624.3231627941132
sg10
I100
sg11
I500
satp70
Rp71
(dp72
g25
I01
sg26
g31
sg32
(lp73
I3
aI5
aI30
aI9
asg34
I6
sg35
g36
(g3
tp74
Rp75
sbsS'IBEA-PEN'
p76
g2
(g3
g4
(lp77
(dp78
g7
(F0.114
F0.824
F0.0
I5
I67
tp79
sg9
F0.022860050201416016
sg10
I100
sg11
I0
sa(dp80
g7
(F0.144
F0.817
F0.09
I11
I54
tp81
sg9
F6.674860954284668
sg10
I100
sg11
I100
sa(dp82
g7
(F0.157
F0.895
F0.089
I10
I64
tp83
sg9
F13.378077983856201
sg10
I100
sg11
I200
sa(dp84
g7
(F0.149
F0.833
F0.115
I6
I58
tp85
sg9
F20.085384845733643
sg10
I100
sg11
I300
sa(dp86
g7
(F0.143
F0.843
F0.088
I9
I54
tp87
sg9
F26.770055055618286
sg10
I100
sg11
I400
sa(dp88
g7
(F0.149
F0.724
F0.085
I8
I60
tp89
sg9
F33.486188888549805
sg10
I100
sg11
I500
satp90
Rp91
(dp92
g25
I01
sg26
g31
sg32
(lp93
I3
aI5
aI30
aI9
asg34
I6
sg35
g36
(g3
tp94
Rp95
sbsS'IBEA'
p96
g2
(g3
g4
(lp97
(dp98
g7
(F0.086
F0.938
F0.105
I3
I4
tp99
sg9
F0.017318010330200195
sg10
I100
sg11
I0
sa(dp100
g7
g66
sg9
F6.542801141738892
sg10
I100
sg11
I100
sa(dp101
g7
(F0.037
F2.599
F0.099
I1
I2
tp102
sg9
F13.104892015457153
sg10
I100
sg11
I200
sa(dp103
g7
(F0.054
F0.97
F0.091
I2
I2
tp104
sg9
F19.665505170822144
sg10
I100
sg11
I300
sa(dp105
g7
(F0.096
F0.968
F0.094
I2
I3
tp106
sg9
F26.34798812866211
sg10
I100
sg11
I400
sa(dp107
g7
(F0.088
F2.407
F0.081
I1
I2
tp108
sg9
F32.98787307739258
sg10
I100
sg11
I500
satp109
Rp110
(dp111
g25
I01
sg26
g31
sg32
(lp112
I3
aI5
aI30
aI9
asg34
I6
sg35
g36
(g3
tp113
Rp114
sbsS'NSGA2'
p115
g2
(g3
g4
(lp116
(dp117
g7
(F0.095
F0.967
F0.101
I4
I6
tp118
sg9
F0.017034053802490234
sg10
I100
sg11
I0
sa(dp119
g7
g66
sg9
F5.8535239696502686
sg10
I100
sg11
I100
sa(dp120
g7
g66
sg9
F11.861914157867432
sg10
I100
sg11
I200
sa(dp121
g7
g66
sg9
F17.883777141571045
sg10
I100
sg11
I300
sa(dp122
g7
(F0.092
F2.312
F0.154
I1
I1
tp123
sg9
F23.87860918045044
sg10
I100
sg11
I400
sa(dp124
g7
g66
sg9
F29.921775102615356
sg10
I100
sg11
I500
satp125
Rp126
(dp127
g25
I01
sg26
g31
sg32
(lp128
I3
aI5
aI30
aI9
asg34
I6
sg35
g36
(g3
tp129
Rp130
sbsS'IBEA-SIP'
p131
g2
(g3
g4
(lp132
(dp133
g7
(F0.146
F0.73
F0.095
I11
I55
tp134
sg9
F0.025259017944335938
sg10
I100
sg11
I0
sa(dp135
g7
(F0.137
F0.877
F0.091
I10
I100
tp136
sg9
F5.9736151695251465
sg10
I100
sg11
I100
sa(dp137
g7
(F0.149
F0.948
F0.061
I11
I100
tp138
sg9
F12.010292053222656
sg10
I100
sg11
I200
sa(dp139
g7
(F0.141
F0.76
F0.1
I8
I100
tp140
sg9
F18.03378200531006
sg10
I100
sg11
I300
sa(dp141
g7
(F0.149
F0.878
F0.067
I10
I100
tp142
sg9
F24.08885407447815
sg10
I100
sg11
I400
sa(dp143
g7
(F0.151
F0.776
F0.077
I9
I100
tp144
sg9
F30.15618896484375
sg10
I100
sg11
I500
satp145
Rp146
(dp147
g25
I01
sg26
g31
sg32
(lp148
I3
aI5
aI30
aI9
asg34
I6
sg35
g36
(g3
tp149
Rp150
sbs.