(dp0
S'NSGA2-SIP'
p1
ccopy_reg
_reconstructor
p2
(cdeap.tools.support
Logbook
p3
c__builtin__
list
p4
(lp5
(dp6
S'hv|spread|igd|frontier#|valid#'
p7
(F0.151
F0.725
F0.081
I13
I63
tp8
sS'timestamp'
p9
F0.021043062210083008
sS'evals'
p10
I100
sS'gen'
p11
I0
sa(dp12
g7
(F0.157
F0.63
F0.076
I13
I100
tp13
sg9
F2.610985040664673
sg10
I100
sg11
I100
sa(dp14
g7
(F0.157
F0.734
F0.076
I13
I100
tp15
sg9
F5.22910213470459
sg10
I100
sg11
I200
sa(dp16
g7
(F0.157
F0.947
F0.076
I13
I100
tp17
sg9
F7.802627086639404
sg10
I100
sg11
I300
sa(dp18
g7
(F0.157
F0.734
F0.076
I13
I100
tp19
sg9
F10.456966161727905
sg10
I100
sg11
I400
sa(dp20
g7
(F0.157
F0.947
F0.076
I13
I100
tp21
sg9
F13.099853992462158
sg10
I100
sg11
I500
satp22
Rp23
(dp24
S'log_header'
p25
I01
sS'header'
p26
(S'gen'
p27
S'evals'
p28
S'hv|spread|igd|frontier#|valid#'
p29
S'timestamp'
p30
tp31
sS'columns_len'
p32
(lp33
I3
aI5
aI30
aI9
asS'buffindex'
p34
I6
sS'chapters'
p35
ccollections
defaultdict
p36
(g3
tp37
Rp38
sbsS'SPEA2-SIP'
p39
g2
(g3
g4
(lp40
(dp41
g7
(F0.145
F0.911
F0.046
I10
I54
tp42
sg9
F0.019253015518188477
sg10
I100
sg11
I0
sa(dp43
g7
(F0.157
F0.86
F0.076
I13
I100
tp44
sg9
F167.7994999885559
sg10
I100
sg11
I100
sa(dp45
g7
(F0.157
F0.726
F0.076
I13
I100
tp46
sg9
F337.75706911087036
sg10
I100
sg11
I200
sa(dp47
g7
(F0.157
F0.86
F0.076
I13
I100
tp48
sg9
F507.2586600780487
sg10
I100
sg11
I300
sa(dp49
g7
(F0.157
F0.811
F0.076
I13
I100
tp50
sg9
F673.2652559280396
sg10
I100
sg11
I400
sa(dp51
g7
(F0.157
F0.805
F0.076
I13
I100
tp52
sg9
F841.292976140976
sg10
I100
sg11
I500
satp53
Rp54
(dp55
g25
I01
sg26
g31
sg32
(lp56
I3
aI5
aI30
aI9
asg34
I6
sg35
g36
(g3
tp57
Rp58
sbsS'SPEA2'
p59
g2
(g3
g4
(lp60
(dp61
g7
(F0.06
F2.236
F0.102
I1
I1
tp62
sg9
F0.01918792724609375
sg10
I100
sg11
I0
sa(dp63
g7
(I0
I0
I0
I0
I0
tp64
sg9
F127.92213201522827
sg10
I100
sg11
I100
sa(dp65
g7
g64
sg9
F259.8864939212799
sg10
I100
sg11
I200
sa(dp66
g7
g64
sg9
F391.9831519126892
sg10
I100
sg11
I300
sa(dp67
g7
g64
sg9
F524.1816749572754
sg10
I100
sg11
I400
sa(dp68
g7
g64
sg9
F657.7806880474091
sg10
I100
sg11
I500
satp69
Rp70
(dp71
g25
I01
sg26
g31
sg32
(lp72
I3
aI5
aI30
aI9
asg34
I6
sg35
g36
(g3
tp73
Rp74
sbsS'IBEA-PEN'
p75
g2
(g3
g4
(lp76
(dp77
g7
(F0.114
F0.9
F0.0
I5
I70
tp78
sg9
F0.03246593475341797
sg10
I100
sg11
I0
sa(dp79
g7
g64
sg9
F7.0638039112091064
sg10
I100
sg11
I100
sa(dp80
g7
(F0.088
F2.407
F0.081
I1
I1
tp81
sg9
F14.018594980239868
sg10
I100
sg11
I200
sa(dp82
g7
g64
sg9
F20.958045959472656
sg10
I100
sg11
I300
sa(dp83
g7
g64
sg9
F27.891101837158203
sg10
I100
sg11
I400
sa(dp84
g7
g64
sg9
F34.88402485847473
sg10
I100
sg11
I500
satp85
Rp86
(dp87
g25
I01
sg26
g31
sg32
(lp88
I3
aI5
aI30
aI9
asg34
I6
sg35
g36
(g3
tp89
Rp90
sbsS'IBEA'
p91
g2
(g3
g4
(lp92
(dp93
g7
(F0.075
F0.933
F0.089
I3
I4
tp94
sg9
F0.020328998565673828
sg10
I100
sg11
I0
sa(dp95
g7
(F0.037
F2.599
F0.099
I1
I2
tp96
sg9
F6.802402019500732
sg10
I100
sg11
I100
sa(dp97
g7
g64
sg9
F13.658288955688477
sg10
I100
sg11
I200
sa(dp98
g7
(F0.037
F2.599
F0.099
I1
I4
tp99
sg9
F20.441910982131958
sg10
I100
sg11
I300
sa(dp100
g7
(F0.037
F2.599
F0.099
I1
I1
tp101
sg9
F27.288074016571045
sg10
I100
sg11
I400
sa(dp102
g7
(F0.113
F0.963
F0.118
I2
I3
tp103
sg9
F34.11446499824524
sg10
I100
sg11
I500
satp104
Rp105
(dp106
g25
I01
sg26
g31
sg32
(lp107
I3
aI5
aI30
aI9
asg34
I6
sg35
g36
(g3
tp108
Rp109
sbsS'NSGA2'
p110
g2
(g3
g4
(lp111
(dp112
g7
(F0.074
F0.921
F0.124
I4
I5
tp113
sg9
F0.01988697052001953
sg10
I100
sg11
I0
sa(dp114
g7
(F0.088
F2.407
F0.081
I1
I1
tp115
sg9
F6.919226169586182
sg10
I100
sg11
I100
sa(dp116
g7
(F0.088
F2.407
F0.081
I1
I1
tp117
sg9
F13.787472009658813
sg10
I100
sg11
I200
sa(dp118
g7
g64
sg9
F20.719619035720825
sg10
I100
sg11
I300
sa(dp119
g7
g64
sg9
F27.65446400642395
sg10
I100
sg11
I400
sa(dp120
g7
(F0.088
F2.407
F0.081
I1
I1
tp121
sg9
F34.486886978149414
sg10
I100
sg11
I500
satp122
Rp123
(dp124
g25
I01
sg26
g31
sg32
(lp125
I3
aI5
aI30
aI9
asg34
I6
sg35
g36
(g3
tp126
Rp127
sbsS'IBEA-SIP'
p128
g2
(g3
g4
(lp129
(dp130
g7
(F0.15
F0.854
F0.056
I12
I54
tp131
sg9
F0.019884109497070312
sg10
I100
sg11
I0
sa(dp132
g7
(F0.143
F0.783
F0.101
I9
I100
tp133
sg9
F6.2719621658325195
sg10
I100
sg11
I100
sa(dp134
g7
(F0.156
F0.824
F0.082
I10
I100
tp135
sg9
F12.652682065963745
sg10
I100
sg11
I200
sa(dp136
g7
(F0.146
F0.958
F0.049
I10
I100
tp137
sg9
F19.04469108581543
sg10
I100
sg11
I300
sa(dp138
g7
(F0.157
F0.81
F0.089
I10
I100
tp139
sg9
F25.452311038970947
sg10
I100
sg11
I400
sa(dp140
g7
(F0.149
F0.867
F0.055
I11
I100
tp141
sg9
F31.819209098815918
sg10
I100
sg11
I500
satp142
Rp143
(dp144
g25
I01
sg26
g31
sg32
(lp145
I3
aI5
aI30
aI9
asg34
I6
sg35
g36
(g3
tp146
Rp147
sbs.