(dp0
S'NSGA2-SIP'
p1
ccopy_reg
_reconstructor
p2
(cdeap.tools.support
Logbook
p3
c__builtin__
list
p4
(lp5
(dp6
S'hv|spread|igd|frontier#|valid#'
p7
(F0.146
F0.829
F0.089
I10
I49
tp8
sS'timestamp'
p9
F0.01869511604309082
sS'evals'
p10
I100
sS'gen'
p11
I0
sa(dp12
g7
(F0.157
F0.817
F0.076
I13
I100
tp13
sg9
F2.627495050430298
sg10
I100
sg11
I100
sa(dp14
g7
(F0.157
F0.726
F0.076
I13
I100
tp15
sg9
F5.229676008224487
sg10
I100
sg11
I200
sa(dp16
g7
(F0.157
F0.808
F0.076
I13
I100
tp17
sg9
F7.932598114013672
sg10
I100
sg11
I300
sa(dp18
g7
(F0.157
F0.895
F0.076
I13
I100
tp19
sg9
F10.6460280418396
sg10
I100
sg11
I400
sa(dp20
g7
(F0.157
F0.86
F0.076
I13
I100
tp21
sg9
F13.378895998001099
sg10
I100
sg11
I500
satp22
Rp23
(dp24
S'log_header'
p25
I01
sS'header'
p26
(S'gen'
p27
S'evals'
p28
S'hv|spread|igd|frontier#|valid#'
p29
S'timestamp'
p30
tp31
sS'columns_len'
p32
(lp33
I3
aI5
aI30
aI9
asS'buffindex'
p34
I6
sS'chapters'
p35
ccollections
defaultdict
p36
(g3
tp37
Rp38
sbsS'SPEA2-SIP'
p39
g2
(g3
g4
(lp40
(dp41
g7
(F0.148
F0.885
F0.051
I11
I63
tp42
sg9
F0.02048802375793457
sg10
I100
sg11
I0
sa(dp43
g7
(F0.157
F0.895
F0.076
I13
I100
tp44
sg9
F169.3971929550171
sg10
I100
sg11
I100
sa(dp45
g7
(F0.157
F0.726
F0.076
I13
I100
tp46
sg9
F340.9563879966736
sg10
I100
sg11
I200
sa(dp47
g7
(F0.157
F0.947
F0.076
I13
I100
tp48
sg9
F512.2813329696655
sg10
I100
sg11
I300
sa(dp49
g7
(F0.157
F0.815
F0.076
I13
I100
tp50
sg9
F682.6826069355011
sg10
I100
sg11
I400
sa(dp51
g7
(F0.157
F0.827
F0.076
I13
I100
tp52
sg9
F852.7739779949188
sg10
I100
sg11
I500
satp53
Rp54
(dp55
g25
I01
sg26
g31
sg32
(lp56
I3
aI5
aI30
aI9
asg34
I6
sg35
g36
(g3
tp57
Rp58
sbsS'SPEA2'
p59
g2
(g3
g4
(lp60
(dp61
g7
(F0.098
F0.871
F0.083
I3
I5
tp62
sg9
F0.020123004913330078
sg10
I100
sg11
I0
sa(dp63
g7
(I0
I0
I0
I0
I0
tp64
sg9
F131.43961310386658
sg10
I100
sg11
I100
sa(dp65
g7
g64
sg9
F266.77662920951843
sg10
I100
sg11
I200
sa(dp66
g7
g64
sg9
F403.6013400554657
sg10
I100
sg11
I300
sa(dp67
g7
g64
sg9
F538.3430380821228
sg10
I100
sg11
I400
sa(dp68
g7
g64
sg9
F674.0372800827026
sg10
I100
sg11
I500
satp69
Rp70
(dp71
g25
I01
sg26
g31
sg32
(lp72
I3
aI5
aI30
aI9
asg34
I6
sg35
g36
(g3
tp73
Rp74
sbsS'IBEA'
p75
g2
(g3
g4
(lp76
(dp77
g7
(F0.089
F0.94
F0.11
I3
I3
tp78
sg9
F0.02021193504333496
sg10
I100
sg11
I0
sa(dp79
g7
g64
sg9
F6.881690979003906
sg10
I100
sg11
I100
sa(dp80
g7
g64
sg9
F13.798028945922852
sg10
I100
sg11
I200
sa(dp81
g7
g64
sg9
F20.74672794342041
sg10
I100
sg11
I300
sa(dp82
g7
(F0.1
F0.94
F0.09
I2
I4
tp83
sg9
F27.644054889678955
sg10
I100
sg11
I400
sa(dp84
g7
g64
sg9
F34.58494305610657
sg10
I100
sg11
I500
satp85
Rp86
(dp87
g25
I01
sg26
g31
sg32
(lp88
I3
aI5
aI30
aI9
asg34
I6
sg35
g36
(g3
tp89
Rp90
sbsS'NSGA2'
p91
g2
(g3
g4
(lp92
(dp93
g7
(F0.108
F0.936
F0.136
I3
I3
tp94
sg9
F0.019641876220703125
sg10
I100
sg11
I0
sa(dp95
g7
g64
sg9
F6.937851905822754
sg10
I100
sg11
I100
sa(dp96
g7
g64
sg9
F13.87970495223999
sg10
I100
sg11
I200
sa(dp97
g7
(F0.088
F2.407
F0.081
I1
I1
tp98
sg9
F20.779955863952637
sg10
I100
sg11
I300
sa(dp99
g7
(F0.092
F2.312
F0.154
I1
I1
tp100
sg9
F27.66195797920227
sg10
I100
sg11
I400
sa(dp101
g7
(F0.098
F0.968
F0.094
I2
I2
tp102
sg9
F34.590944051742554
sg10
I100
sg11
I500
satp103
Rp104
(dp105
g25
I01
sg26
g31
sg32
(lp106
I3
aI5
aI30
aI9
asg34
I6
sg35
g36
(g3
tp107
Rp108
sbsS'IBEA-SIP'
p109
g2
(g3
g4
(lp110
(dp111
g7
(F0.148
F0.87
F0.056
I11
I58
tp112
sg9
F0.01987600326538086
sg10
I100
sg11
I0
sa(dp113
g7
(F0.137
F0.627
F0.093
I9
I100
tp114
sg9
F6.321846008300781
sg10
I100
sg11
I100
sa(dp115
g7
(F0.149
F0.952
F0.063
I9
I100
tp116
sg9
F12.721664905548096
sg10
I100
sg11
I200
sa(dp117
g7
(F0.137
F0.829
F0.091
I10
I100
tp118
sg9
F19.13115382194519
sg10
I100
sg11
I300
sa(dp119
g7
(F0.152
F0.839
F0.094
I8
I100
tp120
sg9
F25.596020936965942
sg10
I100
sg11
I400
sa(dp121
g7
(F0.156
F0.466
F0.091
I9
I100
tp122
sg9
F32.00813388824463
sg10
I100
sg11
I500
satp123
Rp124
(dp125
g25
I01
sg26
g31
sg32
(lp126
I3
aI5
aI30
aI9
asg34
I6
sg35
g36
(g3
tp127
Rp128
sbs.