(dp0
S'NSGA2-SIP'
p1
ccopy_reg
_reconstructor
p2
(cdeap.tools.support
Logbook
p3
c__builtin__
list
p4
(lp5
(dp6
S'hv|spread|igd|frontier#|valid#'
p7
(F0.151
F0.799
F0.076
I11
I58
tp8
sS'timestamp'
p9
F0.017347097396850586
sS'evals'
p10
I100
sS'gen'
p11
I0
sa(dp12
g7
(F0.157
F0.895
F0.076
I13
I100
tp13
sg9
F2.2340140342712402
sg10
I100
sg11
I100
sa(dp14
g7
(F0.157
F0.933
F0.076
I13
I100
tp15
sg9
F4.5725250244140625
sg10
I100
sg11
I200
sa(dp16
g7
(F0.157
F0.726
F0.076
I13
I100
tp17
sg9
F6.917104005813599
sg10
I100
sg11
I300
sa(dp18
g7
(F0.157
F0.895
F0.076
I13
I100
tp19
sg9
F9.265442132949829
sg10
I100
sg11
I400
sa(dp20
g7
(F0.157
F0.86
F0.076
I13
I100
tp21
sg9
F11.615087985992432
sg10
I100
sg11
I500
satp22
Rp23
(dp24
S'log_header'
p25
I01
sS'header'
p26
(S'gen'
p27
S'evals'
p28
S'hv|spread|igd|frontier#|valid#'
p29
S'timestamp'
p30
tp31
sS'columns_len'
p32
(lp33
I3
aI5
aI30
aI9
asS'buffindex'
p34
I6
sS'chapters'
p35
ccollections
defaultdict
p36
(g3
tp37
Rp38
sbsS'SPEA2-SIP'
p39
g2
(g3
g4
(lp40
(dp41
g7
(F0.153
F0.83
F0.068
I11
I55
tp42
sg9
F0.0172879695892334
sg10
I100
sg11
I0
sa(dp43
g7
(F0.157
F0.726
F0.076
I13
I100
tp44
sg9
F157.15633702278137
sg10
I100
sg11
I100
sa(dp45
g7
(F0.157
F0.86
F0.076
I13
I100
tp46
sg9
F318.0878849029541
sg10
I100
sg11
I200
sa(dp47
g7
(F0.157
F0.867
F0.076
I13
I100
tp48
sg9
F477.7571928501129
sg10
I100
sg11
I300
sa(dp49
g7
(F0.157
F0.99
F0.076
I13
I100
tp50
sg9
F637.0201869010925
sg10
I100
sg11
I400
sa(dp51
g7
(F0.157
F0.811
F0.076
I13
I100
tp52
sg9
F798.0475769042969
sg10
I100
sg11
I500
satp53
Rp54
(dp55
g25
I01
sg26
g31
sg32
(lp56
I3
aI5
aI30
aI9
asg34
I6
sg35
g36
(g3
tp57
Rp58
sbsS'SPEA2'
p59
g2
(g3
g4
(lp60
(dp61
g7
(F0.043
F2.236
F0.099
I1
I1
tp62
sg9
F0.016410112380981445
sg10
I100
sg11
I0
sa(dp63
g7
(I0
I0
I0
I0
I0
tp64
sg9
F125.12982416152954
sg10
I100
sg11
I100
sa(dp65
g7
g64
sg9
F251.750962972641
sg10
I100
sg11
I200
sa(dp66
g7
g64
sg9
F379.6800410747528
sg10
I100
sg11
I300
sa(dp67
g7
g64
sg9
F506.33290004730225
sg10
I100
sg11
I400
sa(dp68
g7
g64
sg9
F633.2265391349792
sg10
I100
sg11
I500
satp69
Rp70
(dp71
g25
I01
sg26
g31
sg32
(lp72
I3
aI5
aI30
aI9
asg34
I6
sg35
g36
(g3
tp73
Rp74
sbsS'IBEA-PEN'
p75
g2
(g3
g4
(lp76
(dp77
g7
(F0.114
F0.824
F0.0
I5
I54
tp78
sg9
F0.023513078689575195
sg10
I100
sg11
I0
sa(dp79
g7
(F0.133
F0.6
F0.082
I10
I57
tp80
sg9
F6.780802011489868
sg10
I100
sg11
I100
sa(dp81
g7
(F0.148
F0.742
F0.074
I8
I56
tp82
sg9
F13.595823049545288
sg10
I100
sg11
I200
sa(dp83
g7
(F0.143
F0.739
F0.113
I8
I53
tp84
sg9
F20.409696102142334
sg10
I100
sg11
I300
sa(dp85
g7
(F0.153
F0.878
F0.084
I9
I43
tp86
sg9
F27.218871116638184
sg10
I100
sg11
I400
sa(dp87
g7
(F0.156
F0.889
F0.089
I10
I63
tp88
sg9
F34.041224002838135
sg10
I100
sg11
I500
satp89
Rp90
(dp91
g25
I01
sg26
g31
sg32
(lp92
I3
aI5
aI30
aI9
asg34
I6
sg35
g36
(g3
tp93
Rp94
sbsS'IBEA'
p95
g2
(g3
g4
(lp96
(dp97
g7
(F0.09
F0.937
F0.105
I3
I5
tp98
sg9
F0.017800092697143555
sg10
I100
sg11
I0
sa(dp99
g7
(F0.037
F2.599
F0.099
I1
I1
tp100
sg9
F6.671584129333496
sg10
I100
sg11
I100
sa(dp101
g7
g64
sg9
F13.400933027267456
sg10
I100
sg11
I200
sa(dp102
g7
(F0.1
F0.94
F0.09
I2
I4
tp103
sg9
F20.136512994766235
sg10
I100
sg11
I300
sa(dp104
g7
(F0.088
F2.407
F0.081
I1
I2
tp105
sg9
F26.86550211906433
sg10
I100
sg11
I400
sa(dp106
g7
(F0.11
F0.908
F0.127
I2
I4
tp107
sg9
F33.59212803840637
sg10
I100
sg11
I500
satp108
Rp109
(dp110
g25
I01
sg26
g31
sg32
(lp111
I3
aI5
aI30
aI9
asg34
I6
sg35
g36
(g3
tp112
Rp113
sbsS'NSGA2'
p114
g2
(g3
g4
(lp115
(dp116
g7
(F0.087
F0.873
F0.138
I3
I4
tp117
sg9
F0.017081022262573242
sg10
I100
sg11
I0
sa(dp118
g7
g64
sg9
F6.061280012130737
sg10
I100
sg11
I100
sa(dp119
g7
g64
sg9
F12.126155138015747
sg10
I100
sg11
I200
sa(dp120
g7
g64
sg9
F18.20485496520996
sg10
I100
sg11
I300
sa(dp121
g7
(F0.092
F2.312
F0.154
I1
I1
tp122
sg9
F24.282246112823486
sg10
I100
sg11
I400
sa(dp123
g7
g64
sg9
F30.270220041275024
sg10
I100
sg11
I500
satp124
Rp125
(dp126
g25
I01
sg26
g31
sg32
(lp127
I3
aI5
aI30
aI9
asg34
I6
sg35
g36
(g3
tp128
Rp129
sbsS'IBEA-SIP'
p130
g2
(g3
g4
(lp131
(dp132
g7
(F0.152
F0.835
F0.081
I11
I52
tp133
sg9
F0.016872167587280273
sg10
I100
sg11
I0
sa(dp134
g7
(F0.149
F0.92
F0.074
I9
I100
tp135
sg9
F6.075932025909424
sg10
I100
sg11
I100
sa(dp136
g7
(F0.156
F0.964
F0.082
I10
I100
tp137
sg9
F12.306182146072388
sg10
I100
sg11
I200
sa(dp138
g7
(F0.153
F0.83
F0.079
I9
I100
tp139
sg9
F18.552887201309204
sg10
I100
sg11
I300
sa(dp140
g7
(F0.156
F0.833
F0.089
I10
I100
tp141
sg9
F24.781126976013184
sg10
I100
sg11
I400
sa(dp142
g7
(F0.144
F0.945
F0.084
I7
I100
tp143
sg9
F31.006362199783325
sg10
I100
sg11
I500
satp144
Rp145
(dp146
g25
I01
sg26
g31
sg32
(lp147
I3
aI5
aI30
aI9
asg34
I6
sg35
g36
(g3
tp148
Rp149
sbs.