(dp0
S'NSGA2-SIP'
p1
ccopy_reg
_reconstructor
p2
(cdeap.tools.support
Logbook
p3
c__builtin__
list
p4
(lp5
(dp6
S'hv|spread|igd|frontier#|valid#'
p7
(F0.157
F0.692
F0.082
I12
I58
tp8
sS'timestamp'
p9
F0.01793384552001953
sS'evals'
p10
I100
sS'gen'
p11
I0
sa(dp12
g7
(F0.157
F0.834
F0.076
I13
I100
tp13
sg9
F2.323568820953369
sg10
I100
sg11
I100
sa(dp14
g7
(F0.157
F0.81
F0.076
I13
I100
tp15
sg9
F4.651045799255371
sg10
I100
sg11
I200
sa(dp16
g7
(F0.157
F0.947
F0.076
I13
I100
tp17
sg9
F6.984843015670776
sg10
I100
sg11
I300
sa(dp18
g7
(F0.157
F0.837
F0.076
I13
I100
tp19
sg9
F9.306733846664429
sg10
I100
sg11
I400
sa(dp20
g7
(F0.157
F0.734
F0.076
I13
I100
tp21
sg9
F11.626720905303955
sg10
I100
sg11
I500
satp22
Rp23
(dp24
S'log_header'
p25
I01
sS'header'
p26
(S'gen'
p27
S'evals'
p28
S'hv|spread|igd|frontier#|valid#'
p29
S'timestamp'
p30
tp31
sS'columns_len'
p32
(lp33
I3
aI5
aI30
aI9
asS'buffindex'
p34
I6
sS'chapters'
p35
ccollections
defaultdict
p36
(g3
tp37
Rp38
sbsS'SPEA2-SIP'
p39
g2
(g3
g4
(lp40
(dp41
g7
(F0.157
F0.754
F0.076
I13
I65
tp42
sg9
F0.01882314682006836
sg10
I100
sg11
I0
sa(dp43
g7
(F0.157
F0.904
F0.076
I13
I100
tp44
sg9
F160.03255009651184
sg10
I100
sg11
I100
sa(dp45
g7
(F0.157
F0.947
F0.076
I13
I100
tp46
sg9
F321.78950715065
sg10
I100
sg11
I200
sa(dp47
g7
(F0.157
F0.867
F0.076
I13
I100
tp48
sg9
F482.56156611442566
sg10
I100
sg11
I300
sa(dp49
g7
(F0.157
F0.734
F0.076
I13
I100
tp50
sg9
F644.4449660778046
sg10
I100
sg11
I400
sa(dp51
g7
(F0.157
F0.808
F0.076
I13
I100
tp52
sg9
F804.4015300273895
sg10
I100
sg11
I500
satp53
Rp54
(dp55
g25
I01
sg26
g31
sg32
(lp56
I3
aI5
aI30
aI9
asg34
I6
sg35
g36
(g3
tp57
Rp58
sbsS'SPEA2'
p59
g2
(g3
g4
(lp60
(dp61
g7
(F0.07
F0.876
F0.092
I2
I2
tp62
sg9
F0.017651796340942383
sg10
I100
sg11
I0
sa(dp63
g7
(F0.037
F2.599
F0.099
I1
I1
tp64
sg9
F122.684485912323
sg10
I100
sg11
I100
sa(dp65
g7
(I0
I0
I0
I0
I0
tp66
sg9
F249.65246200561523
sg10
I100
sg11
I200
sa(dp67
g7
g66
sg9
F374.01026701927185
sg10
I100
sg11
I300
sa(dp68
g7
g66
sg9
F501.36977100372314
sg10
I100
sg11
I400
sa(dp69
g7
g66
sg9
F627.2174179553986
sg10
I100
sg11
I500
satp70
Rp71
(dp72
g25
I01
sg26
g31
sg32
(lp73
I3
aI5
aI30
aI9
asg34
I6
sg35
g36
(g3
tp74
Rp75
sbsS'IBEA'
p76
g2
(g3
g4
(lp77
(dp78
g7
(F0.112
F0.82
F0.119
I4
I5
tp79
sg9
F0.017261028289794922
sg10
I100
sg11
I0
sa(dp80
g7
(F0.051
F2.5
F0.106
I1
I1
tp81
sg9
F6.647516965866089
sg10
I100
sg11
I100
sa(dp82
g7
(F0.084
F2.312
F0.139
I1
I1
tp83
sg9
F13.419900178909302
sg10
I100
sg11
I200
sa(dp84
g7
g66
sg9
F20.18676209449768
sg10
I100
sg11
I300
sa(dp85
g7
(F0.092
F2.312
F0.154
I1
I1
tp86
sg9
F26.910035133361816
sg10
I100
sg11
I400
sa(dp87
g7
(F0.11
F0.908
F0.127
I2
I2
tp88
sg9
F33.52573204040527
sg10
I100
sg11
I500
satp89
Rp90
(dp91
g25
I01
sg26
g31
sg32
(lp92
I3
aI5
aI30
aI9
asg34
I6
sg35
g36
(g3
tp93
Rp94
sbsS'NSGA2'
p95
g2
(g3
g4
(lp96
(dp97
g7
(F0.115
F0.799
F0.072
I5
I5
tp98
sg9
F0.01788187026977539
sg10
I100
sg11
I0
sa(dp99
g7
(F0.098
F0.968
F0.094
I2
I2
tp100
sg9
F6.159840822219849
sg10
I100
sg11
I100
sa(dp101
g7
g66
sg9
F12.262129783630371
sg10
I100
sg11
I200
sa(dp102
g7
g66
sg9
F18.364781856536865
sg10
I100
sg11
I300
sa(dp103
g7
g66
sg9
F24.483977794647217
sg10
I100
sg11
I400
sa(dp104
g7
(F0.092
F2.312
F0.154
I1
I1
tp105
sg9
F30.610211849212646
sg10
I100
sg11
I500
satp106
Rp107
(dp108
g25
I01
sg26
g31
sg32
(lp109
I3
aI5
aI30
aI9
asg34
I6
sg35
g36
(g3
tp110
Rp111
sbsS'IBEA-SIP'
p112
g2
(g3
g4
(lp113
(dp114
g7
(F0.156
F0.732
F0.078
I12
I58
tp115
sg9
F0.0175931453704834
sg10
I100
sg11
I0
sa(dp116
g7
(F0.157
F0.813
F0.082
I12
I100
tp117
sg9
F6.066067934036255
sg10
I100
sg11
I100
sa(dp118
g7
(F0.139
F0.78
F0.082
I11
I100
tp119
sg9
F12.205848932266235
sg10
I100
sg11
I200
sa(dp120
g7
(F0.138
F0.595
F0.082
I11
I100
tp121
sg9
F18.395344972610474
sg10
I100
sg11
I300
sa(dp122
g7
(F0.157
F0.787
F0.08
I11
I100
tp123
sg9
F24.654235124588013
sg10
I100
sg11
I400
sa(dp124
g7
(F0.157
F0.792
F0.09
I11
I100
tp125
sg9
F30.850506067276
sg10
I100
sg11
I500
satp126
Rp127
(dp128
g25
I01
sg26
g31
sg32
(lp129
I3
aI5
aI30
aI9
asg34
I6
sg35
g36
(g3
tp130
Rp131
sbs.