(dp0
S'NSGA2-SIP'
p1
ccopy_reg
_reconstructor
p2
(cdeap.tools.support
Logbook
p3
c__builtin__
list
p4
(lp5
(dp6
S'hv|spread|igd|frontier#|valid#'
p7
(F0.147
F0.847
F0.073
I12
I57
tp8
sS'timestamp'
p9
F0.017322063446044922
sS'evals'
p10
I100
sS'gen'
p11
I0
sa(dp12
g7
(F0.157
F0.834
F0.076
I13
I100
tp13
sg9
F2.2714390754699707
sg10
I100
sg11
I100
sa(dp14
g7
(F0.157
F0.805
F0.076
I13
I100
tp15
sg9
F4.520627021789551
sg10
I100
sg11
I200
sa(dp16
g7
(F0.157
F0.63
F0.076
I13
I100
tp17
sg9
F6.779703140258789
sg10
I100
sg11
I300
sa(dp18
g7
(F0.157
F0.933
F0.076
I13
I100
tp19
sg9
F9.105172157287598
sg10
I100
sg11
I400
sa(dp20
g7
(F0.157
F0.809
F0.076
I13
I100
tp21
sg9
F11.440351963043213
sg10
I100
sg11
I500
satp22
Rp23
(dp24
S'log_header'
p25
I01
sS'header'
p26
(S'gen'
p27
S'evals'
p28
S'hv|spread|igd|frontier#|valid#'
p29
S'timestamp'
p30
tp31
sS'columns_len'
p32
(lp33
I3
aI5
aI30
aI9
asS'buffindex'
p34
I6
sS'chapters'
p35
ccollections
defaultdict
p36
(g3
tp37
Rp38
sbsS'SPEA2-SIP'
p39
g2
(g3
g4
(lp40
(dp41
g7
(F0.148
F0.879
F0.074
I12
I64
tp42
sg9
F0.0176699161529541
sg10
I100
sg11
I0
sa(dp43
g7
(F0.157
F0.642
F0.076
I13
I100
tp44
sg9
F155.91701197624207
sg10
I100
sg11
I100
sa(dp45
g7
(F0.157
F0.734
F0.076
I13
I100
tp46
sg9
F314.85451793670654
sg10
I100
sg11
I200
sa(dp47
g7
(F0.157
F0.815
F0.076
I13
I100
tp48
sg9
F474.8959918022156
sg10
I100
sg11
I300
sa(dp49
g7
(F0.157
F0.99
F0.076
I13
I100
tp50
sg9
F634.8651158809662
sg10
I100
sg11
I400
sa(dp51
g7
(F0.157
F0.734
F0.076
I13
I100
tp52
sg9
F794.1993639469147
sg10
I100
sg11
I500
satp53
Rp54
(dp55
g25
I01
sg26
g31
sg32
(lp56
I3
aI5
aI30
aI9
asg34
I6
sg35
g36
(g3
tp57
Rp58
sbsS'SPEA2'
p59
g2
(g3
g4
(lp60
(dp61
g7
(F0.065
F0.965
F0.057
I2
I3
tp62
sg9
F0.016916990280151367
sg10
I100
sg11
I0
sa(dp63
g7
(I0
I0
I0
I0
I0
tp64
sg9
F125.73379492759705
sg10
I100
sg11
I100
sa(dp65
g7
g64
sg9
F249.11656284332275
sg10
I100
sg11
I200
sa(dp66
g7
g64
sg9
F372.1436388492584
sg10
I100
sg11
I300
sa(dp67
g7
g64
sg9
F497.60958886146545
sg10
I100
sg11
I400
sa(dp68
g7
g64
sg9
F622.4190740585327
sg10
I100
sg11
I500
satp69
Rp70
(dp71
g25
I01
sg26
g31
sg32
(lp72
I3
aI5
aI30
aI9
asg34
I6
sg35
g36
(g3
tp73
Rp74
sbsS'IBEA-PEN'
p75
g2
(g3
g4
(lp76
(dp77
g7
(F0.114
F0.824
F0.0
I5
I55
tp78
sg9
F0.0220489501953125
sg10
I100
sg11
I0
sa(dp79
g7
(F0.13
F0.803
F0.096
I7
I53
tp80
sg9
F6.59854793548584
sg10
I100
sg11
I100
sa(dp81
g7
(F0.125
F0.926
F0.096
I7
I39
tp82
sg9
F13.222075939178467
sg10
I100
sg11
I200
sa(dp83
g7
(F0.135
F0.646
F0.089
I10
I47
tp84
sg9
F19.84790587425232
sg10
I100
sg11
I300
sa(dp85
g7
(F0.143
F1.023
F0.054
I8
I47
tp86
sg9
F26.473264932632446
sg10
I100
sg11
I400
sa(dp87
g7
(F0.155
F0.892
F0.097
I8
I60
tp88
sg9
F33.098949909210205
sg10
I100
sg11
I500
satp89
Rp90
(dp91
g25
I01
sg26
g31
sg32
(lp92
I3
aI5
aI30
aI9
asg34
I6
sg35
g36
(g3
tp93
Rp94
sbsS'IBEA'
p95
g2
(g3
g4
(lp96
(dp97
g7
(F0.084
F2.312
F0.139
I1
I3
tp98
sg9
F0.016616106033325195
sg10
I100
sg11
I0
sa(dp99
g7
(F0.037
F2.599
F0.099
I1
I2
tp100
sg9
F6.4792070388793945
sg10
I100
sg11
I100
sa(dp101
g7
g64
sg9
F12.988399028778076
sg10
I100
sg11
I200
sa(dp102
g7
(F0.037
F2.599
F0.099
I1
I4
tp103
sg9
F19.508318185806274
sg10
I100
sg11
I300
sa(dp104
g7
(F0.037
F2.599
F0.099
I1
I1
tp105
sg9
F26.035855054855347
sg10
I100
sg11
I400
sa(dp106
g7
(F0.061
F0.97
F0.103
I2
I4
tp107
sg9
F32.557440996170044
sg10
I100
sg11
I500
satp108
Rp109
(dp110
g25
I01
sg26
g31
sg32
(lp111
I3
aI5
aI30
aI9
asg34
I6
sg35
g36
(g3
tp112
Rp113
sbsS'NSGA2'
p114
g2
(g3
g4
(lp115
(dp116
g7
(F0.085
F1.0
F0.067
I3
I6
tp117
sg9
F0.01711106300354004
sg10
I100
sg11
I0
sa(dp118
g7
(F0.092
F2.312
F0.154
I1
I1
tp119
sg9
F5.828310012817383
sg10
I100
sg11
I100
sa(dp120
g7
(F0.088
F2.407
F0.081
I1
I1
tp121
sg9
F11.714769124984741
sg10
I100
sg11
I200
sa(dp122
g7
(F0.092
F2.312
F0.154
I1
I1
tp123
sg9
F17.669949054718018
sg10
I100
sg11
I300
sa(dp124
g7
(F0.113
F0.963
F0.118
I2
I2
tp125
sg9
F23.59539794921875
sg10
I100
sg11
I400
sa(dp126
g7
g64
sg9
F29.558037042617798
sg10
I100
sg11
I500
satp127
Rp128
(dp129
g25
I01
sg26
g31
sg32
(lp130
I3
aI5
aI30
aI9
asg34
I6
sg35
g36
(g3
tp131
Rp132
sbsS'IBEA-SIP'
p133
g2
(g3
g4
(lp134
(dp135
g7
(F0.148
F0.695
F0.078
I13
I47
tp136
sg9
F0.017216920852661133
sg10
I100
sg11
I0
sa(dp137
g7
(F0.156
F0.839
F0.089
I10
I100
tp138
sg9
F5.9280359745025635
sg10
I100
sg11
I100
sa(dp139
g7
(F0.151
F1.004
F0.084
I9
I100
tp140
sg9
F12.023920059204102
sg10
I100
sg11
I200
sa(dp141
g7
(F0.157
F0.853
F0.09
I11
I100
tp142
sg9
F18.071957111358643
sg10
I100
sg11
I300
sa(dp143
g7
(F0.149
F0.822
F0.081
I8
I100
tp144
sg9
F24.128931999206543
sg10
I100
sg11
I400
sa(dp145
g7
(F0.153
F0.8
F0.091
I9
I100
tp146
sg9
F30.224787950515747
sg10
I100
sg11
I500
satp147
Rp148
(dp149
g25
I01
sg26
g31
sg32
(lp150
I3
aI5
aI30
aI9
asg34
I6
sg35
g36
(g3
tp151
Rp152
sbs.