(dp0
S'NSGA2-SIP'
p1
ccopy_reg
_reconstructor
p2
(cdeap.tools.support
Logbook
p3
c__builtin__
list
p4
(lp5
(dp6
S'hv|spread|igd|frontier#|valid#'
p7
(F0.15
F0.697
F0.087
I13
I51
tp8
sS'timestamp'
p9
F0.017696142196655273
sS'evals'
p10
I100
sS'gen'
p11
I0
sa(dp12
g7
(F0.157
F0.998
F0.076
I13
I100
tp13
sg9
F2.3337061405181885
sg10
I100
sg11
I100
sa(dp14
g7
(F0.157
F0.904
F0.076
I13
I100
tp15
sg9
F4.6372761726379395
sg10
I100
sg11
I200
sa(dp16
g7
(F0.157
F0.947
F0.076
I13
I100
tp17
sg9
F6.898694038391113
sg10
I100
sg11
I300
sa(dp18
g7
(F0.157
F0.63
F0.076
I13
I100
tp19
sg9
F9.236538171768188
sg10
I100
sg11
I400
sa(dp20
g7
(F0.157
F0.809
F0.076
I13
I100
tp21
sg9
F11.594046115875244
sg10
I100
sg11
I500
satp22
Rp23
(dp24
S'log_header'
p25
I01
sS'header'
p26
(S'gen'
p27
S'evals'
p28
S'hv|spread|igd|frontier#|valid#'
p29
S'timestamp'
p30
tp31
sS'columns_len'
p32
(lp33
I3
aI5
aI30
aI9
asS'buffindex'
p34
I6
sS'chapters'
p35
ccollections
defaultdict
p36
(g3
tp37
Rp38
sbsS'SPEA2-SIP'
p39
g2
(g3
g4
(lp40
(dp41
g7
(F0.152
F0.83
F0.077
I11
I53
tp42
sg9
F0.017505884170532227
sg10
I100
sg11
I0
sa(dp43
g7
(F0.157
F0.99
F0.076
I13
I100
tp44
sg9
F157.8716058731079
sg10
I100
sg11
I100
sa(dp45
g7
(F0.157
F0.81
F0.076
I13
I100
tp46
sg9
F320.6911599636078
sg10
I100
sg11
I200
sa(dp47
g7
(F0.157
F0.683
F0.076
I13
I100
tp48
sg9
F481.7881829738617
sg10
I100
sg11
I300
sa(dp49
g7
(F0.157
F0.815
F0.076
I13
I100
tp50
sg9
F643.5206999778748
sg10
I100
sg11
I400
sa(dp51
g7
(F0.157
F0.668
F0.076
I13
I100
tp52
sg9
F804.2227578163147
sg10
I100
sg11
I500
satp53
Rp54
(dp55
g25
I01
sg26
g31
sg32
(lp56
I3
aI5
aI30
aI9
asg34
I6
sg35
g36
(g3
tp57
Rp58
sbsS'SPEA2'
p59
g2
(g3
g4
(lp60
(dp61
g7
(F0.108
F0.895
F0.099
I5
I7
tp62
sg9
F0.017465829849243164
sg10
I100
sg11
I0
sa(dp63
g7
(I0
I0
I0
I0
I0
tp64
sg9
F122.96796488761902
sg10
I100
sg11
I100
sa(dp65
g7
g64
sg9
F249.27097392082214
sg10
I100
sg11
I200
sa(dp66
g7
g64
sg9
F377.79123997688293
sg10
I100
sg11
I300
sa(dp67
g7
g64
sg9
F505.36909198760986
sg10
I100
sg11
I400
sa(dp68
g7
g64
sg9
F633.088782787323
sg10
I100
sg11
I500
satp69
Rp70
(dp71
g25
I01
sg26
g31
sg32
(lp72
I3
aI5
aI30
aI9
asg34
I6
sg35
g36
(g3
tp73
Rp74
sbsS'IBEA-PEN'
p75
g2
(g3
g4
(lp76
(dp77
g7
(F0.113
F0.852
F0.0
I4
I65
tp78
sg9
F0.022186994552612305
sg10
I100
sg11
I0
sa(dp79
g7
(F0.149
F0.89
F0.115
I6
I65
tp80
sg9
F6.6755921840667725
sg10
I100
sg11
I100
sa(dp81
g7
(F0.154
F0.845
F0.08
I11
I61
tp82
sg9
F13.385838985443115
sg10
I100
sg11
I200
sa(dp83
g7
(F0.151
F0.837
F0.072
I9
I52
tp84
sg9
F20.10054898262024
sg10
I100
sg11
I300
sa(dp85
g7
(F0.131
F0.933
F0.065
I9
I54
tp86
sg9
F26.81825613975525
sg10
I100
sg11
I400
sa(dp87
g7
(F0.143
F0.872
F0.075
I10
I53
tp88
sg9
F33.54051899909973
sg10
I100
sg11
I500
satp89
Rp90
(dp91
g25
I01
sg26
g31
sg32
(lp92
I3
aI5
aI30
aI9
asg34
I6
sg35
g36
(g3
tp93
Rp94
sbsS'IBEA'
p95
g2
(g3
g4
(lp96
(dp97
g7
(F0.079
F0.909
F0.117
I5
I5
tp98
sg9
F0.01762700080871582
sg10
I100
sg11
I0
sa(dp99
g7
(F0.037
F2.599
F0.099
I1
I4
tp100
sg9
F6.5821380615234375
sg10
I100
sg11
I100
sa(dp101
g7
(F0.059
F0.97
F0.103
I2
I3
tp102
sg9
F13.208268880844116
sg10
I100
sg11
I200
sa(dp103
g7
(F0.11
F0.908
F0.127
I2
I4
tp104
sg9
F19.81284499168396
sg10
I100
sg11
I300
sa(dp105
g7
(F0.088
F2.407
F0.081
I1
I1
tp106
sg9
F26.39637303352356
sg10
I100
sg11
I400
sa(dp107
g7
g64
sg9
F32.98872494697571
sg10
I100
sg11
I500
satp108
Rp109
(dp110
g25
I01
sg26
g31
sg32
(lp111
I3
aI5
aI30
aI9
asg34
I6
sg35
g36
(g3
tp112
Rp113
sbsS'NSGA2'
p114
g2
(g3
g4
(lp115
(dp116
g7
(F0.085
F0.828
F0.056
I3
I3
tp117
sg9
F0.016898155212402344
sg10
I100
sg11
I0
sa(dp118
g7
(F0.092
F2.312
F0.154
I1
I1
tp119
sg9
F5.970345973968506
sg10
I100
sg11
I100
sa(dp120
g7
(F0.092
F2.312
F0.154
I1
I1
tp121
sg9
F12.020941972732544
sg10
I100
sg11
I200
sa(dp122
g7
(F0.092
F2.312
F0.154
I1
I1
tp123
sg9
F17.978698015213013
sg10
I100
sg11
I300
sa(dp124
g7
g64
sg9
F23.98157501220703
sg10
I100
sg11
I400
sa(dp125
g7
g64
sg9
F29.944859981536865
sg10
I100
sg11
I500
satp126
Rp127
(dp128
g25
I01
sg26
g31
sg32
(lp129
I3
aI5
aI30
aI9
asg34
I6
sg35
g36
(g3
tp130
Rp131
sbsS'IBEA-SIP'
p132
g2
(g3
g4
(lp133
(dp134
g7
(F0.154
F0.816
F0.08
I12
I64
tp135
sg9
F0.018174171447753906
sg10
I100
sg11
I0
sa(dp136
g7
(F0.15
F0.948
F0.056
I12
I100
tp137
sg9
F6.029442071914673
sg10
I100
sg11
I100
sa(dp138
g7
(F0.155
F0.611
F0.102
I9
I100
tp139
sg9
F12.175974130630493
sg10
I100
sg11
I200
sa(dp140
g7
(F0.139
F0.753
F0.091
I10
I100
tp141
sg9
F18.346410989761353
sg10
I100
sg11
I300
sa(dp142
g7
(F0.148
F0.908
F0.06
I10
I100
tp143
sg9
F24.44944405555725
sg10
I100
sg11
I400
sa(dp144
g7
(F0.155
F0.786
F0.091
I9
I100
tp145
sg9
F30.5054349899292
sg10
I100
sg11
I500
satp146
Rp147
(dp148
g25
I01
sg26
g31
sg32
(lp149
I3
aI5
aI30
aI9
asg34
I6
sg35
g36
(g3
tp150
Rp151
sbs.