(dp0
S'NSGA2-SIP'
p1
ccopy_reg
_reconstructor
p2
(cdeap.tools.support
Logbook
p3
c__builtin__
list
p4
(lp5
(dp6
S'hv|spread|igd|frontier#|valid#'
p7
(F0.146
F0.709
F0.088
I12
I46
tp8
sS'timestamp'
p9
F0.017858028411865234
sS'evals'
p10
I100
sS'gen'
p11
I0
sa(dp12
g7
(F0.157
F0.867
F0.076
I13
I100
tp13
sg9
F2.4154770374298096
sg10
I100
sg11
I100
sa(dp14
g7
(F0.157
F0.998
F0.076
I13
I100
tp15
sg9
F4.792654037475586
sg10
I100
sg11
I200
sa(dp16
g7
(F0.157
F0.867
F0.076
I13
I100
tp17
sg9
F7.150325059890747
sg10
I100
sg11
I300
sa(dp18
g7
(F0.157
F0.904
F0.076
I13
I100
tp19
sg9
F9.505786180496216
sg10
I100
sg11
I400
sa(dp20
g7
(F0.157
F0.63
F0.076
I13
I100
tp21
sg9
F11.898229122161865
sg10
I100
sg11
I500
satp22
Rp23
(dp24
S'log_header'
p25
I01
sS'header'
p26
(S'gen'
p27
S'evals'
p28
S'hv|spread|igd|frontier#|valid#'
p29
S'timestamp'
p30
tp31
sS'columns_len'
p32
(lp33
I3
aI5
aI30
aI9
asS'buffindex'
p34
I6
sS'chapters'
p35
ccollections
defaultdict
p36
(g3
tp37
Rp38
sbsS'SPEA2-SIP'
p39
g2
(g3
g4
(lp40
(dp41
g7
(F0.147
F0.843
F0.073
I13
I62
tp42
sg9
F0.01972818374633789
sg10
I100
sg11
I0
sa(dp43
g7
(F0.157
F0.998
F0.076
I13
I100
tp44
sg9
F164.82890009880066
sg10
I100
sg11
I100
sa(dp45
g7
(F0.157
F0.811
F0.076
I13
I100
tp46
sg9
F334.3152279853821
sg10
I100
sg11
I200
sa(dp47
g7
(F0.157
F0.837
F0.076
I13
I100
tp48
sg9
F501.58349609375
sg10
I100
sg11
I300
sa(dp49
g7
(F0.157
F0.867
F0.076
I13
I100
tp50
sg9
F670.9552280902863
sg10
I100
sg11
I400
sa(dp51
g7
(F0.157
F0.99
F0.076
I13
I100
tp52
sg9
F840.9533140659332
sg10
I100
sg11
I500
satp53
Rp54
(dp55
g25
I01
sg26
g31
sg32
(lp56
I3
aI5
aI30
aI9
asg34
I6
sg35
g36
(g3
tp57
Rp58
sbsS'SPEA2'
p59
g2
(g3
g4
(lp60
(dp61
g7
(F0.066
F0.926
F0.129
I4
I5
tp62
sg9
F0.0181119441986084
sg10
I100
sg11
I0
sa(dp63
g7
(I0
I0
I0
I0
I0
tp64
sg9
F135.40574193000793
sg10
I100
sg11
I100
sa(dp65
g7
g64
sg9
F268.392333984375
sg10
I100
sg11
I200
sa(dp66
g7
g64
sg9
F398.8283939361572
sg10
I100
sg11
I300
sa(dp67
g7
g64
sg9
F532.6517589092255
sg10
I100
sg11
I400
sa(dp68
g7
g64
sg9
F662.9950728416443
sg10
I100
sg11
I500
satp69
Rp70
(dp71
g25
I01
sg26
g31
sg32
(lp72
I3
aI5
aI30
aI9
asg34
I6
sg35
g36
(g3
tp73
Rp74
sbsS'IBEA-PEN'
p75
g2
(g3
g4
(lp76
(dp77
g7
(F0.114
F0.824
F0.0
I5
I70
tp78
sg9
F0.0240628719329834
sg10
I100
sg11
I0
sa(dp79
g7
(F0.153
F0.893
F0.082
I10
I60
tp80
sg9
F7.109458923339844
sg10
I100
sg11
I100
sa(dp81
g7
(F0.141
F0.757
F0.082
I9
I73
tp82
sg9
F14.28082799911499
sg10
I100
sg11
I200
sa(dp83
g7
(F0.141
F0.959
F0.049
I9
I50
tp84
sg9
F21.450654983520508
sg10
I100
sg11
I300
sa(dp85
g7
(F0.145
F0.796
F0.054
I8
I59
tp86
sg9
F28.587990045547485
sg10
I100
sg11
I400
sa(dp87
g7
(F0.136
F0.862
F0.097
I8
I43
tp88
sg9
F35.852230072021484
sg10
I100
sg11
I500
satp89
Rp90
(dp91
g25
I01
sg26
g31
sg32
(lp92
I3
aI5
aI30
aI9
asg34
I6
sg35
g36
(g3
tp93
Rp94
sbsS'IBEA'
p95
g2
(g3
g4
(lp96
(dp97
g7
(F0.104
F0.942
F0.13
I5
I7
tp98
sg9
F0.019006967544555664
sg10
I100
sg11
I0
sa(dp99
g7
g64
sg9
F7.015110015869141
sg10
I100
sg11
I100
sa(dp100
g7
(F0.088
F2.407
F0.081
I1
I3
tp101
sg9
F14.162347078323364
sg10
I100
sg11
I200
sa(dp102
g7
(F0.088
F2.407
F0.081
I1
I1
tp103
sg9
F21.1981840133667
sg10
I100
sg11
I300
sa(dp104
g7
(F0.037
F2.599
F0.099
I1
I2
tp105
sg9
F28.324401140213013
sg10
I100
sg11
I400
sa(dp106
g7
(F0.092
F2.312
F0.154
I1
I1
tp107
sg9
F35.47057509422302
sg10
I100
sg11
I500
satp108
Rp109
(dp110
g25
I01
sg26
g31
sg32
(lp111
I3
aI5
aI30
aI9
asg34
I6
sg35
g36
(g3
tp112
Rp113
sbsS'NSGA2'
p114
g2
(g3
g4
(lp115
(dp116
g7
(F0.084
F0.878
F0.12
I5
I5
tp117
sg9
F0.01843094825744629
sg10
I100
sg11
I0
sa(dp118
g7
(F0.088
F2.407
F0.081
I1
I1
tp119
sg9
F6.29964804649353
sg10
I100
sg11
I100
sa(dp120
g7
g64
sg9
F12.592203140258789
sg10
I100
sg11
I200
sa(dp121
g7
g64
sg9
F18.96301507949829
sg10
I100
sg11
I300
sa(dp122
g7
(F0.092
F2.312
F0.154
I1
I1
tp123
sg9
F25.295562982559204
sg10
I100
sg11
I400
sa(dp124
g7
g64
sg9
F31.629158973693848
sg10
I100
sg11
I500
satp125
Rp126
(dp127
g25
I01
sg26
g31
sg32
(lp128
I3
aI5
aI30
aI9
asg34
I6
sg35
g36
(g3
tp129
Rp130
sbsS'IBEA-SIP'
p131
g2
(g3
g4
(lp132
(dp133
g7
(F0.157
F0.669
F0.09
I11
I55
tp134
sg9
F0.018023967742919922
sg10
I100
sg11
I0
sa(dp135
g7
(F0.15
F1.004
F0.077
I9
I100
tp136
sg9
F6.442765951156616
sg10
I100
sg11
I100
sa(dp137
g7
(F0.142
F0.786
F0.13
I7
I100
tp138
sg9
F12.968190908432007
sg10
I100
sg11
I200
sa(dp139
g7
(F0.157
F0.73
F0.089
I10
I100
tp140
sg9
F19.48592185974121
sg10
I100
sg11
I300
sa(dp141
g7
(F0.143
F0.613
F0.082
I11
I100
tp142
sg9
F26.007526874542236
sg10
I100
sg11
I400
sa(dp143
g7
(F0.149
F0.785
F0.091
I10
I100
tp144
sg9
F32.51655387878418
sg10
I100
sg11
I500
satp145
Rp146
(dp147
g25
I01
sg26
g31
sg32
(lp148
I3
aI5
aI30
aI9
asg34
I6
sg35
g36
(g3
tp149
Rp150
sbs.