(dp0
S'NSGA2-SIP'
p1
ccopy_reg
_reconstructor
p2
(cdeap.tools.support
Logbook
p3
c__builtin__
list
p4
(lp5
(dp6
S'hv|spread|igd|frontier#|valid#'
p7
(F0.149
F0.82
F0.067
I10
I56
tp8
sS'timestamp'
p9
F0.01680898666381836
sS'evals'
p10
I100
sS'gen'
p11
I0
sa(dp12
g7
(F0.157
F0.63
F0.076
I13
I100
tp13
sg9
F2.3990478515625
sg10
I100
sg11
I100
sa(dp14
g7
(F0.157
F0.726
F0.076
I13
I100
tp15
sg9
F4.809610843658447
sg10
I100
sg11
I200
sa(dp16
g7
(F0.157
F0.726
F0.076
I13
I100
tp17
sg9
F7.231906890869141
sg10
I100
sg11
I300
sa(dp18
g7
(F0.157
F0.805
F0.076
I13
I100
tp19
sg9
F9.659929037094116
sg10
I100
sg11
I400
sa(dp20
g7
(F0.157
F0.99
F0.076
I13
I100
tp21
sg9
F12.092083930969238
sg10
I100
sg11
I500
satp22
Rp23
(dp24
S'log_header'
p25
I01
sS'header'
p26
(S'gen'
p27
S'evals'
p28
S'hv|spread|igd|frontier#|valid#'
p29
S'timestamp'
p30
tp31
sS'columns_len'
p32
(lp33
I3
aI5
aI30
aI9
asS'buffindex'
p34
I6
sS'chapters'
p35
ccollections
defaultdict
p36
(g3
tp37
Rp38
sbsS'SPEA2-SIP'
p39
g2
(g3
g4
(lp40
(dp41
g7
(F0.155
F0.847
F0.072
I12
I66
tp42
sg9
F0.018787145614624023
sg10
I100
sg11
I0
sa(dp43
g7
(F0.157
F0.904
F0.076
I13
I100
tp44
sg9
F159.63897514343262
sg10
I100
sg11
I100
sa(dp45
g7
(F0.157
F0.805
F0.076
I13
I100
tp46
sg9
F320.1139180660248
sg10
I100
sg11
I200
sa(dp47
g7
(F0.157
F0.808
F0.076
I13
I100
tp48
sg9
F483.30422616004944
sg10
I100
sg11
I300
sa(dp49
g7
(F0.157
F0.99
F0.076
I13
I100
tp50
sg9
F644.9997191429138
sg10
I100
sg11
I400
sa(dp51
g7
(F0.157
F0.86
F0.076
I13
I100
tp52
sg9
F807.1788070201874
sg10
I100
sg11
I500
satp53
Rp54
(dp55
g25
I01
sg26
g31
sg32
(lp56
I3
aI5
aI30
aI9
asg34
I6
sg35
g36
(g3
tp57
Rp58
sbsS'SPEA2'
p59
g2
(g3
g4
(lp60
(dp61
g7
(F0.109
F0.728
F0.086
I5
I9
tp62
sg9
F0.01789999008178711
sg10
I100
sg11
I0
sa(dp63
g7
(I0
I0
I0
I0
I0
tp64
sg9
F127.41986203193665
sg10
I100
sg11
I100
sa(dp65
g7
g64
sg9
F257.13446712493896
sg10
I100
sg11
I200
sa(dp66
g7
g64
sg9
F386.3558039665222
sg10
I100
sg11
I300
sa(dp67
g7
g64
sg9
F515.4871401786804
sg10
I100
sg11
I400
sa(dp68
g7
g64
sg9
F643.593444108963
sg10
I100
sg11
I500
satp69
Rp70
(dp71
g25
I01
sg26
g31
sg32
(lp72
I3
aI5
aI30
aI9
asg34
I6
sg35
g36
(g3
tp73
Rp74
sbsS'IBEA-PEN'
p75
g2
(g3
g4
(lp76
(dp77
g7
(F0.111
F0.824
F0.006
I5
I56
tp78
sg9
F0.022938013076782227
sg10
I100
sg11
I0
sa(dp79
g7
(F0.156
F0.848
F0.08
I11
I78
tp80
sg9
F6.876728057861328
sg10
I100
sg11
I100
sa(dp81
g7
(F0.141
F0.606
F0.114
I7
I48
tp82
sg9
F13.771172046661377
sg10
I100
sg11
I200
sa(dp83
g7
(F0.125
F0.819
F0.068
I7
I38
tp84
sg9
F20.658838987350464
sg10
I100
sg11
I300
sa(dp85
g7
(F0.137
F0.756
F0.097
I8
I54
tp86
sg9
F27.547062158584595
sg10
I100
sg11
I400
sa(dp87
g7
(F0.142
F0.762
F0.093
I9
I70
tp88
sg9
F34.46732306480408
sg10
I100
sg11
I500
satp89
Rp90
(dp91
g25
I01
sg26
g31
sg32
(lp92
I3
aI5
aI30
aI9
asg34
I6
sg35
g36
(g3
tp93
Rp94
sbsS'IBEA'
p95
g2
(g3
g4
(lp96
(dp97
g7
(F0.121
F0.836
F0.109
I4
I5
tp98
sg9
F0.018069982528686523
sg10
I100
sg11
I0
sa(dp99
g7
(F0.037
F2.599
F0.099
I1
I1
tp100
sg9
F6.7531349658966064
sg10
I100
sg11
I100
sa(dp101
g7
(F0.1
F0.94
F0.09
I2
I2
tp102
sg9
F13.575893878936768
sg10
I100
sg11
I200
sa(dp103
g7
g64
sg9
F20.379387855529785
sg10
I100
sg11
I300
sa(dp104
g7
(F0.088
F2.407
F0.081
I1
I1
tp105
sg9
F27.195798873901367
sg10
I100
sg11
I400
sa(dp106
g7
(F0.1
F0.94
F0.09
I2
I4
tp107
sg9
F34.012073040008545
sg10
I100
sg11
I500
satp108
Rp109
(dp110
g25
I01
sg26
g31
sg32
(lp111
I3
aI5
aI30
aI9
asg34
I6
sg35
g36
(g3
tp112
Rp113
sbsS'NSGA2'
p114
g2
(g3
g4
(lp115
(dp116
g7
(F0.12
F0.799
F0.114
I5
I7
tp117
sg9
F0.0177309513092041
sg10
I100
sg11
I0
sa(dp118
g7
g64
sg9
F6.108514070510864
sg10
I100
sg11
I100
sa(dp119
g7
g64
sg9
F12.300901174545288
sg10
I100
sg11
I200
sa(dp120
g7
(F0.084
F2.236
F0.109
I1
I1
tp121
sg9
F18.43371295928955
sg10
I100
sg11
I300
sa(dp122
g7
(F0.113
F0.963
F0.118
I2
I2
tp123
sg9
F24.654613971710205
sg10
I100
sg11
I400
sa(dp124
g7
g64
sg9
F30.81542205810547
sg10
I100
sg11
I500
satp125
Rp126
(dp127
g25
I01
sg26
g31
sg32
(lp128
I3
aI5
aI30
aI9
asg34
I6
sg35
g36
(g3
tp129
Rp130
sbsS'IBEA-SIP'
p131
g2
(g3
g4
(lp132
(dp133
g7
(F0.156
F0.692
F0.081
I12
I56
tp134
sg9
F0.017627954483032227
sg10
I100
sg11
I0
sa(dp135
g7
(F0.138
F0.586
F0.082
I11
I100
tp136
sg9
F6.178951978683472
sg10
I100
sg11
I100
sa(dp137
g7
(F0.157
F0.799
F0.082
I12
I100
tp138
sg9
F12.401999950408936
sg10
I100
sg11
I200
sa(dp139
g7
(F0.157
F0.737
F0.089
I10
I100
tp140
sg9
F18.653012990951538
sg10
I100
sg11
I300
sa(dp141
g7
(F0.138
F1.016
F0.101
I8
I100
tp142
sg9
F24.898056030273438
sg10
I100
sg11
I400
sa(dp143
g7
(F0.149
F0.907
F0.061
I11
I100
tp144
sg9
F31.254334926605225
sg10
I100
sg11
I500
satp145
Rp146
(dp147
g25
I01
sg26
g31
sg32
(lp148
I3
aI5
aI30
aI9
asg34
I6
sg35
g36
(g3
tp149
Rp150
sbs.