(dp0
S'NSGA2-SIP'
p1
ccopy_reg
_reconstructor
p2
(cdeap.tools.support
Logbook
p3
c__builtin__
list
p4
(lp5
(dp6
S'hv|spread|igd|frontier#|valid#'
p7
(F0.157
F0.693
F0.074
I12
I65
tp8
sS'timestamp'
p9
F0.019536972045898438
sS'evals'
p10
I100
sS'gen'
p11
I0
sa(dp12
g7
(F0.157
F0.867
F0.076
I13
I100
tp13
sg9
F2.473112106323242
sg10
I100
sg11
I100
sa(dp14
g7
(F0.157
F0.815
F0.076
I13
I100
tp15
sg9
F4.95110011100769
sg10
I100
sg11
I200
sa(dp16
g7
(F0.157
F0.809
F0.076
I13
I100
tp17
sg9
F7.435293197631836
sg10
I100
sg11
I300
sa(dp18
g7
(F0.157
F0.86
F0.076
I13
I100
tp19
sg9
F9.967976093292236
sg10
I100
sg11
I400
sa(dp20
g7
(F0.157
F0.805
F0.076
I13
I100
tp21
sg9
F12.50713300704956
sg10
I100
sg11
I500
satp22
Rp23
(dp24
S'log_header'
p25
I01
sS'header'
p26
(S'gen'
p27
S'evals'
p28
S'hv|spread|igd|frontier#|valid#'
p29
S'timestamp'
p30
tp31
sS'columns_len'
p32
(lp33
I3
aI5
aI30
aI9
asS'buffindex'
p34
I6
sS'chapters'
p35
ccollections
defaultdict
p36
(g3
tp37
Rp38
sbsS'SPEA2-SIP'
p39
g2
(g3
g4
(lp40
(dp41
g7
(F0.15
F0.706
F0.086
I13
I48
tp42
sg9
F0.018158912658691406
sg10
I100
sg11
I0
sa(dp43
g7
(F0.157
F0.827
F0.076
I13
I100
tp44
sg9
F171.8984251022339
sg10
I100
sg11
I100
sa(dp45
g7
(F0.157
F0.81
F0.076
I13
I100
tp46
sg9
F344.211669921875
sg10
I100
sg11
I200
sa(dp47
g7
(F0.157
F0.734
F0.076
I13
I100
tp48
sg9
F516.5034639835358
sg10
I100
sg11
I300
sa(dp49
g7
(F0.157
F0.726
F0.076
I13
I100
tp50
sg9
F688.9458141326904
sg10
I100
sg11
I400
sa(dp51
g7
(F0.157
F0.734
F0.076
I13
I100
tp52
sg9
F860.7580440044403
sg10
I100
sg11
I500
satp53
Rp54
(dp55
g25
I01
sg26
g31
sg32
(lp56
I3
aI5
aI30
aI9
asg34
I6
sg35
g36
(g3
tp57
Rp58
sbsS'SPEA2'
p59
g2
(g3
g4
(lp60
(dp61
g7
(F0.081
F0.966
F0.129
I2
I3
tp62
sg9
F0.018834829330444336
sg10
I100
sg11
I0
sa(dp63
g7
(F0.037
F2.599
F0.099
I1
I1
tp64
sg9
F131.988529920578
sg10
I100
sg11
I100
sa(dp65
g7
(I0
I0
I0
I0
I0
tp66
sg9
F269.10348296165466
sg10
I100
sg11
I200
sa(dp67
g7
g66
sg9
F403.3469250202179
sg10
I100
sg11
I300
sa(dp68
g7
g66
sg9
F536.8170139789581
sg10
I100
sg11
I400
sa(dp69
g7
g66
sg9
F673.3333728313446
sg10
I100
sg11
I500
satp70
Rp71
(dp72
g25
I01
sg26
g31
sg32
(lp73
I3
aI5
aI30
aI9
asg34
I6
sg35
g36
(g3
tp74
Rp75
sbsS'IBEA-PEN'
p76
g2
(g3
g4
(lp77
(dp78
g7
(F0.111
F0.824
F0.006
I5
I63
tp79
sg9
F0.023965835571289062
sg10
I100
sg11
I0
sa(dp80
g7
(F0.146
F0.647
F0.111
I8
I66
tp81
sg9
F7.091477870941162
sg10
I100
sg11
I100
sa(dp82
g7
(F0.143
F0.865
F0.075
I8
I69
tp83
sg9
F14.216872930526733
sg10
I100
sg11
I200
sa(dp84
g7
(F0.156
F0.821
F0.08
I11
I58
tp85
sg9
F21.34173083305359
sg10
I100
sg11
I300
sa(dp86
g7
(F0.149
F0.854
F0.107
I7
I40
tp87
sg9
F28.46263289451599
sg10
I100
sg11
I400
sa(dp88
g7
(F0.126
F0.973
F0.08
I6
I49
tp89
sg9
F35.578197956085205
sg10
I100
sg11
I500
satp90
Rp91
(dp92
g25
I01
sg26
g31
sg32
(lp93
I3
aI5
aI30
aI9
asg34
I6
sg35
g36
(g3
tp94
Rp95
sbsS'IBEA'
p96
g2
(g3
g4
(lp97
(dp98
g7
(F0.104
F0.869
F0.169
I4
I6
tp99
sg9
F0.019121885299682617
sg10
I100
sg11
I0
sa(dp100
g7
(F0.113
F0.963
F0.118
I2
I2
tp101
sg9
F7.043811082839966
sg10
I100
sg11
I100
sa(dp102
g7
g66
sg9
F14.112528085708618
sg10
I100
sg11
I200
sa(dp103
g7
(F0.104
F0.943
F0.096
I3
I7
tp104
sg9
F21.193840980529785
sg10
I100
sg11
I300
sa(dp105
g7
(F0.092
F2.312
F0.154
I1
I3
tp106
sg9
F28.264497995376587
sg10
I100
sg11
I400
sa(dp107
g7
(F0.037
F2.599
F0.099
I1
I1
tp108
sg9
F35.35533404350281
sg10
I100
sg11
I500
satp109
Rp110
(dp111
g25
I01
sg26
g31
sg32
(lp112
I3
aI5
aI30
aI9
asg34
I6
sg35
g36
(g3
tp113
Rp114
sbsS'NSGA2'
p115
g2
(g3
g4
(lp116
(dp117
g7
(F0.104
F0.908
F0.163
I4
I4
tp118
sg9
F0.01830887794494629
sg10
I100
sg11
I0
sa(dp119
g7
(F0.088
F2.407
F0.081
I1
I1
tp120
sg9
F6.402447938919067
sg10
I100
sg11
I100
sa(dp121
g7
(F0.092
F2.312
F0.154
I1
I1
tp122
sg9
F12.908677816390991
sg10
I100
sg11
I200
sa(dp123
g7
g66
sg9
F19.32279086112976
sg10
I100
sg11
I300
sa(dp124
g7
g66
sg9
F25.785523891448975
sg10
I100
sg11
I400
sa(dp125
g7
(F0.055
F2.5
F0.106
I1
I1
tp126
sg9
F32.296785831451416
sg10
I100
sg11
I500
satp127
Rp128
(dp129
g25
I01
sg26
g31
sg32
(lp130
I3
aI5
aI30
aI9
asg34
I6
sg35
g36
(g3
tp131
Rp132
sbsS'IBEA-SIP'
p133
g2
(g3
g4
(lp134
(dp135
g7
(F0.148
F0.876
F0.052
I10
I49
tp136
sg9
F0.01752185821533203
sg10
I100
sg11
I0
sa(dp137
g7
(F0.142
F0.826
F0.093
I9
I100
tp138
sg9
F6.424823999404907
sg10
I100
sg11
I100
sa(dp139
g7
(F0.143
F0.828
F0.101
I9
I100
tp140
sg9
F13.0417799949646
sg10
I100
sg11
I200
sa(dp141
g7
(F0.154
F0.717
F0.095
I9
I100
tp142
sg9
F19.55055284500122
sg10
I100
sg11
I300
sa(dp143
g7
(F0.156
F0.573
F0.099
I10
I100
tp144
sg9
F26.140969038009644
sg10
I100
sg11
I400
sa(dp145
g7
(F0.146
F0.828
F0.081
I10
I100
tp146
sg9
F32.72724890708923
sg10
I100
sg11
I500
satp147
Rp148
(dp149
g25
I01
sg26
g31
sg32
(lp150
I3
aI5
aI30
aI9
asg34
I6
sg35
g36
(g3
tp151
Rp152
sbs.