(dp0
S'NSGA2-SIP'
p1
ccopy_reg
_reconstructor
p2
(cdeap.tools.support
Logbook
p3
c__builtin__
list
p4
(lp5
(dp6
S'hv|spread|igd|frontier#|valid#'
p7
(F0.157
F0.809
F0.082
I12
I68
tp8
sS'timestamp'
p9
F0.016548871994018555
sS'evals'
p10
I100
sS'gen'
p11
I0
sa(dp12
g7
(F0.157
F0.734
F0.076
I13
I100
tp13
sg9
F2.059034824371338
sg10
I100
sg11
I100
sa(dp14
g7
(F0.157
F0.834
F0.076
I13
I100
tp15
sg9
F4.21895694732666
sg10
I100
sg11
I200
sa(dp16
g7
(F0.157
F0.817
F0.076
I13
I100
tp17
sg9
F6.395768880844116
sg10
I100
sg11
I300
sa(dp18
g7
(F0.157
F0.837
F0.076
I13
I100
tp19
sg9
F8.564804792404175
sg10
I100
sg11
I400
sa(dp20
g7
(F0.157
F0.933
F0.076
I13
I100
tp21
sg9
F10.792119979858398
sg10
I100
sg11
I500
satp22
Rp23
(dp24
S'log_header'
p25
I01
sS'header'
p26
(S'gen'
p27
S'evals'
p28
S'hv|spread|igd|frontier#|valid#'
p29
S'timestamp'
p30
tp31
sS'columns_len'
p32
(lp33
I3
aI5
aI30
aI9
asS'buffindex'
p34
I6
sS'chapters'
p35
ccollections
defaultdict
p36
(g3
tp37
Rp38
sbsS'SPEA2-SIP'
p39
g2
(g3
g4
(lp40
(dp41
g7
(F0.157
F0.693
F0.074
I12
I54
tp42
sg9
F0.016932964324951172
sg10
I100
sg11
I0
sa(dp43
g7
(F0.157
F0.734
F0.076
I13
I100
tp44
sg9
F147.89532780647278
sg10
I100
sg11
I100
sa(dp45
g7
(F0.157
F0.734
F0.076
I13
I100
tp46
sg9
F298.70162892341614
sg10
I100
sg11
I200
sa(dp47
g7
(F0.157
F0.63
F0.076
I13
I100
tp48
sg9
F444.6633927822113
sg10
I100
sg11
I300
sa(dp49
g7
(F0.157
F0.867
F0.076
I13
I100
tp50
sg9
F592.7067878246307
sg10
I100
sg11
I400
sa(dp51
g7
(F0.157
F0.81
F0.076
I13
I100
tp52
sg9
F741.3649139404297
sg10
I100
sg11
I500
satp53
Rp54
(dp55
g25
I01
sg26
g31
sg32
(lp56
I3
aI5
aI30
aI9
asg34
I6
sg35
g36
(g3
tp57
Rp58
sbsS'SPEA2'
p59
g2
(g3
g4
(lp60
(dp61
g7
(F0.077
F0.937
F0.098
I3
I3
tp62
sg9
F0.016192913055419922
sg10
I100
sg11
I0
sa(dp63
g7
(I0
I0
I0
I0
I0
tp64
sg9
F113.24565887451172
sg10
I100
sg11
I100
sa(dp65
g7
g64
sg9
F226.8380630016327
sg10
I100
sg11
I200
sa(dp66
g7
g64
sg9
F342.2567620277405
sg10
I100
sg11
I300
sa(dp67
g7
g64
sg9
F459.1501998901367
sg10
I100
sg11
I400
sa(dp68
g7
g64
sg9
F573.8159148693085
sg10
I100
sg11
I500
satp69
Rp70
(dp71
g25
I01
sg26
g31
sg32
(lp72
I3
aI5
aI30
aI9
asg34
I6
sg35
g36
(g3
tp73
Rp74
sbsS'IBEA'
p75
g2
(g3
g4
(lp76
(dp77
g7
(F0.083
F0.938
F0.053
I3
I5
tp78
sg9
F0.02586197853088379
sg10
I100
sg11
I0
sa(dp79
g7
(F0.037
F2.599
F0.099
I1
I1
tp80
sg9
F6.317453145980835
sg10
I100
sg11
I100
sa(dp81
g7
(F0.037
F2.599
F0.099
I1
I3
tp82
sg9
F12.531877040863037
sg10
I100
sg11
I200
sa(dp83
g7
(F0.088
F2.407
F0.081
I1
I1
tp84
sg9
F18.77758002281189
sg10
I100
sg11
I300
sa(dp85
g7
(F0.088
F2.407
F0.081
I1
I1
tp86
sg9
F25.024104118347168
sg10
I100
sg11
I400
sa(dp87
g7
(F0.1
F0.94
F0.09
I2
I3
tp88
sg9
F31.25339913368225
sg10
I100
sg11
I500
satp89
Rp90
(dp91
g25
I01
sg26
g31
sg32
(lp92
I3
aI5
aI30
aI9
asg34
I6
sg35
g36
(g3
tp93
Rp94
sbsS'NSGA2'
p95
g2
(g3
g4
(lp96
(dp97
g7
(F0.096
F0.891
F0.135
I5
I5
tp98
sg9
F0.01668691635131836
sg10
I100
sg11
I0
sa(dp99
g7
g64
sg9
F5.77961802482605
sg10
I100
sg11
I100
sa(dp100
g7
g64
sg9
F11.22563099861145
sg10
I100
sg11
I200
sa(dp101
g7
g64
sg9
F16.5523579120636
sg10
I100
sg11
I300
sa(dp102
g7
g64
sg9
F21.87546706199646
sg10
I100
sg11
I400
sa(dp103
g7
g64
sg9
F27.29336404800415
sg10
I100
sg11
I500
satp104
Rp105
(dp106
g25
I01
sg26
g31
sg32
(lp107
I3
aI5
aI30
aI9
asg34
I6
sg35
g36
(g3
tp108
Rp109
sbsS'IBEA-SIP'
p110
g2
(g3
g4
(lp111
(dp112
g7
(F0.152
F0.78
F0.08
I11
I52
tp113
sg9
F0.016455888748168945
sg10
I100
sg11
I0
sa(dp114
g7
(F0.149
F0.952
F0.063
I9
I100
tp115
sg9
F5.445518970489502
sg10
I100
sg11
I100
sa(dp116
g7
(F0.142
F0.632
F0.093
I9
I100
tp117
sg9
F10.943170070648193
sg10
I100
sg11
I200
sa(dp118
g7
(F0.156
F0.832
F0.099
I10
I100
tp119
sg9
F16.427814960479736
sg10
I100
sg11
I300
sa(dp120
g7
(F0.149
F0.744
F0.082
I11
I100
tp121
sg9
F21.979476928710938
sg10
I100
sg11
I400
sa(dp122
g7
(F0.157
F0.572
F0.089
I10
I100
tp123
sg9
F27.69523596763611
sg10
I100
sg11
I500
satp124
Rp125
(dp126
g25
I01
sg26
g31
sg32
(lp127
I3
aI5
aI30
aI9
asg34
I6
sg35
g36
(g3
tp128
Rp129
sbs.