(dp0
S'NSGA2-SIP'
p1
ccopy_reg
_reconstructor
p2
(cdeap.tools.support
Logbook
p3
c__builtin__
list
p4
(lp5
(dp6
S'hv|spread|igd|frontier#|valid#'
p7
(F0.157
F0.754
F0.09
I11
I59
tp8
sS'timestamp'
p9
F0.01989603042602539
sS'evals'
p10
I100
sS'gen'
p11
I0
sa(dp12
g7
(F0.157
F0.899
F0.082
I12
I100
tp13
sg9
F2.6763761043548584
sg10
I100
sg11
I100
sa(dp14
g7
(F0.157
F0.811
F0.082
I12
I100
tp15
sg9
F5.3477771282196045
sg10
I100
sg11
I200
sa(dp16
g7
(F0.157
F0.998
F0.076
I13
I100
tp17
sg9
F8.036556005477905
sg10
I100
sg11
I300
sa(dp18
g7
(F0.157
F0.867
F0.076
I13
I100
tp19
sg9
F10.666587114334106
sg10
I100
sg11
I400
sa(dp20
g7
(F0.157
F0.947
F0.076
I13
I100
tp21
sg9
F13.320641994476318
sg10
I100
sg11
I500
satp22
Rp23
(dp24
S'log_header'
p25
I01
sS'header'
p26
(S'gen'
p27
S'evals'
p28
S'hv|spread|igd|frontier#|valid#'
p29
S'timestamp'
p30
tp31
sS'columns_len'
p32
(lp33
I3
aI5
aI30
aI9
asS'buffindex'
p34
I6
sS'chapters'
p35
ccollections
defaultdict
p36
(g3
tp37
Rp38
sbsS'SPEA2-SIP'
p39
g2
(g3
g4
(lp40
(dp41
g7
(F0.142
F0.544
F0.084
I14
I54
tp42
sg9
F0.021014928817749023
sg10
I100
sg11
I0
sa(dp43
g7
(F0.157
F0.726
F0.076
I13
I100
tp44
sg9
F172.3126881122589
sg10
I100
sg11
I100
sa(dp45
g7
(F0.157
F0.99
F0.076
I13
I100
tp46
sg9
F346.39459800720215
sg10
I100
sg11
I200
sa(dp47
g7
(F0.157
F0.805
F0.076
I13
I100
tp48
sg9
F519.4309401512146
sg10
I100
sg11
I300
sa(dp49
g7
(F0.157
F0.805
F0.076
I13
I100
tp50
sg9
F693.403785943985
sg10
I100
sg11
I400
sa(dp51
g7
(F0.157
F0.837
F0.076
I13
I100
tp52
sg9
F865.7463190555573
sg10
I100
sg11
I500
satp53
Rp54
(dp55
g25
I01
sg26
g31
sg32
(lp56
I3
aI5
aI30
aI9
asg34
I6
sg35
g36
(g3
tp57
Rp58
sbsS'SPEA2'
p59
g2
(g3
g4
(lp60
(dp61
g7
(F0.102
F0.972
F0.128
I6
I8
tp62
sg9
F0.0215151309967041
sg10
I100
sg11
I0
sa(dp63
g7
(I0
I0
I0
I0
I0
tp64
sg9
F129.6918671131134
sg10
I100
sg11
I100
sa(dp65
g7
g64
sg9
F264.69141817092896
sg10
I100
sg11
I200
sa(dp66
g7
g64
sg9
F400.64364194869995
sg10
I100
sg11
I300
sa(dp67
g7
g64
sg9
F533.5856690406799
sg10
I100
sg11
I400
sa(dp68
g7
g64
sg9
F666.2642140388489
sg10
I100
sg11
I500
satp69
Rp70
(dp71
g25
I01
sg26
g31
sg32
(lp72
I3
aI5
aI30
aI9
asg34
I6
sg35
g36
(g3
tp73
Rp74
sbsS'IBEA'
p75
g2
(g3
g4
(lp76
(dp77
g7
(F0.107
F0.947
F0.118
I4
I5
tp78
sg9
F0.0204617977142334
sg10
I100
sg11
I0
sa(dp79
g7
(F0.037
F2.599
F0.099
I1
I1
tp80
sg9
F7.077297925949097
sg10
I100
sg11
I100
sa(dp81
g7
g64
sg9
F14.12325382232666
sg10
I100
sg11
I200
sa(dp82
g7
(F0.111
F0.892
F0.106
I4
I4
tp83
sg9
F21.191876888275146
sg10
I100
sg11
I300
sa(dp84
g7
(F0.103
F0.943
F0.096
I3
I4
tp85
sg9
F28.26050591468811
sg10
I100
sg11
I400
sa(dp86
g7
(F0.055
F2.5
F0.106
I1
I1
tp87
sg9
F35.35451102256775
sg10
I100
sg11
I500
satp88
Rp89
(dp90
g25
I01
sg26
g31
sg32
(lp91
I3
aI5
aI30
aI9
asg34
I6
sg35
g36
(g3
tp92
Rp93
sbsS'NSGA2'
p94
g2
(g3
g4
(lp95
(dp96
g7
(F0.111
F0.857
F0.11
I5
I6
tp97
sg9
F0.02105402946472168
sg10
I100
sg11
I0
sa(dp98
g7
(F0.088
F2.407
F0.081
I1
I1
tp99
sg9
F6.925940036773682
sg10
I100
sg11
I100
sa(dp100
g7
g64
sg9
F13.785094976425171
sg10
I100
sg11
I200
sa(dp101
g7
g64
sg9
F20.586659908294678
sg10
I100
sg11
I300
sa(dp102
g7
(F0.092
F2.312
F0.154
I1
I1
tp103
sg9
F27.44903802871704
sg10
I100
sg11
I400
sa(dp104
g7
(F0.092
F2.312
F0.154
I1
I1
tp105
sg9
F34.33115601539612
sg10
I100
sg11
I500
satp106
Rp107
(dp108
g25
I01
sg26
g31
sg32
(lp109
I3
aI5
aI30
aI9
asg34
I6
sg35
g36
(g3
tp110
Rp111
sbsS'IBEA-SIP'
p112
g2
(g3
g4
(lp113
(dp114
g7
(F0.157
F0.827
F0.09
I11
I49
tp115
sg9
F0.019601821899414062
sg10
I100
sg11
I0
sa(dp116
g7
(F0.136
F0.776
F0.048
I10
I100
tp117
sg9
F6.465988874435425
sg10
I100
sg11
I100
sa(dp118
g7
(F0.139
F0.707
F0.089
I9
I100
tp119
sg9
F13.074074983596802
sg10
I100
sg11
I200
sa(dp120
g7
(F0.148
F0.908
F0.056
I10
I100
tp121
sg9
F19.676755905151367
sg10
I100
sg11
I300
sa(dp122
g7
(F0.143
F0.721
F0.082
I11
I100
tp123
sg9
F26.260446786880493
sg10
I100
sg11
I400
sa(dp124
g7
(F0.157
F0.737
F0.089
I10
I100
tp125
sg9
F32.77265191078186
sg10
I100
sg11
I500
satp126
Rp127
(dp128
g25
I01
sg26
g31
sg32
(lp129
I3
aI5
aI30
aI9
asg34
I6
sg35
g36
(g3
tp130
Rp131
sbs.