(dp0
S'NSGA2-SIP'
p1
ccopy_reg
_reconstructor
p2
(cdeap.tools.support
Logbook
p3
c__builtin__
list
p4
(lp5
(dp6
S'hv|spread|igd|frontier#|valid#'
p7
(F0.152
F0.801
F0.077
I11
I58
tp8
sS'timestamp'
p9
F0.01717209815979004
sS'evals'
p10
I100
sS'gen'
p11
I0
sa(dp12
g7
(F0.157
F0.998
F0.076
I13
I100
tp13
sg9
F2.2741589546203613
sg10
I100
sg11
I100
sa(dp14
g7
(F0.157
F0.895
F0.076
I13
I100
tp15
sg9
F4.57794713973999
sg10
I100
sg11
I200
sa(dp16
g7
(F0.157
F0.904
F0.076
I13
I100
tp17
sg9
F6.857223033905029
sg10
I100
sg11
I300
sa(dp18
g7
(F0.157
F0.81
F0.076
I13
I100
tp19
sg9
F9.109714031219482
sg10
I100
sg11
I400
sa(dp20
g7
(F0.157
F0.734
F0.076
I13
I100
tp21
sg9
F11.37044906616211
sg10
I100
sg11
I500
satp22
Rp23
(dp24
S'log_header'
p25
I01
sS'header'
p26
(S'gen'
p27
S'evals'
p28
S'hv|spread|igd|frontier#|valid#'
p29
S'timestamp'
p30
tp31
sS'columns_len'
p32
(lp33
I3
aI5
aI30
aI9
asS'buffindex'
p34
I6
sS'chapters'
p35
ccollections
defaultdict
p36
(g3
tp37
Rp38
sbsS'SPEA2-SIP'
p39
g2
(g3
g4
(lp40
(dp41
g7
(F0.153
F0.794
F0.081
I12
I59
tp42
sg9
F0.017930984497070312
sg10
I100
sg11
I0
sa(dp43
g7
(F0.157
F0.86
F0.076
I13
I100
tp44
sg9
F160.41963505744934
sg10
I100
sg11
I100
sa(dp45
g7
(F0.157
F0.726
F0.076
I13
I100
tp46
sg9
F322.70253705978394
sg10
I100
sg11
I200
sa(dp47
g7
(F0.157
F0.726
F0.076
I13
I100
tp48
sg9
F481.7985329627991
sg10
I100
sg11
I300
sa(dp49
g7
(F0.157
F0.867
F0.076
I13
I100
tp50
sg9
F642.7892580032349
sg10
I100
sg11
I400
sa(dp51
g7
(F0.157
F0.817
F0.076
I13
I100
tp52
sg9
F802.5052750110626
sg10
I100
sg11
I500
satp53
Rp54
(dp55
g25
I01
sg26
g31
sg32
(lp56
I3
aI5
aI30
aI9
asg34
I6
sg35
g36
(g3
tp57
Rp58
sbsS'SPEA2'
p59
g2
(g3
g4
(lp60
(dp61
g7
(F0.095
F0.905
F0.081
I6
I7
tp62
sg9
F0.01800084114074707
sg10
I100
sg11
I0
sa(dp63
g7
(I0
I0
I0
I0
I0
tp64
sg9
F126.46472191810608
sg10
I100
sg11
I100
sa(dp65
g7
g64
sg9
F252.20862197875977
sg10
I100
sg11
I200
sa(dp66
g7
g64
sg9
F378.8003840446472
sg10
I100
sg11
I300
sa(dp67
g7
g64
sg9
F505.1077718734741
sg10
I100
sg11
I400
sa(dp68
g7
g64
sg9
F629.626895904541
sg10
I100
sg11
I500
satp69
Rp70
(dp71
g25
I01
sg26
g31
sg32
(lp72
I3
aI5
aI30
aI9
asg34
I6
sg35
g36
(g3
tp73
Rp74
sbsS'IBEA'
p75
g2
(g3
g4
(lp76
(dp77
g7
(F0.097
F0.838
F0.099
I5
I6
tp78
sg9
F0.01812291145324707
sg10
I100
sg11
I0
sa(dp79
g7
(F0.037
F2.599
F0.099
I1
I1
tp80
sg9
F6.565985918045044
sg10
I100
sg11
I100
sa(dp81
g7
g64
sg9
F13.268517971038818
sg10
I100
sg11
I200
sa(dp82
g7
(F0.088
F2.407
F0.081
I1
I1
tp83
sg9
F19.97934889793396
sg10
I100
sg11
I300
sa(dp84
g7
(F0.1
F0.94
F0.09
I2
I3
tp85
sg9
F26.641340017318726
sg10
I100
sg11
I400
sa(dp86
g7
(F0.1
F0.94
F0.09
I2
I3
tp87
sg9
F33.252907037734985
sg10
I100
sg11
I500
satp88
Rp89
(dp90
g25
I01
sg26
g31
sg32
(lp91
I3
aI5
aI30
aI9
asg34
I6
sg35
g36
(g3
tp92
Rp93
sbsS'NSGA2'
p94
g2
(g3
g4
(lp95
(dp96
g7
(F0.082
F1.0
F0.154
I3
I7
tp97
sg9
F0.01737499237060547
sg10
I100
sg11
I0
sa(dp98
g7
g64
sg9
F6.011898994445801
sg10
I100
sg11
I100
sa(dp99
g7
g64
sg9
F12.050173044204712
sg10
I100
sg11
I200
sa(dp100
g7
g64
sg9
F18.025574922561646
sg10
I100
sg11
I300
sa(dp101
g7
(F0.055
F2.5
F0.106
I1
I1
tp102
sg9
F24.029202938079834
sg10
I100
sg11
I400
sa(dp103
g7
g64
sg9
F30.057021141052246
sg10
I100
sg11
I500
satp104
Rp105
(dp106
g25
I01
sg26
g31
sg32
(lp107
I3
aI5
aI30
aI9
asg34
I6
sg35
g36
(g3
tp108
Rp109
sbsS'IBEA-SIP'
p110
g2
(g3
g4
(lp111
(dp112
g7
(F0.156
F0.807
F0.102
I10
I55
tp113
sg9
F0.016704082489013672
sg10
I100
sg11
I0
sa(dp114
g7
(F0.133
F0.639
F0.092
I10
I100
tp115
sg9
F6.061021089553833
sg10
I100
sg11
I100
sa(dp116
g7
(F0.128
F0.83
F0.065
I9
I100
tp117
sg9
F12.216284036636353
sg10
I100
sg11
I200
sa(dp118
g7
(F0.149
F0.948
F0.061
I11
I100
tp119
sg9
F18.367004871368408
sg10
I100
sg11
I300
sa(dp120
g7
(F0.143
F0.757
F0.091
I10
I100
tp121
sg9
F24.48814296722412
sg10
I100
sg11
I400
sa(dp122
g7
(F0.156
F0.709
F0.091
I9
I100
tp123
sg9
F30.652188062667847
sg10
I100
sg11
I500
satp124
Rp125
(dp126
g25
I01
sg26
g31
sg32
(lp127
I3
aI5
aI30
aI9
asg34
I6
sg35
g36
(g3
tp128
Rp129
sbs.