(dp0
S'NSGA2-SIP'
p1
ccopy_reg
_reconstructor
p2
(cdeap.tools.support
Logbook
p3
c__builtin__
list
p4
(lp5
(dp6
S'hv|spread|igd|frontier#|valid#'
p7
(F0.155
F0.768
F0.078
I12
I52
tp8
sS'timestamp'
p9
F0.016494035720825195
sS'evals'
p10
I100
sS'gen'
p11
I0
sa(dp12
g7
(F0.157
F0.947
F0.076
I13
I100
tp13
sg9
F2.1962831020355225
sg10
I100
sg11
I100
sa(dp14
g7
(F0.157
F0.837
F0.076
I13
I100
tp15
sg9
F4.3683130741119385
sg10
I100
sg11
I200
sa(dp16
g7
(F0.157
F0.63
F0.076
I13
I100
tp17
sg9
F6.544119119644165
sg10
I100
sg11
I300
sa(dp18
g7
(F0.157
F0.827
F0.076
I13
I100
tp19
sg9
F8.799021005630493
sg10
I100
sg11
I400
sa(dp20
g7
(F0.157
F0.805
F0.076
I13
I100
tp21
sg9
F11.042699098587036
sg10
I100
sg11
I500
satp22
Rp23
(dp24
S'log_header'
p25
I01
sS'header'
p26
(S'gen'
p27
S'evals'
p28
S'hv|spread|igd|frontier#|valid#'
p29
S'timestamp'
p30
tp31
sS'columns_len'
p32
(lp33
I3
aI5
aI30
aI9
asS'buffindex'
p34
I6
sS'chapters'
p35
ccollections
defaultdict
p36
(g3
tp37
Rp38
sbsS'SPEA2-SIP'
p39
g2
(g3
g4
(lp40
(dp41
g7
(F0.152
F0.849
F0.077
I12
I59
tp42
sg9
F0.017373085021972656
sg10
I100
sg11
I0
sa(dp43
g7
(F0.157
F0.852
F0.082
I12
I100
tp44
sg9
F153.44741201400757
sg10
I100
sg11
I100
sa(dp45
g7
(F0.157
F0.734
F0.076
I13
I100
tp46
sg9
F304.5188820362091
sg10
I100
sg11
I200
sa(dp47
g7
(F0.157
F0.824
F0.076
I13
I100
tp48
sg9
F453.63485503196716
sg10
I100
sg11
I300
sa(dp49
g7
(F0.157
F0.99
F0.076
I13
I100
tp50
sg9
F604.1163940429688
sg10
I100
sg11
I400
sa(dp51
g7
(F0.157
F0.837
F0.076
I13
I100
tp52
sg9
F756.2770719528198
sg10
I100
sg11
I500
satp53
Rp54
(dp55
g25
I01
sg26
g31
sg32
(lp56
I3
aI5
aI30
aI9
asg34
I6
sg35
g36
(g3
tp57
Rp58
sbsS'SPEA2'
p59
g2
(g3
g4
(lp60
(dp61
g7
(F0.12
F0.89
F0.062
I3
I8
tp62
sg9
F0.016366004943847656
sg10
I100
sg11
I0
sa(dp63
g7
(I0
I0
I0
I0
I0
tp64
sg9
F122.89099478721619
sg10
I100
sg11
I100
sa(dp65
g7
g64
sg9
F244.15584588050842
sg10
I100
sg11
I200
sa(dp66
g7
g64
sg9
F361.59351897239685
sg10
I100
sg11
I300
sa(dp67
g7
g64
sg9
F479.739581823349
sg10
I100
sg11
I400
sa(dp68
g7
g64
sg9
F597.8913898468018
sg10
I100
sg11
I500
satp69
Rp70
(dp71
g25
I01
sg26
g31
sg32
(lp72
I3
aI5
aI30
aI9
asg34
I6
sg35
g36
(g3
tp73
Rp74
sbsS'IBEA'
p75
g2
(g3
g4
(lp76
(dp77
g7
(F0.092
F0.887
F0.111
I4
I4
tp78
sg9
F0.019827842712402344
sg10
I100
sg11
I0
sa(dp79
g7
(F0.088
F2.407
F0.081
I1
I3
tp80
sg9
F6.278002977371216
sg10
I100
sg11
I100
sa(dp81
g7
(F0.059
F0.97
F0.103
I2
I6
tp82
sg9
F12.61139702796936
sg10
I100
sg11
I200
sa(dp83
g7
(F0.051
F2.5
F0.106
I1
I1
tp84
sg9
F18.919065952301025
sg10
I100
sg11
I300
sa(dp85
g7
(F0.088
F2.407
F0.081
I1
I1
tp86
sg9
F25.234374046325684
sg10
I100
sg11
I400
sa(dp87
g7
g64
sg9
F31.552182912826538
sg10
I100
sg11
I500
satp88
Rp89
(dp90
g25
I01
sg26
g31
sg32
(lp91
I3
aI5
aI30
aI9
asg34
I6
sg35
g36
(g3
tp92
Rp93
sbsS'NSGA2'
p94
g2
(g3
g4
(lp95
(dp96
g7
(F0.089
F0.881
F0.087
I5
I6
tp97
sg9
F0.016821861267089844
sg10
I100
sg11
I0
sa(dp98
g7
g64
sg9
F5.65864896774292
sg10
I100
sg11
I100
sa(dp99
g7
g64
sg9
F11.39365291595459
sg10
I100
sg11
I200
sa(dp100
g7
g64
sg9
F17.111466884613037
sg10
I100
sg11
I300
sa(dp101
g7
g64
sg9
F22.78624701499939
sg10
I100
sg11
I400
sa(dp102
g7
g64
sg9
F28.494014978408813
sg10
I100
sg11
I500
satp103
Rp104
(dp105
g25
I01
sg26
g31
sg32
(lp106
I3
aI5
aI30
aI9
asg34
I6
sg35
g36
(g3
tp107
Rp108
sbsS'IBEA-SIP'
p109
g2
(g3
g4
(lp110
(dp111
g7
(F0.149
F0.885
F0.061
I11
I61
tp112
sg9
F0.026287078857421875
sg10
I100
sg11
I0
sa(dp113
g7
(F0.151
F0.825
F0.089
I10
I100
tp114
sg9
F5.7314372062683105
sg10
I100
sg11
I100
sa(dp115
g7
(F0.143
F0.961
F0.091
I10
I100
tp116
sg9
F11.519299030303955
sg10
I100
sg11
I200
sa(dp117
g7
(F0.143
F0.909
F0.082
I11
I100
tp118
sg9
F17.315819025039673
sg10
I100
sg11
I300
sa(dp119
g7
(F0.149
F0.859
F0.056
I10
I100
tp120
sg9
F23.116145133972168
sg10
I100
sg11
I400
sa(dp121
g7
(F0.151
F0.995
F0.076
I10
I100
tp122
sg9
F28.878908157348633
sg10
I100
sg11
I500
satp123
Rp124
(dp125
g25
I01
sg26
g31
sg32
(lp126
I3
aI5
aI30
aI9
asg34
I6
sg35
g36
(g3
tp127
Rp128
sbs.