(dp0
S'NSGA2-SIP'
p1
ccopy_reg
_reconstructor
p2
(cdeap.tools.support
Logbook
p3
c__builtin__
list
p4
(lp5
(dp6
S'hv|spread|igd|frontier#|valid#'
p7
(F0.157
F0.629
F0.08
I11
I56
tp8
sS'timestamp'
p9
F0.017524003982543945
sS'evals'
p10
I100
sS'gen'
p11
I0
sa(dp12
g7
(F0.157
F0.827
F0.076
I13
I100
tp13
sg9
F2.3097000122070312
sg10
I100
sg11
I100
sa(dp14
g7
(F0.157
F0.809
F0.076
I13
I100
tp15
sg9
F4.648499965667725
sg10
I100
sg11
I200
sa(dp16
g7
(F0.157
F0.827
F0.076
I13
I100
tp17
sg9
F6.988847017288208
sg10
I100
sg11
I300
sa(dp18
g7
(F0.157
F0.726
F0.076
I13
I100
tp19
sg9
F9.316652059555054
sg10
I100
sg11
I400
sa(dp20
g7
(F0.157
F0.726
F0.076
I13
I100
tp21
sg9
F11.656866073608398
sg10
I100
sg11
I500
satp22
Rp23
(dp24
S'log_header'
p25
I01
sS'header'
p26
(S'gen'
p27
S'evals'
p28
S'hv|spread|igd|frontier#|valid#'
p29
S'timestamp'
p30
tp31
sS'columns_len'
p32
(lp33
I3
aI5
aI30
aI9
asS'buffindex'
p34
I6
sS'chapters'
p35
ccollections
defaultdict
p36
(g3
tp37
Rp38
sbsS'SPEA2-SIP'
p39
g2
(g3
g4
(lp40
(dp41
g7
(F0.149
F0.766
F0.076
I12
I64
tp42
sg9
F0.017819881439208984
sg10
I100
sg11
I0
sa(dp43
g7
(F0.157
F0.734
F0.076
I13
I100
tp44
sg9
F159.90759587287903
sg10
I100
sg11
I100
sa(dp45
g7
(F0.157
F0.726
F0.076
I13
I100
tp46
sg9
F321.2614939212799
sg10
I100
sg11
I200
sa(dp47
g7
(F0.157
F0.734
F0.076
I13
I100
tp48
sg9
F481.4420819282532
sg10
I100
sg11
I300
sa(dp49
g7
(F0.157
F0.837
F0.076
I13
I100
tp50
sg9
F642.3602519035339
sg10
I100
sg11
I400
sa(dp51
g7
(F0.157
F0.815
F0.076
I13
I100
tp52
sg9
F801.8796379566193
sg10
I100
sg11
I500
satp53
Rp54
(dp55
g25
I01
sg26
g31
sg32
(lp56
I3
aI5
aI30
aI9
asg34
I6
sg35
g36
(g3
tp57
Rp58
sbsS'SPEA2'
p59
g2
(g3
g4
(lp60
(dp61
g7
(F0.067
F0.876
F0.145
I3
I3
tp62
sg9
F0.01703190803527832
sg10
I100
sg11
I0
sa(dp63
g7
(I0
I0
I0
I0
I0
tp64
sg9
F122.41921806335449
sg10
I100
sg11
I100
sa(dp65
g7
g64
sg9
F248.1089870929718
sg10
I100
sg11
I200
sa(dp66
g7
g64
sg9
F370.8221890926361
sg10
I100
sg11
I300
sa(dp67
g7
g64
sg9
F495.2753949165344
sg10
I100
sg11
I400
sa(dp68
g7
g64
sg9
F618.7356150150299
sg10
I100
sg11
I500
satp69
Rp70
(dp71
g25
I01
sg26
g31
sg32
(lp72
I3
aI5
aI30
aI9
asg34
I6
sg35
g36
(g3
tp73
Rp74
sbsS'IBEA'
p75
g2
(g3
g4
(lp76
(dp77
g7
(F0.06
F0.934
F0.121
I2
I4
tp78
sg9
F0.01715397834777832
sg10
I100
sg11
I0
sa(dp79
g7
(F0.088
F2.407
F0.081
I1
I3
tp80
sg9
F6.493886947631836
sg10
I100
sg11
I100
sa(dp81
g7
(F0.103
F0.963
F0.111
I2
I4
tp82
sg9
F13.13198208808899
sg10
I100
sg11
I200
sa(dp83
g7
(F0.088
F2.407
F0.081
I1
I1
tp84
sg9
F19.767740964889526
sg10
I100
sg11
I300
sa(dp85
g7
g64
sg9
F26.365176916122437
sg10
I100
sg11
I400
sa(dp86
g7
(F0.125
F0.884
F0.112
I3
I7
tp87
sg9
F32.910013914108276
sg10
I100
sg11
I500
satp88
Rp89
(dp90
g25
I01
sg26
g31
sg32
(lp91
I3
aI5
aI30
aI9
asg34
I6
sg35
g36
(g3
tp92
Rp93
sbsS'NSGA2'
p94
g2
(g3
g4
(lp95
(dp96
g7
(F0.114
F0.891
F0.113
I4
I5
tp97
sg9
F0.017297983169555664
sg10
I100
sg11
I0
sa(dp98
g7
g64
sg9
F6.140312910079956
sg10
I100
sg11
I100
sa(dp99
g7
g64
sg9
F12.143671035766602
sg10
I100
sg11
I200
sa(dp100
g7
(F0.092
F2.312
F0.154
I1
I1
tp101
sg9
F18.0315260887146
sg10
I100
sg11
I300
sa(dp102
g7
(F0.092
F2.312
F0.154
I1
I1
tp103
sg9
F24.086993932724
sg10
I100
sg11
I400
sa(dp104
g7
(F0.088
F2.407
F0.081
I1
I1
tp105
sg9
F30.108204126358032
sg10
I100
sg11
I500
satp106
Rp107
(dp108
g25
I01
sg26
g31
sg32
(lp109
I3
aI5
aI30
aI9
asg34
I6
sg35
g36
(g3
tp110
Rp111
sbsS'IBEA-SIP'
p112
g2
(g3
g4
(lp113
(dp114
g7
(F0.149
F0.849
F0.059
I13
I53
tp115
sg9
F0.017323970794677734
sg10
I100
sg11
I0
sa(dp116
g7
(F0.143
F0.721
F0.082
I11
I100
tp117
sg9
F5.98907208442688
sg10
I100
sg11
I100
sa(dp118
g7
(F0.156
F0.779
F0.11
I9
I100
tp119
sg9
F11.970076084136963
sg10
I100
sg11
I200
sa(dp120
g7
(F0.143
F1.005
F0.091
I10
I100
tp121
sg9
F17.94344210624695
sg10
I100
sg11
I300
sa(dp122
g7
(F0.139
F0.985
F0.091
I10
I100
tp123
sg9
F23.88815689086914
sg10
I100
sg11
I400
sa(dp124
g7
(F0.139
F0.749
F0.08
I10
I100
tp125
sg9
F29.893866062164307
sg10
I100
sg11
I500
satp126
Rp127
(dp128
g25
I01
sg26
g31
sg32
(lp129
I3
aI5
aI30
aI9
asg34
I6
sg35
g36
(g3
tp130
Rp131
sbs.