(dp0
S'NSGA2-SIP'
p1
ccopy_reg
_reconstructor
p2
(cdeap.tools.support
Logbook
p3
c__builtin__
list
p4
(lp5
(dp6
S'hv|spread|igd|frontier#|valid#'
p7
(F0.143
F0.719
F0.09
I12
I55
tp8
sS'timestamp'
p9
F0.018409013748168945
sS'evals'
p10
I100
sS'gen'
p11
I0
sa(dp12
g7
(F0.157
F0.895
F0.076
I13
I100
tp13
sg9
F2.4038960933685303
sg10
I100
sg11
I100
sa(dp14
g7
(F0.157
F0.99
F0.076
I13
I100
tp15
sg9
F4.875161170959473
sg10
I100
sg11
I200
sa(dp16
g7
(F0.157
F0.99
F0.076
I13
I100
tp17
sg9
F7.333513975143433
sg10
I100
sg11
I300
sa(dp18
g7
(F0.157
F0.827
F0.076
I13
I100
tp19
sg9
F9.801469087600708
sg10
I100
sg11
I400
sa(dp20
g7
(F0.157
F0.808
F0.076
I13
I100
tp21
sg9
F12.258522033691406
sg10
I100
sg11
I500
satp22
Rp23
(dp24
S'log_header'
p25
I01
sS'header'
p26
(S'gen'
p27
S'evals'
p28
S'hv|spread|igd|frontier#|valid#'
p29
S'timestamp'
p30
tp31
sS'columns_len'
p32
(lp33
I3
aI5
aI30
aI9
asS'buffindex'
p34
I6
sS'chapters'
p35
ccollections
defaultdict
p36
(g3
tp37
Rp38
sbsS'SPEA2-SIP'
p39
g2
(g3
g4
(lp40
(dp41
g7
(F0.145
F0.674
F0.098
I12
I48
tp42
sg9
F0.01774287223815918
sg10
I100
sg11
I0
sa(dp43
g7
(F0.157
F0.933
F0.076
I13
I100
tp44
sg9
F164.66555404663086
sg10
I100
sg11
I100
sa(dp45
g7
(F0.157
F0.99
F0.076
I13
I100
tp46
sg9
F332.2360808849335
sg10
I100
sg11
I200
sa(dp47
g7
(F0.157
F0.81
F0.076
I13
I100
tp48
sg9
F515.7068829536438
sg10
I100
sg11
I300
sa(dp49
g7
(F0.157
F0.81
F0.076
I13
I100
tp50
sg9
F686.4576110839844
sg10
I100
sg11
I400
sa(dp51
g7
(F0.157
F0.947
F0.076
I13
I100
tp52
sg9
F853.7147059440613
sg10
I100
sg11
I500
satp53
Rp54
(dp55
g25
I01
sg26
g31
sg32
(lp56
I3
aI5
aI30
aI9
asg34
I6
sg35
g36
(g3
tp57
Rp58
sbsS'SPEA2'
p59
g2
(g3
g4
(lp60
(dp61
g7
(F0.058
F2.312
F0.101
I1
I1
tp62
sg9
F0.01741504669189453
sg10
I100
sg11
I0
sa(dp63
g7
(I0
I0
I0
I0
I0
tp64
sg9
F131.9506230354309
sg10
I100
sg11
I100
sa(dp65
g7
g64
sg9
F266.3778541088104
sg10
I100
sg11
I200
sa(dp66
g7
g64
sg9
F400.91242599487305
sg10
I100
sg11
I300
sa(dp67
g7
(F0.087
F2.236
F0.121
I1
I1
tp68
sg9
F535.2964150905609
sg10
I100
sg11
I400
sa(dp69
g7
g64
sg9
F669.0507411956787
sg10
I100
sg11
I500
satp70
Rp71
(dp72
g25
I01
sg26
g31
sg32
(lp73
I3
aI5
aI30
aI9
asg34
I6
sg35
g36
(g3
tp74
Rp75
sbsS'IBEA'
p76
g2
(g3
g4
(lp77
(dp78
g7
(F0.093
F0.888
F0.114
I5
I6
tp79
sg9
F0.018594026565551758
sg10
I100
sg11
I0
sa(dp80
g7
g64
sg9
F6.914507150650024
sg10
I100
sg11
I100
sa(dp81
g7
(F0.051
F2.5
F0.106
I1
I2
tp82
sg9
F13.956948041915894
sg10
I100
sg11
I200
sa(dp83
g7
g64
sg9
F21.007872104644775
sg10
I100
sg11
I300
sa(dp84
g7
g64
sg9
F27.992370128631592
sg10
I100
sg11
I400
sa(dp85
g7
(F0.1
F0.94
F0.09
I2
I3
tp86
sg9
F34.99852418899536
sg10
I100
sg11
I500
satp87
Rp88
(dp89
g25
I01
sg26
g31
sg32
(lp90
I3
aI5
aI30
aI9
asg34
I6
sg35
g36
(g3
tp91
Rp92
sbsS'NSGA2'
p93
g2
(g3
g4
(lp94
(dp95
g7
(F0.079
F0.869
F0.174
I2
I2
tp96
sg9
F0.01753401756286621
sg10
I100
sg11
I0
sa(dp97
g7
g64
sg9
F6.3173511028289795
sg10
I100
sg11
I100
sa(dp98
g7
g64
sg9
F12.62983512878418
sg10
I100
sg11
I200
sa(dp99
g7
g64
sg9
F18.968831062316895
sg10
I100
sg11
I300
sa(dp100
g7
(F0.088
F2.407
F0.081
I1
I1
tp101
sg9
F25.33698010444641
sg10
I100
sg11
I400
sa(dp102
g7
g64
sg9
F31.62648892402649
sg10
I100
sg11
I500
satp103
Rp104
(dp105
g25
I01
sg26
g31
sg32
(lp106
I3
aI5
aI30
aI9
asg34
I6
sg35
g36
(g3
tp107
Rp108
sbsS'IBEA-SIP'
p109
g2
(g3
g4
(lp110
(dp111
g7
(F0.151
F0.785
F0.088
I12
I52
tp112
sg9
F0.018384933471679688
sg10
I100
sg11
I0
sa(dp113
g7
(F0.15
F0.956
F0.099
I9
I100
tp114
sg9
F6.269252061843872
sg10
I100
sg11
I100
sa(dp115
g7
(F0.156
F0.775
F0.11
I9
I100
tp116
sg9
F12.702948093414307
sg10
I100
sg11
I200
sa(dp117
g7
(F0.157
F0.627
F0.09
I11
I100
tp118
sg9
F19.179780960083008
sg10
I100
sg11
I300
sa(dp119
g7
(F0.157
F0.768
F0.089
I10
I100
tp120
sg9
F25.614675045013428
sg10
I100
sg11
I400
sa(dp121
g7
(F0.147
F0.683
F0.084
I10
I100
tp122
sg9
F32.072962045669556
sg10
I100
sg11
I500
satp123
Rp124
(dp125
g25
I01
sg26
g31
sg32
(lp126
I3
aI5
aI30
aI9
asg34
I6
sg35
g36
(g3
tp127
Rp128
sbs.