(dp0
S'NSGA2-SIP'
p1
ccopy_reg
_reconstructor
p2
(cdeap.tools.support
Logbook
p3
c__builtin__
list
p4
(lp5
(dp6
S'hv|spread|igd|frontier#|valid#'
p7
(F0.155
F0.801
F0.078
I11
I60
tp8
sS'timestamp'
p9
F0.0200350284576416
sS'evals'
p10
I100
sS'gen'
p11
I0
sa(dp12
g7
(F0.157
F0.904
F0.076
I13
I100
tp13
sg9
F2.6663520336151123
sg10
I100
sg11
I100
sa(dp14
g7
(F0.157
F0.837
F0.076
I13
I100
tp15
sg9
F5.322678089141846
sg10
I100
sg11
I200
sa(dp16
g7
(F0.157
F0.81
F0.076
I13
I100
tp17
sg9
F7.951247215270996
sg10
I100
sg11
I300
sa(dp18
g7
(F0.157
F0.81
F0.076
I13
I100
tp19
sg9
F10.585769176483154
sg10
I100
sg11
I400
sa(dp20
g7
(F0.157
F0.81
F0.076
I13
I100
tp21
sg9
F13.185245990753174
sg10
I100
sg11
I500
satp22
Rp23
(dp24
S'log_header'
p25
I01
sS'header'
p26
(S'gen'
p27
S'evals'
p28
S'hv|spread|igd|frontier#|valid#'
p29
S'timestamp'
p30
tp31
sS'columns_len'
p32
(lp33
I3
aI5
aI30
aI9
asS'buffindex'
p34
I6
sS'chapters'
p35
ccollections
defaultdict
p36
(g3
tp37
Rp38
sbsS'SPEA2-SIP'
p39
g2
(g3
g4
(lp40
(dp41
g7
(F0.157
F0.731
F0.084
I12
I47
tp42
sg9
F0.019690990447998047
sg10
I100
sg11
I0
sa(dp43
g7
(F0.157
F0.726
F0.076
I13
I100
tp44
sg9
F163.69669485092163
sg10
I100
sg11
I100
sa(dp45
g7
(F0.157
F0.827
F0.076
I13
I100
tp46
sg9
F332.18306493759155
sg10
I100
sg11
I200
sa(dp47
g7
(F0.157
F0.998
F0.076
I13
I100
tp48
sg9
F501.79596304893494
sg10
I100
sg11
I300
sa(dp49
g7
(F0.157
F0.809
F0.076
I13
I100
tp50
sg9
F667.8648359775543
sg10
I100
sg11
I400
sa(dp51
g7
(F0.157
F0.947
F0.076
I13
I100
tp52
sg9
F836.4492878913879
sg10
I100
sg11
I500
satp53
Rp54
(dp55
g25
I01
sg26
g31
sg32
(lp56
I3
aI5
aI30
aI9
asg34
I6
sg35
g36
(g3
tp57
Rp58
sbsS'SPEA2'
p59
g2
(g3
g4
(lp60
(dp61
g7
(F0.095
F0.929
F0.116
I3
I4
tp62
sg9
F0.019835948944091797
sg10
I100
sg11
I0
sa(dp63
g7
(I0
I0
I0
I0
I0
tp64
sg9
F129.21211004257202
sg10
I100
sg11
I100
sa(dp65
g7
g64
sg9
F264.1413869857788
sg10
I100
sg11
I200
sa(dp66
g7
g64
sg9
F396.2143340110779
sg10
I100
sg11
I300
sa(dp67
g7
g64
sg9
F529.5763409137726
sg10
I100
sg11
I400
sa(dp68
g7
g64
sg9
F661.9865009784698
sg10
I100
sg11
I500
satp69
Rp70
(dp71
g25
I01
sg26
g31
sg32
(lp72
I3
aI5
aI30
aI9
asg34
I6
sg35
g36
(g3
tp73
Rp74
sbsS'IBEA-PEN'
p75
g2
(g3
g4
(lp76
(dp77
g7
(F0.114
F0.899
F0.0
I5
I59
tp78
sg9
F0.03251910209655762
sg10
I100
sg11
I0
sa(dp79
g7
g64
sg9
F7.011099100112915
sg10
I100
sg11
I100
sa(dp80
g7
(F0.125
F0.884
F0.112
I3
I4
tp81
sg9
F13.968616008758545
sg10
I100
sg11
I200
sa(dp82
g7
(F0.088
F2.407
F0.081
I1
I1
tp83
sg9
F20.907942056655884
sg10
I100
sg11
I300
sa(dp84
g7
(F0.059
F0.97
F0.103
I2
I4
tp85
sg9
F27.914273977279663
sg10
I100
sg11
I400
sa(dp86
g7
(F0.088
F2.407
F0.081
I1
I3
tp87
sg9
F34.8308801651001
sg10
I100
sg11
I500
satp88
Rp89
(dp90
g25
I01
sg26
g31
sg32
(lp91
I3
aI5
aI30
aI9
asg34
I6
sg35
g36
(g3
tp92
Rp93
sbsS'IBEA'
p94
g2
(g3
g4
(lp95
(dp96
g7
(F0.096
F1.038
F0.146
I6
I6
tp97
sg9
F0.02075505256652832
sg10
I100
sg11
I0
sa(dp98
g7
g64
sg9
F6.764183044433594
sg10
I100
sg11
I100
sa(dp99
g7
(F0.06
F2.407
F0.032
I1
I1
tp100
sg9
F13.55401611328125
sg10
I100
sg11
I200
sa(dp101
g7
(F0.088
F2.407
F0.081
I1
I3
tp102
sg9
F20.351593017578125
sg10
I100
sg11
I300
sa(dp103
g7
(F0.088
F2.407
F0.081
I1
I4
tp104
sg9
F27.159407138824463
sg10
I100
sg11
I400
sa(dp105
g7
g64
sg9
F33.90942406654358
sg10
I100
sg11
I500
satp106
Rp107
(dp108
g25
I01
sg26
g31
sg32
(lp109
I3
aI5
aI30
aI9
asg34
I6
sg35
g36
(g3
tp110
Rp111
sbsS'NSGA2'
p112
g2
(g3
g4
(lp113
(dp114
g7
(F0.112
F0.944
F0.093
I4
I5
tp115
sg9
F0.01992511749267578
sg10
I100
sg11
I0
sa(dp116
g7
g64
sg9
F6.728014945983887
sg10
I100
sg11
I100
sa(dp117
g7
g64
sg9
F13.506677150726318
sg10
I100
sg11
I200
sa(dp118
g7
g64
sg9
F20.291656017303467
sg10
I100
sg11
I300
sa(dp119
g7
g64
sg9
F27.007993936538696
sg10
I100
sg11
I400
sa(dp120
g7
g64
sg9
F33.77998900413513
sg10
I100
sg11
I500
satp121
Rp122
(dp123
g25
I01
sg26
g31
sg32
(lp124
I3
aI5
aI30
aI9
asg34
I6
sg35
g36
(g3
tp125
Rp126
sbsS'IBEA-SIP'
p127
g2
(g3
g4
(lp128
(dp129
g7
(F0.145
F0.884
F0.055
I10
I55
tp130
sg9
F0.019352197647094727
sg10
I100
sg11
I0
sa(dp131
g7
(F0.149
F0.818
F0.06
I11
I100
tp132
sg9
F6.1679229736328125
sg10
I100
sg11
I100
sa(dp133
g7
(F0.143
F0.736
F0.082
I11
I100
tp134
sg9
F12.3853280544281
sg10
I100
sg11
I200
sa(dp135
g7
(F0.149
F0.941
F0.067
I10
I100
tp136
sg9
F18.640849113464355
sg10
I100
sg11
I300
sa(dp137
g7
(F0.154
F0.896
F0.086
I10
I100
tp138
sg9
F24.890619039535522
sg10
I100
sg11
I400
sa(dp139
g7
(F0.155
F0.709
F0.078
I10
I100
tp140
sg9
F31.12711811065674
sg10
I100
sg11
I500
satp141
Rp142
(dp143
g25
I01
sg26
g31
sg32
(lp144
I3
aI5
aI30
aI9
asg34
I6
sg35
g36
(g3
tp145
Rp146
sbs.