(dp0
S'NSGA2-SIP'
p1
ccopy_reg
_reconstructor
p2
(cdeap.tools.support
Logbook
p3
c__builtin__
list
p4
(lp5
(dp6
S'hv|spread|igd|frontier#|valid#'
p7
(F0.151
F0.725
F0.081
I13
I58
tp8
sS'timestamp'
p9
F0.020581960678100586
sS'evals'
p10
I100
sS'gen'
p11
I0
sa(dp12
g7
(F0.157
F0.805
F0.076
I13
I100
tp13
sg9
F2.5852251052856445
sg10
I100
sg11
I100
sa(dp14
g7
(F0.157
F0.86
F0.076
I13
I100
tp15
sg9
F5.285919904708862
sg10
I100
sg11
I200
sa(dp16
g7
(F0.157
F0.895
F0.076
I13
I100
tp17
sg9
F7.989300966262817
sg10
I100
sg11
I300
sa(dp18
g7
(F0.157
F0.734
F0.076
I13
I100
tp19
sg9
F10.692394018173218
sg10
I100
sg11
I400
sa(dp20
g7
(F0.157
F0.933
F0.076
I13
I100
tp21
sg9
F13.39376711845398
sg10
I100
sg11
I500
satp22
Rp23
(dp24
S'log_header'
p25
I01
sS'header'
p26
(S'gen'
p27
S'evals'
p28
S'hv|spread|igd|frontier#|valid#'
p29
S'timestamp'
p30
tp31
sS'columns_len'
p32
(lp33
I3
aI5
aI30
aI9
asS'buffindex'
p34
I6
sS'chapters'
p35
ccollections
defaultdict
p36
(g3
tp37
Rp38
sbsS'SPEA2-SIP'
p39
g2
(g3
g4
(lp40
(dp41
g7
(F0.151
F0.757
F0.08
I14
I58
tp42
sg9
F0.02163100242614746
sg10
I100
sg11
I0
sa(dp43
g7
(F0.157
F0.63
F0.076
I13
I100
tp44
sg9
F167.6277129650116
sg10
I100
sg11
I100
sa(dp45
g7
(F0.157
F0.99
F0.076
I13
I100
tp46
sg9
F337.80227303504944
sg10
I100
sg11
I200
sa(dp47
g7
(F0.157
F0.895
F0.076
I13
I100
tp48
sg9
F509.20268511772156
sg10
I100
sg11
I300
sa(dp49
g7
(F0.157
F0.817
F0.076
I13
I100
tp50
sg9
F677.3411839008331
sg10
I100
sg11
I400
sa(dp51
g7
(F0.157
F0.805
F0.076
I13
I100
tp52
sg9
F846.75128698349
sg10
I100
sg11
I500
satp53
Rp54
(dp55
g25
I01
sg26
g31
sg32
(lp56
I3
aI5
aI30
aI9
asg34
I6
sg35
g36
(g3
tp57
Rp58
sbsS'SPEA2'
p59
g2
(g3
g4
(lp60
(dp61
g7
(F0.064
F1.0
F0.14
I3
I3
tp62
sg9
F0.01969003677368164
sg10
I100
sg11
I0
sa(dp63
g7
(F0.087
F2.236
F0.121
I1
I1
tp64
sg9
F131.15417194366455
sg10
I100
sg11
I100
sa(dp65
g7
(I0
I0
I0
I0
I0
tp66
sg9
F265.7969660758972
sg10
I100
sg11
I200
sa(dp67
g7
g66
sg9
F398.568834066391
sg10
I100
sg11
I300
sa(dp68
g7
g66
sg9
F529.7243940830231
sg10
I100
sg11
I400
sa(dp69
g7
g66
sg9
F661.000764131546
sg10
I100
sg11
I500
satp70
Rp71
(dp72
g25
I01
sg26
g31
sg32
(lp73
I3
aI5
aI30
aI9
asg34
I6
sg35
g36
(g3
tp74
Rp75
sbsS'IBEA-PEN'
p76
g2
(g3
g4
(lp77
(dp78
g7
(F0.112
F0.953
F0.033
I6
I65
tp79
sg9
F0.03223681449890137
sg10
I100
sg11
I0
sa(dp80
g7
(F0.037
F2.599
F0.099
I1
I4
tp81
sg9
F6.888818025588989
sg10
I100
sg11
I100
sa(dp82
g7
(F0.1
F0.94
F0.09
I2
I2
tp83
sg9
F13.738924980163574
sg10
I100
sg11
I200
sa(dp84
g7
(F0.1
F0.94
F0.09
I2
I3
tp85
sg9
F20.63452386856079
sg10
I100
sg11
I300
sa(dp86
g7
g66
sg9
F27.47012186050415
sg10
I100
sg11
I400
sa(dp87
g7
(F0.037
F2.599
F0.099
I1
I4
tp88
sg9
F34.33154582977295
sg10
I100
sg11
I500
satp89
Rp90
(dp91
g25
I01
sg26
g31
sg32
(lp92
I3
aI5
aI30
aI9
asg34
I6
sg35
g36
(g3
tp93
Rp94
sbsS'IBEA'
p95
g2
(g3
g4
(lp96
(dp97
g7
(F0.106
F0.827
F0.117
I7
I7
tp98
sg9
F0.02115607261657715
sg10
I100
sg11
I0
sa(dp99
g7
(F0.1
F0.94
F0.09
I2
I4
tp100
sg9
F6.70642614364624
sg10
I100
sg11
I100
sa(dp101
g7
g66
sg9
F13.438634157180786
sg10
I100
sg11
I200
sa(dp102
g7
g66
sg9
F20.142141103744507
sg10
I100
sg11
I300
sa(dp103
g7
g66
sg9
F26.889647006988525
sg10
I100
sg11
I400
sa(dp104
g7
(F0.037
F2.599
F0.099
I1
I4
tp105
sg9
F33.630250215530396
sg10
I100
sg11
I500
satp106
Rp107
(dp108
g25
I01
sg26
g31
sg32
(lp109
I3
aI5
aI30
aI9
asg34
I6
sg35
g36
(g3
tp110
Rp111
sbsS'NSGA2'
p112
g2
(g3
g4
(lp113
(dp114
g7
(F0.111
F0.822
F0.171
I4
I5
tp115
sg9
F0.020148038864135742
sg10
I100
sg11
I0
sa(dp116
g7
(F0.088
F2.407
F0.081
I1
I1
tp117
sg9
F7.0276548862457275
sg10
I100
sg11
I100
sa(dp118
g7
g66
sg9
F14.030543088912964
sg10
I100
sg11
I200
sa(dp119
g7
g66
sg9
F21.061652898788452
sg10
I100
sg11
I300
sa(dp120
g7
g66
sg9
F28.101732969284058
sg10
I100
sg11
I400
sa(dp121
g7
g66
sg9
F35.07771301269531
sg10
I100
sg11
I500
satp122
Rp123
(dp124
g25
I01
sg26
g31
sg32
(lp125
I3
aI5
aI30
aI9
asg34
I6
sg35
g36
(g3
tp126
Rp127
sbsS'IBEA-SIP'
p128
g2
(g3
g4
(lp129
(dp130
g7
(F0.154
F0.871
F0.086
I10
I60
tp131
sg9
F0.019833087921142578
sg10
I100
sg11
I0
sa(dp132
g7
(F0.148
F0.922
F0.082
I11
I100
tp133
sg9
F6.134406089782715
sg10
I100
sg11
I100
sa(dp134
g7
(F0.154
F0.798
F0.086
I10
I100
tp135
sg9
F12.369740009307861
sg10
I100
sg11
I200
sa(dp136
g7
(F0.151
F0.8
F0.086
I8
I100
tp137
sg9
F18.584346055984497
sg10
I100
sg11
I300
sa(dp138
g7
(F0.15
F0.761
F0.093
I11
I100
tp139
sg9
F24.794886112213135
sg10
I100
sg11
I400
sa(dp140
g7
(F0.153
F0.71
F0.076
I10
I100
tp141
sg9
F31.01644802093506
sg10
I100
sg11
I500
satp142
Rp143
(dp144
g25
I01
sg26
g31
sg32
(lp145
I3
aI5
aI30
aI9
asg34
I6
sg35
g36
(g3
tp146
Rp147
sbs.