(dp0
S'NSGA2-SIP'
p1
ccopy_reg
_reconstructor
p2
(cdeap.tools.support
Logbook
p3
c__builtin__
list
p4
(lp5
(dp6
S'hv|spread|igd|frontier#|valid#'
p7
(F0.154
F0.781
F0.08
I12
I58
tp8
sS'timestamp'
p9
F0.02067399024963379
sS'evals'
p10
I100
sS'gen'
p11
I0
sa(dp12
g7
(F0.157
F0.827
F0.076
I13
I100
tp13
sg9
F2.652435064315796
sg10
I100
sg11
I100
sa(dp14
g7
(F0.157
F0.904
F0.076
I13
I100
tp15
sg9
F5.299254894256592
sg10
I100
sg11
I200
sa(dp16
g7
(F0.157
F0.895
F0.076
I13
I100
tp17
sg9
F7.942126989364624
sg10
I100
sg11
I300
sa(dp18
g7
(F0.157
F0.63
F0.076
I13
I100
tp19
sg9
F10.562453985214233
sg10
I100
sg11
I400
sa(dp20
g7
(F0.157
F0.824
F0.076
I13
I100
tp21
sg9
F13.221720933914185
sg10
I100
sg11
I500
satp22
Rp23
(dp24
S'log_header'
p25
I01
sS'header'
p26
(S'gen'
p27
S'evals'
p28
S'hv|spread|igd|frontier#|valid#'
p29
S'timestamp'
p30
tp31
sS'columns_len'
p32
(lp33
I3
aI5
aI30
aI9
asS'buffindex'
p34
I6
sS'chapters'
p35
ccollections
defaultdict
p36
(g3
tp37
Rp38
sbsS'SPEA2-SIP'
p39
g2
(g3
g4
(lp40
(dp41
g7
(F0.142
F0.831
F0.058
I13
I65
tp42
sg9
F0.02181696891784668
sg10
I100
sg11
I0
sa(dp43
g7
(F0.157
F0.817
F0.076
I13
I100
tp44
sg9
F166.07355189323425
sg10
I100
sg11
I100
sa(dp45
g7
(F0.157
F0.998
F0.076
I13
I100
tp46
sg9
F337.8157629966736
sg10
I100
sg11
I200
sa(dp47
g7
(F0.157
F0.827
F0.076
I13
I100
tp48
sg9
F506.96138882637024
sg10
I100
sg11
I300
sa(dp49
g7
(F0.157
F0.642
F0.076
I13
I100
tp50
sg9
F675.339457988739
sg10
I100
sg11
I400
sa(dp51
g7
(F0.157
F0.998
F0.076
I13
I100
tp52
sg9
F846.5324919223785
sg10
I100
sg11
I500
satp53
Rp54
(dp55
g25
I01
sg26
g31
sg32
(lp56
I3
aI5
aI30
aI9
asg34
I6
sg35
g36
(g3
tp57
Rp58
sbsS'SPEA2'
p59
g2
(g3
g4
(lp60
(dp61
g7
(F0.113
F0.932
F0.119
I6
I7
tp62
sg9
F0.02095818519592285
sg10
I100
sg11
I0
sa(dp63
g7
(I0
I0
I0
I0
I0
tp64
sg9
F131.11029720306396
sg10
I100
sg11
I100
sa(dp65
g7
g64
sg9
F266.611759185791
sg10
I100
sg11
I200
sa(dp66
g7
g64
sg9
F400.6093339920044
sg10
I100
sg11
I300
sa(dp67
g7
g64
sg9
F533.3265171051025
sg10
I100
sg11
I400
sa(dp68
g7
g64
sg9
F664.9018931388855
sg10
I100
sg11
I500
satp69
Rp70
(dp71
g25
I01
sg26
g31
sg32
(lp72
I3
aI5
aI30
aI9
asg34
I6
sg35
g36
(g3
tp73
Rp74
sbsS'IBEA'
p75
g2
(g3
g4
(lp76
(dp77
g7
(F0.11
F0.929
F0.127
I3
I4
tp78
sg9
F0.020203828811645508
sg10
I100
sg11
I0
sa(dp79
g7
(F0.125
F0.884
F0.112
I3
I5
tp80
sg9
F6.902407884597778
sg10
I100
sg11
I100
sa(dp81
g7
(F0.037
F2.599
F0.099
I1
I2
tp82
sg9
F13.810930967330933
sg10
I100
sg11
I200
sa(dp83
g7
(F0.051
F2.5
F0.106
I1
I2
tp84
sg9
F20.778079986572266
sg10
I100
sg11
I300
sa(dp85
g7
g64
sg9
F27.67298698425293
sg10
I100
sg11
I400
sa(dp86
g7
g64
sg9
F34.5855278968811
sg10
I100
sg11
I500
satp87
Rp88
(dp89
g25
I01
sg26
g31
sg32
(lp90
I3
aI5
aI30
aI9
asg34
I6
sg35
g36
(g3
tp91
Rp92
sbsS'NSGA2'
p93
g2
(g3
g4
(lp94
(dp95
g7
(F0.079
F0.966
F0.139
I2
I3
tp96
sg9
F0.021435976028442383
sg10
I100
sg11
I0
sa(dp97
g7
g64
sg9
F6.979024887084961
sg10
I100
sg11
I100
sa(dp98
g7
g64
sg9
F13.958683013916016
sg10
I100
sg11
I200
sa(dp99
g7
(F0.113
F0.963
F0.118
I2
I2
tp100
sg9
F20.91693687438965
sg10
I100
sg11
I300
sa(dp101
g7
g64
sg9
F27.949031829833984
sg10
I100
sg11
I400
sa(dp102
g7
g64
sg9
F34.94160199165344
sg10
I100
sg11
I500
satp103
Rp104
(dp105
g25
I01
sg26
g31
sg32
(lp106
I3
aI5
aI30
aI9
asg34
I6
sg35
g36
(g3
tp107
Rp108
sbsS'IBEA-SIP'
p109
g2
(g3
g4
(lp110
(dp111
g7
(F0.145
F0.78
F0.074
I11
I57
tp112
sg9
F0.020025968551635742
sg10
I100
sg11
I0
sa(dp113
g7
(F0.157
F0.807
F0.099
I10
I100
tp114
sg9
F6.255033016204834
sg10
I100
sg11
I100
sa(dp115
g7
(F0.147
F0.621
F0.078
I12
I100
tp116
sg9
F12.611836910247803
sg10
I100
sg11
I200
sa(dp117
g7
(F0.139
F0.707
F0.089
I9
I100
tp118
sg9
F18.986191987991333
sg10
I100
sg11
I300
sa(dp119
g7
(F0.149
F0.829
F0.055
I11
I100
tp120
sg9
F25.376718997955322
sg10
I100
sg11
I400
sa(dp121
g7
(F0.153
F0.841
F0.082
I10
I100
tp122
sg9
F31.755379915237427
sg10
I100
sg11
I500
satp123
Rp124
(dp125
g25
I01
sg26
g31
sg32
(lp126
I3
aI5
aI30
aI9
asg34
I6
sg35
g36
(g3
tp127
Rp128
sbs.