(dp0
S'NSGA2-SIP'
p1
ccopy_reg
_reconstructor
p2
(cdeap.tools.support
Logbook
p3
c__builtin__
list
p4
(lp5
(dp6
S'hv|spread|igd|frontier#|valid#'
p7
(F0.152
F0.802
F0.071
I13
I59
tp8
sS'timestamp'
p9
F0.017700910568237305
sS'evals'
p10
I100
sS'gen'
p11
I0
sa(dp12
g7
(F0.157
F0.904
F0.076
I13
I100
tp13
sg9
F2.280543088912964
sg10
I100
sg11
I100
sa(dp14
g7
(F0.157
F0.815
F0.076
I13
I100
tp15
sg9
F4.353771924972534
sg10
I100
sg11
I200
sa(dp16
g7
(F0.157
F0.895
F0.076
I13
I100
tp17
sg9
F6.395318031311035
sg10
I100
sg11
I300
sa(dp18
g7
(F0.157
F0.867
F0.076
I13
I100
tp19
sg9
F8.445285081863403
sg10
I100
sg11
I400
sa(dp20
g7
(F0.157
F0.81
F0.076
I13
I100
tp21
sg9
F10.52527904510498
sg10
I100
sg11
I500
satp22
Rp23
(dp24
S'log_header'
p25
I01
sS'header'
p26
(S'gen'
p27
S'evals'
p28
S'hv|spread|igd|frontier#|valid#'
p29
S'timestamp'
p30
tp31
sS'columns_len'
p32
(lp33
I3
aI5
aI30
aI9
asS'buffindex'
p34
I6
sS'chapters'
p35
ccollections
defaultdict
p36
(g3
tp37
Rp38
sbsS'SPEA2-SIP'
p39
g2
(g3
g4
(lp40
(dp41
g7
(F0.154
F0.758
F0.077
I13
I58
tp42
sg9
F0.018061161041259766
sg10
I100
sg11
I0
sa(dp43
g7
(F0.157
F0.827
F0.076
I13
I100
tp44
sg9
F139.39752101898193
sg10
I100
sg11
I100
sa(dp45
g7
(F0.157
F0.933
F0.076
I13
I100
tp46
sg9
F281.5302109718323
sg10
I100
sg11
I200
sa(dp47
g7
(F0.157
F0.99
F0.076
I13
I100
tp48
sg9
F426.8399920463562
sg10
I100
sg11
I300
sa(dp49
g7
(F0.157
F0.867
F0.076
I13
I100
tp50
sg9
F567.876736164093
sg10
I100
sg11
I400
sa(dp51
g7
(F0.157
F0.895
F0.076
I13
I100
tp52
sg9
F709.9502799510956
sg10
I100
sg11
I500
satp53
Rp54
(dp55
g25
I01
sg26
g31
sg32
(lp56
I3
aI5
aI30
aI9
asg34
I6
sg35
g36
(g3
tp57
Rp58
sbsS'SPEA2'
p59
g2
(g3
g4
(lp60
(dp61
g7
(F0.113
F0.859
F0.108
I7
I9
tp62
sg9
F0.01800394058227539
sg10
I100
sg11
I0
sa(dp63
g7
(I0
I0
I0
I0
I0
tp64
sg9
F111.39002108573914
sg10
I100
sg11
I100
sa(dp65
g7
g64
sg9
F225.39091110229492
sg10
I100
sg11
I200
sa(dp66
g7
g64
sg9
F338.8865351676941
sg10
I100
sg11
I300
sa(dp67
g7
g64
sg9
F450.6307830810547
sg10
I100
sg11
I400
sa(dp68
g7
g64
sg9
F563.5145349502563
sg10
I100
sg11
I500
satp69
Rp70
(dp71
g25
I01
sg26
g31
sg32
(lp72
I3
aI5
aI30
aI9
asg34
I6
sg35
g36
(g3
tp73
Rp74
sbsS'IBEA'
p75
g2
(g3
g4
(lp76
(dp77
g7
(F0.116
F0.881
F0.151
I4
I8
tp78
sg9
F0.026526927947998047
sg10
I100
sg11
I0
sa(dp79
g7
g64
sg9
F6.2488579750061035
sg10
I100
sg11
I100
sa(dp80
g7
(F0.025
F2.5
F0.059
I1
I1
tp81
sg9
F12.3578360080719
sg10
I100
sg11
I200
sa(dp82
g7
(F0.103
F0.943
F0.096
I3
I8
tp83
sg9
F18.47038197517395
sg10
I100
sg11
I300
sa(dp84
g7
(F0.104
F0.94
F0.096
I3
I8
tp85
sg9
F24.569623947143555
sg10
I100
sg11
I400
sa(dp86
g7
(F0.1
F0.94
F0.09
I2
I3
tp87
sg9
F30.671162843704224
sg10
I100
sg11
I500
satp88
Rp89
(dp90
g25
I01
sg26
g31
sg32
(lp91
I3
aI5
aI30
aI9
asg34
I6
sg35
g36
(g3
tp92
Rp93
sbsS'NSGA2'
p94
g2
(g3
g4
(lp95
(dp96
g7
(F0.121
F0.88
F0.063
I3
I5
tp97
sg9
F0.01702404022216797
sg10
I100
sg11
I0
sa(dp98
g7
g64
sg9
F5.551314115524292
sg10
I100
sg11
I100
sa(dp99
g7
g64
sg9
F10.945870161056519
sg10
I100
sg11
I200
sa(dp100
g7
g64
sg9
F16.344797134399414
sg10
I100
sg11
I300
sa(dp101
g7
g64
sg9
F21.71709394454956
sg10
I100
sg11
I400
sa(dp102
g7
(F0.092
F2.312
F0.154
I1
I1
tp103
sg9
F27.14958095550537
sg10
I100
sg11
I500
satp104
Rp105
(dp106
g25
I01
sg26
g31
sg32
(lp107
I3
aI5
aI30
aI9
asg34
I6
sg35
g36
(g3
tp108
Rp109
sbsS'IBEA-SIP'
p110
g2
(g3
g4
(lp111
(dp112
g7
(F0.138
F0.658
F0.09
I16
I56
tp113
sg9
F0.019001007080078125
sg10
I100
sg11
I0
sa(dp114
g7
(F0.143
F0.839
F0.091
I10
I100
tp115
sg9
F5.7424938678741455
sg10
I100
sg11
I100
sa(dp116
g7
(F0.149
F0.669
F0.104
I12
I100
tp117
sg9
F11.309780836105347
sg10
I100
sg11
I200
sa(dp118
g7
(F0.149
F0.847
F0.061
I11
I100
tp119
sg9
F16.87783193588257
sg10
I100
sg11
I300
sa(dp120
g7
(F0.143
F0.857
F0.082
I11
I100
tp121
sg9
F22.403915882110596
sg10
I100
sg11
I400
sa(dp122
g7
(F0.15
F0.902
F0.077
I9
I100
tp123
sg9
F27.919570922851562
sg10
I100
sg11
I500
satp124
Rp125
(dp126
g25
I01
sg26
g31
sg32
(lp127
I3
aI5
aI30
aI9
asg34
I6
sg35
g36
(g3
tp128
Rp129
sbs.