(dp0
S'NSGA2-SIP'
p1
ccopy_reg
_reconstructor
p2
(cdeap.tools.support
Logbook
p3
c__builtin__
list
p4
(lp5
(dp6
S'hv|spread|igd|frontier#|valid#'
p7
(F0.157
F0.629
F0.08
I11
I57
tp8
sS'timestamp'
p9
F0.017022132873535156
sS'evals'
p10
I100
sS'gen'
p11
I0
sa(dp12
g7
(F0.157
F0.817
F0.076
I13
I100
tp13
sg9
F2.288470983505249
sg10
I100
sg11
I100
sa(dp14
g7
(F0.157
F0.904
F0.076
I13
I100
tp15
sg9
F4.384649991989136
sg10
I100
sg11
I200
sa(dp16
g7
(F0.157
F0.86
F0.076
I13
I100
tp17
sg9
F6.449460983276367
sg10
I100
sg11
I300
sa(dp18
g7
(F0.157
F0.734
F0.076
I13
I100
tp19
sg9
F8.542574167251587
sg10
I100
sg11
I400
sa(dp20
g7
(F0.157
F0.808
F0.076
I13
I100
tp21
sg9
F10.60086703300476
sg10
I100
sg11
I500
satp22
Rp23
(dp24
S'log_header'
p25
I01
sS'header'
p26
(S'gen'
p27
S'evals'
p28
S'hv|spread|igd|frontier#|valid#'
p29
S'timestamp'
p30
tp31
sS'columns_len'
p32
(lp33
I3
aI5
aI30
aI9
asS'buffindex'
p34
I6
sS'chapters'
p35
ccollections
defaultdict
p36
(g3
tp37
Rp38
sbsS'SPEA2-SIP'
p39
g2
(g3
g4
(lp40
(dp41
g7
(F0.156
F0.732
F0.078
I12
I56
tp42
sg9
F0.0176241397857666
sg10
I100
sg11
I0
sa(dp43
g7
(F0.157
F0.668
F0.076
I13
I100
tp44
sg9
F142.19026112556458
sg10
I100
sg11
I100
sa(dp45
g7
(F0.157
F0.81
F0.076
I13
I100
tp46
sg9
F286.94692492485046
sg10
I100
sg11
I200
sa(dp47
g7
(F0.157
F0.726
F0.076
I13
I100
tp48
sg9
F432.38154006004333
sg10
I100
sg11
I300
sa(dp49
g7
(F0.157
F0.817
F0.076
I13
I100
tp50
sg9
F577.3507099151611
sg10
I100
sg11
I400
sa(dp51
g7
(F0.157
F0.904
F0.076
I13
I100
tp52
sg9
F722.61767411232
sg10
I100
sg11
I500
satp53
Rp54
(dp55
g25
I01
sg26
g31
sg32
(lp56
I3
aI5
aI30
aI9
asg34
I6
sg35
g36
(g3
tp57
Rp58
sbsS'SPEA2'
p59
g2
(g3
g4
(lp60
(dp61
g7
(F0.083
F0.963
F0.048
I2
I2
tp62
sg9
F0.016824960708618164
sg10
I100
sg11
I0
sa(dp63
g7
(I0
I0
I0
I0
I0
tp64
sg9
F108.99013686180115
sg10
I100
sg11
I100
sa(dp65
g7
g64
sg9
F223.21786499023438
sg10
I100
sg11
I200
sa(dp66
g7
g64
sg9
F337.9452610015869
sg10
I100
sg11
I300
sa(dp67
g7
g64
sg9
F450.6611359119415
sg10
I100
sg11
I400
sa(dp68
g7
g64
sg9
F562.1244630813599
sg10
I100
sg11
I500
satp69
Rp70
(dp71
g25
I01
sg26
g31
sg32
(lp72
I3
aI5
aI30
aI9
asg34
I6
sg35
g36
(g3
tp73
Rp74
sbsS'IBEA'
p75
g2
(g3
g4
(lp76
(dp77
g7
(F0.078
F0.944
F0.137
I3
I3
tp78
sg9
F0.025871992111206055
sg10
I100
sg11
I0
sa(dp79
g7
(F0.037
F2.599
F0.099
I1
I2
tp80
sg9
F6.217435121536255
sg10
I100
sg11
I100
sa(dp81
g7
(F0.088
F2.407
F0.081
I1
I1
tp82
sg9
F12.21821904182434
sg10
I100
sg11
I200
sa(dp83
g7
g64
sg9
F18.219320058822632
sg10
I100
sg11
I300
sa(dp84
g7
(F0.088
F2.407
F0.081
I1
I1
tp85
sg9
F24.22278118133545
sg10
I100
sg11
I400
sa(dp86
g7
g64
sg9
F30.231059074401855
sg10
I100
sg11
I500
satp87
Rp88
(dp89
g25
I01
sg26
g31
sg32
(lp90
I3
aI5
aI30
aI9
asg34
I6
sg35
g36
(g3
tp91
Rp92
sbsS'NSGA2'
p93
g2
(g3
g4
(lp94
(dp95
g7
(F0.058
F0.968
F0.089
I2
I2
tp96
sg9
F0.016704082489013672
sg10
I100
sg11
I0
sa(dp97
g7
g64
sg9
F5.697790145874023
sg10
I100
sg11
I100
sa(dp98
g7
g64
sg9
F11.138837099075317
sg10
I100
sg11
I200
sa(dp99
g7
(F0.088
F2.407
F0.081
I1
I1
tp100
sg9
F16.597088098526
sg10
I100
sg11
I300
sa(dp101
g7
g64
sg9
F21.9517080783844
sg10
I100
sg11
I400
sa(dp102
g7
g64
sg9
F27.393160104751587
sg10
I100
sg11
I500
satp103
Rp104
(dp105
g25
I01
sg26
g31
sg32
(lp106
I3
aI5
aI30
aI9
asg34
I6
sg35
g36
(g3
tp107
Rp108
sbsS'IBEA-SIP'
p109
g2
(g3
g4
(lp110
(dp111
g7
(F0.157
F0.741
F0.09
I11
I51
tp112
sg9
F0.01826786994934082
sg10
I100
sg11
I0
sa(dp113
g7
(F0.139
F0.983
F0.082
I11
I100
tp114
sg9
F5.632234811782837
sg10
I100
sg11
I100
sa(dp115
g7
(F0.157
F0.758
F0.082
I12
I100
tp116
sg9
F11.130591869354248
sg10
I100
sg11
I200
sa(dp117
g7
(F0.143
F0.741
F0.082
I11
I100
tp118
sg9
F16.623224020004272
sg10
I100
sg11
I300
sa(dp119
g7
(F0.142
F0.809
F0.08
I10
I100
tp120
sg9
F22.132192850112915
sg10
I100
sg11
I400
sa(dp121
g7
(F0.143
F0.557
F0.082
I11
I100
tp122
sg9
F27.675498962402344
sg10
I100
sg11
I500
satp123
Rp124
(dp125
g25
I01
sg26
g31
sg32
(lp126
I3
aI5
aI30
aI9
asg34
I6
sg35
g36
(g3
tp127
Rp128
sbs.