(dp0
S'NSGA2-SIP'
p1
ccopy_reg
_reconstructor
p2
(cdeap.tools.support
Logbook
p3
c__builtin__
list
p4
(lp5
(dp6
S'hv|spread|igd|frontier#|valid#'
p7
(F0.142
F0.881
F0.064
I11
I50
tp8
sS'timestamp'
p9
F0.014672040939331055
sS'evals'
p10
I100
sS'gen'
p11
I0
sa(dp12
g7
(F0.157
F0.998
F0.076
I13
I100
tp13
sg9
F2.0468080043792725
sg10
I100
sg11
I100
sa(dp14
g7
(F0.157
F0.904
F0.076
I13
I100
tp15
sg9
F4.108613967895508
sg10
I100
sg11
I200
sa(dp16
g7
(F0.157
F0.933
F0.076
I13
I100
tp17
sg9
F6.155724048614502
sg10
I100
sg11
I300
sa(dp18
g7
(F0.157
F0.904
F0.076
I13
I100
tp19
sg9
F8.233170986175537
sg10
I100
sg11
I400
sa(dp20
g7
(F0.157
F0.683
F0.076
I13
I100
tp21
sg9
F10.301357984542847
sg10
I100
sg11
I500
satp22
Rp23
(dp24
S'log_header'
p25
I01
sS'header'
p26
(S'gen'
p27
S'evals'
p28
S'hv|spread|igd|frontier#|valid#'
p29
S'timestamp'
p30
tp31
sS'columns_len'
p32
(lp33
I3
aI5
aI30
aI9
asS'buffindex'
p34
I6
sS'chapters'
p35
ccollections
defaultdict
p36
(g3
tp37
Rp38
sbsS'SPEA2-SIP'
p39
g2
(g3
g4
(lp40
(dp41
g7
(F0.141
F0.574
F0.066
I14
I62
tp42
sg9
F0.017055034637451172
sg10
I100
sg11
I0
sa(dp43
g7
(F0.157
F0.805
F0.076
I13
I100
tp44
sg9
F138.25131392478943
sg10
I100
sg11
I100
sa(dp45
g7
(F0.157
F0.726
F0.076
I13
I100
tp46
sg9
F282.8856608867645
sg10
I100
sg11
I200
sa(dp47
g7
(F0.157
F0.726
F0.076
I13
I100
tp48
sg9
F427.60063099861145
sg10
I100
sg11
I300
sa(dp49
g7
(F0.157
F0.86
F0.076
I13
I100
tp50
sg9
F573.8066298961639
sg10
I100
sg11
I400
sa(dp51
g7
(F0.157
F0.867
F0.076
I13
I100
tp52
sg9
F718.1546769142151
sg10
I100
sg11
I500
satp53
Rp54
(dp55
g25
I01
sg26
g31
sg32
(lp56
I3
aI5
aI30
aI9
asg34
I6
sg35
g36
(g3
tp57
Rp58
sbsS'SPEA2'
p59
g2
(g3
g4
(lp60
(dp61
g7
(F0.037
F2.599
F0.099
I1
I1
tp62
sg9
F0.014878988265991211
sg10
I100
sg11
I0
sa(dp63
g7
(I0
I0
I0
I0
I0
tp64
sg9
F112.29276204109192
sg10
I100
sg11
I100
sa(dp65
g7
g64
sg9
F224.26697897911072
sg10
I100
sg11
I200
sa(dp66
g7
g64
sg9
F337.51132893562317
sg10
I100
sg11
I300
sa(dp67
g7
g64
sg9
F450.23154497146606
sg10
I100
sg11
I400
sa(dp68
g7
(F0.087
F2.236
F0.121
I1
I1
tp69
sg9
F561.8640179634094
sg10
I100
sg11
I500
satp70
Rp71
(dp72
g25
I01
sg26
g31
sg32
(lp73
I3
aI5
aI30
aI9
asg34
I6
sg35
g36
(g3
tp74
Rp75
sbsS'IBEA'
p76
g2
(g3
g4
(lp77
(dp78
g7
(F0.115
F0.789
F0.116
I5
I5
tp79
sg9
F0.016169071197509766
sg10
I100
sg11
I0
sa(dp80
g7
g64
sg9
F6.033537864685059
sg10
I100
sg11
I100
sa(dp81
g7
(F0.096
F0.968
F0.094
I2
I2
tp82
sg9
F12.178133964538574
sg10
I100
sg11
I200
sa(dp83
g7
(F0.096
F0.968
F0.094
I2
I4
tp84
sg9
F18.329230070114136
sg10
I100
sg11
I300
sa(dp85
g7
g64
sg9
F24.467273950576782
sg10
I100
sg11
I400
sa(dp86
g7
g64
sg9
F30.60247802734375
sg10
I100
sg11
I500
satp87
Rp88
(dp89
g25
I01
sg26
g31
sg32
(lp90
I3
aI5
aI30
aI9
asg34
I6
sg35
g36
(g3
tp91
Rp92
sbsS'NSGA2'
p93
g2
(g3
g4
(lp94
(dp95
g7
(F0.109
F0.893
F0.111
I6
I6
tp96
sg9
F0.01625990867614746
sg10
I100
sg11
I0
sa(dp97
g7
(F0.088
F2.407
F0.081
I1
I1
tp98
sg9
F5.447838068008423
sg10
I100
sg11
I100
sa(dp99
g7
(F0.055
F2.5
F0.106
I1
I1
tp100
sg9
F10.951534032821655
sg10
I100
sg11
I200
sa(dp101
g7
g64
sg9
F16.441613912582397
sg10
I100
sg11
I300
sa(dp102
g7
g64
sg9
F21.885837078094482
sg10
I100
sg11
I400
sa(dp103
g7
(F0.055
F2.5
F0.106
I1
I1
tp104
sg9
F27.23935103416443
sg10
I100
sg11
I500
satp105
Rp106
(dp107
g25
I01
sg26
g31
sg32
(lp108
I3
aI5
aI30
aI9
asg34
I6
sg35
g36
(g3
tp109
Rp110
sbsS'IBEA-SIP'
p111
g2
(g3
g4
(lp112
(dp113
g7
(F0.15
F0.79
F0.081
I13
I53
tp114
sg9
F0.01609206199645996
sg10
I100
sg11
I0
sa(dp115
g7
(F0.136
F0.8
F0.086
I9
I100
tp116
sg9
F5.467716932296753
sg10
I100
sg11
I100
sa(dp117
g7
(F0.139
F0.789
F0.08
I10
I100
tp118
sg9
F10.997700929641724
sg10
I100
sg11
I200
sa(dp119
g7
(F0.149
F0.847
F0.067
I10
I100
tp120
sg9
F16.562474966049194
sg10
I100
sg11
I300
sa(dp121
g7
(F0.149
F0.749
F0.076
I12
I100
tp122
sg9
F22.117599964141846
sg10
I100
sg11
I400
sa(dp123
g7
(F0.143
F0.733
F0.091
I10
I100
tp124
sg9
F27.74263095855713
sg10
I100
sg11
I500
satp125
Rp126
(dp127
g25
I01
sg26
g31
sg32
(lp128
I3
aI5
aI30
aI9
asg34
I6
sg35
g36
(g3
tp129
Rp130
sbs.