(dp0
S'NSGA2-SIP'
p1
ccopy_reg
_reconstructor
p2
(cdeap.tools.support
Logbook
p3
c__builtin__
list
p4
(lp5
(dp6
S'hv|spread|igd|frontier#|valid#'
p7
(F0.147
F0.82
F0.05
I11
I52
tp8
sS'timestamp'
p9
F0.015867948532104492
sS'evals'
p10
I100
sS'gen'
p11
I0
sa(dp12
g7
(F0.157
F0.734
F0.076
I13
I100
tp13
sg9
F2.1742959022521973
sg10
I100
sg11
I100
sa(dp14
g7
(F0.157
F0.683
F0.076
I13
I100
tp15
sg9
F4.318260908126831
sg10
I100
sg11
I200
sa(dp16
g7
(F0.157
F0.998
F0.076
I13
I100
tp17
sg9
F6.433923959732056
sg10
I100
sg11
I300
sa(dp18
g7
(F0.157
F0.81
F0.076
I13
I100
tp19
sg9
F8.565517902374268
sg10
I100
sg11
I400
sa(dp20
g7
(F0.157
F0.904
F0.076
I13
I100
tp21
sg9
F10.711657047271729
sg10
I100
sg11
I500
satp22
Rp23
(dp24
S'log_header'
p25
I01
sS'header'
p26
(S'gen'
p27
S'evals'
p28
S'hv|spread|igd|frontier#|valid#'
p29
S'timestamp'
p30
tp31
sS'columns_len'
p32
(lp33
I3
aI5
aI30
aI9
asS'buffindex'
p34
I6
sS'chapters'
p35
ccollections
defaultdict
p36
(g3
tp37
Rp38
sbsS'SPEA2-SIP'
p39
g2
(g3
g4
(lp40
(dp41
g7
(F0.151
F0.571
F0.089
I13
I58
tp42
sg9
F0.016993045806884766
sg10
I100
sg11
I0
sa(dp43
g7
(F0.157
F0.86
F0.076
I13
I100
tp44
sg9
F150.53755497932434
sg10
I100
sg11
I100
sa(dp45
g7
(F0.157
F0.726
F0.076
I13
I100
tp46
sg9
F302.1597421169281
sg10
I100
sg11
I200
sa(dp47
g7
(F0.157
F0.817
F0.076
I13
I100
tp48
sg9
F455.47600197792053
sg10
I100
sg11
I300
sa(dp49
g7
(F0.157
F0.809
F0.076
I13
I100
tp50
sg9
F607.2866899967194
sg10
I100
sg11
I400
sa(dp51
g7
(F0.157
F0.998
F0.076
I13
I100
tp52
sg9
F759.9902551174164
sg10
I100
sg11
I500
satp53
Rp54
(dp55
g25
I01
sg26
g31
sg32
(lp56
I3
aI5
aI30
aI9
asg34
I6
sg35
g36
(g3
tp57
Rp58
sbsS'SPEA2'
p59
g2
(g3
g4
(lp60
(dp61
g7
(F0.117
F0.946
F0.098
I5
I8
tp62
sg9
F0.0166170597076416
sg10
I100
sg11
I0
sa(dp63
g7
(I0
I0
I0
I0
I0
tp64
sg9
F113.66522812843323
sg10
I100
sg11
I100
sa(dp65
g7
g64
sg9
F232.0582001209259
sg10
I100
sg11
I200
sa(dp66
g7
g64
sg9
F352.5272331237793
sg10
I100
sg11
I300
sa(dp67
g7
g64
sg9
F472.6118049621582
sg10
I100
sg11
I400
sa(dp68
g7
g64
sg9
F591.7491300106049
sg10
I100
sg11
I500
satp69
Rp70
(dp71
g25
I01
sg26
g31
sg32
(lp72
I3
aI5
aI30
aI9
asg34
I6
sg35
g36
(g3
tp73
Rp74
sbsS'IBEA-PEN'
p75
g2
(g3
g4
(lp76
(dp77
g7
(F0.111
F0.899
F0.006
I5
I65
tp78
sg9
F0.02927398681640625
sg10
I100
sg11
I0
sa(dp79
g7
g64
sg9
F6.375678062438965
sg10
I100
sg11
I100
sa(dp80
g7
g64
sg9
F12.654453039169312
sg10
I100
sg11
I200
sa(dp81
g7
(F0.055
F2.5
F0.106
I1
I2
tp82
sg9
F18.930176973342896
sg10
I100
sg11
I300
sa(dp83
g7
g64
sg9
F25.194694995880127
sg10
I100
sg11
I400
sa(dp84
g7
g64
sg9
F31.555969953536987
sg10
I100
sg11
I500
satp85
Rp86
(dp87
g25
I01
sg26
g31
sg32
(lp88
I3
aI5
aI30
aI9
asg34
I6
sg35
g36
(g3
tp89
Rp90
sbsS'IBEA'
p91
g2
(g3
g4
(lp92
(dp93
g7
(F0.084
F0.88
F0.101
I2
I3
tp94
sg9
F0.01703500747680664
sg10
I100
sg11
I0
sa(dp95
g7
(F0.113
F0.963
F0.118
I2
I4
tp96
sg9
F6.162208795547485
sg10
I100
sg11
I100
sa(dp97
g7
g64
sg9
F12.34758186340332
sg10
I100
sg11
I200
sa(dp98
g7
(F0.088
F2.407
F0.081
I1
I2
tp99
sg9
F18.537426948547363
sg10
I100
sg11
I300
sa(dp100
g7
g64
sg9
F24.720078945159912
sg10
I100
sg11
I400
sa(dp101
g7
(F0.037
F2.599
F0.099
I1
I1
tp102
sg9
F30.89860200881958
sg10
I100
sg11
I500
satp103
Rp104
(dp105
g25
I01
sg26
g31
sg32
(lp106
I3
aI5
aI30
aI9
asg34
I6
sg35
g36
(g3
tp107
Rp108
sbsS'NSGA2'
p109
g2
(g3
g4
(lp110
(dp111
g7
(F0.089
F0.828
F0.183
I3
I4
tp112
sg9
F0.015943050384521484
sg10
I100
sg11
I0
sa(dp113
g7
(F0.092
F2.312
F0.154
I1
I1
tp114
sg9
F5.645472049713135
sg10
I100
sg11
I100
sa(dp115
g7
(F0.093
F1.0
F0.145
I2
I2
tp116
sg9
F11.242624998092651
sg10
I100
sg11
I200
sa(dp117
g7
(F0.088
F2.407
F0.081
I1
I1
tp118
sg9
F16.91005802154541
sg10
I100
sg11
I300
sa(dp119
g7
(F0.098
F0.968
F0.094
I2
I2
tp120
sg9
F22.58522915840149
sg10
I100
sg11
I400
sa(dp121
g7
(F0.088
F2.407
F0.081
I1
I1
tp122
sg9
F28.271088123321533
sg10
I100
sg11
I500
satp123
Rp124
(dp125
g25
I01
sg26
g31
sg32
(lp126
I3
aI5
aI30
aI9
asg34
I6
sg35
g36
(g3
tp127
Rp128
sbsS'IBEA-SIP'
p129
g2
(g3
g4
(lp130
(dp131
g7
(F0.147
F0.884
F0.054
I10
I54
tp132
sg9
F0.017180919647216797
sg10
I100
sg11
I0
sa(dp133
g7
(F0.142
F0.814
F0.075
I9
I100
tp134
sg9
F5.608369827270508
sg10
I100
sg11
I100
sa(dp135
g7
(F0.152
F0.841
F0.076
I10
I100
tp136
sg9
F11.301934003829956
sg10
I100
sg11
I200
sa(dp137
g7
(F0.149
F0.946
F0.067
I10
I100
tp138
sg9
F17.013900995254517
sg10
I100
sg11
I300
sa(dp139
g7
(F0.143
F0.744
F0.082
I11
I100
tp140
sg9
F22.78395700454712
sg10
I100
sg11
I400
sa(dp141
g7
(F0.149
F0.816
F0.07
I8
I100
tp142
sg9
F28.459492921829224
sg10
I100
sg11
I500
satp143
Rp144
(dp145
g25
I01
sg26
g31
sg32
(lp146
I3
aI5
aI30
aI9
asg34
I6
sg35
g36
(g3
tp147
Rp148
sbs.