(dp0
S'NSGA2-SIP'
p1
ccopy_reg
_reconstructor
p2
(cdeap.tools.support
Logbook
p3
c__builtin__
list
p4
(lp5
(dp6
S'hv|spread|igd|frontier#|valid#'
p7
(F0.152
F0.7
F0.074
I11
I52
tp8
sS'timestamp'
p9
F0.016820907592773438
sS'evals'
p10
I100
sS'gen'
p11
I0
sa(dp12
g7
(F0.157
F0.904
F0.076
I13
I100
tp13
sg9
F2.282227039337158
sg10
I100
sg11
I100
sa(dp14
g7
(F0.157
F0.904
F0.076
I13
I100
tp15
sg9
F4.595761060714722
sg10
I100
sg11
I200
sa(dp16
g7
(F0.157
F0.81
F0.076
I13
I100
tp17
sg9
F6.899342060089111
sg10
I100
sg11
I300
sa(dp18
g7
(F0.157
F0.998
F0.076
I13
I100
tp19
sg9
F9.193651914596558
sg10
I100
sg11
I400
sa(dp20
g7
(F0.157
F0.815
F0.076
I13
I100
tp21
sg9
F11.517306089401245
sg10
I100
sg11
I500
satp22
Rp23
(dp24
S'log_header'
p25
I01
sS'header'
p26
(S'gen'
p27
S'evals'
p28
S'hv|spread|igd|frontier#|valid#'
p29
S'timestamp'
p30
tp31
sS'columns_len'
p32
(lp33
I3
aI5
aI30
aI9
asS'buffindex'
p34
I6
sS'chapters'
p35
ccollections
defaultdict
p36
(g3
tp37
Rp38
sbsS'SPEA2-SIP'
p39
g2
(g3
g4
(lp40
(dp41
g7
(F0.156
F0.754
F0.072
I13
I62
tp42
sg9
F0.01866602897644043
sg10
I100
sg11
I0
sa(dp43
g7
(F0.157
F0.947
F0.076
I13
I100
tp44
sg9
F158.08996891975403
sg10
I100
sg11
I100
sa(dp45
g7
(F0.157
F0.824
F0.076
I13
I100
tp46
sg9
F318.3386080265045
sg10
I100
sg11
I200
sa(dp47
g7
(F0.157
F0.99
F0.076
I13
I100
tp48
sg9
F478.34086084365845
sg10
I100
sg11
I300
sa(dp49
g7
(F0.157
F0.867
F0.076
I13
I100
tp50
sg9
F640.2817318439484
sg10
I100
sg11
I400
sa(dp51
g7
(F0.157
F0.808
F0.076
I13
I100
tp52
sg9
F800.9378538131714
sg10
I100
sg11
I500
satp53
Rp54
(dp55
g25
I01
sg26
g31
sg32
(lp56
I3
aI5
aI30
aI9
asg34
I6
sg35
g36
(g3
tp57
Rp58
sbsS'SPEA2'
p59
g2
(g3
g4
(lp60
(dp61
g7
(F0.084
F0.936
F0.105
I3
I5
tp62
sg9
F0.01696920394897461
sg10
I100
sg11
I0
sa(dp63
g7
(I0
I0
I0
I0
I0
tp64
sg9
F126.26169514656067
sg10
I100
sg11
I100
sa(dp65
g7
g64
sg9
F251.59352207183838
sg10
I100
sg11
I200
sa(dp66
g7
g64
sg9
F375.49802112579346
sg10
I100
sg11
I300
sa(dp67
g7
g64
sg9
F500.87922620773315
sg10
I100
sg11
I400
sa(dp68
g7
g64
sg9
F626.4013941287994
sg10
I100
sg11
I500
satp69
Rp70
(dp71
g25
I01
sg26
g31
sg32
(lp72
I3
aI5
aI30
aI9
asg34
I6
sg35
g36
(g3
tp73
Rp74
sbsS'IBEA'
p75
g2
(g3
g4
(lp76
(dp77
g7
(F0.058
F0.932
F0.127
I2
I2
tp78
sg9
F0.01748490333557129
sg10
I100
sg11
I0
sa(dp79
g7
(F0.11
F0.908
F0.127
I2
I2
tp80
sg9
F6.618546962738037
sg10
I100
sg11
I100
sa(dp81
g7
(F0.11
F0.908
F0.127
I2
I2
tp82
sg9
F13.282762050628662
sg10
I100
sg11
I200
sa(dp83
g7
(F0.037
F2.599
F0.099
I1
I1
tp84
sg9
F19.953119039535522
sg10
I100
sg11
I300
sa(dp85
g7
g64
sg9
F26.605910062789917
sg10
I100
sg11
I400
sa(dp86
g7
(F0.113
F0.963
F0.118
I2
I4
tp87
sg9
F33.25335907936096
sg10
I100
sg11
I500
satp88
Rp89
(dp90
g25
I01
sg26
g31
sg32
(lp91
I3
aI5
aI30
aI9
asg34
I6
sg35
g36
(g3
tp92
Rp93
sbsS'NSGA2'
p94
g2
(g3
g4
(lp95
(dp96
g7
(F0.077
F0.887
F0.134
I4
I6
tp97
sg9
F0.017915010452270508
sg10
I100
sg11
I0
sa(dp98
g7
g64
sg9
F5.91746711730957
sg10
I100
sg11
I100
sa(dp99
g7
g64
sg9
F11.982521057128906
sg10
I100
sg11
I200
sa(dp100
g7
g64
sg9
F18.046414136886597
sg10
I100
sg11
I300
sa(dp101
g7
g64
sg9
F24.077224016189575
sg10
I100
sg11
I400
sa(dp102
g7
g64
sg9
F30.026548147201538
sg10
I100
sg11
I500
satp103
Rp104
(dp105
g25
I01
sg26
g31
sg32
(lp106
I3
aI5
aI30
aI9
asg34
I6
sg35
g36
(g3
tp107
Rp108
sbsS'IBEA-SIP'
p109
g2
(g3
g4
(lp110
(dp111
g7
(F0.151
F0.653
F0.087
I11
I52
tp112
sg9
F0.017146825790405273
sg10
I100
sg11
I0
sa(dp113
g7
(F0.149
F0.912
F0.056
I10
I100
tp114
sg9
F5.999769926071167
sg10
I100
sg11
I100
sa(dp115
g7
(F0.156
F0.643
F0.091
I9
I100
tp116
sg9
F12.12490701675415
sg10
I100
sg11
I200
sa(dp117
g7
(F0.151
F0.944
F0.076
I10
I100
tp118
sg9
F18.25468683242798
sg10
I100
sg11
I300
sa(dp119
g7
(F0.142
F0.875
F0.08
I10
I100
tp120
sg9
F24.4426908493042
sg10
I100
sg11
I400
sa(dp121
g7
(F0.128
F1.011
F0.065
I9
I100
tp122
sg9
F30.522202968597412
sg10
I100
sg11
I500
satp123
Rp124
(dp125
g25
I01
sg26
g31
sg32
(lp126
I3
aI5
aI30
aI9
asg34
I6
sg35
g36
(g3
tp127
Rp128
sbs.