(dp0
S'NSGA2-SIP'
p1
ccopy_reg
_reconstructor
p2
(cdeap.tools.support
Logbook
p3
c__builtin__
list
p4
(lp5
(dp6
S'hv|spread|igd|frontier#|valid#'
p7
(F0.151
F0.785
F0.088
I12
I48
tp8
sS'timestamp'
p9
F0.017910003662109375
sS'evals'
p10
I100
sS'gen'
p11
I0
sa(dp12
g7
(F0.157
F0.904
F0.076
I13
I100
tp13
sg9
F2.4145619869232178
sg10
I100
sg11
I100
sa(dp14
g7
(F0.157
F0.998
F0.076
I13
I100
tp15
sg9
F4.819825887680054
sg10
I100
sg11
I200
sa(dp16
g7
(F0.157
F0.867
F0.076
I13
I100
tp17
sg9
F7.217489957809448
sg10
I100
sg11
I300
sa(dp18
g7
(F0.157
F0.81
F0.076
I13
I100
tp19
sg9
F9.554034948348999
sg10
I100
sg11
I400
sa(dp20
g7
(F0.157
F0.895
F0.076
I13
I100
tp21
sg9
F11.983928918838501
sg10
I100
sg11
I500
satp22
Rp23
(dp24
S'log_header'
p25
I01
sS'header'
p26
(S'gen'
p27
S'evals'
p28
S'hv|spread|igd|frontier#|valid#'
p29
S'timestamp'
p30
tp31
sS'columns_len'
p32
(lp33
I3
aI5
aI30
aI9
asS'buffindex'
p34
I6
sS'chapters'
p35
ccollections
defaultdict
p36
(g3
tp37
Rp38
sbsS'SPEA2-SIP'
p39
g2
(g3
g4
(lp40
(dp41
g7
(F0.157
F0.732
F0.082
I12
I54
tp42
sg9
F0.02536296844482422
sg10
I100
sg11
I0
sa(dp43
g7
(F0.157
F0.947
F0.076
I13
I100
tp44
sg9
F166.11115193367004
sg10
I100
sg11
I100
sa(dp45
g7
(F0.157
F0.734
F0.076
I13
I100
tp46
sg9
F334.1544008255005
sg10
I100
sg11
I200
sa(dp47
g7
(F0.157
F0.827
F0.076
I13
I100
tp48
sg9
F504.03214597702026
sg10
I100
sg11
I300
sa(dp49
g7
(F0.157
F0.817
F0.076
I13
I100
tp50
sg9
F672.8411889076233
sg10
I100
sg11
I400
sa(dp51
g7
(F0.157
F0.817
F0.076
I13
I100
tp52
sg9
F840.6206820011139
sg10
I100
sg11
I500
satp53
Rp54
(dp55
g25
I01
sg26
g31
sg32
(lp56
I3
aI5
aI30
aI9
asg34
I6
sg35
g36
(g3
tp57
Rp58
sbsS'SPEA2'
p59
g2
(g3
g4
(lp60
(dp61
g7
(F0.113
F0.825
F0.12
I3
I5
tp62
sg9
F0.018054962158203125
sg10
I100
sg11
I0
sa(dp63
g7
(I0
I0
I0
I0
I0
tp64
sg9
F130.216814994812
sg10
I100
sg11
I100
sa(dp65
g7
g64
sg9
F261.64516615867615
sg10
I100
sg11
I200
sa(dp66
g7
g64
sg9
F394.09499502182007
sg10
I100
sg11
I300
sa(dp67
g7
g64
sg9
F527.207592010498
sg10
I100
sg11
I400
sa(dp68
g7
g64
sg9
F658.4269671440125
sg10
I100
sg11
I500
satp69
Rp70
(dp71
g25
I01
sg26
g31
sg32
(lp72
I3
aI5
aI30
aI9
asg34
I6
sg35
g36
(g3
tp73
Rp74
sbsS'IBEA-PEN'
p75
g2
(g3
g4
(lp76
(dp77
g7
(F0.111
F0.9
F0.006
I5
I61
tp78
sg9
F0.03129386901855469
sg10
I100
sg11
I0
sa(dp79
g7
g64
sg9
F7.084991931915283
sg10
I100
sg11
I100
sa(dp80
g7
(F0.088
F2.407
F0.081
I1
I2
tp81
sg9
F14.176675796508789
sg10
I100
sg11
I200
sa(dp82
g7
g64
sg9
F21.249763011932373
sg10
I100
sg11
I300
sa(dp83
g7
g64
sg9
F28.32584500312805
sg10
I100
sg11
I400
sa(dp84
g7
g64
sg9
F35.40759897232056
sg10
I100
sg11
I500
satp85
Rp86
(dp87
g25
I01
sg26
g31
sg32
(lp88
I3
aI5
aI30
aI9
asg34
I6
sg35
g36
(g3
tp89
Rp90
sbsS'IBEA'
p91
g2
(g3
g4
(lp92
(dp93
g7
g64
sg9
F0.017935991287231445
sg10
I100
sg11
I0
sa(dp94
g7
(F0.051
F2.5
F0.106
I1
I1
tp95
sg9
F6.8624749183654785
sg10
I100
sg11
I100
sa(dp96
g7
(F0.103
F0.943
F0.096
I3
I4
tp97
sg9
F13.759644985198975
sg10
I100
sg11
I200
sa(dp98
g7
(F0.1
F0.94
F0.09
I2
I2
tp99
sg9
F20.68224811553955
sg10
I100
sg11
I300
sa(dp100
g7
(F0.059
F0.97
F0.103
I2
I2
tp101
sg9
F27.58380699157715
sg10
I100
sg11
I400
sa(dp102
g7
(F0.037
F2.599
F0.099
I1
I1
tp103
sg9
F34.49147295951843
sg10
I100
sg11
I500
satp104
Rp105
(dp106
g25
I01
sg26
g31
sg32
(lp107
I3
aI5
aI30
aI9
asg34
I6
sg35
g36
(g3
tp108
Rp109
sbsS'NSGA2'
p110
g2
(g3
g4
(lp111
(dp112
g7
(F0.118
F0.834
F0.1
I6
I8
tp113
sg9
F0.018908023834228516
sg10
I100
sg11
I0
sa(dp114
g7
g64
sg9
F6.26862096786499
sg10
I100
sg11
I100
sa(dp115
g7
g64
sg9
F12.584610939025879
sg10
I100
sg11
I200
sa(dp116
g7
g64
sg9
F18.932202100753784
sg10
I100
sg11
I300
sa(dp117
g7
(F0.037
F2.599
F0.099
I1
I1
tp118
sg9
F25.290673971176147
sg10
I100
sg11
I400
sa(dp119
g7
(F0.092
F2.312
F0.154
I1
I1
tp120
sg9
F31.56269907951355
sg10
I100
sg11
I500
satp121
Rp122
(dp123
g25
I01
sg26
g31
sg32
(lp124
I3
aI5
aI30
aI9
asg34
I6
sg35
g36
(g3
tp125
Rp126
sbsS'IBEA-SIP'
p127
g2
(g3
g4
(lp128
(dp129
g7
(F0.153
F0.794
F0.081
I12
I56
tp130
sg9
F0.01969003677368164
sg10
I100
sg11
I0
sa(dp131
g7
(F0.156
F0.628
F0.084
I11
I100
tp132
sg9
F6.268201112747192
sg10
I100
sg11
I100
sa(dp133
g7
(F0.157
F0.735
F0.09
I11
I100
tp134
sg9
F12.694918155670166
sg10
I100
sg11
I200
sa(dp135
g7
(F0.157
F0.804
F0.082
I12
I100
tp136
sg9
F19.108935117721558
sg10
I100
sg11
I300
sa(dp137
g7
(F0.152
F0.876
F0.079
I10
I100
tp138
sg9
F25.554267168045044
sg10
I100
sg11
I400
sa(dp139
g7
(F0.143
F0.848
F0.091
I10
I100
tp140
sg9
F31.999683141708374
sg10
I100
sg11
I500
satp141
Rp142
(dp143
g25
I01
sg26
g31
sg32
(lp144
I3
aI5
aI30
aI9
asg34
I6
sg35
g36
(g3
tp145
Rp146
sbs.