(dp0
S'NSGA2-SIP'
p1
ccopy_reg
_reconstructor
p2
(cdeap.tools.support
Logbook
p3
c__builtin__
list
p4
(lp5
(dp6
S'hv|spread|igd|frontier#|valid#'
p7
(F0.15
F0.688
F0.091
I12
I58
tp8
sS'timestamp'
p9
F0.015871047973632812
sS'evals'
p10
I100
sS'gen'
p11
I0
sa(dp12
g7
(F0.157
F0.837
F0.076
I13
I100
tp13
sg9
F2.074831008911133
sg10
I100
sg11
I100
sa(dp14
g7
(F0.157
F0.808
F0.076
I13
I100
tp15
sg9
F4.096127986907959
sg10
I100
sg11
I200
sa(dp16
g7
(F0.157
F0.998
F0.076
I13
I100
tp17
sg9
F6.106578826904297
sg10
I100
sg11
I300
sa(dp18
g7
(F0.157
F0.683
F0.076
I13
I100
tp19
sg9
F8.153648853302002
sg10
I100
sg11
I400
sa(dp20
g7
(F0.157
F0.809
F0.076
I13
I100
tp21
sg9
F10.184486865997314
sg10
I100
sg11
I500
satp22
Rp23
(dp24
S'log_header'
p25
I01
sS'header'
p26
(S'gen'
p27
S'evals'
p28
S'hv|spread|igd|frontier#|valid#'
p29
S'timestamp'
p30
tp31
sS'columns_len'
p32
(lp33
I3
aI5
aI30
aI9
asS'buffindex'
p34
I6
sS'chapters'
p35
ccollections
defaultdict
p36
(g3
tp37
Rp38
sbsS'SPEA2-SIP'
p39
g2
(g3
g4
(lp40
(dp41
g7
(F0.15
F0.582
F0.082
I11
I44
tp42
sg9
F0.015469074249267578
sg10
I100
sg11
I0
sa(dp43
g7
(F0.157
F0.734
F0.076
I13
I100
tp44
sg9
F144.36140203475952
sg10
I100
sg11
I100
sa(dp45
g7
(F0.157
F0.99
F0.076
I13
I100
tp46
sg9
F288.8226010799408
sg10
I100
sg11
I200
sa(dp47
g7
(F0.157
F0.642
F0.076
I13
I100
tp48
sg9
F436.303640127182
sg10
I100
sg11
I300
sa(dp49
g7
(F0.157
F0.726
F0.076
I13
I100
tp50
sg9
F582.1965479850769
sg10
I100
sg11
I400
sa(dp51
g7
(F0.157
F0.726
F0.076
I13
I100
tp52
sg9
F728.1867940425873
sg10
I100
sg11
I500
satp53
Rp54
(dp55
g25
I01
sg26
g31
sg32
(lp56
I3
aI5
aI30
aI9
asg34
I6
sg35
g36
(g3
tp57
Rp58
sbsS'SPEA2'
p59
g2
(g3
g4
(lp60
(dp61
g7
(F0.124
F0.898
F0.093
I5
I7
tp62
sg9
F0.015913009643554688
sg10
I100
sg11
I0
sa(dp63
g7
(I0
I0
I0
I0
I0
tp64
sg9
F110.7820839881897
sg10
I100
sg11
I100
sa(dp65
g7
g64
sg9
F225.9560968875885
sg10
I100
sg11
I200
sa(dp66
g7
g64
sg9
F338.96652698516846
sg10
I100
sg11
I300
sa(dp67
g7
g64
sg9
F454.39463782310486
sg10
I100
sg11
I400
sa(dp68
g7
g64
sg9
F569.8686118125916
sg10
I100
sg11
I500
satp69
Rp70
(dp71
g25
I01
sg26
g31
sg32
(lp72
I3
aI5
aI30
aI9
asg34
I6
sg35
g36
(g3
tp73
Rp74
sbsS'IBEA'
p75
g2
(g3
g4
(lp76
(dp77
g7
(F0.067
F0.966
F0.077
I2
I3
tp78
sg9
F0.015699148178100586
sg10
I100
sg11
I0
sa(dp79
g7
(F0.11
F0.88
F0.11
I2
I2
tp80
sg9
F5.9399330615997314
sg10
I100
sg11
I100
sa(dp81
g7
(F0.055
F2.5
F0.106
I1
I1
tp82
sg9
F11.990917921066284
sg10
I100
sg11
I200
sa(dp83
g7
g64
sg9
F17.947777032852173
sg10
I100
sg11
I300
sa(dp84
g7
(F0.1
F0.94
F0.09
I2
I3
tp85
sg9
F23.874903917312622
sg10
I100
sg11
I400
sa(dp86
g7
g64
sg9
F29.817251920700073
sg10
I100
sg11
I500
satp87
Rp88
(dp89
g25
I01
sg26
g31
sg32
(lp90
I3
aI5
aI30
aI9
asg34
I6
sg35
g36
(g3
tp91
Rp92
sbsS'NSGA2'
p93
g2
(g3
g4
(lp94
(dp95
g7
(F0.058
F0.968
F0.099
I2
I2
tp96
sg9
F0.015118837356567383
sg10
I100
sg11
I0
sa(dp97
g7
g64
sg9
F5.393935918807983
sg10
I100
sg11
I100
sa(dp98
g7
g64
sg9
F10.864035844802856
sg10
I100
sg11
I200
sa(dp99
g7
g64
sg9
F16.253541946411133
sg10
I100
sg11
I300
sa(dp100
g7
g64
sg9
F21.67251992225647
sg10
I100
sg11
I400
sa(dp101
g7
g64
sg9
F27.147644996643066
sg10
I100
sg11
I500
satp102
Rp103
(dp104
g25
I01
sg26
g31
sg32
(lp105
I3
aI5
aI30
aI9
asg34
I6
sg35
g36
(g3
tp106
Rp107
sbsS'IBEA-SIP'
p108
g2
(g3
g4
(lp109
(dp110
g7
(F0.153
F0.776
F0.079
I11
I61
tp111
sg9
F0.01576995849609375
sg10
I100
sg11
I0
sa(dp112
g7
(F0.153
F1.016
F0.084
I9
I100
tp113
sg9
F5.356398820877075
sg10
I100
sg11
I100
sa(dp114
g7
(F0.153
F0.854
F0.076
I10
I100
tp115
sg9
F10.807132005691528
sg10
I100
sg11
I200
sa(dp116
g7
(F0.14
F0.904
F0.081
I11
I100
tp117
sg9
F16.247028827667236
sg10
I100
sg11
I300
sa(dp118
g7
(F0.139
F0.782
F0.082
I11
I100
tp119
sg9
F21.669570922851562
sg10
I100
sg11
I400
sa(dp120
g7
(F0.137
F0.928
F0.053
I11
I100
tp121
sg9
F27.088786840438843
sg10
I100
sg11
I500
satp122
Rp123
(dp124
g25
I01
sg26
g31
sg32
(lp125
I3
aI5
aI30
aI9
asg34
I6
sg35
g36
(g3
tp126
Rp127
sbs.