(dp0
S'NSGA2-SIP'
p1
ccopy_reg
_reconstructor
p2
(cdeap.tools.support
Logbook
p3
c__builtin__
list
p4
(lp5
(dp6
S'hv|spread|igd|frontier#|valid#'
p7
(F0.156
F0.764
F0.089
I11
I56
tp8
sS'timestamp'
p9
F0.01669597625732422
sS'evals'
p10
I100
sS'gen'
p11
I0
sa(dp12
g7
(F0.157
F0.63
F0.076
I13
I100
tp13
sg9
F2.243191957473755
sg10
I100
sg11
I100
sa(dp14
g7
(F0.157
F0.933
F0.076
I13
I100
tp15
sg9
F4.566999912261963
sg10
I100
sg11
I200
sa(dp16
g7
(F0.157
F0.726
F0.076
I13
I100
tp17
sg9
F6.885159969329834
sg10
I100
sg11
I300
sa(dp18
g7
(F0.157
F0.808
F0.076
I13
I100
tp19
sg9
F9.21062183380127
sg10
I100
sg11
I400
sa(dp20
g7
(F0.157
F0.805
F0.076
I13
I100
tp21
sg9
F11.536232948303223
sg10
I100
sg11
I500
satp22
Rp23
(dp24
S'log_header'
p25
I01
sS'header'
p26
(S'gen'
p27
S'evals'
p28
S'hv|spread|igd|frontier#|valid#'
p29
S'timestamp'
p30
tp31
sS'columns_len'
p32
(lp33
I3
aI5
aI30
aI9
asS'buffindex'
p34
I6
sS'chapters'
p35
ccollections
defaultdict
p36
(g3
tp37
Rp38
sbsS'SPEA2-SIP'
p39
g2
(g3
g4
(lp40
(dp41
g7
(F0.153
F0.765
F0.08
I12
I46
tp42
sg9
F0.01660299301147461
sg10
I100
sg11
I0
sa(dp43
g7
(F0.157
F0.817
F0.076
I13
I100
tp44
sg9
F157.45739698410034
sg10
I100
sg11
I100
sa(dp45
g7
(F0.157
F0.817
F0.076
I13
I100
tp46
sg9
F317.41640305519104
sg10
I100
sg11
I200
sa(dp47
g7
(F0.157
F0.867
F0.076
I13
I100
tp48
sg9
F475.9665310382843
sg10
I100
sg11
I300
sa(dp49
g7
(F0.157
F0.827
F0.076
I13
I100
tp50
sg9
F633.1733269691467
sg10
I100
sg11
I400
sa(dp51
g7
(F0.157
F0.817
F0.076
I13
I100
tp52
sg9
F790.5509979724884
sg10
I100
sg11
I500
satp53
Rp54
(dp55
g25
I01
sg26
g31
sg32
(lp56
I3
aI5
aI30
aI9
asg34
I6
sg35
g36
(g3
tp57
Rp58
sbsS'SPEA2'
p59
g2
(g3
g4
(lp60
(dp61
g7
(F0.093
F1.0
F0.102
I3
I4
tp62
sg9
F0.01726698875427246
sg10
I100
sg11
I0
sa(dp63
g7
(I0
I0
I0
I0
I0
tp64
sg9
F126.95762205123901
sg10
I100
sg11
I100
sa(dp65
g7
g64
sg9
F253.1463360786438
sg10
I100
sg11
I200
sa(dp66
g7
g64
sg9
F379.3922669887543
sg10
I100
sg11
I300
sa(dp67
g7
g64
sg9
F504.8202600479126
sg10
I100
sg11
I400
sa(dp68
g7
g64
sg9
F627.8201169967651
sg10
I100
sg11
I500
satp69
Rp70
(dp71
g25
I01
sg26
g31
sg32
(lp72
I3
aI5
aI30
aI9
asg34
I6
sg35
g36
(g3
tp73
Rp74
sbsS'IBEA'
p75
g2
(g3
g4
(lp76
(dp77
g7
(F0.085
F0.902
F0.095
I2
I2
tp78
sg9
F0.0168759822845459
sg10
I100
sg11
I0
sa(dp79
g7
g64
sg9
F6.4880969524383545
sg10
I100
sg11
I100
sa(dp80
g7
(F0.088
F2.407
F0.081
I1
I1
tp81
sg9
F13.13278603553772
sg10
I100
sg11
I200
sa(dp82
g7
g64
sg9
F19.712650060653687
sg10
I100
sg11
I300
sa(dp83
g7
(F0.059
F0.97
F0.103
I2
I2
tp84
sg9
F26.246848106384277
sg10
I100
sg11
I400
sa(dp85
g7
g64
sg9
F32.79769802093506
sg10
I100
sg11
I500
satp86
Rp87
(dp88
g25
I01
sg26
g31
sg32
(lp89
I3
aI5
aI30
aI9
asg34
I6
sg35
g36
(g3
tp90
Rp91
sbsS'NSGA2'
p92
g2
(g3
g4
(lp93
(dp94
g7
(F0.067
F2.407
F0.0
I1
I2
tp95
sg9
F0.016888856887817383
sg10
I100
sg11
I0
sa(dp96
g7
g64
sg9
F6.035300970077515
sg10
I100
sg11
I100
sa(dp97
g7
g64
sg9
F11.991767883300781
sg10
I100
sg11
I200
sa(dp98
g7
g64
sg9
F17.999274969100952
sg10
I100
sg11
I300
sa(dp99
g7
(F0.092
F2.312
F0.154
I1
I1
tp100
sg9
F23.936702013015747
sg10
I100
sg11
I400
sa(dp101
g7
g64
sg9
F29.934653997421265
sg10
I100
sg11
I500
satp102
Rp103
(dp104
g25
I01
sg26
g31
sg32
(lp105
I3
aI5
aI30
aI9
asg34
I6
sg35
g36
(g3
tp106
Rp107
sbsS'IBEA-SIP'
p108
g2
(g3
g4
(lp109
(dp110
g7
(F0.156
F0.797
F0.078
I12
I61
tp111
sg9
F0.017299175262451172
sg10
I100
sg11
I0
sa(dp112
g7
(F0.156
F0.785
F0.099
I10
I100
tp113
sg9
F5.921343088150024
sg10
I100
sg11
I100
sa(dp114
g7
(F0.157
F0.914
F0.08
I11
I100
tp115
sg9
F11.928161144256592
sg10
I100
sg11
I200
sa(dp116
g7
(F0.149
F0.85
F0.051
I11
I100
tp117
sg9
F17.912955045700073
sg10
I100
sg11
I300
sa(dp118
g7
(F0.148
F0.921
F0.06
I10
I100
tp119
sg9
F23.894626140594482
sg10
I100
sg11
I400
sa(dp120
g7
(F0.136
F0.795
F0.089
I9
I100
tp121
sg9
F29.904864072799683
sg10
I100
sg11
I500
satp122
Rp123
(dp124
g25
I01
sg26
g31
sg32
(lp125
I3
aI5
aI30
aI9
asg34
I6
sg35
g36
(g3
tp126
Rp127
sbs.