(dp0
S'NSGA2-SIP'
p1
ccopy_reg
_reconstructor
p2
(cdeap.tools.support
Logbook
p3
c__builtin__
list
p4
(lp5
(dp6
S'hv|spread|igd|frontier#|valid#'
p7
(F0.147
F0.936
F0.054
I10
I47
tp8
sS'timestamp'
p9
F0.015372991561889648
sS'evals'
p10
I100
sS'gen'
p11
I0
sa(dp12
g7
(F0.157
F0.834
F0.076
I13
I100
tp13
sg9
F2.186824083328247
sg10
I100
sg11
I100
sa(dp14
g7
(F0.157
F0.81
F0.076
I13
I100
tp15
sg9
F4.370595216751099
sg10
I100
sg11
I200
sa(dp16
g7
(F0.157
F0.99
F0.076
I13
I100
tp17
sg9
F6.519153118133545
sg10
I100
sg11
I300
sa(dp18
g7
(F0.157
F0.805
F0.076
I13
I100
tp19
sg9
F8.78289008140564
sg10
I100
sg11
I400
sa(dp20
g7
(F0.157
F0.726
F0.076
I13
I100
tp21
sg9
F11.052443027496338
sg10
I100
sg11
I500
satp22
Rp23
(dp24
S'log_header'
p25
I01
sS'header'
p26
(S'gen'
p27
S'evals'
p28
S'hv|spread|igd|frontier#|valid#'
p29
S'timestamp'
p30
tp31
sS'columns_len'
p32
(lp33
I3
aI5
aI30
aI9
asS'buffindex'
p34
I6
sS'chapters'
p35
ccollections
defaultdict
p36
(g3
tp37
Rp38
sbsS'SPEA2-SIP'
p39
g2
(g3
g4
(lp40
(dp41
g7
(F0.149
F0.836
F0.077
I12
I51
tp42
sg9
F0.016436100006103516
sg10
I100
sg11
I0
sa(dp43
g7
(F0.157
F0.86
F0.076
I13
I100
tp44
sg9
F149.5200650691986
sg10
I100
sg11
I100
sa(dp45
g7
(F0.157
F0.726
F0.076
I13
I100
tp46
sg9
F302.8032319545746
sg10
I100
sg11
I200
sa(dp47
g7
(F0.157
F0.904
F0.076
I13
I100
tp48
sg9
F448.83154296875
sg10
I100
sg11
I300
sa(dp49
g7
(F0.157
F0.63
F0.076
I13
I100
tp50
sg9
F600.5175669193268
sg10
I100
sg11
I400
sa(dp51
g7
(F0.157
F0.808
F0.076
I13
I100
tp52
sg9
F749.0683529376984
sg10
I100
sg11
I500
satp53
Rp54
(dp55
g25
I01
sg26
g31
sg32
(lp56
I3
aI5
aI30
aI9
asg34
I6
sg35
g36
(g3
tp57
Rp58
sbsS'SPEA2'
p59
g2
(g3
g4
(lp60
(dp61
g7
(F0.115
F0.842
F0.141
I4
I7
tp62
sg9
F0.016310930252075195
sg10
I100
sg11
I0
sa(dp63
g7
(I0
I0
I0
I0
I0
tp64
sg9
F118.03451108932495
sg10
I100
sg11
I100
sa(dp65
g7
g64
sg9
F237.7366020679474
sg10
I100
sg11
I200
sa(dp66
g7
g64
sg9
F355.51728892326355
sg10
I100
sg11
I300
sa(dp67
g7
g64
sg9
F475.0707530975342
sg10
I100
sg11
I400
sa(dp68
g7
g64
sg9
F596.4742550849915
sg10
I100
sg11
I500
satp69
Rp70
(dp71
g25
I01
sg26
g31
sg32
(lp72
I3
aI5
aI30
aI9
asg34
I6
sg35
g36
(g3
tp73
Rp74
sbsS'IBEA'
p75
g2
(g3
g4
(lp76
(dp77
g7
(F0.075
F0.939
F0.136
I3
I3
tp78
sg9
F0.015758991241455078
sg10
I100
sg11
I0
sa(dp79
g7
(F0.061
F0.97
F0.103
I2
I2
tp80
sg9
F5.966135025024414
sg10
I100
sg11
I100
sa(dp81
g7
(F0.037
F2.599
F0.099
I1
I3
tp82
sg9
F12.047652006149292
sg10
I100
sg11
I200
sa(dp83
g7
(F0.113
F0.963
F0.118
I2
I2
tp84
sg9
F18.131983995437622
sg10
I100
sg11
I300
sa(dp85
g7
(F0.125
F0.884
F0.112
I3
I6
tp86
sg9
F24.21132206916809
sg10
I100
sg11
I400
sa(dp87
g7
(F0.037
F2.599
F0.099
I1
I3
tp88
sg9
F30.290147066116333
sg10
I100
sg11
I500
satp89
Rp90
(dp91
g25
I01
sg26
g31
sg32
(lp92
I3
aI5
aI30
aI9
asg34
I6
sg35
g36
(g3
tp93
Rp94
sbsS'NSGA2'
p95
g2
(g3
g4
(lp96
(dp97
g7
(F0.105
F0.915
F0.149
I4
I8
tp98
sg9
F0.017094850540161133
sg10
I100
sg11
I0
sa(dp99
g7
(F0.092
F2.312
F0.154
I1
I1
tp100
sg9
F5.754511833190918
sg10
I100
sg11
I100
sa(dp101
g7
g64
sg9
F11.456776857376099
sg10
I100
sg11
I200
sa(dp102
g7
(F0.088
F2.407
F0.081
I1
I1
tp103
sg9
F17.12409281730652
sg10
I100
sg11
I300
sa(dp104
g7
(F0.092
F2.312
F0.154
I1
I1
tp105
sg9
F22.87874484062195
sg10
I100
sg11
I400
sa(dp106
g7
g64
sg9
F28.67374587059021
sg10
I100
sg11
I500
satp107
Rp108
(dp109
g25
I01
sg26
g31
sg32
(lp110
I3
aI5
aI30
aI9
asg34
I6
sg35
g36
(g3
tp111
Rp112
sbsS'IBEA-SIP'
p113
g2
(g3
g4
(lp114
(dp115
g7
(F0.149
F0.814
F0.079
I13
I59
tp116
sg9
F0.016358137130737305
sg10
I100
sg11
I0
sa(dp117
g7
(F0.153
F0.849
F0.076
I10
I100
tp118
sg9
F5.472399950027466
sg10
I100
sg11
I100
sa(dp119
g7
(F0.147
F0.832
F0.091
I10
I100
tp120
sg9
F11.338587045669556
sg10
I100
sg11
I200
sa(dp121
g7
(F0.149
F0.859
F0.06
I10
I100
tp122
sg9
F17.21012806892395
sg10
I100
sg11
I300
sa(dp123
g7
(F0.156
F0.755
F0.08
I11
I100
tp124
sg9
F23.063518047332764
sg10
I100
sg11
I400
sa(dp125
g7
(F0.143
F0.832
F0.091
I10
I100
tp126
sg9
F28.921926021575928
sg10
I100
sg11
I500
satp127
Rp128
(dp129
g25
I01
sg26
g31
sg32
(lp130
I3
aI5
aI30
aI9
asg34
I6
sg35
g36
(g3
tp131
Rp132
sbs.