(dp0
S'NSGA2-SIP'
p1
ccopy_reg
_reconstructor
p2
(cdeap.tools.support
Logbook
p3
c__builtin__
list
p4
(lp5
(dp6
S'hv|spread|igd|frontier#|valid#'
p7
(F0.157
F0.692
F0.082
I12
I60
tp8
sS'timestamp'
p9
F0.01592707633972168
sS'evals'
p10
I100
sS'gen'
p11
I0
sa(dp12
g7
(F0.157
F0.734
F0.076
I13
I100
tp13
sg9
F2.0610129833221436
sg10
I100
sg11
I100
sa(dp14
g7
(F0.157
F0.805
F0.076
I13
I100
tp15
sg9
F4.104712009429932
sg10
I100
sg11
I200
sa(dp16
g7
(F0.157
F0.895
F0.076
I13
I100
tp17
sg9
F6.164858102798462
sg10
I100
sg11
I300
sa(dp18
g7
(F0.157
F0.827
F0.076
I13
I100
tp19
sg9
F8.2813241481781
sg10
I100
sg11
I400
sa(dp20
g7
(F0.157
F0.827
F0.076
I13
I100
tp21
sg9
F10.41216516494751
sg10
I100
sg11
I500
satp22
Rp23
(dp24
S'log_header'
p25
I01
sS'header'
p26
(S'gen'
p27
S'evals'
p28
S'hv|spread|igd|frontier#|valid#'
p29
S'timestamp'
p30
tp31
sS'columns_len'
p32
(lp33
I3
aI5
aI30
aI9
asS'buffindex'
p34
I6
sS'chapters'
p35
ccollections
defaultdict
p36
(g3
tp37
Rp38
sbsS'SPEA2-SIP'
p39
g2
(g3
g4
(lp40
(dp41
g7
(F0.156
F0.6
F0.09
I12
I57
tp42
sg9
F0.015867948532104492
sg10
I100
sg11
I0
sa(dp43
g7
(F0.157
F0.895
F0.076
I13
I100
tp44
sg9
F146.1139690876007
sg10
I100
sg11
I100
sa(dp45
g7
(F0.157
F0.998
F0.076
I13
I100
tp46
sg9
F288.6421000957489
sg10
I100
sg11
I200
sa(dp47
g7
(F0.157
F0.805
F0.076
I13
I100
tp48
sg9
F428.8456630706787
sg10
I100
sg11
I300
sa(dp49
g7
(F0.157
F0.817
F0.076
I13
I100
tp50
sg9
F572.1837680339813
sg10
I100
sg11
I400
sa(dp51
g7
(F0.157
F0.734
F0.076
I13
I100
tp52
sg9
F714.7045760154724
sg10
I100
sg11
I500
satp53
Rp54
(dp55
g25
I01
sg26
g31
sg32
(lp56
I3
aI5
aI30
aI9
asg34
I6
sg35
g36
(g3
tp57
Rp58
sbsS'SPEA2'
p59
g2
(g3
g4
(lp60
(dp61
g7
(F0.084
F0.886
F0.125
I3
I3
tp62
sg9
F0.01531982421875
sg10
I100
sg11
I0
sa(dp63
g7
(I0
I0
I0
I0
I0
tp64
sg9
F108.4632179737091
sg10
I100
sg11
I100
sa(dp65
g7
g64
sg9
F220.50562286376953
sg10
I100
sg11
I200
sa(dp66
g7
g64
sg9
F333.87840700149536
sg10
I100
sg11
I300
sa(dp67
g7
g64
sg9
F445.4377110004425
sg10
I100
sg11
I400
sa(dp68
g7
g64
sg9
F556.1320509910583
sg10
I100
sg11
I500
satp69
Rp70
(dp71
g25
I01
sg26
g31
sg32
(lp72
I3
aI5
aI30
aI9
asg34
I6
sg35
g36
(g3
tp73
Rp74
sbsS'IBEA'
p75
g2
(g3
g4
(lp76
(dp77
g7
(F0.107
F0.958
F0.103
I6
I6
tp78
sg9
F0.01607203483581543
sg10
I100
sg11
I0
sa(dp79
g7
(F0.1
F0.94
F0.09
I2
I3
tp80
sg9
F5.868623971939087
sg10
I100
sg11
I100
sa(dp81
g7
(F0.1
F0.94
F0.09
I2
I4
tp82
sg9
F11.867118835449219
sg10
I100
sg11
I200
sa(dp83
g7
g64
sg9
F17.862449884414673
sg10
I100
sg11
I300
sa(dp84
g7
g64
sg9
F23.80786895751953
sg10
I100
sg11
I400
sa(dp85
g7
(F0.091
F0.968
F0.093
I2
I3
tp86
sg9
F29.711573839187622
sg10
I100
sg11
I500
satp87
Rp88
(dp89
g25
I01
sg26
g31
sg32
(lp90
I3
aI5
aI30
aI9
asg34
I6
sg35
g36
(g3
tp91
Rp92
sbsS'NSGA2'
p93
g2
(g3
g4
(lp94
(dp95
g7
(F0.101
F0.711
F0.092
I4
I4
tp96
sg9
F0.015465021133422852
sg10
I100
sg11
I0
sa(dp97
g7
(F0.088
F2.407
F0.081
I1
I1
tp98
sg9
F5.283076047897339
sg10
I100
sg11
I100
sa(dp99
g7
g64
sg9
F10.613402128219604
sg10
I100
sg11
I200
sa(dp100
g7
g64
sg9
F15.994800090789795
sg10
I100
sg11
I300
sa(dp101
g7
(F0.088
F2.407
F0.081
I1
I1
tp102
sg9
F21.358659982681274
sg10
I100
sg11
I400
sa(dp103
g7
g64
sg9
F26.759101152420044
sg10
I100
sg11
I500
satp104
Rp105
(dp106
g25
I01
sg26
g31
sg32
(lp107
I3
aI5
aI30
aI9
asg34
I6
sg35
g36
(g3
tp108
Rp109
sbsS'IBEA-SIP'
p110
g2
(g3
g4
(lp111
(dp112
g7
(F0.157
F0.692
F0.082
I12
I56
tp113
sg9
F0.015579938888549805
sg10
I100
sg11
I0
sa(dp114
g7
(F0.149
F0.705
F0.076
I11
I100
tp115
sg9
F5.421683073043823
sg10
I100
sg11
I100
sa(dp116
g7
(F0.141
F0.896
F0.092
I8
I100
tp117
sg9
F10.854974031448364
sg10
I100
sg11
I200
sa(dp118
g7
(F0.157
F0.787
F0.093
I11
I100
tp119
sg9
F16.316669940948486
sg10
I100
sg11
I300
sa(dp120
g7
(F0.156
F0.801
F0.085
I11
I100
tp121
sg9
F21.81193208694458
sg10
I100
sg11
I400
sa(dp122
g7
(F0.15
F0.935
F0.056
I12
I100
tp123
sg9
F27.301756143569946
sg10
I100
sg11
I500
satp124
Rp125
(dp126
g25
I01
sg26
g31
sg32
(lp127
I3
aI5
aI30
aI9
asg34
I6
sg35
g36
(g3
tp128
Rp129
sbs.