(dp0
S'NSGA2-SIP'
p1
ccopy_reg
_reconstructor
p2
(cdeap.tools.support
Logbook
p3
c__builtin__
list
p4
(lp5
(dp6
S'hv|spread|igd|frontier#|valid#'
p7
(F0.157
F0.766
F0.082
I12
I56
tp8
sS'timestamp'
p9
F0.017449140548706055
sS'evals'
p10
I100
sS'gen'
p11
I0
sa(dp12
g7
(F0.157
F0.734
F0.076
I13
I100
tp13
sg9
F2.2859790325164795
sg10
I100
sg11
I100
sa(dp14
g7
(F0.157
F0.837
F0.076
I13
I100
tp15
sg9
F4.576492071151733
sg10
I100
sg11
I200
sa(dp16
g7
(F0.157
F0.99
F0.076
I13
I100
tp17
sg9
F6.821735143661499
sg10
I100
sg11
I300
sa(dp18
g7
(F0.157
F0.81
F0.076
I13
I100
tp19
sg9
F9.098598957061768
sg10
I100
sg11
I400
sa(dp20
g7
(F0.157
F0.827
F0.076
I13
I100
tp21
sg9
F11.397159099578857
sg10
I100
sg11
I500
satp22
Rp23
(dp24
S'log_header'
p25
I01
sS'header'
p26
(S'gen'
p27
S'evals'
p28
S'hv|spread|igd|frontier#|valid#'
p29
S'timestamp'
p30
tp31
sS'columns_len'
p32
(lp33
I3
aI5
aI30
aI9
asS'buffindex'
p34
I6
sS'chapters'
p35
ccollections
defaultdict
p36
(g3
tp37
Rp38
sbsS'SPEA2-SIP'
p39
g2
(g3
g4
(lp40
(dp41
g7
(F0.157
F0.818
F0.09
I11
I55
tp42
sg9
F0.016870975494384766
sg10
I100
sg11
I0
sa(dp43
g7
(F0.157
F0.933
F0.076
I13
I100
tp44
sg9
F154.703204870224
sg10
I100
sg11
I100
sa(dp45
g7
(F0.157
F0.827
F0.076
I13
I100
tp46
sg9
F313.2083568572998
sg10
I100
sg11
I200
sa(dp47
g7
(F0.157
F0.834
F0.076
I13
I100
tp48
sg9
F473.43782687187195
sg10
I100
sg11
I300
sa(dp49
g7
(F0.157
F0.726
F0.076
I13
I100
tp50
sg9
F634.5376918315887
sg10
I100
sg11
I400
sa(dp51
g7
(F0.157
F0.726
F0.076
I13
I100
tp52
sg9
F795.1421399116516
sg10
I100
sg11
I500
satp53
Rp54
(dp55
g25
I01
sg26
g31
sg32
(lp56
I3
aI5
aI30
aI9
asg34
I6
sg35
g36
(g3
tp57
Rp58
sbsS'SPEA2'
p59
g2
(g3
g4
(lp60
(dp61
g7
(F0.079
F0.932
F0.143
I2
I3
tp62
sg9
F0.016737937927246094
sg10
I100
sg11
I0
sa(dp63
g7
(I0
I0
I0
I0
I0
tp64
sg9
F123.71106815338135
sg10
I100
sg11
I100
sa(dp65
g7
g64
sg9
F246.71427392959595
sg10
I100
sg11
I200
sa(dp66
g7
g64
sg9
F371.77481508255005
sg10
I100
sg11
I300
sa(dp67
g7
(F0.087
F2.236
F0.121
I1
I1
tp68
sg9
F498.0156409740448
sg10
I100
sg11
I400
sa(dp69
g7
g64
sg9
F624.0273540019989
sg10
I100
sg11
I500
satp70
Rp71
(dp72
g25
I01
sg26
g31
sg32
(lp73
I3
aI5
aI30
aI9
asg34
I6
sg35
g36
(g3
tp74
Rp75
sbsS'IBEA'
p76
g2
(g3
g4
(lp77
(dp78
g7
(F0.076
F0.933
F0.111
I3
I3
tp79
sg9
F0.01708388328552246
sg10
I100
sg11
I0
sa(dp80
g7
(F0.059
F0.97
F0.103
I2
I2
tp81
sg9
F6.662178039550781
sg10
I100
sg11
I100
sa(dp82
g7
g64
sg9
F13.455461978912354
sg10
I100
sg11
I200
sa(dp83
g7
(F0.113
F0.963
F0.118
I2
I5
tp84
sg9
F20.244098901748657
sg10
I100
sg11
I300
sa(dp85
g7
g64
sg9
F27.043102025985718
sg10
I100
sg11
I400
sa(dp86
g7
g64
sg9
F33.817370891571045
sg10
I100
sg11
I500
satp87
Rp88
(dp89
g25
I01
sg26
g31
sg32
(lp90
I3
aI5
aI30
aI9
asg34
I6
sg35
g36
(g3
tp91
Rp92
sbsS'NSGA2'
p93
g2
(g3
g4
(lp94
(dp95
g7
(F0.106
F0.981
F0.082
I4
I7
tp96
sg9
F0.017554044723510742
sg10
I100
sg11
I0
sa(dp97
g7
g64
sg9
F6.015748023986816
sg10
I100
sg11
I100
sa(dp98
g7
g64
sg9
F12.014168977737427
sg10
I100
sg11
I200
sa(dp99
g7
g64
sg9
F18.041243076324463
sg10
I100
sg11
I300
sa(dp100
g7
g64
sg9
F24.088613033294678
sg10
I100
sg11
I400
sa(dp101
g7
(F0.092
F2.312
F0.154
I1
I1
tp102
sg9
F30.098588943481445
sg10
I100
sg11
I500
satp103
Rp104
(dp105
g25
I01
sg26
g31
sg32
(lp106
I3
aI5
aI30
aI9
asg34
I6
sg35
g36
(g3
tp107
Rp108
sbsS'IBEA-SIP'
p109
g2
(g3
g4
(lp110
(dp111
g7
(F0.143
F0.771
F0.093
I12
I56
tp112
sg9
F0.017182111740112305
sg10
I100
sg11
I0
sa(dp113
g7
(F0.147
F0.712
F0.091
I10
I100
tp114
sg9
F6.014852046966553
sg10
I100
sg11
I100
sa(dp115
g7
(F0.157
F0.914
F0.082
I12
I100
tp116
sg9
F12.188583135604858
sg10
I100
sg11
I200
sa(dp117
g7
(F0.157
F0.753
F0.08
I11
I100
tp118
sg9
F18.362425088882446
sg10
I100
sg11
I300
sa(dp119
g7
(F0.149
F0.693
F0.065
I9
I100
tp120
sg9
F24.49514102935791
sg10
I100
sg11
I400
sa(dp121
g7
(F0.156
F0.916
F0.092
I10
I100
tp122
sg9
F30.629974126815796
sg10
I100
sg11
I500
satp123
Rp124
(dp125
g25
I01
sg26
g31
sg32
(lp126
I3
aI5
aI30
aI9
asg34
I6
sg35
g36
(g3
tp127
Rp128
sbs.