(dp0
S'NSGA2-SIP'
p1
ccopy_reg
_reconstructor
p2
(cdeap.tools.support
Logbook
p3
c__builtin__
list
p4
(lp5
(dp6
S'hv|spread|igd|frontier#|valid#'
p7
(F0.151
F0.799
F0.082
I12
I60
tp8
sS'timestamp'
p9
F0.01805591583251953
sS'evals'
p10
I100
sS'gen'
p11
I0
sa(dp12
g7
(F0.157
F0.805
F0.076
I13
I100
tp13
sg9
F2.375983953475952
sg10
I100
sg11
I100
sa(dp14
g7
(F0.157
F0.726
F0.076
I13
I100
tp15
sg9
F4.833760023117065
sg10
I100
sg11
I200
sa(dp16
g7
(F0.157
F0.895
F0.076
I13
I100
tp17
sg9
F7.287330865859985
sg10
I100
sg11
I300
sa(dp18
g7
(F0.157
F0.726
F0.076
I13
I100
tp19
sg9
F9.735660076141357
sg10
I100
sg11
I400
sa(dp20
g7
(F0.157
F0.86
F0.076
I13
I100
tp21
sg9
F12.18466591835022
sg10
I100
sg11
I500
satp22
Rp23
(dp24
S'log_header'
p25
I01
sS'header'
p26
(S'gen'
p27
S'evals'
p28
S'hv|spread|igd|frontier#|valid#'
p29
S'timestamp'
p30
tp31
sS'columns_len'
p32
(lp33
I3
aI5
aI30
aI9
asS'buffindex'
p34
I6
sS'chapters'
p35
ccollections
defaultdict
p36
(g3
tp37
Rp38
sbsS'SPEA2-SIP'
p39
g2
(g3
g4
(lp40
(dp41
g7
(F0.15
F0.552
F0.088
I12
I58
tp42
sg9
F0.018527984619140625
sg10
I100
sg11
I0
sa(dp43
g7
(F0.157
F0.933
F0.076
I13
I100
tp44
sg9
F164.52085399627686
sg10
I100
sg11
I100
sa(dp45
g7
(F0.157
F0.808
F0.076
I13
I100
tp46
sg9
F336.0482220649719
sg10
I100
sg11
I200
sa(dp47
g7
(F0.157
F0.827
F0.076
I13
I100
tp48
sg9
F507.1354298591614
sg10
I100
sg11
I300
sa(dp49
g7
(F0.157
F0.734
F0.076
I13
I100
tp50
sg9
F676.7240509986877
sg10
I100
sg11
I400
sa(dp51
g7
(F0.157
F0.933
F0.076
I13
I100
tp52
sg9
F845.7076110839844
sg10
I100
sg11
I500
satp53
Rp54
(dp55
g25
I01
sg26
g31
sg32
(lp56
I3
aI5
aI30
aI9
asg34
I6
sg35
g36
(g3
tp57
Rp58
sbsS'SPEA2'
p59
g2
(g3
g4
(lp60
(dp61
g7
(F0.11
F0.793
F0.109
I5
I6
tp62
sg9
F0.018097877502441406
sg10
I100
sg11
I0
sa(dp63
g7
(I0
I0
I0
I0
I0
tp64
sg9
F128.2897298336029
sg10
I100
sg11
I100
sa(dp65
g7
g64
sg9
F259.4751420021057
sg10
I100
sg11
I200
sa(dp66
g7
g64
sg9
F392.7028708457947
sg10
I100
sg11
I300
sa(dp67
g7
g64
sg9
F524.6326258182526
sg10
I100
sg11
I400
sa(dp68
g7
g64
sg9
F654.4663460254669
sg10
I100
sg11
I500
satp69
Rp70
(dp71
g25
I01
sg26
g31
sg32
(lp72
I3
aI5
aI30
aI9
asg34
I6
sg35
g36
(g3
tp73
Rp74
sbsS'IBEA-PEN'
p75
g2
(g3
g4
(lp76
(dp77
g7
(F0.112
F0.921
F0.033
I6
I66
tp78
sg9
F0.032570838928222656
sg10
I100
sg11
I0
sa(dp79
g7
(F0.145
F0.982
F0.048
I9
I64
tp80
sg9
F7.025864839553833
sg10
I100
sg11
I100
sa(dp81
g7
(F0.144
F0.836
F0.077
I10
I54
tp82
sg9
F14.124449014663696
sg10
I100
sg11
I200
sa(dp83
g7
(F0.135
F0.832
F0.084
I8
I57
tp84
sg9
F21.159126043319702
sg10
I100
sg11
I300
sa(dp85
g7
(F0.148
F0.845
F0.075
I8
I46
tp86
sg9
F28.193383932113647
sg10
I100
sg11
I400
sa(dp87
g7
(F0.144
F0.898
F0.046
I8
I52
tp88
sg9
F35.23702096939087
sg10
I100
sg11
I500
satp89
Rp90
(dp91
g25
I01
sg26
g31
sg32
(lp92
I3
aI5
aI30
aI9
asg34
I6
sg35
g36
(g3
tp93
Rp94
sbsS'IBEA'
p95
g2
(g3
g4
(lp96
(dp97
g7
(F0.08
F0.971
F0.111
I4
I6
tp98
sg9
F0.018232107162475586
sg10
I100
sg11
I0
sa(dp99
g7
g64
sg9
F6.873883008956909
sg10
I100
sg11
I100
sa(dp100
g7
g64
sg9
F13.887099027633667
sg10
I100
sg11
I200
sa(dp101
g7
(F0.088
F2.407
F0.081
I1
I1
tp102
sg9
F20.775047063827515
sg10
I100
sg11
I300
sa(dp103
g7
(F0.106
F0.971
F0.098
I4
I4
tp104
sg9
F27.66547703742981
sg10
I100
sg11
I400
sa(dp105
g7
(F0.104
F0.943
F0.096
I3
I4
tp106
sg9
F34.56319713592529
sg10
I100
sg11
I500
satp107
Rp108
(dp109
g25
I01
sg26
g31
sg32
(lp110
I3
aI5
aI30
aI9
asg34
I6
sg35
g36
(g3
tp111
Rp112
sbsS'NSGA2'
p113
g2
(g3
g4
(lp114
(dp115
g7
(F0.088
F0.889
F0.166
I4
I4
tp116
sg9
F0.017939090728759766
sg10
I100
sg11
I0
sa(dp117
g7
g64
sg9
F6.303811073303223
sg10
I100
sg11
I100
sa(dp118
g7
g64
sg9
F12.582860946655273
sg10
I100
sg11
I200
sa(dp119
g7
(F0.092
F2.312
F0.154
I1
I1
tp120
sg9
F18.883360147476196
sg10
I100
sg11
I300
sa(dp121
g7
g64
sg9
F25.164963006973267
sg10
I100
sg11
I400
sa(dp122
g7
g64
sg9
F31.420796155929565
sg10
I100
sg11
I500
satp123
Rp124
(dp125
g25
I01
sg26
g31
sg32
(lp126
I3
aI5
aI30
aI9
asg34
I6
sg35
g36
(g3
tp127
Rp128
sbsS'IBEA-SIP'
p129
g2
(g3
g4
(lp130
(dp131
g7
(F0.15
F0.743
F0.086
I13
I63
tp132
sg9
F0.01871490478515625
sg10
I100
sg11
I0
sa(dp133
g7
(F0.151
F1.046
F0.076
I10
I100
tp134
sg9
F6.294365882873535
sg10
I100
sg11
I100
sa(dp135
g7
(F0.143
F0.721
F0.082
I11
I100
tp136
sg9
F12.696477890014648
sg10
I100
sg11
I200
sa(dp137
g7
(F0.156
F0.698
F0.092
I10
I100
tp138
sg9
F19.028823852539062
sg10
I100
sg11
I300
sa(dp139
g7
(F0.154
F0.985
F0.086
I10
I100
tp140
sg9
F25.344092845916748
sg10
I100
sg11
I400
sa(dp141
g7
(F0.157
F0.737
F0.089
I10
I100
tp142
sg9
F31.66861081123352
sg10
I100
sg11
I500
satp143
Rp144
(dp145
g25
I01
sg26
g31
sg32
(lp146
I3
aI5
aI30
aI9
asg34
I6
sg35
g36
(g3
tp147
Rp148
sbs.