(dp0
S'NSGA2-SIP'
p1
ccopy_reg
_reconstructor
p2
(cdeap.tools.support
Logbook
p3
c__builtin__
list
p4
(lp5
(dp6
S'hv|spread|igd|frontier#|valid#'
p7
(F0.148
F0.875
F0.046
I10
I53
tp8
sS'timestamp'
p9
F0.015188932418823242
sS'evals'
p10
I100
sS'gen'
p11
I0
sa(dp12
g7
(F0.157
F0.895
F0.076
I13
I100
tp13
sg9
F2.0706849098205566
sg10
I100
sg11
I100
sa(dp14
g7
(F0.157
F0.734
F0.076
I13
I100
tp15
sg9
F4.126327991485596
sg10
I100
sg11
I200
sa(dp16
g7
(F0.157
F0.904
F0.076
I13
I100
tp17
sg9
F6.198441028594971
sg10
I100
sg11
I300
sa(dp18
g7
(F0.157
F0.827
F0.076
I13
I100
tp19
sg9
F8.25310492515564
sg10
I100
sg11
I400
sa(dp20
g7
(F0.157
F0.734
F0.076
I13
I100
tp21
sg9
F10.317419052124023
sg10
I100
sg11
I500
satp22
Rp23
(dp24
S'log_header'
p25
I01
sS'header'
p26
(S'gen'
p27
S'evals'
p28
S'hv|spread|igd|frontier#|valid#'
p29
S'timestamp'
p30
tp31
sS'columns_len'
p32
(lp33
I3
aI5
aI30
aI9
asS'buffindex'
p34
I6
sS'chapters'
p35
ccollections
defaultdict
p36
(g3
tp37
Rp38
sbsS'SPEA2-SIP'
p39
g2
(g3
g4
(lp40
(dp41
g7
(F0.153
F0.872
F0.097
I10
I51
tp42
sg9
F0.014909029006958008
sg10
I100
sg11
I0
sa(dp43
g7
(F0.157
F0.824
F0.076
I13
I100
tp44
sg9
F143.43483996391296
sg10
I100
sg11
I100
sa(dp45
g7
(F0.157
F0.81
F0.076
I13
I100
tp46
sg9
F291.1710500717163
sg10
I100
sg11
I200
sa(dp47
g7
(F0.157
F0.867
F0.076
I13
I100
tp48
sg9
F437.7000820636749
sg10
I100
sg11
I300
sa(dp49
g7
(F0.157
F0.805
F0.076
I13
I100
tp50
sg9
F582.5135099887848
sg10
I100
sg11
I400
sa(dp51
g7
(F0.157
F0.815
F0.076
I13
I100
tp52
sg9
F731.356143951416
sg10
I100
sg11
I500
satp53
Rp54
(dp55
g25
I01
sg26
g31
sg32
(lp56
I3
aI5
aI30
aI9
asg34
I6
sg35
g36
(g3
tp57
Rp58
sbsS'SPEA2'
p59
g2
(g3
g4
(lp60
(dp61
g7
(F0.132
F0.799
F0.149
I8
I10
tp62
sg9
F0.017004966735839844
sg10
I100
sg11
I0
sa(dp63
g7
(I0
I0
I0
I0
I0
tp64
sg9
F110.23813891410828
sg10
I100
sg11
I100
sa(dp65
g7
g64
sg9
F222.59021997451782
sg10
I100
sg11
I200
sa(dp66
g7
g64
sg9
F338.7226629257202
sg10
I100
sg11
I300
sa(dp67
g7
g64
sg9
F454.21947383880615
sg10
I100
sg11
I400
sa(dp68
g7
g64
sg9
F570.1253328323364
sg10
I100
sg11
I500
satp69
Rp70
(dp71
g25
I01
sg26
g31
sg32
(lp72
I3
aI5
aI30
aI9
asg34
I6
sg35
g36
(g3
tp73
Rp74
sbsS'IBEA'
p75
g2
(g3
g4
(lp76
(dp77
g7
(F0.078
F1.0
F0.103
I3
I3
tp78
sg9
F0.016019821166992188
sg10
I100
sg11
I0
sa(dp79
g7
(F0.1
F0.94
F0.09
I2
I4
tp80
sg9
F5.937397003173828
sg10
I100
sg11
I100
sa(dp81
g7
g64
sg9
F11.999643802642822
sg10
I100
sg11
I200
sa(dp82
g7
g64
sg9
F18.053265810012817
sg10
I100
sg11
I300
sa(dp83
g7
g64
sg9
F24.104689836502075
sg10
I100
sg11
I400
sa(dp84
g7
g64
sg9
F30.144770860671997
sg10
I100
sg11
I500
satp85
Rp86
(dp87
g25
I01
sg26
g31
sg32
(lp88
I3
aI5
aI30
aI9
asg34
I6
sg35
g36
(g3
tp89
Rp90
sbsS'NSGA2'
p91
g2
(g3
g4
(lp92
(dp93
g7
(F0.074
F0.968
F0.124
I4
I4
tp94
sg9
F0.01577305793762207
sg10
I100
sg11
I0
sa(dp95
g7
g64
sg9
F5.553929090499878
sg10
I100
sg11
I100
sa(dp96
g7
g64
sg9
F10.970920085906982
sg10
I100
sg11
I200
sa(dp97
g7
(F0.088
F2.407
F0.081
I1
I1
tp98
sg9
F16.42926812171936
sg10
I100
sg11
I300
sa(dp99
g7
g64
sg9
F21.889568090438843
sg10
I100
sg11
I400
sa(dp100
g7
g64
sg9
F27.39266610145569
sg10
I100
sg11
I500
satp101
Rp102
(dp103
g25
I01
sg26
g31
sg32
(lp104
I3
aI5
aI30
aI9
asg34
I6
sg35
g36
(g3
tp105
Rp106
sbsS'IBEA-SIP'
p107
g2
(g3
g4
(lp108
(dp109
g7
(F0.146
F0.911
F0.057
I10
I49
tp110
sg9
F0.014962911605834961
sg10
I100
sg11
I0
sa(dp111
g7
(F0.15
F0.803
F0.077
I9
I100
tp112
sg9
F5.348970890045166
sg10
I100
sg11
I100
sa(dp113
g7
(F0.127
F0.96
F0.082
I9
I100
tp114
sg9
F10.790778875350952
sg10
I100
sg11
I200
sa(dp115
g7
(F0.152
F0.567
F0.077
I9
I100
tp116
sg9
F16.225975036621094
sg10
I100
sg11
I300
sa(dp117
g7
(F0.143
F0.594
F0.091
I10
I100
tp118
sg9
F21.66288185119629
sg10
I100
sg11
I400
sa(dp119
g7
(F0.142
F0.706
F0.08
I10
I100
tp120
sg9
F27.0764319896698
sg10
I100
sg11
I500
satp121
Rp122
(dp123
g25
I01
sg26
g31
sg32
(lp124
I3
aI5
aI30
aI9
asg34
I6
sg35
g36
(g3
tp125
Rp126
sbs.