(dp0
S'NSGA2-SIP'
p1
ccopy_reg
_reconstructor
p2
(cdeap.tools.support
Logbook
p3
c__builtin__
list
p4
(lp5
(dp6
S'hv|spread|igd|frontier#|valid#'
p7
(F0.153
F0.758
F0.082
I13
I54
tp8
sS'timestamp'
p9
F0.020207881927490234
sS'evals'
p10
I100
sS'gen'
p11
I0
sa(dp12
g7
(F0.157
F0.734
F0.076
I13
I100
tp13
sg9
F2.6367220878601074
sg10
I100
sg11
I100
sa(dp14
g7
(F0.157
F0.81
F0.076
I13
I100
tp15
sg9
F5.255069017410278
sg10
I100
sg11
I200
sa(dp16
g7
(F0.157
F0.834
F0.076
I13
I100
tp17
sg9
F7.877434968948364
sg10
I100
sg11
I300
sa(dp18
g7
(F0.157
F0.642
F0.076
I13
I100
tp19
sg9
F10.478990077972412
sg10
I100
sg11
I400
sa(dp20
g7
(F0.157
F0.63
F0.076
I13
I100
tp21
sg9
F13.028502941131592
sg10
I100
sg11
I500
satp22
Rp23
(dp24
S'log_header'
p25
I01
sS'header'
p26
(S'gen'
p27
S'evals'
p28
S'hv|spread|igd|frontier#|valid#'
p29
S'timestamp'
p30
tp31
sS'columns_len'
p32
(lp33
I3
aI5
aI30
aI9
asS'buffindex'
p34
I6
sS'chapters'
p35
ccollections
defaultdict
p36
(g3
tp37
Rp38
sbsS'SPEA2-SIP'
p39
g2
(g3
g4
(lp40
(dp41
g7
(F0.133
F0.797
F0.052
I12
I50
tp42
sg9
F0.019789934158325195
sg10
I100
sg11
I0
sa(dp43
g7
(F0.157
F0.734
F0.076
I13
I100
tp44
sg9
F167.66989183425903
sg10
I100
sg11
I100
sa(dp45
g7
(F0.157
F0.824
F0.076
I13
I100
tp46
sg9
F333.958566904068
sg10
I100
sg11
I200
sa(dp47
g7
(F0.157
F0.726
F0.076
I13
I100
tp48
sg9
F500.7518358230591
sg10
I100
sg11
I300
sa(dp49
g7
(F0.157
F0.834
F0.076
I13
I100
tp50
sg9
F666.6066129207611
sg10
I100
sg11
I400
sa(dp51
g7
(F0.157
F0.998
F0.076
I13
I100
tp52
sg9
F832.0274999141693
sg10
I100
sg11
I500
satp53
Rp54
(dp55
g25
I01
sg26
g31
sg32
(lp56
I3
aI5
aI30
aI9
asg34
I6
sg35
g36
(g3
tp57
Rp58
sbsS'SPEA2'
p59
g2
(g3
g4
(lp60
(dp61
g7
(F0.09
F0.932
F0.113
I2
I3
tp62
sg9
F0.019437074661254883
sg10
I100
sg11
I0
sa(dp63
g7
(I0
I0
I0
I0
I0
tp64
sg9
F130.77604007720947
sg10
I100
sg11
I100
sa(dp65
g7
g64
sg9
F264.38124895095825
sg10
I100
sg11
I200
sa(dp66
g7
g64
sg9
F398.5642170906067
sg10
I100
sg11
I300
sa(dp67
g7
g64
sg9
F531.7346849441528
sg10
I100
sg11
I400
sa(dp68
g7
g64
sg9
F663.7881639003754
sg10
I100
sg11
I500
satp69
Rp70
(dp71
g25
I01
sg26
g31
sg32
(lp72
I3
aI5
aI30
aI9
asg34
I6
sg35
g36
(g3
tp73
Rp74
sbsS'IBEA-PEN'
p75
g2
(g3
g4
(lp76
(dp77
g7
(F0.114
F0.899
F0.0
I5
I57
tp78
sg9
F0.03291797637939453
sg10
I100
sg11
I0
sa(dp79
g7
g64
sg9
F6.944195032119751
sg10
I100
sg11
I100
sa(dp80
g7
(F0.116
F0.933
F0.107
I3
I4
tp81
sg9
F13.86205005645752
sg10
I100
sg11
I200
sa(dp82
g7
g64
sg9
F20.765865087509155
sg10
I100
sg11
I300
sa(dp83
g7
(F0.1
F0.963
F0.112
I2
I5
tp84
sg9
F27.673180103302002
sg10
I100
sg11
I400
sa(dp85
g7
(F0.051
F2.5
F0.106
I1
I3
tp86
sg9
F34.58336091041565
sg10
I100
sg11
I500
satp87
Rp88
(dp89
g25
I01
sg26
g31
sg32
(lp90
I3
aI5
aI30
aI9
asg34
I6
sg35
g36
(g3
tp91
Rp92
sbsS'IBEA'
p93
g2
(g3
g4
(lp94
(dp95
g7
(F0.052
F2.407
F0.105
I1
I2
tp96
sg9
F0.019666194915771484
sg10
I100
sg11
I0
sa(dp97
g7
(F0.037
F2.599
F0.099
I1
I1
tp98
sg9
F6.6711671352386475
sg10
I100
sg11
I100
sa(dp99
g7
(F0.106
F0.98
F0.098
I4
I6
tp100
sg9
F13.386228084564209
sg10
I100
sg11
I200
sa(dp101
g7
(F0.067
F2.407
F0.0
I1
I1
tp102
sg9
F20.086642026901245
sg10
I100
sg11
I300
sa(dp103
g7
(F0.092
F2.312
F0.154
I1
I1
tp104
sg9
F26.817443132400513
sg10
I100
sg11
I400
sa(dp105
g7
(F0.1
F0.94
F0.09
I2
I4
tp106
sg9
F33.581881046295166
sg10
I100
sg11
I500
satp107
Rp108
(dp109
g25
I01
sg26
g31
sg32
(lp110
I3
aI5
aI30
aI9
asg34
I6
sg35
g36
(g3
tp111
Rp112
sbsS'NSGA2'
p113
g2
(g3
g4
(lp114
(dp115
g7
(F0.124
F0.899
F0.112
I4
I5
tp116
sg9
F0.020056962966918945
sg10
I100
sg11
I0
sa(dp117
g7
g64
sg9
F6.780926942825317
sg10
I100
sg11
I100
sa(dp118
g7
g64
sg9
F13.523952960968018
sg10
I100
sg11
I200
sa(dp119
g7
g64
sg9
F20.30912208557129
sg10
I100
sg11
I300
sa(dp120
g7
(F0.092
F2.312
F0.154
I1
I1
tp121
sg9
F27.079344987869263
sg10
I100
sg11
I400
sa(dp122
g7
(F0.092
F2.312
F0.154
I1
I1
tp123
sg9
F33.89496612548828
sg10
I100
sg11
I500
satp124
Rp125
(dp126
g25
I01
sg26
g31
sg32
(lp127
I3
aI5
aI30
aI9
asg34
I6
sg35
g36
(g3
tp128
Rp129
sbsS'IBEA-SIP'
p130
g2
(g3
g4
(lp131
(dp132
g7
(F0.157
F0.739
F0.09
I11
I53
tp133
sg9
F0.01964402198791504
sg10
I100
sg11
I0
sa(dp134
g7
(F0.145
F0.764
F0.086
I9
I100
tp135
sg9
F6.111330986022949
sg10
I100
sg11
I100
sa(dp136
g7
(F0.143
F0.718
F0.091
I10
I100
tp137
sg9
F12.291306018829346
sg10
I100
sg11
I200
sa(dp138
g7
(F0.149
F0.893
F0.07
I8
I100
tp139
sg9
F18.478698015213013
sg10
I100
sg11
I300
sa(dp140
g7
(F0.15
F0.939
F0.087
I9
I100
tp141
sg9
F24.723908185958862
sg10
I100
sg11
I400
sa(dp142
g7
(F0.157
F0.932
F0.099
I10
I100
tp143
sg9
F30.96050500869751
sg10
I100
sg11
I500
satp144
Rp145
(dp146
g25
I01
sg26
g31
sg32
(lp147
I3
aI5
aI30
aI9
asg34
I6
sg35
g36
(g3
tp148
Rp149
sbs.