(dp0
S'NSGA2-SIP'
p1
ccopy_reg
_reconstructor
p2
(cdeap.tools.support
Logbook
p3
c__builtin__
list
p4
(lp5
(dp6
S'hv|spread|igd|frontier#|valid#'
p7
(F0.149
F0.698
F0.08
I10
I55
tp8
sS'timestamp'
p9
F0.015529870986938477
sS'evals'
p10
I100
sS'gen'
p11
I0
sa(dp12
g7
(F0.157
F0.809
F0.076
I13
I100
tp13
sg9
F2.229520082473755
sg10
I100
sg11
I100
sa(dp14
g7
(F0.157
F0.817
F0.076
I13
I100
tp15
sg9
F4.454477071762085
sg10
I100
sg11
I200
sa(dp16
g7
(F0.157
F0.726
F0.076
I13
I100
tp17
sg9
F6.672327995300293
sg10
I100
sg11
I300
sa(dp18
g7
(F0.157
F0.805
F0.076
I13
I100
tp19
sg9
F8.900637865066528
sg10
I100
sg11
I400
sa(dp20
g7
(F0.157
F0.86
F0.076
I13
I100
tp21
sg9
F11.11891794204712
sg10
I100
sg11
I500
satp22
Rp23
(dp24
S'log_header'
p25
I01
sS'header'
p26
(S'gen'
p27
S'evals'
p28
S'hv|spread|igd|frontier#|valid#'
p29
S'timestamp'
p30
tp31
sS'columns_len'
p32
(lp33
I3
aI5
aI30
aI9
asS'buffindex'
p34
I6
sS'chapters'
p35
ccollections
defaultdict
p36
(g3
tp37
Rp38
sbsS'SPEA2-SIP'
p39
g2
(g3
g4
(lp40
(dp41
g7
(F0.153
F0.794
F0.081
I12
I55
tp42
sg9
F0.022220849990844727
sg10
I100
sg11
I0
sa(dp43
g7
(F0.157
F0.895
F0.076
I13
I100
tp44
sg9
F146.40101194381714
sg10
I100
sg11
I100
sa(dp45
g7
(F0.157
F0.808
F0.076
I13
I100
tp46
sg9
F295.54064202308655
sg10
I100
sg11
I200
sa(dp47
g7
(F0.157
F0.805
F0.076
I13
I100
tp48
sg9
F446.53358006477356
sg10
I100
sg11
I300
sa(dp49
g7
(F0.157
F0.998
F0.076
I13
I100
tp50
sg9
F599.0216109752655
sg10
I100
sg11
I400
sa(dp51
g7
(F0.157
F0.811
F0.076
I13
I100
tp52
sg9
F751.403785943985
sg10
I100
sg11
I500
satp53
Rp54
(dp55
g25
I01
sg26
g31
sg32
(lp56
I3
aI5
aI30
aI9
asg34
I6
sg35
g36
(g3
tp57
Rp58
sbsS'SPEA2'
p59
g2
(g3
g4
(lp60
(dp61
g7
(F0.13
F0.881
F0.097
I4
I6
tp62
sg9
F0.016178131103515625
sg10
I100
sg11
I0
sa(dp63
g7
(I0
I0
I0
I0
I0
tp64
sg9
F113.97414994239807
sg10
I100
sg11
I100
sa(dp65
g7
(F0.037
F2.599
F0.099
I1
I1
tp66
sg9
F234.0056221485138
sg10
I100
sg11
I200
sa(dp67
g7
g64
sg9
F350.5205011367798
sg10
I100
sg11
I300
sa(dp68
g7
g64
sg9
F468.481271982193
sg10
I100
sg11
I400
sa(dp69
g7
g64
sg9
F585.2218699455261
sg10
I100
sg11
I500
satp70
Rp71
(dp72
g25
I01
sg26
g31
sg32
(lp73
I3
aI5
aI30
aI9
asg34
I6
sg35
g36
(g3
tp74
Rp75
sbsS'IBEA-PEN'
p76
g2
(g3
g4
(lp77
(dp78
g7
(F0.111
F0.9
F0.006
I5
I64
tp79
sg9
F0.04033493995666504
sg10
I100
sg11
I0
sa(dp80
g7
g64
sg9
F6.269795894622803
sg10
I100
sg11
I100
sa(dp81
g7
(F0.11
F0.908
F0.127
I2
I2
tp82
sg9
F12.53278398513794
sg10
I100
sg11
I200
sa(dp83
g7
(F0.1
F0.94
F0.09
I2
I4
tp84
sg9
F18.792478799819946
sg10
I100
sg11
I300
sa(dp85
g7
g64
sg9
F25.041215896606445
sg10
I100
sg11
I400
sa(dp86
g7
(F0.088
F2.407
F0.081
I1
I1
tp87
sg9
F31.284113883972168
sg10
I100
sg11
I500
satp88
Rp89
(dp90
g25
I01
sg26
g31
sg32
(lp91
I3
aI5
aI30
aI9
asg34
I6
sg35
g36
(g3
tp92
Rp93
sbsS'IBEA'
p94
g2
(g3
g4
(lp95
(dp96
g7
(F0.093
F0.966
F0.123
I2
I3
tp97
sg9
F0.024934053421020508
sg10
I100
sg11
I0
sa(dp98
g7
(F0.078
F2.236
F0.114
I1
I1
tp99
sg9
F6.205612897872925
sg10
I100
sg11
I100
sa(dp100
g7
(F0.1
F0.94
F0.09
I2
I3
tp101
sg9
F12.40024995803833
sg10
I100
sg11
I200
sa(dp102
g7
(F0.055
F2.5
F0.106
I1
I1
tp103
sg9
F18.58501410484314
sg10
I100
sg11
I300
sa(dp104
g7
(F0.046
F2.5
F0.066
I1
I1
tp105
sg9
F24.760626077651978
sg10
I100
sg11
I400
sa(dp106
g7
g64
sg9
F30.944838047027588
sg10
I100
sg11
I500
satp107
Rp108
(dp109
g25
I01
sg26
g31
sg32
(lp110
I3
aI5
aI30
aI9
asg34
I6
sg35
g36
(g3
tp111
Rp112
sbsS'NSGA2'
p113
g2
(g3
g4
(lp114
(dp115
g7
(F0.077
F0.932
F0.126
I2
I2
tp116
sg9
F0.01584601402282715
sg10
I100
sg11
I0
sa(dp117
g7
g64
sg9
F5.812676906585693
sg10
I100
sg11
I100
sa(dp118
g7
g64
sg9
F11.429569959640503
sg10
I100
sg11
I200
sa(dp119
g7
g64
sg9
F17.15987801551819
sg10
I100
sg11
I300
sa(dp120
g7
(F0.088
F2.407
F0.081
I1
I1
tp121
sg9
F22.766685009002686
sg10
I100
sg11
I400
sa(dp122
g7
g64
sg9
F28.40200686454773
sg10
I100
sg11
I500
satp123
Rp124
(dp125
g25
I01
sg26
g31
sg32
(lp126
I3
aI5
aI30
aI9
asg34
I6
sg35
g36
(g3
tp127
Rp128
sbsS'IBEA-SIP'
p129
g2
(g3
g4
(lp130
(dp131
g7
(F0.157
F0.754
F0.078
I13
I52
tp132
sg9
F0.016585111618041992
sg10
I100
sg11
I0
sa(dp133
g7
(F0.153
F0.751
F0.069
I11
I100
tp134
sg9
F5.581897974014282
sg10
I100
sg11
I100
sa(dp135
g7
(F0.148
F0.87
F0.06
I10
I100
tp136
sg9
F11.25078296661377
sg10
I100
sg11
I200
sa(dp137
g7
(F0.149
F0.883
F0.067
I10
I100
tp138
sg9
F16.907609939575195
sg10
I100
sg11
I300
sa(dp139
g7
(F0.153
F0.859
F0.069
I11
I100
tp140
sg9
F22.57747197151184
sg10
I100
sg11
I400
sa(dp141
g7
(F0.149
F0.759
F0.076
I12
I100
tp142
sg9
F28.24732995033264
sg10
I100
sg11
I500
satp143
Rp144
(dp145
g25
I01
sg26
g31
sg32
(lp146
I3
aI5
aI30
aI9
asg34
I6
sg35
g36
(g3
tp147
Rp148
sbs.