(dp0
S'NSGA2-SIP'
p1
ccopy_reg
_reconstructor
p2
(cdeap.tools.support
Logbook
p3
c__builtin__
list
p4
(lp5
(dp6
S'hv|spread|igd|frontier#|valid#'
p7
(F0.15
F0.854
F0.056
I12
I60
tp8
sS'timestamp'
p9
F0.020406007766723633
sS'evals'
p10
I100
sS'gen'
p11
I0
sa(dp12
g7
(F0.157
F0.81
F0.076
I13
I100
tp13
sg9
F2.7021541595458984
sg10
I100
sg11
I100
sa(dp14
g7
(F0.157
F0.86
F0.076
I13
I100
tp15
sg9
F5.455815076828003
sg10
I100
sg11
I200
sa(dp16
g7
(F0.157
F0.805
F0.076
I13
I100
tp17
sg9
F8.191419124603271
sg10
I100
sg11
I300
sa(dp18
g7
(F0.157
F0.86
F0.076
I13
I100
tp19
sg9
F10.956367015838623
sg10
I100
sg11
I400
sa(dp20
g7
(F0.157
F0.805
F0.076
I13
I100
tp21
sg9
F13.701654195785522
sg10
I100
sg11
I500
satp22
Rp23
(dp24
S'log_header'
p25
I01
sS'header'
p26
(S'gen'
p27
S'evals'
p28
S'hv|spread|igd|frontier#|valid#'
p29
S'timestamp'
p30
tp31
sS'columns_len'
p32
(lp33
I3
aI5
aI30
aI9
asS'buffindex'
p34
I6
sS'chapters'
p35
ccollections
defaultdict
p36
(g3
tp37
Rp38
sbsS'SPEA2-SIP'
p39
g2
(g3
g4
(lp40
(dp41
g7
(F0.142
F0.659
F0.089
I11
I65
tp42
sg9
F0.020411968231201172
sg10
I100
sg11
I0
sa(dp43
g7
(F0.157
F0.86
F0.076
I13
I100
tp44
sg9
F167.48161697387695
sg10
I100
sg11
I100
sa(dp45
g7
(F0.157
F0.815
F0.076
I13
I100
tp46
sg9
F340.87714099884033
sg10
I100
sg11
I200
sa(dp47
g7
(F0.157
F0.99
F0.076
I13
I100
tp48
sg9
F514.4762749671936
sg10
I100
sg11
I300
sa(dp49
g7
(F0.157
F0.86
F0.076
I13
I100
tp50
sg9
F686.0527520179749
sg10
I100
sg11
I400
sa(dp51
g7
(F0.157
F0.63
F0.076
I13
I100
tp52
sg9
F856.7813341617584
sg10
I100
sg11
I500
satp53
Rp54
(dp55
g25
I01
sg26
g31
sg32
(lp56
I3
aI5
aI30
aI9
asg34
I6
sg35
g36
(g3
tp57
Rp58
sbsS'SPEA2'
p59
g2
(g3
g4
(lp60
(dp61
g7
(F0.062
F2.236
F0.064
I1
I2
tp62
sg9
F0.019340991973876953
sg10
I100
sg11
I0
sa(dp63
g7
(I0
I0
I0
I0
I0
tp64
sg9
F137.21228504180908
sg10
I100
sg11
I100
sa(dp65
g7
(F0.087
F2.236
F0.121
I1
I1
tp66
sg9
F276.73803901672363
sg10
I100
sg11
I200
sa(dp67
g7
g64
sg9
F413.28393602371216
sg10
I100
sg11
I300
sa(dp68
g7
(F0.087
F2.236
F0.121
I1
I1
tp69
sg9
F548.9017431735992
sg10
I100
sg11
I400
sa(dp70
g7
g64
sg9
F685.234689950943
sg10
I100
sg11
I500
satp71
Rp72
(dp73
g25
I01
sg26
g31
sg32
(lp74
I3
aI5
aI30
aI9
asg34
I6
sg35
g36
(g3
tp75
Rp76
sbsS'IBEA'
p77
g2
(g3
g4
(lp78
(dp79
g7
(F0.077
F0.825
F0.09
I3
I4
tp80
sg9
F0.01978611946105957
sg10
I100
sg11
I0
sa(dp81
g7
(F0.037
F2.599
F0.099
I1
I2
tp82
sg9
F6.939348936080933
sg10
I100
sg11
I100
sa(dp83
g7
g64
sg9
F13.877689123153687
sg10
I100
sg11
I200
sa(dp84
g7
(F0.092
F2.312
F0.154
I1
I1
tp85
sg9
F20.84138298034668
sg10
I100
sg11
I300
sa(dp86
g7
g64
sg9
F27.737415075302124
sg10
I100
sg11
I400
sa(dp87
g7
(F0.088
F2.407
F0.081
I1
I1
tp88
sg9
F34.695873975753784
sg10
I100
sg11
I500
satp89
Rp90
(dp91
g25
I01
sg26
g31
sg32
(lp92
I3
aI5
aI30
aI9
asg34
I6
sg35
g36
(g3
tp93
Rp94
sbsS'NSGA2'
p95
g2
(g3
g4
(lp96
(dp97
g7
(F0.127
F0.803
F0.1
I6
I8
tp98
sg9
F0.021105051040649414
sg10
I100
sg11
I0
sa(dp99
g7
(F0.087
F2.236
F0.121
I1
I1
tp100
sg9
F7.220716953277588
sg10
I100
sg11
I100
sa(dp101
g7
(F0.055
F2.5
F0.106
I1
I1
tp102
sg9
F14.502892971038818
sg10
I100
sg11
I200
sa(dp103
g7
g64
sg9
F21.6768000125885
sg10
I100
sg11
I300
sa(dp104
g7
(F0.088
F2.407
F0.081
I1
I1
tp105
sg9
F28.88779616355896
sg10
I100
sg11
I400
sa(dp106
g7
(F0.088
F2.407
F0.081
I1
I1
tp107
sg9
F36.085747957229614
sg10
I100
sg11
I500
satp108
Rp109
(dp110
g25
I01
sg26
g31
sg32
(lp111
I3
aI5
aI30
aI9
asg34
I6
sg35
g36
(g3
tp112
Rp113
sbsS'IBEA-SIP'
p114
g2
(g3
g4
(lp115
(dp116
g7
(F0.147
F0.814
F0.075
I13
I55
tp117
sg9
F0.020332813262939453
sg10
I100
sg11
I0
sa(dp118
g7
(F0.135
F0.958
F0.046
I10
I100
tp119
sg9
F6.377023935317993
sg10
I100
sg11
I100
sa(dp120
g7
(F0.132
F0.718
F0.108
I9
I100
tp121
sg9
F12.82217788696289
sg10
I100
sg11
I200
sa(dp122
g7
(F0.15
F0.793
F0.079
I12
I100
tp123
sg9
F19.26088786125183
sg10
I100
sg11
I300
sa(dp124
g7
(F0.157
F0.628
F0.09
I11
I100
tp125
sg9
F25.713636875152588
sg10
I100
sg11
I400
sa(dp126
g7
(F0.128
F0.768
F0.058
I10
I100
tp127
sg9
F32.225224018096924
sg10
I100
sg11
I500
satp128
Rp129
(dp130
g25
I01
sg26
g31
sg32
(lp131
I3
aI5
aI30
aI9
asg34
I6
sg35
g36
(g3
tp132
Rp133
sbs.