(dp0
S'NSGA2-SIP'
p1
ccopy_reg
_reconstructor
p2
(cdeap.tools.support
Logbook
p3
c__builtin__
list
p4
(lp5
(dp6
S'hv|spread|igd|frontier#|valid#'
p7
(F0.156
F0.659
F0.084
I11
I46
tp8
sS'timestamp'
p9
F0.016268014907836914
sS'evals'
p10
I100
sS'gen'
p11
I0
sa(dp12
g7
(F0.157
F0.726
F0.076
I13
I100
tp13
sg9
F2.298332929611206
sg10
I100
sg11
I100
sa(dp14
g7
(F0.157
F0.809
F0.076
I13
I100
tp15
sg9
F4.654412031173706
sg10
I100
sg11
I200
sa(dp16
g7
(F0.157
F0.99
F0.076
I13
I100
tp17
sg9
F7.002997875213623
sg10
I100
sg11
I300
sa(dp18
g7
(F0.157
F0.99
F0.076
I13
I100
tp19
sg9
F9.348404884338379
sg10
I100
sg11
I400
sa(dp20
g7
(F0.157
F0.726
F0.076
I13
I100
tp21
sg9
F11.69734001159668
sg10
I100
sg11
I500
satp22
Rp23
(dp24
S'log_header'
p25
I01
sS'header'
p26
(S'gen'
p27
S'evals'
p28
S'hv|spread|igd|frontier#|valid#'
p29
S'timestamp'
p30
tp31
sS'columns_len'
p32
(lp33
I3
aI5
aI30
aI9
asS'buffindex'
p34
I6
sS'chapters'
p35
ccollections
defaultdict
p36
(g3
tp37
Rp38
sbsS'SPEA2-SIP'
p39
g2
(g3
g4
(lp40
(dp41
g7
(F0.155
F0.855
F0.086
I10
I47
tp42
sg9
F0.015758037567138672
sg10
I100
sg11
I0
sa(dp43
g7
(F0.157
F0.805
F0.076
I13
I100
tp44
sg9
F157.83907413482666
sg10
I100
sg11
I100
sa(dp45
g7
(F0.157
F0.809
F0.076
I13
I100
tp46
sg9
F314.03624415397644
sg10
I100
sg11
I200
sa(dp47
g7
(F0.157
F0.947
F0.076
I13
I100
tp48
sg9
F473.95067715644836
sg10
I100
sg11
I300
sa(dp49
g7
(F0.157
F0.642
F0.076
I13
I100
tp50
sg9
F632.6886780261993
sg10
I100
sg11
I400
sa(dp51
g7
(F0.157
F0.837
F0.076
I13
I100
tp52
sg9
F792.6058480739594
sg10
I100
sg11
I500
satp53
Rp54
(dp55
g25
I01
sg26
g31
sg32
(lp56
I3
aI5
aI30
aI9
asg34
I6
sg35
g36
(g3
tp57
Rp58
sbsS'SPEA2'
p59
g2
(g3
g4
(lp60
(dp61
g7
(F0.072
F0.966
F0.111
I2
I2
tp62
sg9
F0.01686716079711914
sg10
I100
sg11
I0
sa(dp63
g7
(I0
I0
I0
I0
I0
tp64
sg9
F124.0142560005188
sg10
I100
sg11
I100
sa(dp65
g7
g64
sg9
F249.32352113723755
sg10
I100
sg11
I200
sa(dp66
g7
g64
sg9
F373.68719720840454
sg10
I100
sg11
I300
sa(dp67
g7
g64
sg9
F498.09758400917053
sg10
I100
sg11
I400
sa(dp68
g7
g64
sg9
F622.5952820777893
sg10
I100
sg11
I500
satp69
Rp70
(dp71
g25
I01
sg26
g31
sg32
(lp72
I3
aI5
aI30
aI9
asg34
I6
sg35
g36
(g3
tp73
Rp74
sbsS'IBEA-PEN'
p75
g2
(g3
g4
(lp76
(dp77
g7
(F0.111
F0.824
F0.006
I5
I63
tp78
sg9
F0.021754026412963867
sg10
I100
sg11
I0
sa(dp79
g7
(F0.136
F0.767
F0.089
I8
I54
tp80
sg9
F6.62901496887207
sg10
I100
sg11
I100
sa(dp81
g7
(F0.157
F0.852
F0.082
I12
I61
tp82
sg9
F13.345886945724487
sg10
I100
sg11
I200
sa(dp83
g7
(F0.149
F0.907
F0.06
I11
I59
tp84
sg9
F20.087971925735474
sg10
I100
sg11
I300
sa(dp85
g7
(F0.149
F0.911
F0.061
I11
I53
tp86
sg9
F26.778856992721558
sg10
I100
sg11
I400
sa(dp87
g7
(F0.136
F0.817
F0.087
I8
I62
tp88
sg9
F33.48873805999756
sg10
I100
sg11
I500
satp89
Rp90
(dp91
g25
I01
sg26
g31
sg32
(lp92
I3
aI5
aI30
aI9
asg34
I6
sg35
g36
(g3
tp93
Rp94
sbsS'IBEA'
p95
g2
(g3
g4
(lp96
(dp97
g7
(F0.125
F0.803
F0.126
I6
I9
tp98
sg9
F0.018301963806152344
sg10
I100
sg11
I0
sa(dp99
g7
(F0.037
F2.599
F0.099
I1
I1
tp100
sg9
F6.529176950454712
sg10
I100
sg11
I100
sa(dp101
g7
(F0.084
F2.312
F0.139
I1
I1
tp102
sg9
F13.119051933288574
sg10
I100
sg11
I200
sa(dp103
g7
(F0.088
F2.407
F0.081
I1
I1
tp104
sg9
F19.72210693359375
sg10
I100
sg11
I300
sa(dp105
g7
g64
sg9
F26.316225051879883
sg10
I100
sg11
I400
sa(dp106
g7
(F0.098
F0.968
F0.094
I2
I3
tp107
sg9
F32.919273138046265
sg10
I100
sg11
I500
satp108
Rp109
(dp110
g25
I01
sg26
g31
sg32
(lp111
I3
aI5
aI30
aI9
asg34
I6
sg35
g36
(g3
tp112
Rp113
sbsS'NSGA2'
p114
g2
(g3
g4
(lp115
(dp116
g7
(F0.104
F0.907
F0.076
I4
I5
tp117
sg9
F0.017467975616455078
sg10
I100
sg11
I0
sa(dp118
g7
g64
sg9
F6.092123031616211
sg10
I100
sg11
I100
sa(dp119
g7
g64
sg9
F12.15602707862854
sg10
I100
sg11
I200
sa(dp120
g7
(F0.109
F0.966
F0.138
I2
I2
tp121
sg9
F18.172430992126465
sg10
I100
sg11
I300
sa(dp122
g7
g64
sg9
F24.17669415473938
sg10
I100
sg11
I400
sa(dp123
g7
g64
sg9
F30.226537942886353
sg10
I100
sg11
I500
satp124
Rp125
(dp126
g25
I01
sg26
g31
sg32
(lp127
I3
aI5
aI30
aI9
asg34
I6
sg35
g36
(g3
tp128
Rp129
sbsS'IBEA-SIP'
p130
g2
(g3
g4
(lp131
(dp132
g7
(F0.147
F0.763
F0.081
I12
I57
tp133
sg9
F0.017004013061523438
sg10
I100
sg11
I0
sa(dp134
g7
(F0.155
F0.777
F0.088
I10
I100
tp135
sg9
F5.963891983032227
sg10
I100
sg11
I100
sa(dp136
g7
(F0.149
F0.617
F0.076
I12
I100
tp137
sg9
F12.103064060211182
sg10
I100
sg11
I200
sa(dp138
g7
(F0.149
F0.951
F0.067
I10
I100
tp139
sg9
F18.144296884536743
sg10
I100
sg11
I300
sa(dp140
g7
(F0.155
F0.604
F0.08
I11
I100
tp141
sg9
F24.217216968536377
sg10
I100
sg11
I400
sa(dp142
g7
(F0.143
F0.788
F0.082
I11
I100
tp143
sg9
F30.307241916656494
sg10
I100
sg11
I500
satp144
Rp145
(dp146
g25
I01
sg26
g31
sg32
(lp147
I3
aI5
aI30
aI9
asg34
I6
sg35
g36
(g3
tp148
Rp149
sbs.