(dp0
S'NSGA2-SIP'
p1
ccopy_reg
_reconstructor
p2
(cdeap.tools.support
Logbook
p3
c__builtin__
list
p4
(lp5
(dp6
S'hv|spread|igd|frontier#|valid#'
p7
(F0.151
F0.725
F0.081
I13
I59
tp8
sS'timestamp'
p9
F0.020702838897705078
sS'evals'
p10
I100
sS'gen'
p11
I0
sa(dp12
g7
(F0.157
F0.81
F0.076
I13
I100
tp13
sg9
F2.653542995452881
sg10
I100
sg11
I100
sa(dp14
g7
(F0.157
F0.683
F0.076
I13
I100
tp15
sg9
F5.300099849700928
sg10
I100
sg11
I200
sa(dp16
g7
(F0.157
F0.683
F0.076
I13
I100
tp17
sg9
F7.897961854934692
sg10
I100
sg11
I300
sa(dp18
g7
(F0.157
F0.904
F0.076
I13
I100
tp19
sg9
F10.518663883209229
sg10
I100
sg11
I400
sa(dp20
g7
(F0.157
F0.834
F0.076
I13
I100
tp21
sg9
F13.121690034866333
sg10
I100
sg11
I500
satp22
Rp23
(dp24
S'log_header'
p25
I01
sS'header'
p26
(S'gen'
p27
S'evals'
p28
S'hv|spread|igd|frontier#|valid#'
p29
S'timestamp'
p30
tp31
sS'columns_len'
p32
(lp33
I3
aI5
aI30
aI9
asS'buffindex'
p34
I6
sS'chapters'
p35
ccollections
defaultdict
p36
(g3
tp37
Rp38
sbsS'SPEA2-SIP'
p39
g2
(g3
g4
(lp40
(dp41
g7
(F0.154
F0.812
F0.083
I12
I51
tp42
sg9
F0.02018284797668457
sg10
I100
sg11
I0
sa(dp43
g7
(F0.157
F0.99
F0.076
I13
I100
tp44
sg9
F171.07326889038086
sg10
I100
sg11
I100
sa(dp45
g7
(F0.157
F0.683
F0.076
I13
I100
tp46
sg9
F340.82012486457825
sg10
I100
sg11
I200
sa(dp47
g7
(F0.157
F0.895
F0.076
I13
I100
tp48
sg9
F509.88123202323914
sg10
I100
sg11
I300
sa(dp49
g7
(F0.157
F0.867
F0.076
I13
I100
tp50
sg9
F680.1294660568237
sg10
I100
sg11
I400
sa(dp51
g7
(F0.157
F0.827
F0.076
I13
I100
tp52
sg9
F852.420991897583
sg10
I100
sg11
I500
satp53
Rp54
(dp55
g25
I01
sg26
g31
sg32
(lp56
I3
aI5
aI30
aI9
asg34
I6
sg35
g36
(g3
tp57
Rp58
sbsS'SPEA2'
p59
g2
(g3
g4
(lp60
(dp61
g7
(F0.086
F0.933
F0.099
I2
I3
tp62
sg9
F0.019538164138793945
sg10
I100
sg11
I0
sa(dp63
g7
(I0
I0
I0
I0
I0
tp64
sg9
F129.53120398521423
sg10
I100
sg11
I100
sa(dp65
g7
g64
sg9
F265.101665019989
sg10
I100
sg11
I200
sa(dp66
g7
g64
sg9
F398.3887619972229
sg10
I100
sg11
I300
sa(dp67
g7
g64
sg9
F531.2702941894531
sg10
I100
sg11
I400
sa(dp68
g7
g64
sg9
F665.4257822036743
sg10
I100
sg11
I500
satp69
Rp70
(dp71
g25
I01
sg26
g31
sg32
(lp72
I3
aI5
aI30
aI9
asg34
I6
sg35
g36
(g3
tp73
Rp74
sbsS'NSGA2'
p75
g2
(g3
g4
(lp76
(dp77
g7
(F0.101
F0.873
F0.148
I3
I4
tp78
sg9
F0.0196840763092041
sg10
I100
sg11
I0
sa(dp79
g7
g64
sg9
F6.912102937698364
sg10
I100
sg11
I100
sa(dp80
g7
g64
sg9
F13.914382934570312
sg10
I100
sg11
I200
sa(dp81
g7
g64
sg9
F21.01384997367859
sg10
I100
sg11
I300
sa(dp82
g7
(F0.113
F0.963
F0.118
I2
I2
tp83
sg9
F27.997724056243896
sg10
I100
sg11
I400
sa(dp84
g7
g64
sg9
F34.93007707595825
sg10
I100
sg11
I500
satp85
Rp86
(dp87
g25
I01
sg26
g31
sg32
(lp88
I3
aI5
aI30
aI9
asg34
I6
sg35
g36
(g3
tp89
Rp90
sbsS'IBEA-SIP'
p91
g2
(g3
g4
(lp92
(dp93
g7
(F0.143
F0.872
F0.078
I10
I50
tp94
sg9
F0.018854141235351562
sg10
I100
sg11
I0
sa(dp95
g7
(F0.153
F0.663
F0.069
I11
I100
tp96
sg9
F6.178061008453369
sg10
I100
sg11
I100
sa(dp97
g7
(F0.157
F0.632
F0.09
I11
I100
tp98
sg9
F12.41014313697815
sg10
I100
sg11
I200
sa(dp99
g7
(F0.143
F0.888
F0.082
I11
I100
tp100
sg9
F18.674246072769165
sg10
I100
sg11
I300
sa(dp101
g7
(F0.149
F0.958
F0.056
I10
I100
tp102
sg9
F24.95686411857605
sg10
I100
sg11
I400
sa(dp103
g7
(F0.151
F1.046
F0.076
I10
I100
tp104
sg9
F31.23319411277771
sg10
I100
sg11
I500
satp105
Rp106
(dp107
g25
I01
sg26
g31
sg32
(lp108
I3
aI5
aI30
aI9
asg34
I6
sg35
g36
(g3
tp109
Rp110
sbsS'IBEA-PEN'
p111
g2
(g3
g4
(lp112
(dp113
S'hv|spread|igd|frontier#|valid#'
p114
(F0.114
F0.824
F0.0
I5
I57
tp115
sS'timestamp'
p116
F0.009943962097167969
sS'evals'
p117
I100
sS'gen'
p118
I0
sa(dp119
g114
(F0.146
F0.812
F0.058
I11
I67
tp120
sg116
F3.438093900680542
sg117
I100
sg118
I100
sa(dp121
g114
(F0.149
F0.743
F0.091
I10
I55
tp122
sg116
F6.770530939102173
sg117
I100
sg118
I200
sa(dp123
g114
(F0.154
F0.731
F0.107
I8
I48
tp124
sg116
F9.92391586303711
sg117
I100
sg118
I300
sa(dp125
g114
(F0.157
F0.688
F0.099
I10
I52
tp126
sg116
F13.047399997711182
sg117
I100
sg118
I400
sa(dp127
g114
(F0.129
F0.8
F0.08
I6
I53
tp128
sg116
F16.19790291786194
sg117
I100
sg118
I500
satp129
Rp130
(dp131
g25
I01
sg26
(S'gen'
p132
S'evals'
p133
S'hv|spread|igd|frontier#|valid#'
p134
S'timestamp'
p135
tp136
sg32
(lp137
I3
aI5
aI30
aI10
asg34
I6
sg35
g36
(g3
tp138
Rp139
sbsS'IBEA'
p140
g2
(g3
g4
(lp141
(dp142
g7
(F0.076
F2.236
F0.106
I1
I2
tp143
sg9
F0.019531965255737305
sg10
I100
sg11
I0
sa(dp144
g7
(F0.098
F0.968
F0.094
I2
I5
tp145
sg9
F6.889153003692627
sg10
I100
sg11
I100
sa(dp146
g7
(F0.113
F0.963
F0.118
I2
I2
tp147
sg9
F13.721987009048462
sg10
I100
sg11
I200
sa(dp148
g7
g64
sg9
F20.528992891311646
sg10
I100
sg11
I300
sa(dp149
g7
(F0.088
F2.407
F0.081
I1
I1
tp150
sg9
F27.457674026489258
sg10
I100
sg11
I400
sa(dp151
g7
(F0.098
F0.968
F0.094
I2
I2
tp152
sg9
F34.374507904052734
sg10
I100
sg11
I500
satp153
Rp154
(dp155
g25
I01
sg26
g31
sg32
(lp156
I3
aI5
aI30
aI9
asg34
I6
sg35
g36
(g3
tp157
Rp158
sbs.