(dp0
S'NSGA2-SIP'
p1
ccopy_reg
_reconstructor
p2
(cdeap.tools.support
Logbook
p3
c__builtin__
list
p4
(lp5
(dp6
S'hv|spread|igd|frontier#|valid#'
p7
(F0.157
F0.693
F0.074
I12
I62
tp8
sS'timestamp'
p9
F0.018948078155517578
sS'evals'
p10
I100
sS'gen'
p11
I0
sa(dp12
g7
(F0.157
F0.734
F0.076
I13
I100
tp13
sg9
F2.3568270206451416
sg10
I100
sg11
I100
sa(dp14
g7
(F0.157
F0.895
F0.076
I13
I100
tp15
sg9
F4.69212007522583
sg10
I100
sg11
I200
sa(dp16
g7
(F0.157
F0.904
F0.076
I13
I100
tp17
sg9
F6.969768047332764
sg10
I100
sg11
I300
sa(dp18
g7
(F0.157
F0.815
F0.076
I13
I100
tp19
sg9
F9.300323009490967
sg10
I100
sg11
I400
sa(dp20
g7
(F0.157
F0.805
F0.076
I13
I100
tp21
sg9
F11.611119985580444
sg10
I100
sg11
I500
satp22
Rp23
(dp24
S'log_header'
p25
I01
sS'header'
p26
(S'gen'
p27
S'evals'
p28
g7
S'timestamp'
p29
tp30
sS'columns_len'
p31
(lp32
I3
aI5
aI30
aI9
asS'buffindex'
p33
I6
sS'chapters'
p34
ccollections
defaultdict
p35
(g3
tp36
Rp37
sbsS'SPEA2-SIP'
p38
g2
(g3
g4
(lp39
(dp40
g7
(F0.146
F0.512
F0.083
I11
I58
tp41
sg9
F0.017425060272216797
sg10
I100
sg11
I0
sa(dp42
g7
(F0.157
F0.99
F0.076
I13
I100
tp43
sg9
F161.64338302612305
sg10
I100
sg11
I100
sa(dp44
g7
(F0.157
F0.63
F0.076
I13
I100
tp45
sg9
F329.2999920845032
sg10
I100
sg11
I200
sa(dp46
g7
(F0.157
F0.86
F0.076
I13
I100
tp47
sg9
F497.427451133728
sg10
I100
sg11
I300
sa(dp48
g7
(F0.157
F0.809
F0.076
I13
I100
tp49
sg9
F661.4570541381836
sg10
I100
sg11
I400
sa(dp50
g7
(F0.157
F0.904
F0.076
I13
I100
tp51
sg9
F826.8702499866486
sg10
I100
sg11
I500
satp52
Rp53
(dp54
g25
I01
sg26
g30
sg31
(lp55
I3
aI5
aI30
aI9
asg33
I6
sg34
g35
(g3
tp56
Rp57
sbsS'SPEA2'
p58
g2
(g3
g4
(lp59
(dp60
g7
(F0.08
F0.927
F0.127
I2
I2
tp61
sg9
F0.01717400550842285
sg10
I100
sg11
I0
sa(dp62
g7
(I0
I0
I0
I0
I0
tp63
sg9
F121.99031710624695
sg10
I100
sg11
I100
sa(dp64
g7
g63
sg9
F248.62800097465515
sg10
I100
sg11
I200
sa(dp65
g7
g63
sg9
F375.29647612571716
sg10
I100
sg11
I300
sa(dp66
g7
g63
sg9
F501.7219240665436
sg10
I100
sg11
I400
sa(dp67
g7
g63
sg9
F629.294319152832
sg10
I100
sg11
I500
satp68
Rp69
(dp70
g25
I01
sg26
g30
sg31
(lp71
I3
aI5
aI30
aI9
asg33
I6
sg34
g35
(g3
tp72
Rp73
sbsS'IBEA'
p74
g2
(g3
g4
(lp75
(dp76
g7
(F0.105
F0.921
F0.106
I4
I4
tp77
sg9
F0.017473936080932617
sg10
I100
sg11
I0
sa(dp78
g7
(F0.014
F2.599
F0.081
I1
I1
tp79
sg9
F6.702643871307373
sg10
I100
sg11
I100
sa(dp80
g7
(F0.088
F2.407
F0.081
I1
I1
tp81
sg9
F13.519903898239136
sg10
I100
sg11
I200
sa(dp82
g7
g63
sg9
F20.35037398338318
sg10
I100
sg11
I300
sa(dp83
g7
g63
sg9
F27.129628896713257
sg10
I100
sg11
I400
sa(dp84
g7
(F0.037
F2.599
F0.099
I1
I2
tp85
sg9
F33.84295296669006
sg10
I100
sg11
I500
satp86
Rp87
(dp88
g25
I01
sg26
g30
sg31
(lp89
I3
aI5
aI30
aI9
asg33
I6
sg34
g35
(g3
tp90
Rp91
sbsS'NSGA2'
p92
g2
(g3
g4
(lp93
(dp94
g7
(F0.104
F0.887
F0.111
I7
I8
tp95
sg9
F0.01834416389465332
sg10
I100
sg11
I0
sa(dp96
g7
(F0.087
F2.236
F0.121
I1
I1
tp97
sg9
F6.093300104141235
sg10
I100
sg11
I100
sa(dp98
g7
(F0.092
F2.312
F0.154
I1
I1
tp99
sg9
F12.236529111862183
sg10
I100
sg11
I200
sa(dp100
g7
g63
sg9
F18.49059009552002
sg10
I100
sg11
I300
sa(dp101
g7
(F0.092
F2.312
F0.154
I1
I1
tp102
sg9
F24.547528982162476
sg10
I100
sg11
I400
sa(dp103
g7
(F0.092
F2.312
F0.154
I1
I1
tp104
sg9
F30.636296033859253
sg10
I100
sg11
I500
satp105
Rp106
(dp107
g25
I01
sg26
g30
sg31
(lp108
I3
aI5
aI30
aI9
asg33
I6
sg34
g35
(g3
tp109
Rp110
sbsS'IBEA-SIP'
p111
g2
(g3
g4
(lp112
(dp113
g7
(F0.146
F0.742
F0.081
I13
I47
tp114
sg9
F0.017702102661132812
sg10
I100
sg11
I0
sa(dp115
g7
(F0.155
F0.793
F0.074
I11
I100
tp116
sg9
F6.073893070220947
sg10
I100
sg11
I100
sa(dp117
g7
(F0.157
F0.907
F0.089
I10
I100
tp118
sg9
F12.319311141967773
sg10
I100
sg11
I200
sa(dp119
g7
(F0.15
F0.948
F0.056
I12
I100
tp120
sg9
F18.540006160736084
sg10
I100
sg11
I300
sa(dp121
g7
(F0.157
F0.965
F0.09
I11
I100
tp122
sg9
F24.721572160720825
sg10
I100
sg11
I400
sa(dp123
g7
(F0.137
F0.877
F0.091
I10
I100
tp124
sg9
F30.979894161224365
sg10
I100
sg11
I500
satp125
Rp126
(dp127
g25
I01
sg26
g30
sg31
(lp128
I3
aI5
aI30
aI9
asg33
I6
sg34
g35
(g3
tp129
Rp130
sbs.