(dp0
S'NSGA2-SIP'
p1
ccopy_reg
_reconstructor
p2
(cdeap.tools.support
Logbook
p3
c__builtin__
list
p4
(lp5
(dp6
S'hv|spread|igd|frontier#|valid#'
p7
(F0.15
F0.699
F0.09
I15
I55
tp8
sS'timestamp'
p9
F0.020270109176635742
sS'evals'
p10
I100
sS'gen'
p11
I0
sa(dp12
g7
(F0.157
F0.933
F0.076
I13
I100
tp13
sg9
F2.4208121299743652
sg10
I100
sg11
I100
sa(dp14
g7
(F0.157
F0.808
F0.076
I13
I100
tp15
sg9
F4.889301061630249
sg10
I100
sg11
I200
sa(dp16
g7
(F0.157
F0.808
F0.076
I13
I100
tp17
sg9
F7.355272054672241
sg10
I100
sg11
I300
sa(dp18
g7
(F0.157
F0.827
F0.076
I13
I100
tp19
sg9
F9.825318098068237
sg10
I100
sg11
I400
sa(dp20
g7
(F0.157
F0.895
F0.076
I13
I100
tp21
sg9
F12.297878980636597
sg10
I100
sg11
I500
satp22
Rp23
(dp24
S'log_header'
p25
I01
sS'header'
p26
(S'gen'
p27
S'evals'
p28
S'hv|spread|igd|frontier#|valid#'
p29
S'timestamp'
p30
tp31
sS'columns_len'
p32
(lp33
I3
aI5
aI30
aI9
asS'buffindex'
p34
I6
sS'chapters'
p35
ccollections
defaultdict
p36
(g3
tp37
Rp38
sbsS'SPEA2-SIP'
p39
g2
(g3
g4
(lp40
(dp41
g7
(F0.154
F0.878
F0.078
I11
I68
tp42
sg9
F0.01911020278930664
sg10
I100
sg11
I0
sa(dp43
g7
(F0.157
F0.734
F0.076
I13
I100
tp44
sg9
F163.0494260787964
sg10
I100
sg11
I100
sa(dp45
g7
(F0.157
F0.86
F0.076
I13
I100
tp46
sg9
F332.6383202075958
sg10
I100
sg11
I200
sa(dp47
g7
(F0.157
F0.99
F0.076
I13
I100
tp48
sg9
F497.82162499427795
sg10
I100
sg11
I300
sa(dp49
g7
(F0.157
F0.904
F0.076
I13
I100
tp50
sg9
F665.3744029998779
sg10
I100
sg11
I400
sa(dp51
g7
(F0.157
F0.734
F0.076
I13
I100
tp52
sg9
F839.448783159256
sg10
I100
sg11
I500
satp53
Rp54
(dp55
g25
I01
sg26
g31
sg32
(lp56
I3
aI5
aI30
aI9
asg34
I6
sg35
g36
(g3
tp57
Rp58
sbsS'SPEA2'
p59
g2
(g3
g4
(lp60
(dp61
g7
(F0.083
F0.892
F0.139
I5
I7
tp62
sg9
F0.018539905548095703
sg10
I100
sg11
I0
sa(dp63
g7
(I0
I0
I0
I0
I0
tp64
sg9
F129.6450309753418
sg10
I100
sg11
I100
sa(dp65
g7
g64
sg9
F260.8997468948364
sg10
I100
sg11
I200
sa(dp66
g7
g64
sg9
F394.5021069049835
sg10
I100
sg11
I300
sa(dp67
g7
g64
sg9
F525.6938488483429
sg10
I100
sg11
I400
sa(dp68
g7
g64
sg9
F660.0086588859558
sg10
I100
sg11
I500
satp69
Rp70
(dp71
g25
I01
sg26
g31
sg32
(lp72
I3
aI5
aI30
aI9
asg34
I6
sg35
g36
(g3
tp73
Rp74
sbsS'IBEA'
p75
g2
(g3
g4
(lp76
(dp77
g7
(F0.131
F0.89
F0.073
I5
I5
tp78
sg9
F0.03666806221008301
sg10
I100
sg11
I0
sa(dp79
g7
(F0.1
F0.94
F0.09
I2
I3
tp80
sg9
F7.040527105331421
sg10
I100
sg11
I100
sa(dp81
g7
(F0.088
F2.407
F0.081
I1
I1
tp82
sg9
F14.152565956115723
sg10
I100
sg11
I200
sa(dp83
g7
(F0.037
F2.599
F0.099
I1
I2
tp84
sg9
F21.26943802833557
sg10
I100
sg11
I300
sa(dp85
g7
(F0.092
F2.312
F0.154
I1
I2
tp86
sg9
F28.386193990707397
sg10
I100
sg11
I400
sa(dp87
g7
(F0.125
F0.884
F0.112
I3
I9
tp88
sg9
F35.50146794319153
sg10
I100
sg11
I500
satp89
Rp90
(dp91
g25
I01
sg26
g31
sg32
(lp92
I3
aI5
aI30
aI9
asg34
I6
sg35
g36
(g3
tp93
Rp94
sbsS'NSGA2'
p95
g2
(g3
g4
(lp96
(dp97
g7
(F0.085
F1.0
F0.118
I3
I3
tp98
sg9
F0.017982006072998047
sg10
I100
sg11
I0
sa(dp99
g7
g64
sg9
F6.349879026412964
sg10
I100
sg11
I100
sa(dp100
g7
g64
sg9
F12.707427024841309
sg10
I100
sg11
I200
sa(dp101
g7
g64
sg9
F19.073083877563477
sg10
I100
sg11
I300
sa(dp102
g7
g64
sg9
F25.465266942977905
sg10
I100
sg11
I400
sa(dp103
g7
(F0.116
F0.905
F0.114
I2
I2
tp104
sg9
F31.891814947128296
sg10
I100
sg11
I500
satp105
Rp106
(dp107
g25
I01
sg26
g31
sg32
(lp108
I3
aI5
aI30
aI9
asg34
I6
sg35
g36
(g3
tp109
Rp110
sbsS'IBEA-SIP'
p111
g2
(g3
g4
(lp112
(dp113
g7
(F0.156
F0.759
F0.076
I11
I54
tp114
sg9
F0.018373966217041016
sg10
I100
sg11
I0
sa(dp115
g7
(F0.157
F0.758
F0.082
I12
I100
tp116
sg9
F6.354109048843384
sg10
I100
sg11
I100
sa(dp117
g7
(F0.157
F0.678
F0.09
I11
I100
tp118
sg9
F12.781646013259888
sg10
I100
sg11
I200
sa(dp119
g7
(F0.134
F0.78
F0.08
I10
I100
tp120
sg9
F19.275346040725708
sg10
I100
sg11
I300
sa(dp121
g7
(F0.149
F0.876
F0.056
I10
I100
tp122
sg9
F25.79534411430359
sg10
I100
sg11
I400
sa(dp123
g7
(F0.157
F0.838
F0.076
I13
I100
tp124
sg9
F32.34416103363037
sg10
I100
sg11
I500
satp125
Rp126
(dp127
g25
I01
sg26
g31
sg32
(lp128
I3
aI5
aI30
aI9
asg34
I6
sg35
g36
(g3
tp129
Rp130
sbs.