(dp0
S'NSGA2-SIP'
p1
ccopy_reg
_reconstructor
p2
(cdeap.tools.support
Logbook
p3
c__builtin__
list
p4
(lp5
(dp6
S'hv|spread|igd|frontier#|valid#'
p7
(F0.15
F0.732
F0.087
I14
I57
tp8
sS'timestamp'
p9
F0.01867389678955078
sS'evals'
p10
I100
sS'gen'
p11
I0
sa(dp12
g7
(F0.157
F0.99
F0.076
I13
I100
tp13
sg9
F2.2847559452056885
sg10
I100
sg11
I100
sa(dp14
g7
(F0.157
F0.81
F0.076
I13
I100
tp15
sg9
F4.554018974304199
sg10
I100
sg11
I200
sa(dp16
g7
(F0.157
F0.837
F0.076
I13
I100
tp17
sg9
F6.834604024887085
sg10
I100
sg11
I300
sa(dp18
g7
(F0.157
F0.904
F0.076
I13
I100
tp19
sg9
F9.150707960128784
sg10
I100
sg11
I400
sa(dp20
g7
(F0.157
F0.726
F0.076
I13
I100
tp21
sg9
F11.401012897491455
sg10
I100
sg11
I500
satp22
Rp23
(dp24
S'log_header'
p25
I01
sS'header'
p26
(S'gen'
p27
S'evals'
p28
S'hv|spread|igd|frontier#|valid#'
p29
S'timestamp'
p30
tp31
sS'columns_len'
p32
(lp33
I3
aI5
aI30
aI9
asS'buffindex'
p34
I6
sS'chapters'
p35
ccollections
defaultdict
p36
(g3
tp37
Rp38
sbsS'SPEA2-SIP'
p39
g2
(g3
g4
(lp40
(dp41
g7
(F0.153
F0.846
F0.1
I10
I58
tp42
sg9
F0.016827106475830078
sg10
I100
sg11
I0
sa(dp43
g7
(F0.157
F0.811
F0.082
I12
I100
tp44
sg9
F161.89652609825134
sg10
I100
sg11
I100
sa(dp45
g7
(F0.157
F0.852
F0.082
I12
I100
tp46
sg9
F327.6090760231018
sg10
I100
sg11
I200
sa(dp47
g7
(F0.157
F0.998
F0.082
I12
I100
tp48
sg9
F493.3514521121979
sg10
I100
sg11
I300
sa(dp49
g7
(F0.157
F0.954
F0.082
I12
I100
tp50
sg9
F655.9365570545197
sg10
I100
sg11
I400
sa(dp51
g7
(F0.157
F0.811
F0.082
I12
I100
tp52
sg9
F821.0183980464935
sg10
I100
sg11
I500
satp53
Rp54
(dp55
g25
I01
sg26
g31
sg32
(lp56
I3
aI5
aI30
aI9
asg34
I6
sg35
g36
(g3
tp57
Rp58
sbsS'SPEA2'
p59
g2
(g3
g4
(lp60
(dp61
g7
(F0.063
F0.966
F0.158
I2
I2
tp62
sg9
F0.016740083694458008
sg10
I100
sg11
I0
sa(dp63
g7
(I0
I0
I0
I0
I0
tp64
sg9
F121.12754511833191
sg10
I100
sg11
I100
sa(dp65
g7
g64
sg9
F245.43992614746094
sg10
I100
sg11
I200
sa(dp66
g7
g64
sg9
F369.2562301158905
sg10
I100
sg11
I300
sa(dp67
g7
g64
sg9
F491.3585889339447
sg10
I100
sg11
I400
sa(dp68
g7
g64
sg9
F614.996454000473
sg10
I100
sg11
I500
satp69
Rp70
(dp71
g25
I01
sg26
g31
sg32
(lp72
I3
aI5
aI30
aI9
asg34
I6
sg35
g36
(g3
tp73
Rp74
sbsS'IBEA'
p75
g2
(g3
g4
(lp76
(dp77
g7
(F0.053
F2.312
F0.126
I1
I1
tp78
sg9
F0.016215801239013672
sg10
I100
sg11
I0
sa(dp79
g7
(F0.1
F0.94
F0.09
I2
I7
tp80
sg9
F6.169930934906006
sg10
I100
sg11
I100
sa(dp81
g7
(F0.037
F2.599
F0.099
I1
I1
tp82
sg9
F12.481035947799683
sg10
I100
sg11
I200
sa(dp83
g7
(F0.037
F2.599
F0.099
I1
I1
tp84
sg9
F18.71143388748169
sg10
I100
sg11
I300
sa(dp85
g7
(F0.088
F2.407
F0.081
I1
I2
tp86
sg9
F24.919734001159668
sg10
I100
sg11
I400
sa(dp87
g7
g64
sg9
F31.23264789581299
sg10
I100
sg11
I500
satp88
Rp89
(dp90
g25
I01
sg26
g31
sg32
(lp91
I3
aI5
aI30
aI9
asg34
I6
sg35
g36
(g3
tp92
Rp93
sbsS'NSGA2'
p94
g2
(g3
g4
(lp95
(dp96
g7
(F0.084
F0.89
F0.141
I3
I3
tp97
sg9
F0.016917943954467773
sg10
I100
sg11
I0
sa(dp98
g7
(F0.088
F2.407
F0.081
I1
I1
tp99
sg9
F6.0345070362091064
sg10
I100
sg11
I100
sa(dp100
g7
g64
sg9
F12.057650089263916
sg10
I100
sg11
I200
sa(dp101
g7
(F0.088
F2.407
F0.081
I1
I1
tp102
sg9
F18.03326106071472
sg10
I100
sg11
I300
sa(dp103
g7
(F0.071
F2.236
F0.124
I1
I1
tp104
sg9
F23.9839870929718
sg10
I100
sg11
I400
sa(dp105
g7
g64
sg9
F29.952672004699707
sg10
I100
sg11
I500
satp106
Rp107
(dp108
g25
I01
sg26
g31
sg32
(lp109
I3
aI5
aI30
aI9
asg34
I6
sg35
g36
(g3
tp110
Rp111
sbsS'IBEA-SIP'
p112
g2
(g3
g4
(lp113
(dp114
g7
(F0.151
F0.757
F0.08
I14
I58
tp115
sg9
F0.018813133239746094
sg10
I100
sg11
I0
sa(dp116
g7
(F0.131
F0.858
F0.058
I10
I100
tp117
sg9
F5.897979974746704
sg10
I100
sg11
I100
sa(dp118
g7
(F0.15
F0.9
F0.079
I9
I100
tp119
sg9
F11.91673994064331
sg10
I100
sg11
I200
sa(dp120
g7
(F0.145
F0.911
F0.043
I10
I100
tp121
sg9
F17.99519109725952
sg10
I100
sg11
I300
sa(dp122
g7
(F0.156
F0.591
F0.092
I10
I100
tp123
sg9
F24.042593002319336
sg10
I100
sg11
I400
sa(dp124
g7
(F0.143
F0.978
F0.082
I11
I100
tp125
sg9
F30.028356075286865
sg10
I100
sg11
I500
satp126
Rp127
(dp128
g25
I01
sg26
g31
sg32
(lp129
I3
aI5
aI30
aI9
asg34
I6
sg35
g36
(g3
tp130
Rp131
sbs.