(dp0
S'NSGA2-SIP'
p1
ccopy_reg
_reconstructor
p2
(cdeap.tools.support
Logbook
p3
c__builtin__
list
p4
(lp5
(dp6
S'hv|spread|igd|frontier#|valid#'
p7
(F0.153
F0.855
F0.081
I10
I65
tp8
sS'timestamp'
p9
F0.017588138580322266
sS'evals'
p10
I100
sS'gen'
p11
I0
sa(dp12
g7
(F0.157
F0.904
F0.076
I13
I100
tp13
sg9
F2.284736156463623
sg10
I100
sg11
I100
sa(dp14
g7
(F0.157
F0.809
F0.076
I13
I100
tp15
sg9
F4.557541131973267
sg10
I100
sg11
I200
sa(dp16
g7
(F0.157
F0.817
F0.076
I13
I100
tp17
sg9
F6.830935001373291
sg10
I100
sg11
I300
sa(dp18
g7
(F0.157
F0.998
F0.076
I13
I100
tp19
sg9
F9.130975008010864
sg10
I100
sg11
I400
sa(dp20
g7
(F0.157
F0.947
F0.076
I13
I100
tp21
sg9
F11.432919979095459
sg10
I100
sg11
I500
satp22
Rp23
(dp24
S'log_header'
p25
I01
sS'header'
p26
(S'gen'
p27
S'evals'
p28
S'hv|spread|igd|frontier#|valid#'
p29
S'timestamp'
p30
tp31
sS'columns_len'
p32
(lp33
I3
aI5
aI30
aI9
asS'buffindex'
p34
I6
sS'chapters'
p35
ccollections
defaultdict
p36
(g3
tp37
Rp38
sbsS'SPEA2-SIP'
p39
g2
(g3
g4
(lp40
(dp41
g7
(F0.146
F0.765
F0.076
I12
I55
tp42
sg9
F0.01797008514404297
sg10
I100
sg11
I0
sa(dp43
g7
(F0.157
F0.867
F0.076
I13
I100
tp44
sg9
F156.96481800079346
sg10
I100
sg11
I100
sa(dp45
g7
(F0.157
F0.86
F0.076
I13
I100
tp46
sg9
F316.78664088249207
sg10
I100
sg11
I200
sa(dp47
g7
(F0.157
F0.809
F0.076
I13
I100
tp48
sg9
F477.4033989906311
sg10
I100
sg11
I300
sa(dp49
g7
(F0.157
F0.817
F0.076
I13
I100
tp50
sg9
F635.4463450908661
sg10
I100
sg11
I400
sa(dp51
g7
(F0.157
F0.805
F0.076
I13
I100
tp52
sg9
F796.654128074646
sg10
I100
sg11
I500
satp53
Rp54
(dp55
g25
I01
sg26
g31
sg32
(lp56
I3
aI5
aI30
aI9
asg34
I6
sg35
g36
(g3
tp57
Rp58
sbsS'SPEA2'
p59
g2
(g3
g4
(lp60
(dp61
g7
(F0.109
F0.933
F0.103
I2
I2
tp62
sg9
F0.016989946365356445
sg10
I100
sg11
I0
sa(dp63
g7
(I0
I0
I0
I0
I0
tp64
sg9
F120.3807270526886
sg10
I100
sg11
I100
sa(dp65
g7
g64
sg9
F245.5403528213501
sg10
I100
sg11
I200
sa(dp66
g7
g64
sg9
F372.27740693092346
sg10
I100
sg11
I300
sa(dp67
g7
g64
sg9
F498.43069791793823
sg10
I100
sg11
I400
sa(dp68
g7
g64
sg9
F622.5149669647217
sg10
I100
sg11
I500
satp69
Rp70
(dp71
g25
I01
sg26
g31
sg32
(lp72
I3
aI5
aI30
aI9
asg34
I6
sg35
g36
(g3
tp73
Rp74
sbsS'IBEA-PEN'
p75
g2
(g3
g4
(lp76
(dp77
g7
(F0.114
F0.824
F0.0
I5
I64
tp78
sg9
F0.021528005599975586
sg10
I100
sg11
I0
sa(dp79
g7
(F0.157
F0.854
F0.099
I10
I62
tp80
sg9
F6.449602127075195
sg10
I100
sg11
I100
sa(dp81
g7
(F0.138
F0.701
F0.093
I10
I57
tp82
sg9
F12.933141946792603
sg10
I100
sg11
I200
sa(dp83
g7
(F0.15
F0.813
F0.103
I8
I42
tp84
sg9
F19.44761300086975
sg10
I100
sg11
I300
sa(dp85
g7
(F0.139
F0.753
F0.091
I10
I51
tp86
sg9
F25.88336205482483
sg10
I100
sg11
I400
sa(dp87
g7
(F0.144
F0.816
F0.081
I11
I44
tp88
sg9
F32.317299127578735
sg10
I100
sg11
I500
satp89
Rp90
(dp91
g25
I01
sg26
g31
sg32
(lp92
I3
aI5
aI30
aI9
asg34
I6
sg35
g36
(g3
tp93
Rp94
sbsS'IBEA'
p95
g2
(g3
g4
(lp96
(dp97
g7
(F0.044
F2.236
F0.099
I1
I1
tp98
sg9
F0.016844987869262695
sg10
I100
sg11
I0
sa(dp99
g7
g64
sg9
F6.473250150680542
sg10
I100
sg11
I100
sa(dp100
g7
(F0.096
F0.968
F0.094
I2
I2
tp101
sg9
F13.176743984222412
sg10
I100
sg11
I200
sa(dp102
g7
g64
sg9
F19.862168073654175
sg10
I100
sg11
I300
sa(dp103
g7
(F0.059
F0.97
F0.103
I2
I2
tp104
sg9
F26.542423009872437
sg10
I100
sg11
I400
sa(dp105
g7
(F0.125
F0.884
F0.112
I3
I9
tp106
sg9
F33.23242402076721
sg10
I100
sg11
I500
satp107
Rp108
(dp109
g25
I01
sg26
g31
sg32
(lp110
I3
aI5
aI30
aI9
asg34
I6
sg35
g36
(g3
tp111
Rp112
sbsS'NSGA2'
p113
g2
(g3
g4
(lp114
(dp115
g7
(F0.087
F0.933
F0.114
I2
I2
tp116
sg9
F0.017014026641845703
sg10
I100
sg11
I0
sa(dp117
g7
g64
sg9
F6.019769906997681
sg10
I100
sg11
I100
sa(dp118
g7
g64
sg9
F12.0501389503479
sg10
I100
sg11
I200
sa(dp119
g7
g64
sg9
F18.144181966781616
sg10
I100
sg11
I300
sa(dp120
g7
g64
sg9
F24.186069011688232
sg10
I100
sg11
I400
sa(dp121
g7
g64
sg9
F30.274489879608154
sg10
I100
sg11
I500
satp122
Rp123
(dp124
g25
I01
sg26
g31
sg32
(lp125
I3
aI5
aI30
aI9
asg34
I6
sg35
g36
(g3
tp126
Rp127
sbsS'IBEA-SIP'
p128
g2
(g3
g4
(lp129
(dp130
g7
(F0.149
F0.791
F0.076
I10
I63
tp131
sg9
F0.016713857650756836
sg10
I100
sg11
I0
sa(dp132
g7
(F0.149
F0.981
F0.051
I11
I100
tp133
sg9
F5.890453815460205
sg10
I100
sg11
I100
sa(dp134
g7
(F0.149
F0.88
F0.072
I10
I100
tp135
sg9
F12.053993940353394
sg10
I100
sg11
I200
sa(dp136
g7
(F0.137
F0.7
F0.113
I8
I100
tp137
sg9
F18.187525987625122
sg10
I100
sg11
I300
sa(dp138
g7
(F0.151
F0.824
F0.065
I10
I100
tp139
sg9
F24.311028003692627
sg10
I100
sg11
I400
sa(dp140
g7
(F0.153
F0.773
F0.069
I11
I100
tp141
sg9
F30.461654901504517
sg10
I100
sg11
I500
satp142
Rp143
(dp144
g25
I01
sg26
g31
sg32
(lp145
I3
aI5
aI30
aI9
asg34
I6
sg35
g36
(g3
tp146
Rp147
sbs.