(dp0
S'NSGA2-SIP'
p1
ccopy_reg
_reconstructor
p2
(cdeap.tools.support
Logbook
p3
c__builtin__
list
p4
(lp5
(dp6
S'hv|spread|igd|frontier#|valid#'
p7
(F0.156
F0.732
F0.078
I12
I58
tp8
sS'timestamp'
p9
F0.01910400390625
sS'evals'
p10
I100
sS'gen'
p11
I0
sa(dp12
g7
(F0.157
F0.904
F0.076
I13
I100
tp13
sg9
F2.483276128768921
sg10
I100
sg11
I100
sa(dp14
g7
(F0.157
F0.904
F0.076
I13
I100
tp15
sg9
F4.937716007232666
sg10
I100
sg11
I200
sa(dp16
g7
(F0.157
F0.734
F0.076
I13
I100
tp17
sg9
F7.4388391971588135
sg10
I100
sg11
I300
sa(dp18
g7
(F0.157
F0.904
F0.076
I13
I100
tp19
sg9
F9.872414112091064
sg10
I100
sg11
I400
sa(dp20
g7
(F0.157
F0.809
F0.076
I13
I100
tp21
sg9
F12.340578079223633
sg10
I100
sg11
I500
satp22
Rp23
(dp24
S'log_header'
p25
I01
sS'header'
p26
(S'gen'
p27
S'evals'
p28
S'hv|spread|igd|frontier#|valid#'
p29
S'timestamp'
p30
tp31
sS'columns_len'
p32
(lp33
I3
aI5
aI30
aI9
asS'buffindex'
p34
I6
sS'chapters'
p35
ccollections
defaultdict
p36
(g3
tp37
Rp38
sbsS'SPEA2-SIP'
p39
g2
(g3
g4
(lp40
(dp41
g7
(F0.139
F0.834
F0.071
I11
I49
tp42
sg9
F0.017632007598876953
sg10
I100
sg11
I0
sa(dp43
g7
(F0.157
F0.998
F0.076
I13
I100
tp44
sg9
F174.28285384178162
sg10
I100
sg11
I100
sa(dp45
g7
(F0.157
F0.805
F0.076
I13
I100
tp46
sg9
F346.70471382141113
sg10
I100
sg11
I200
sa(dp47
g7
(F0.157
F0.726
F0.076
I13
I100
tp48
sg9
F512.8091118335724
sg10
I100
sg11
I300
sa(dp49
g7
(F0.157
F0.809
F0.076
I13
I100
tp50
sg9
F681.5381050109863
sg10
I100
sg11
I400
sa(dp51
g7
(F0.157
F0.834
F0.076
I13
I100
tp52
sg9
F849.3933019638062
sg10
I100
sg11
I500
satp53
Rp54
(dp55
g25
I01
sg26
g31
sg32
(lp56
I3
aI5
aI30
aI9
asg34
I6
sg35
g36
(g3
tp57
Rp58
sbsS'SPEA2'
p59
g2
(g3
g4
(lp60
(dp61
g7
(F0.111
F0.873
F0.145
I3
I4
tp62
sg9
F0.018349885940551758
sg10
I100
sg11
I0
sa(dp63
g7
(I0
I0
I0
I0
I0
tp64
sg9
F128.23171305656433
sg10
I100
sg11
I100
sa(dp65
g7
g64
sg9
F260.6063849925995
sg10
I100
sg11
I200
sa(dp66
g7
g64
sg9
F394.52854895591736
sg10
I100
sg11
I300
sa(dp67
g7
g64
sg9
F524.6308209896088
sg10
I100
sg11
I400
sa(dp68
g7
g64
sg9
F655.3080718517303
sg10
I100
sg11
I500
satp69
Rp70
(dp71
g25
I01
sg26
g31
sg32
(lp72
I3
aI5
aI30
aI9
asg34
I6
sg35
g36
(g3
tp73
Rp74
sbsS'IBEA-PEN'
p75
g2
(g3
g4
(lp76
(dp77
g7
(F0.114
F0.899
F0.0
I5
I69
tp78
sg9
F0.029744863510131836
sg10
I100
sg11
I0
sa(dp79
g7
g64
sg9
F7.157542943954468
sg10
I100
sg11
I100
sa(dp80
g7
(F0.037
F2.599
F0.099
I1
I1
tp81
sg9
F14.299224853515625
sg10
I100
sg11
I200
sa(dp82
g7
(F0.119
F0.884
F0.106
I3
I9
tp83
sg9
F21.446683883666992
sg10
I100
sg11
I300
sa(dp84
g7
(F0.037
F2.599
F0.099
I1
I7
tp85
sg9
F28.5864520072937
sg10
I100
sg11
I400
sa(dp86
g7
g64
sg9
F35.716442823410034
sg10
I100
sg11
I500
satp87
Rp88
(dp89
g25
I01
sg26
g31
sg32
(lp90
I3
aI5
aI30
aI9
asg34
I6
sg35
g36
(g3
tp91
Rp92
sbsS'IBEA'
p93
g2
(g3
g4
(lp94
(dp95
g7
(F0.091
F0.894
F0.094
I4
I5
tp96
sg9
F0.01883387565612793
sg10
I100
sg11
I0
sa(dp97
g7
(F0.037
F2.599
F0.099
I1
I1
tp98
sg9
F7.015099048614502
sg10
I100
sg11
I100
sa(dp99
g7
g64
sg9
F14.065830945968628
sg10
I100
sg11
I200
sa(dp100
g7
(F0.087
F2.236
F0.121
I1
I1
tp101
sg9
F21.101227045059204
sg10
I100
sg11
I300
sa(dp102
g7
g64
sg9
F28.141942977905273
sg10
I100
sg11
I400
sa(dp103
g7
g64
sg9
F35.179327964782715
sg10
I100
sg11
I500
satp104
Rp105
(dp106
g25
I01
sg26
g31
sg32
(lp107
I3
aI5
aI30
aI9
asg34
I6
sg35
g36
(g3
tp108
Rp109
sbsS'NSGA2'
p110
g2
(g3
g4
(lp111
(dp112
g7
(F0.091
F0.938
F0.087
I5
I7
tp113
sg9
F0.019443988800048828
sg10
I100
sg11
I0
sa(dp114
g7
(F0.055
F2.5
F0.106
I1
I1
tp115
sg9
F6.611088037490845
sg10
I100
sg11
I100
sa(dp116
g7
g64
sg9
F13.148462057113647
sg10
I100
sg11
I200
sa(dp117
g7
(F0.092
F2.312
F0.154
I1
I1
tp118
sg9
F19.67566990852356
sg10
I100
sg11
I300
sa(dp119
g7
g64
sg9
F26.163794994354248
sg10
I100
sg11
I400
sa(dp120
g7
g64
sg9
F32.67584705352783
sg10
I100
sg11
I500
satp121
Rp122
(dp123
g25
I01
sg26
g31
sg32
(lp124
I3
aI5
aI30
aI9
asg34
I6
sg35
g36
(g3
tp125
Rp126
sbsS'IBEA-SIP'
p127
g2
(g3
g4
(lp128
(dp129
g7
(F0.156
F0.767
F0.09
I12
I57
tp130
sg9
F0.018132925033569336
sg10
I100
sg11
I0
sa(dp131
g7
(F0.149
F0.865
F0.056
I10
I100
tp132
sg9
F6.3460869789123535
sg10
I100
sg11
I100
sa(dp133
g7
(F0.149
F0.74
F0.101
I9
I100
tp134
sg9
F12.834289073944092
sg10
I100
sg11
I200
sa(dp135
g7
(F0.128
F0.825
F0.073
I8
I100
tp136
sg9
F19.336673974990845
sg10
I100
sg11
I300
sa(dp137
g7
(F0.143
F1.023
F0.054
I8
I100
tp138
sg9
F25.786216974258423
sg10
I100
sg11
I400
sa(dp139
g7
(F0.156
F0.689
F0.098
I10
I100
tp140
sg9
F32.307066917419434
sg10
I100
sg11
I500
satp141
Rp142
(dp143
g25
I01
sg26
g31
sg32
(lp144
I3
aI5
aI30
aI9
asg34
I6
sg35
g36
(g3
tp145
Rp146
sbs.