(dp0
S'NSGA2-SIP'
p1
ccopy_reg
_reconstructor
p2
(cdeap.tools.support
Logbook
p3
c__builtin__
list
p4
(lp5
(dp6
S'hv|spread|igd|frontier#|valid#'
p7
(F0.157
F0.725
F0.076
I13
I55
tp8
sS'timestamp'
p9
F0.01750493049621582
sS'evals'
p10
I100
sS'gen'
p11
I0
sa(dp12
g7
(F0.157
F0.809
F0.076
I13
I100
tp13
sg9
F2.2544000148773193
sg10
I100
sg11
I100
sa(dp14
g7
(F0.157
F0.726
F0.076
I13
I100
tp15
sg9
F4.298357009887695
sg10
I100
sg11
I200
sa(dp16
g7
(F0.157
F0.827
F0.076
I13
I100
tp17
sg9
F6.417925834655762
sg10
I100
sg11
I300
sa(dp18
g7
(F0.157
F0.895
F0.076
I13
I100
tp19
sg9
F8.545167922973633
sg10
I100
sg11
I400
sa(dp20
g7
(F0.157
F0.895
F0.076
I13
I100
tp21
sg9
F10.669636964797974
sg10
I100
sg11
I500
satp22
Rp23
(dp24
S'log_header'
p25
I01
sS'header'
p26
(S'gen'
p27
S'evals'
p28
S'hv|spread|igd|frontier#|valid#'
p29
S'timestamp'
p30
tp31
sS'columns_len'
p32
(lp33
I3
aI5
aI30
aI9
asS'buffindex'
p34
I6
sS'chapters'
p35
ccollections
defaultdict
p36
(g3
tp37
Rp38
sbsS'SPEA2-SIP'
p39
g2
(g3
g4
(lp40
(dp41
g7
(F0.14
F0.876
F0.056
I12
I59
tp42
sg9
F0.017704010009765625
sg10
I100
sg11
I0
sa(dp43
g7
(F0.157
F0.726
F0.076
I13
I100
tp44
sg9
F143.52642107009888
sg10
I100
sg11
I100
sa(dp45
g7
(F0.157
F0.808
F0.076
I13
I100
tp46
sg9
F285.9188389778137
sg10
I100
sg11
I200
sa(dp47
g7
(F0.157
F0.998
F0.076
I13
I100
tp48
sg9
F429.4877710342407
sg10
I100
sg11
I300
sa(dp49
g7
(F0.157
F0.817
F0.076
I13
I100
tp50
sg9
F571.8397109508514
sg10
I100
sg11
I400
sa(dp51
g7
(F0.157
F0.86
F0.076
I13
I100
tp52
sg9
F714.4887990951538
sg10
I100
sg11
I500
satp53
Rp54
(dp55
g25
I01
sg26
g31
sg32
(lp56
I3
aI5
aI30
aI9
asg34
I6
sg35
g36
(g3
tp57
Rp58
sbsS'SPEA2'
p59
g2
(g3
g4
(lp60
(dp61
g7
(F0.103
F0.947
F0.064
I4
I4
tp62
sg9
F0.017264842987060547
sg10
I100
sg11
I0
sa(dp63
g7
(I0
I0
I0
I0
I0
tp64
sg9
F111.68150496482849
sg10
I100
sg11
I100
sa(dp65
g7
g64
sg9
F224.78486585617065
sg10
I100
sg11
I200
sa(dp66
g7
g64
sg9
F337.458988904953
sg10
I100
sg11
I300
sa(dp67
g7
g64
sg9
F449.0530869960785
sg10
I100
sg11
I400
sa(dp68
g7
g64
sg9
F561.1564810276031
sg10
I100
sg11
I500
satp69
Rp70
(dp71
g25
I01
sg26
g31
sg32
(lp72
I3
aI5
aI30
aI9
asg34
I6
sg35
g36
(g3
tp73
Rp74
sbsS'IBEA-PEN'
p75
g2
(g3
g4
(lp76
(dp77
g7
(F0.114
F0.9
F0.0
I5
I56
tp78
sg9
F0.027987957000732422
sg10
I100
sg11
I0
sa(dp79
g7
(F0.11
F0.908
F0.127
I2
I2
tp80
sg9
F6.2595720291137695
sg10
I100
sg11
I100
sa(dp81
g7
(F0.098
F0.968
F0.094
I2
I3
tp82
sg9
F12.323308944702148
sg10
I100
sg11
I200
sa(dp83
g7
(F0.088
F2.407
F0.081
I1
I1
tp84
sg9
F18.38988494873047
sg10
I100
sg11
I300
sa(dp85
g7
(F0.037
F2.599
F0.099
I1
I1
tp86
sg9
F24.461976051330566
sg10
I100
sg11
I400
sa(dp87
g7
g64
sg9
F30.524814128875732
sg10
I100
sg11
I500
satp88
Rp89
(dp90
g25
I01
sg26
g31
sg32
(lp91
I3
aI5
aI30
aI9
asg34
I6
sg35
g36
(g3
tp92
Rp93
sbsS'IBEA'
p94
g2
(g3
g4
(lp95
(dp96
g7
(F0.05
F0.968
F0.093
I2
I2
tp97
sg9
F0.02487802505493164
sg10
I100
sg11
I0
sa(dp98
g7
(F0.092
F2.312
F0.154
I1
I1
tp99
sg9
F6.375639915466309
sg10
I100
sg11
I100
sa(dp100
g7
g64
sg9
F12.358255863189697
sg10
I100
sg11
I200
sa(dp101
g7
(F0.037
F2.599
F0.099
I1
I1
tp102
sg9
F18.346925973892212
sg10
I100
sg11
I300
sa(dp103
g7
(F0.1
F0.94
F0.09
I2
I5
tp104
sg9
F24.326483964920044
sg10
I100
sg11
I400
sa(dp105
g7
(F0.113
F0.963
F0.118
I2
I3
tp106
sg9
F30.33088183403015
sg10
I100
sg11
I500
satp107
Rp108
(dp109
g25
I01
sg26
g31
sg32
(lp110
I3
aI5
aI30
aI9
asg34
I6
sg35
g36
(g3
tp111
Rp112
sbsS'NSGA2'
p113
g2
(g3
g4
(lp114
(dp115
g7
(F0.125
F0.859
F0.113
I4
I5
tp116
sg9
F0.017384052276611328
sg10
I100
sg11
I0
sa(dp117
g7
g64
sg9
F5.648859024047852
sg10
I100
sg11
I100
sa(dp118
g7
g64
sg9
F11.028351068496704
sg10
I100
sg11
I200
sa(dp119
g7
(F0.055
F2.5
F0.106
I1
I1
tp120
sg9
F16.379359006881714
sg10
I100
sg11
I300
sa(dp121
g7
g64
sg9
F21.76659393310547
sg10
I100
sg11
I400
sa(dp122
g7
g64
sg9
F27.153974056243896
sg10
I100
sg11
I500
satp123
Rp124
(dp125
g25
I01
sg26
g31
sg32
(lp126
I3
aI5
aI30
aI9
asg34
I6
sg35
g36
(g3
tp127
Rp128
sbsS'IBEA-SIP'
p129
g2
(g3
g4
(lp130
(dp131
g7
(F0.149
F0.85
F0.051
I11
I50
tp132
sg9
F0.016795873641967773
sg10
I100
sg11
I0
sa(dp133
g7
(F0.142
F0.925
F0.084
I10
I100
tp134
sg9
F5.623249053955078
sg10
I100
sg11
I100
sa(dp135
g7
(F0.149
F0.877
F0.067
I10
I100
tp136
sg9
F11.113288879394531
sg10
I100
sg11
I200
sa(dp137
g7
(F0.143
F0.692
F0.091
I10
I100
tp138
sg9
F16.626012086868286
sg10
I100
sg11
I300
sa(dp139
g7
(F0.139
F0.983
F0.082
I11
I100
tp140
sg9
F22.163233995437622
sg10
I100
sg11
I400
sa(dp141
g7
(F0.142
F0.762
F0.089
I9
I100
tp142
sg9
F27.73588991165161
sg10
I100
sg11
I500
satp143
Rp144
(dp145
g25
I01
sg26
g31
sg32
(lp146
I3
aI5
aI30
aI9
asg34
I6
sg35
g36
(g3
tp147
Rp148
sbs.