(dp0
S'NSGA2-SIP'
p1
ccopy_reg
_reconstructor
p2
(cdeap.tools.support
Logbook
p3
c__builtin__
list
p4
(lp5
(dp6
S'hv|spread|igd|frontier#|valid#'
p7
(F0.156
F0.669
F0.089
I11
I59
tp8
sS'timestamp'
p9
F0.016689777374267578
sS'evals'
p10
I100
sS'gen'
p11
I0
sa(dp12
g7
(F0.157
F0.642
F0.076
I13
I100
tp13
sg9
F2.275958776473999
sg10
I100
sg11
I100
sa(dp14
g7
(F0.157
F0.867
F0.076
I13
I100
tp15
sg9
F4.572295904159546
sg10
I100
sg11
I200
sa(dp16
g7
(F0.157
F0.947
F0.076
I13
I100
tp17
sg9
F6.823816776275635
sg10
I100
sg11
I300
sa(dp18
g7
(F0.157
F0.904
F0.076
I13
I100
tp19
sg9
F9.10261082649231
sg10
I100
sg11
I400
sa(dp20
g7
(F0.157
F0.809
F0.076
I13
I100
tp21
sg9
F11.37838077545166
sg10
I100
sg11
I500
satp22
Rp23
(dp24
S'log_header'
p25
I01
sS'header'
p26
(S'gen'
p27
S'evals'
p28
S'hv|spread|igd|frontier#|valid#'
p29
S'timestamp'
p30
tp31
sS'columns_len'
p32
(lp33
I3
aI5
aI30
aI9
asS'buffindex'
p34
I6
sS'chapters'
p35
ccollections
defaultdict
p36
(g3
tp37
Rp38
sbsS'SPEA2-SIP'
p39
g2
(g3
g4
(lp40
(dp41
g7
(F0.148
F0.87
F0.062
I9
I61
tp42
sg9
F0.016662120819091797
sg10
I100
sg11
I0
sa(dp43
g7
(F0.157
F0.808
F0.076
I13
I100
tp44
sg9
F160.05623316764832
sg10
I100
sg11
I100
sa(dp45
g7
(F0.157
F0.947
F0.076
I13
I100
tp46
sg9
F319.38001012802124
sg10
I100
sg11
I200
sa(dp47
g7
(F0.157
F0.726
F0.076
I13
I100
tp48
sg9
F479.78176498413086
sg10
I100
sg11
I300
sa(dp49
g7
(F0.157
F0.933
F0.076
I13
I100
tp50
sg9
F637.0791900157928
sg10
I100
sg11
I400
sa(dp51
g7
(F0.157
F0.837
F0.076
I13
I100
tp52
sg9
F797.5775601863861
sg10
I100
sg11
I500
satp53
Rp54
(dp55
g25
I01
sg26
g31
sg32
(lp56
I3
aI5
aI30
aI9
asg34
I6
sg35
g36
(g3
tp57
Rp58
sbsS'SPEA2'
p59
g2
(g3
g4
(lp60
(dp61
g7
(I0
I0
I0
I0
I0
tp62
sg9
F0.016393184661865234
sg10
I100
sg11
I0
sa(dp63
g7
g62
sg9
F122.38703513145447
sg10
I100
sg11
I100
sa(dp64
g7
g62
sg9
F247.20165514945984
sg10
I100
sg11
I200
sa(dp65
g7
g62
sg9
F371.8672981262207
sg10
I100
sg11
I300
sa(dp66
g7
g62
sg9
F498.47854709625244
sg10
I100
sg11
I400
sa(dp67
g7
g62
sg9
F623.4407579898834
sg10
I100
sg11
I500
satp68
Rp69
(dp70
g25
I01
sg26
g31
sg32
(lp71
I3
aI5
aI30
aI9
asg34
I6
sg35
g36
(g3
tp72
Rp73
sbsS'IBEA'
p74
g2
(g3
g4
(lp75
(dp76
g7
(F0.036
F0.968
F0.144
I2
I2
tp77
sg9
F0.01714611053466797
sg10
I100
sg11
I0
sa(dp78
g7
g62
sg9
F6.641848087310791
sg10
I100
sg11
I100
sa(dp79
g7
(F0.071
F2.312
F0.142
I1
I1
tp80
sg9
F13.415441036224365
sg10
I100
sg11
I200
sa(dp81
g7
(F0.125
F0.884
F0.112
I3
I3
tp82
sg9
F20.212913036346436
sg10
I100
sg11
I300
sa(dp83
g7
(F0.088
F2.407
F0.081
I1
I2
tp84
sg9
F27.00615906715393
sg10
I100
sg11
I400
sa(dp85
g7
(F0.088
F2.407
F0.081
I1
I1
tp86
sg9
F33.772298097610474
sg10
I100
sg11
I500
satp87
Rp88
(dp89
g25
I01
sg26
g31
sg32
(lp90
I3
aI5
aI30
aI9
asg34
I6
sg35
g36
(g3
tp91
Rp92
sbsS'NSGA2'
p93
g2
(g3
g4
(lp94
(dp95
g7
(F0.076
F0.972
F0.127
I6
I6
tp96
sg9
F0.018034934997558594
sg10
I100
sg11
I0
sa(dp97
g7
g62
sg9
F6.02289605140686
sg10
I100
sg11
I100
sa(dp98
g7
g62
sg9
F12.087346076965332
sg10
I100
sg11
I200
sa(dp99
g7
(F0.088
F2.407
F0.081
I1
I1
tp100
sg9
F18.129724979400635
sg10
I100
sg11
I300
sa(dp101
g7
g62
sg9
F24.18806505203247
sg10
I100
sg11
I400
sa(dp102
g7
g62
sg9
F30.27714490890503
sg10
I100
sg11
I500
satp103
Rp104
(dp105
g25
I01
sg26
g31
sg32
(lp106
I3
aI5
aI30
aI9
asg34
I6
sg35
g36
(g3
tp107
Rp108
sbsS'IBEA-SIP'
p109
g2
(g3
g4
(lp110
(dp111
g7
(F0.154
F0.822
F0.071
I12
I56
tp112
sg9
F0.01754593849182129
sg10
I100
sg11
I0
sa(dp113
g7
(F0.148
F0.914
F0.067
I9
I100
tp114
sg9
F6.0407209396362305
sg10
I100
sg11
I100
sa(dp115
g7
(F0.157
F0.619
F0.09
I11
I100
tp116
sg9
F12.245373010635376
sg10
I100
sg11
I200
sa(dp117
g7
(F0.152
F0.807
F0.077
I9
I100
tp118
sg9
F18.42405605316162
sg10
I100
sg11
I300
sa(dp119
g7
(F0.139
F0.837
F0.082
I11
I100
tp120
sg9
F24.55034899711609
sg10
I100
sg11
I400
sa(dp121
g7
(F0.137
F0.802
F0.101
I9
I100
tp122
sg9
F30.75960898399353
sg10
I100
sg11
I500
satp123
Rp124
(dp125
g25
I01
sg26
g31
sg32
(lp126
I3
aI5
aI30
aI9
asg34
I6
sg35
g36
(g3
tp127
Rp128
sbs.