(dp0
S'NSGA2-SIP'
p1
ccopy_reg
_reconstructor
p2
(cdeap.tools.support
Logbook
p3
c__builtin__
list
p4
(lp5
(dp6
S'hv|spread|igd|frontier#|valid#'
p7
(F0.157
F0.827
F0.09
I11
I52
tp8
sS'timestamp'
p9
F0.018345117568969727
sS'evals'
p10
I100
sS'gen'
p11
I0
sa(dp12
g7
(F0.157
F0.815
F0.076
I13
I100
tp13
sg9
F2.5033211708068848
sg10
I100
sg11
I100
sa(dp14
g7
(F0.157
F0.808
F0.076
I13
I100
tp15
sg9
F4.986019134521484
sg10
I100
sg11
I200
sa(dp16
g7
(F0.157
F0.805
F0.076
I13
I100
tp17
sg9
F7.491113185882568
sg10
I100
sg11
I300
sa(dp18
g7
(F0.157
F0.827
F0.076
I13
I100
tp19
sg9
F9.987990140914917
sg10
I100
sg11
I400
sa(dp20
g7
(F0.157
F0.86
F0.076
I13
I100
tp21
sg9
F12.498952150344849
sg10
I100
sg11
I500
satp22
Rp23
(dp24
S'log_header'
p25
I01
sS'header'
p26
(S'gen'
p27
S'evals'
p28
g7
S'timestamp'
p29
tp30
sS'columns_len'
p31
(lp32
I3
aI5
aI30
aI9
asS'buffindex'
p33
I6
sS'chapters'
p34
ccollections
defaultdict
p35
(g3
tp36
Rp37
sbsS'SPEA2-SIP'
p38
g2
(g3
g4
(lp39
(dp40
g7
(F0.153
F0.846
F0.088
I11
I52
tp41
sg9
F0.018294811248779297
sg10
I100
sg11
I0
sa(dp42
g7
(F0.157
F0.815
F0.076
I13
I100
tp43
sg9
F171.1171748638153
sg10
I100
sg11
I100
sa(dp44
g7
(F0.157
F0.837
F0.076
I13
I100
tp45
sg9
F341.02838492393494
sg10
I100
sg11
I200
sa(dp46
g7
(F0.157
F0.86
F0.076
I13
I100
tp47
sg9
F510.8653337955475
sg10
I100
sg11
I300
sa(dp48
g7
(F0.157
F0.734
F0.076
I13
I100
tp49
sg9
F684.1503520011902
sg10
I100
sg11
I400
sa(dp50
g7
(F0.157
F0.805
F0.076
I13
I100
tp51
sg9
F854.882504940033
sg10
I100
sg11
I500
satp52
Rp53
(dp54
g25
I01
sg26
g30
sg31
(lp55
I3
aI5
aI30
aI9
asg33
I6
sg34
g35
(g3
tp56
Rp57
sbsS'SPEA2'
p58
g2
(g3
g4
(lp59
(dp60
g7
(F0.098
F0.833
F0.12
I6
I7
tp61
sg9
F0.018856048583984375
sg10
I100
sg11
I0
sa(dp62
g7
(I0
I0
I0
I0
I0
tp63
sg9
F126.53691816329956
sg10
I100
sg11
I100
sa(dp64
g7
g63
sg9
F261.382826089859
sg10
I100
sg11
I200
sa(dp65
g7
g63
sg9
F393.85068011283875
sg10
I100
sg11
I300
sa(dp66
g7
g63
sg9
F526.7095491886139
sg10
I100
sg11
I400
sa(dp67
g7
g63
sg9
F660.0213739871979
sg10
I100
sg11
I500
satp68
Rp69
(dp70
g25
I01
sg26
g30
sg31
(lp71
I3
aI5
aI30
aI9
asg33
I6
sg34
g35
(g3
tp72
Rp73
sbsS'IBEA'
p74
g2
(g3
g4
(lp75
(dp76
g7
(F0.098
F0.934
F0.069
I2
I4
tp77
sg9
F0.01852107048034668
sg10
I100
sg11
I0
sa(dp78
g7
(F0.11
F0.892
F0.106
I4
I4
tp79
sg9
F7.2398529052734375
sg10
I100
sg11
I100
sa(dp80
g7
(F0.098
F0.968
F0.094
I2
I2
tp81
sg9
F14.591182947158813
sg10
I100
sg11
I200
sa(dp82
g7
(F0.088
F2.407
F0.081
I1
I6
tp83
sg9
F21.94593596458435
sg10
I100
sg11
I300
sa(dp84
g7
g63
sg9
F29.309349060058594
sg10
I100
sg11
I400
sa(dp85
g7
(F0.088
F2.407
F0.081
I1
I1
tp86
sg9
F36.64978790283203
sg10
I100
sg11
I500
satp87
Rp88
(dp89
g25
I01
sg26
g30
sg31
(lp90
I3
aI5
aI30
aI9
asg33
I6
sg34
g35
(g3
tp91
Rp92
sbsS'NSGA2'
p93
g2
(g3
g4
(lp94
(dp95
g7
(F0.099
F0.966
F0.114
I2
I2
tp96
sg9
F0.018373966217041016
sg10
I100
sg11
I0
sa(dp97
g7
g63
sg9
F6.382081985473633
sg10
I100
sg11
I100
sa(dp98
g7
g63
sg9
F12.877140998840332
sg10
I100
sg11
I200
sa(dp99
g7
(F0.11
F0.908
F0.127
I2
I2
tp100
sg9
F19.5568208694458
sg10
I100
sg11
I300
sa(dp101
g7
g63
sg9
F26.083671808242798
sg10
I100
sg11
I400
sa(dp102
g7
g63
sg9
F32.59835982322693
sg10
I100
sg11
I500
satp103
Rp104
(dp105
g25
I01
sg26
g30
sg31
(lp106
I3
aI5
aI30
aI9
asg33
I6
sg34
g35
(g3
tp107
Rp108
sbsS'IBEA-SIP'
p109
g2
(g3
g4
(lp110
(dp111
g7
(F0.149
F0.854
F0.058
I12
I58
tp112
sg9
F0.018956899642944336
sg10
I100
sg11
I0
sa(dp113
g7
(F0.155
F0.648
F0.115
I8
I100
tp114
sg9
F6.565881013870239
sg10
I100
sg11
I100
sa(dp115
g7
(F0.139
F0.612
F0.092
I8
I100
tp116
sg9
F13.235270023345947
sg10
I100
sg11
I200
sa(dp117
g7
(F0.152
F0.793
F0.076
I10
I100
tp118
sg9
F19.948612928390503
sg10
I100
sg11
I300
sa(dp119
g7
(F0.137
F0.693
F0.084
I10
I100
tp120
sg9
F26.6667959690094
sg10
I100
sg11
I400
sa(dp121
g7
(F0.147
F0.881
F0.086
I9
I100
tp122
sg9
F33.29989004135132
sg10
I100
sg11
I500
satp123
Rp124
(dp125
g25
I01
sg26
g30
sg31
(lp126
I3
aI5
aI30
aI9
asg33
I6
sg34
g35
(g3
tp127
Rp128
sbs.