(dp0
S'NSGA2-SIP'
p1
ccopy_reg
_reconstructor
p2
(cdeap.tools.support
Logbook
p3
c__builtin__
list
p4
(lp5
(dp6
S'hv|spread|igd|frontier#|valid#'
p7
(F0.151
F0.687
F0.084
I13
I60
tp8
sS'timestamp'
p9
F0.020422935485839844
sS'evals'
p10
I100
sS'gen'
p11
I0
sa(dp12
g7
(F0.157
F0.86
F0.076
I13
I100
tp13
sg9
F2.610790967941284
sg10
I100
sg11
I100
sa(dp14
g7
(F0.157
F0.86
F0.076
I13
I100
tp15
sg9
F5.315347909927368
sg10
I100
sg11
I200
sa(dp16
g7
(F0.157
F0.99
F0.076
I13
I100
tp17
sg9
F8.028311014175415
sg10
I100
sg11
I300
sa(dp18
g7
(F0.157
F0.805
F0.076
I13
I100
tp19
sg9
F10.736371040344238
sg10
I100
sg11
I400
sa(dp20
g7
(F0.157
F0.99
F0.076
I13
I100
tp21
sg9
F13.444140911102295
sg10
I100
sg11
I500
satp22
Rp23
(dp24
S'log_header'
p25
I01
sS'header'
p26
(S'gen'
p27
S'evals'
p28
S'hv|spread|igd|frontier#|valid#'
p29
S'timestamp'
p30
tp31
sS'columns_len'
p32
(lp33
I3
aI5
aI30
aI9
asS'buffindex'
p34
I6
sS'chapters'
p35
ccollections
defaultdict
p36
(g3
tp37
Rp38
sbsS'SPEA2-SIP'
p39
g2
(g3
g4
(lp40
(dp41
g7
(F0.146
F0.833
F0.083
I13
I57
tp42
sg9
F0.020634889602661133
sg10
I100
sg11
I0
sa(dp43
g7
(F0.157
F0.702
F0.082
I12
I100
tp44
sg9
F172.97100186347961
sg10
I100
sg11
I100
sa(dp45
g7
(F0.157
F0.702
F0.082
I12
I100
tp46
sg9
F351.5755579471588
sg10
I100
sg11
I200
sa(dp47
g7
(F0.157
F0.702
F0.082
I12
I100
tp48
sg9
F529.7539520263672
sg10
I100
sg11
I300
sa(dp49
g7
(F0.157
F0.998
F0.076
I13
I100
tp50
sg9
F706.297523021698
sg10
I100
sg11
I400
sa(dp51
g7
(F0.157
F0.63
F0.076
I13
I100
tp52
sg9
F881.0106070041656
sg10
I100
sg11
I500
satp53
Rp54
(dp55
g25
I01
sg26
g31
sg32
(lp56
I3
aI5
aI30
aI9
asg34
I6
sg35
g36
(g3
tp57
Rp58
sbsS'SPEA2'
p59
g2
(g3
g4
(lp60
(dp61
g7
(F0.056
F2.236
F0.099
I1
I2
tp62
sg9
F0.01925492286682129
sg10
I100
sg11
I0
sa(dp63
g7
(I0
I0
I0
I0
I0
tp64
sg9
F131.8845829963684
sg10
I100
sg11
I100
sa(dp65
g7
g64
sg9
F268.3160910606384
sg10
I100
sg11
I200
sa(dp66
g7
g64
sg9
F404.35315704345703
sg10
I100
sg11
I300
sa(dp67
g7
g64
sg9
F537.8773748874664
sg10
I100
sg11
I400
sa(dp68
g7
g64
sg9
F673.2739279270172
sg10
I100
sg11
I500
satp69
Rp70
(dp71
g25
I01
sg26
g31
sg32
(lp72
I3
aI5
aI30
aI9
asg34
I6
sg35
g36
(g3
tp73
Rp74
sbsS'IBEA-PEN'
p75
g2
(g3
g4
(lp76
(dp77
g7
(F0.114
F0.899
F0.0
I5
I63
tp78
sg9
F0.03234410285949707
sg10
I100
sg11
I0
sa(dp79
g7
(F0.118
F0.942
F0.12
I3
I4
tp80
sg9
F6.949066162109375
sg10
I100
sg11
I100
sa(dp81
g7
(F0.037
F2.599
F0.099
I1
I1
tp82
sg9
F13.820316076278687
sg10
I100
sg11
I200
sa(dp83
g7
(F0.037
F2.599
F0.099
I1
I1
tp84
sg9
F20.67621111869812
sg10
I100
sg11
I300
sa(dp85
g7
(F0.088
F2.407
F0.081
I1
I1
tp86
sg9
F27.538758039474487
sg10
I100
sg11
I400
sa(dp87
g7
(F0.124
F0.939
F0.114
I3
I8
tp88
sg9
F34.40893816947937
sg10
I100
sg11
I500
satp89
Rp90
(dp91
g25
I01
sg26
g31
sg32
(lp92
I3
aI5
aI30
aI9
asg34
I6
sg35
g36
(g3
tp93
Rp94
sbsS'IBEA'
p95
g2
(g3
g4
(lp96
(dp97
g7
(F0.122
F0.95
F0.106
I5
I5
tp98
sg9
F0.020550012588500977
sg10
I100
sg11
I0
sa(dp99
g7
g64
sg9
F6.780148983001709
sg10
I100
sg11
I100
sa(dp100
g7
(F0.119
F0.933
F0.095
I3
I4
tp101
sg9
F13.544504880905151
sg10
I100
sg11
I200
sa(dp102
g7
(F0.088
F2.407
F0.081
I1
I2
tp103
sg9
F20.316386938095093
sg10
I100
sg11
I300
sa(dp104
g7
g64
sg9
F27.055022954940796
sg10
I100
sg11
I400
sa(dp105
g7
(F0.037
F2.599
F0.099
I1
I1
tp106
sg9
F33.81213593482971
sg10
I100
sg11
I500
satp107
Rp108
(dp109
g25
I01
sg26
g31
sg32
(lp110
I3
aI5
aI30
aI9
asg34
I6
sg35
g36
(g3
tp111
Rp112
sbsS'NSGA2'
p113
g2
(g3
g4
(lp114
(dp115
g7
(F0.038
F0.97
F0.079
I2
I3
tp116
sg9
F0.019627094268798828
sg10
I100
sg11
I0
sa(dp117
g7
g64
sg9
F6.92583703994751
sg10
I100
sg11
I100
sa(dp118
g7
(F0.055
F2.5
F0.106
I1
I1
tp119
sg9
F13.925426006317139
sg10
I100
sg11
I200
sa(dp120
g7
(F0.098
F0.968
F0.094
I2
I2
tp121
sg9
F20.896193981170654
sg10
I100
sg11
I300
sa(dp122
g7
g64
sg9
F27.857887983322144
sg10
I100
sg11
I400
sa(dp123
g7
(F0.055
F2.5
F0.106
I1
I1
tp124
sg9
F34.81538009643555
sg10
I100
sg11
I500
satp125
Rp126
(dp127
g25
I01
sg26
g31
sg32
(lp128
I3
aI5
aI30
aI9
asg34
I6
sg35
g36
(g3
tp129
Rp130
sbsS'IBEA-SIP'
p131
g2
(g3
g4
(lp132
(dp133
g7
(F0.155
F0.714
F0.075
I13
I62
tp134
sg9
F0.020793914794921875
sg10
I100
sg11
I0
sa(dp135
g7
(F0.154
F0.845
F0.086
I10
I100
tp136
sg9
F6.130717039108276
sg10
I100
sg11
I100
sa(dp137
g7
(F0.156
F0.68
F0.089
I10
I100
tp138
sg9
F12.360358953475952
sg10
I100
sg11
I200
sa(dp139
g7
(F0.139
F0.749
F0.08
I10
I100
tp140
sg9
F18.613595962524414
sg10
I100
sg11
I300
sa(dp141
g7
(F0.143
F0.839
F0.091
I10
I100
tp142
sg9
F24.853071928024292
sg10
I100
sg11
I400
sa(dp143
g7
(F0.156
F0.75
F0.11
I9
I100
tp144
sg9
F31.040019989013672
sg10
I100
sg11
I500
satp145
Rp146
(dp147
g25
I01
sg26
g31
sg32
(lp148
I3
aI5
aI30
aI9
asg34
I6
sg35
g36
(g3
tp149
Rp150
sbs.