(dp0
S'NSGA2-SIP'
p1
ccopy_reg
_reconstructor
p2
(cdeap.tools.support
Logbook
p3
c__builtin__
list
p4
(lp5
(dp6
S'hv|spread|igd|frontier#|valid#'
p7
(F0.145
F0.747
F0.092
I13
I55
tp8
sS'timestamp'
p9
F0.021322011947631836
sS'evals'
p10
I100
sS'gen'
p11
I0
sa(dp12
g7
(F0.157
F0.947
F0.076
I13
I100
tp13
sg9
F2.6909539699554443
sg10
I100
sg11
I100
sa(dp14
g7
(F0.157
F0.817
F0.076
I13
I100
tp15
sg9
F5.386624097824097
sg10
I100
sg11
I200
sa(dp16
g7
(F0.157
F0.904
F0.076
I13
I100
tp17
sg9
F8.049235105514526
sg10
I100
sg11
I300
sa(dp18
g7
(F0.157
F0.947
F0.076
I13
I100
tp19
sg9
F10.724388122558594
sg10
I100
sg11
I400
sa(dp20
g7
(F0.157
F0.817
F0.076
I13
I100
tp21
sg9
F13.400737047195435
sg10
I100
sg11
I500
satp22
Rp23
(dp24
S'log_header'
p25
I01
sS'header'
p26
(S'gen'
p27
S'evals'
p28
S'hv|spread|igd|frontier#|valid#'
p29
S'timestamp'
p30
tp31
sS'columns_len'
p32
(lp33
I3
aI5
aI30
aI9
asS'buffindex'
p34
I6
sS'chapters'
p35
ccollections
defaultdict
p36
(g3
tp37
Rp38
sbsS'SPEA2-SIP'
p39
g2
(g3
g4
(lp40
(dp41
g7
(F0.157
F0.766
F0.082
I12
I56
tp42
sg9
F0.02072000503540039
sg10
I100
sg11
I0
sa(dp43
g7
(F0.157
F0.834
F0.076
I13
I100
tp44
sg9
F173.18698000907898
sg10
I100
sg11
I100
sa(dp45
g7
(F0.157
F0.99
F0.076
I13
I100
tp46
sg9
F347.9122030735016
sg10
I100
sg11
I200
sa(dp47
g7
(F0.157
F0.895
F0.076
I13
I100
tp48
sg9
F525.6291179656982
sg10
I100
sg11
I300
sa(dp49
g7
(F0.157
F0.904
F0.076
I13
I100
tp50
sg9
F696.3342950344086
sg10
I100
sg11
I400
sa(dp51
g7
(F0.157
F0.726
F0.076
I13
I100
tp52
sg9
F871.7749018669128
sg10
I100
sg11
I500
satp53
Rp54
(dp55
g25
I01
sg26
g31
sg32
(lp56
I3
aI5
aI30
aI9
asg34
I6
sg35
g36
(g3
tp57
Rp58
sbsS'SPEA2'
p59
g2
(g3
g4
(lp60
(dp61
g7
(F0.103
F0.862
F0.139
I4
I8
tp62
sg9
F0.020249128341674805
sg10
I100
sg11
I0
sa(dp63
g7
(I0
I0
I0
I0
I0
tp64
sg9
F136.56614899635315
sg10
I100
sg11
I100
sa(dp65
g7
g64
sg9
F275.0097379684448
sg10
I100
sg11
I200
sa(dp66
g7
g64
sg9
F411.82957315444946
sg10
I100
sg11
I300
sa(dp67
g7
g64
sg9
F545.985719203949
sg10
I100
sg11
I400
sa(dp68
g7
g64
sg9
F681.1606020927429
sg10
I100
sg11
I500
satp69
Rp70
(dp71
g25
I01
sg26
g31
sg32
(lp72
I3
aI5
aI30
aI9
asg34
I6
sg35
g36
(g3
tp73
Rp74
sbsS'IBEA'
p75
g2
(g3
g4
(lp76
(dp77
g7
(F0.098
F0.884
F0.1
I4
I6
tp78
sg9
F0.0203249454498291
sg10
I100
sg11
I0
sa(dp79
g7
(F0.088
F2.407
F0.081
I1
I1
tp80
sg9
F6.8315749168396
sg10
I100
sg11
I100
sa(dp81
g7
g64
sg9
F13.717613935470581
sg10
I100
sg11
I200
sa(dp82
g7
(F0.037
F2.599
F0.099
I1
I1
tp83
sg9
F20.62785291671753
sg10
I100
sg11
I300
sa(dp84
g7
(F0.113
F0.963
F0.118
I2
I3
tp85
sg9
F27.550367832183838
sg10
I100
sg11
I400
sa(dp86
g7
(F0.059
F0.97
F0.103
I2
I4
tp87
sg9
F34.53448295593262
sg10
I100
sg11
I500
satp88
Rp89
(dp90
g25
I01
sg26
g31
sg32
(lp91
I3
aI5
aI30
aI9
asg34
I6
sg35
g36
(g3
tp92
Rp93
sbsS'NSGA2'
p94
g2
(g3
g4
(lp95
(dp96
g7
(F0.089
F0.934
F0.1
I5
I5
tp97
sg9
F0.020585060119628906
sg10
I100
sg11
I0
sa(dp98
g7
g64
sg9
F6.958510160446167
sg10
I100
sg11
I100
sa(dp99
g7
(F0.087
F2.236
F0.121
I1
I1
tp100
sg9
F13.946709156036377
sg10
I100
sg11
I200
sa(dp101
g7
(F0.087
F2.236
F0.121
I1
I1
tp102
sg9
F20.88487720489502
sg10
I100
sg11
I300
sa(dp103
g7
g64
sg9
F27.85753607749939
sg10
I100
sg11
I400
sa(dp104
g7
g64
sg9
F34.78928017616272
sg10
I100
sg11
I500
satp105
Rp106
(dp107
g25
I01
sg26
g31
sg32
(lp108
I3
aI5
aI30
aI9
asg34
I6
sg35
g36
(g3
tp109
Rp110
sbsS'IBEA-SIP'
p111
g2
(g3
g4
(lp112
(dp113
g7
(F0.153
F0.764
F0.072
I12
I55
tp114
sg9
F0.020506858825683594
sg10
I100
sg11
I0
sa(dp115
g7
(F0.143
F0.835
F0.082
I11
I100
tp116
sg9
F6.290209054946899
sg10
I100
sg11
I100
sa(dp117
g7
(F0.156
F0.743
F0.08
I11
I100
tp118
sg9
F12.710614919662476
sg10
I100
sg11
I200
sa(dp119
g7
(F0.137
F0.937
F0.058
I10
I100
tp120
sg9
F19.152777910232544
sg10
I100
sg11
I300
sa(dp121
g7
(F0.155
F0.918
F0.098
I9
I100
tp122
sg9
F25.573128938674927
sg10
I100
sg11
I400
sa(dp123
g7
(F0.135
F0.828
F0.093
I9
I100
tp124
sg9
F31.934706926345825
sg10
I100
sg11
I500
satp125
Rp126
(dp127
g25
I01
sg26
g31
sg32
(lp128
I3
aI5
aI30
aI9
asg34
I6
sg35
g36
(g3
tp129
Rp130
sbs.