(dp0
S'NSGA2-SIP'
p1
ccopy_reg
_reconstructor
p2
(cdeap.tools.support
Logbook
p3
c__builtin__
list
p4
(lp5
(dp6
S'hv|spread|igd|frontier#|valid#'
p7
(F0.154
F0.875
F0.078
I11
I53
tp8
sS'timestamp'
p9
F0.015594005584716797
sS'evals'
p10
I100
sS'gen'
p11
I0
sa(dp12
g7
(F0.157
F0.809
F0.076
I13
I100
tp13
sg9
F2.1768958568573
sg10
I100
sg11
I100
sa(dp14
g7
(F0.157
F0.895
F0.076
I13
I100
tp15
sg9
F4.384714841842651
sg10
I100
sg11
I200
sa(dp16
g7
(F0.157
F0.808
F0.076
I13
I100
tp17
sg9
F6.590817928314209
sg10
I100
sg11
I300
sa(dp18
g7
(F0.157
F0.809
F0.076
I13
I100
tp19
sg9
F8.798105955123901
sg10
I100
sg11
I400
sa(dp20
g7
(F0.157
F0.86
F0.076
I13
I100
tp21
sg9
F11.006219863891602
sg10
I100
sg11
I500
satp22
Rp23
(dp24
S'log_header'
p25
I01
sS'header'
p26
(S'gen'
p27
S'evals'
p28
S'hv|spread|igd|frontier#|valid#'
p29
S'timestamp'
p30
tp31
sS'columns_len'
p32
(lp33
I3
aI5
aI30
aI9
asS'buffindex'
p34
I6
sS'chapters'
p35
ccollections
defaultdict
p36
(g3
tp37
Rp38
sbsS'SPEA2-SIP'
p39
g2
(g3
g4
(lp40
(dp41
g7
(F0.144
F0.77
F0.083
I12
I53
tp42
sg9
F0.02507615089416504
sg10
I100
sg11
I0
sa(dp43
g7
(F0.157
F0.837
F0.076
I13
I100
tp44
sg9
F147.1876380443573
sg10
I100
sg11
I100
sa(dp45
g7
(F0.157
F0.998
F0.076
I13
I100
tp46
sg9
F296.0626730918884
sg10
I100
sg11
I200
sa(dp47
g7
(F0.157
F0.99
F0.076
I13
I100
tp48
sg9
F445.6840281486511
sg10
I100
sg11
I300
sa(dp49
g7
(F0.157
F0.904
F0.076
I13
I100
tp50
sg9
F596.5234799385071
sg10
I100
sg11
I400
sa(dp51
g7
(F0.157
F0.815
F0.076
I13
I100
tp52
sg9
F745.7903740406036
sg10
I100
sg11
I500
satp53
Rp54
(dp55
g25
I01
sg26
g31
sg32
(lp56
I3
aI5
aI30
aI9
asg34
I6
sg35
g36
(g3
tp57
Rp58
sbsS'SPEA2'
p59
g2
(g3
g4
(lp60
(dp61
g7
(F0.061
F1.0
F0.106
I2
I2
tp62
sg9
F0.01580214500427246
sg10
I100
sg11
I0
sa(dp63
g7
(I0
I0
I0
I0
I0
tp64
sg9
F115.82545304298401
sg10
I100
sg11
I100
sa(dp65
g7
g64
sg9
F232.47708702087402
sg10
I100
sg11
I200
sa(dp66
g7
g64
sg9
F349.46507811546326
sg10
I100
sg11
I300
sa(dp67
g7
g64
sg9
F465.95434403419495
sg10
I100
sg11
I400
sa(dp68
g7
g64
sg9
F584.0903651714325
sg10
I100
sg11
I500
satp69
Rp70
(dp71
g25
I01
sg26
g31
sg32
(lp72
I3
aI5
aI30
aI9
asg34
I6
sg35
g36
(g3
tp73
Rp74
sbsS'IBEA'
p75
g2
(g3
g4
(lp76
(dp77
g7
(F0.11
F0.894
F0.087
I5
I5
tp78
sg9
F0.018658876419067383
sg10
I100
sg11
I0
sa(dp79
g7
(F0.1
F0.94
F0.09
I2
I8
tp80
sg9
F6.160338878631592
sg10
I100
sg11
I100
sa(dp81
g7
(F0.037
F2.599
F0.099
I1
I6
tp82
sg9
F12.336987972259521
sg10
I100
sg11
I200
sa(dp83
g7
g64
sg9
F18.532954931259155
sg10
I100
sg11
I300
sa(dp84
g7
g64
sg9
F24.721959829330444
sg10
I100
sg11
I400
sa(dp85
g7
g64
sg9
F30.902668952941895
sg10
I100
sg11
I500
satp86
Rp87
(dp88
g25
I01
sg26
g31
sg32
(lp89
I3
aI5
aI30
aI9
asg34
I6
sg35
g36
(g3
tp90
Rp91
sbsS'NSGA2'
p92
g2
(g3
g4
(lp93
(dp94
g7
(F0.079
F0.932
F0.08
I2
I3
tp95
sg9
F0.015959978103637695
sg10
I100
sg11
I0
sa(dp96
g7
(F0.092
F2.312
F0.154
I1
I1
tp97
sg9
F5.628196954727173
sg10
I100
sg11
I100
sa(dp98
g7
g64
sg9
F11.292444944381714
sg10
I100
sg11
I200
sa(dp99
g7
g64
sg9
F16.93718910217285
sg10
I100
sg11
I300
sa(dp100
g7
g64
sg9
F22.534399032592773
sg10
I100
sg11
I400
sa(dp101
g7
(F0.092
F2.312
F0.154
I1
I1
tp102
sg9
F28.12235403060913
sg10
I100
sg11
I500
satp103
Rp104
(dp105
g25
I01
sg26
g31
sg32
(lp106
I3
aI5
aI30
aI9
asg34
I6
sg35
g36
(g3
tp107
Rp108
sbsS'IBEA-SIP'
p109
g2
(g3
g4
(lp110
(dp111
g7
(F0.147
F0.787
F0.09
I13
I62
tp112
sg9
F0.026772022247314453
sg10
I100
sg11
I0
sa(dp113
g7
(F0.149
F0.958
F0.061
I11
I100
tp114
sg9
F5.627527952194214
sg10
I100
sg11
I100
sa(dp115
g7
(F0.143
F0.783
F0.101
I9
I100
tp116
sg9
F11.321305990219116
sg10
I100
sg11
I200
sa(dp117
g7
(F0.142
F0.954
F0.06
I10
I100
tp118
sg9
F17.039551973342896
sg10
I100
sg11
I300
sa(dp119
g7
(F0.156
F0.638
F0.089
I10
I100
tp120
sg9
F22.744367837905884
sg10
I100
sg11
I400
sa(dp121
g7
(F0.157
F0.887
F0.099
I10
I100
tp122
sg9
F28.412312984466553
sg10
I100
sg11
I500
satp123
Rp124
(dp125
g25
I01
sg26
g31
sg32
(lp126
I3
aI5
aI30
aI9
asg34
I6
sg35
g36
(g3
tp127
Rp128
sbs.