(dp0
S'NSGA2-SIP'
p1
ccopy_reg
_reconstructor
p2
(cdeap.tools.support
Logbook
p3
c__builtin__
list
p4
(lp5
(dp6
S'hv|spread|igd|frontier#|valid#'
p7
(F0.155
F0.63
F0.074
I14
I58
tp8
sS'timestamp'
p9
F0.019155025482177734
sS'evals'
p10
I100
sS'gen'
p11
I0
sa(dp12
g7
(F0.157
F0.734
F0.076
I13
I100
tp13
sg9
F2.419029951095581
sg10
I100
sg11
I100
sa(dp14
g7
(F0.157
F0.998
F0.076
I13
I100
tp15
sg9
F4.853524923324585
sg10
I100
sg11
I200
sa(dp16
g7
(F0.157
F0.933
F0.076
I13
I100
tp17
sg9
F7.212970018386841
sg10
I100
sg11
I300
sa(dp18
g7
(F0.157
F0.827
F0.076
I13
I100
tp19
sg9
F9.673054933547974
sg10
I100
sg11
I400
sa(dp20
g7
(F0.157
F0.904
F0.076
I13
I100
tp21
sg9
F12.15424108505249
sg10
I100
sg11
I500
satp22
Rp23
(dp24
S'log_header'
p25
I01
sS'header'
p26
(S'gen'
p27
S'evals'
p28
S'hv|spread|igd|frontier#|valid#'
p29
S'timestamp'
p30
tp31
sS'columns_len'
p32
(lp33
I3
aI5
aI30
aI9
asS'buffindex'
p34
I6
sS'chapters'
p35
ccollections
defaultdict
p36
(g3
tp37
Rp38
sbsS'SPEA2-SIP'
p39
g2
(g3
g4
(lp40
(dp41
g7
(F0.15
F0.812
F0.089
I11
I49
tp42
sg9
F0.01785898208618164
sg10
I100
sg11
I0
sa(dp43
g7
(F0.157
F0.827
F0.076
I13
I100
tp44
sg9
F160.3197329044342
sg10
I100
sg11
I100
sa(dp45
g7
(F0.157
F0.86
F0.076
I13
I100
tp46
sg9
F325.1020848751068
sg10
I100
sg11
I200
sa(dp47
g7
(F0.157
F0.895
F0.076
I13
I100
tp48
sg9
F494.3666458129883
sg10
I100
sg11
I300
sa(dp49
g7
(F0.157
F0.805
F0.076
I13
I100
tp50
sg9
F661.7543768882751
sg10
I100
sg11
I400
sa(dp51
g7
(F0.157
F0.734
F0.076
I13
I100
tp52
sg9
F828.6719110012054
sg10
I100
sg11
I500
satp53
Rp54
(dp55
g25
I01
sg26
g31
sg32
(lp56
I3
aI5
aI30
aI9
asg34
I6
sg35
g36
(g3
tp57
Rp58
sbsS'SPEA2'
p59
g2
(g3
g4
(lp60
(dp61
g7
(F0.068
F2.169
F0.07
I1
I3
tp62
sg9
F0.017647981643676758
sg10
I100
sg11
I0
sa(dp63
g7
(I0
I0
I0
I0
I0
tp64
sg9
F128.1990110874176
sg10
I100
sg11
I100
sa(dp65
g7
(F0.087
F2.236
F0.121
I1
I1
tp66
sg9
F258.5756080150604
sg10
I100
sg11
I200
sa(dp67
g7
g64
sg9
F389.8277449607849
sg10
I100
sg11
I300
sa(dp68
g7
g64
sg9
F522.6935520172119
sg10
I100
sg11
I400
sa(dp69
g7
g64
sg9
F654.323961019516
sg10
I100
sg11
I500
satp70
Rp71
(dp72
g25
I01
sg26
g31
sg32
(lp73
I3
aI5
aI30
aI9
asg34
I6
sg35
g36
(g3
tp74
Rp75
sbsS'IBEA'
p76
g2
(g3
g4
(lp77
(dp78
g7
(F0.107
F0.887
F0.085
I5
I7
tp79
sg9
F0.018793821334838867
sg10
I100
sg11
I0
sa(dp80
g7
(F0.088
F2.407
F0.081
I1
I1
tp81
sg9
F6.887830972671509
sg10
I100
sg11
I100
sa(dp82
g7
(F0.113
F0.963
F0.118
I2
I4
tp83
sg9
F13.782891988754272
sg10
I100
sg11
I200
sa(dp84
g7
(F0.037
F2.599
F0.099
I1
I1
tp85
sg9
F20.680421829223633
sg10
I100
sg11
I300
sa(dp86
g7
(F0.037
F2.599
F0.099
I1
I1
tp87
sg9
F27.574641942977905
sg10
I100
sg11
I400
sa(dp88
g7
(F0.1
F0.94
F0.09
I2
I4
tp89
sg9
F34.4875168800354
sg10
I100
sg11
I500
satp90
Rp91
(dp92
g25
I01
sg26
g31
sg32
(lp93
I3
aI5
aI30
aI9
asg34
I6
sg35
g36
(g3
tp94
Rp95
sbsS'NSGA2'
p96
g2
(g3
g4
(lp97
(dp98
g7
(F0.118
F0.873
F0.094
I4
I5
tp99
sg9
F0.018610000610351562
sg10
I100
sg11
I0
sa(dp100
g7
g64
sg9
F6.353015899658203
sg10
I100
sg11
I100
sa(dp101
g7
(F0.092
F2.312
F0.154
I1
I1
tp102
sg9
F12.720453977584839
sg10
I100
sg11
I200
sa(dp103
g7
g64
sg9
F19.066534996032715
sg10
I100
sg11
I300
sa(dp104
g7
(F0.088
F2.407
F0.081
I1
I1
tp105
sg9
F25.316706895828247
sg10
I100
sg11
I400
sa(dp106
g7
(F0.088
F2.407
F0.081
I1
I1
tp107
sg9
F31.675649881362915
sg10
I100
sg11
I500
satp108
Rp109
(dp110
g25
I01
sg26
g31
sg32
(lp111
I3
aI5
aI30
aI9
asg34
I6
sg35
g36
(g3
tp112
Rp113
sbsS'IBEA-SIP'
p114
g2
(g3
g4
(lp115
(dp116
g7
(F0.157
F0.692
F0.085
I12
I49
tp117
sg9
F0.018108844757080078
sg10
I100
sg11
I0
sa(dp118
g7
(F0.156
F0.508
F0.091
I9
I100
tp119
sg9
F6.250900983810425
sg10
I100
sg11
I100
sa(dp120
g7
(F0.157
F0.837
F0.09
I11
I100
tp121
sg9
F12.681428909301758
sg10
I100
sg11
I200
sa(dp122
g7
(F0.151
F0.82
F0.087
I9
I100
tp123
sg9
F19.081995964050293
sg10
I100
sg11
I300
sa(dp124
g7
(F0.148
F0.753
F0.073
I11
I100
tp125
sg9
F25.42769193649292
sg10
I100
sg11
I400
sa(dp126
g7
(F0.138
F0.837
F0.083
I10
I100
tp127
sg9
F31.74169397354126
sg10
I100
sg11
I500
satp128
Rp129
(dp130
g25
I01
sg26
g31
sg32
(lp131
I3
aI5
aI30
aI9
asg34
I6
sg35
g36
(g3
tp132
Rp133
sbs.