(dp0
S'NSGA2-SIP'
p1
ccopy_reg
_reconstructor
p2
(cdeap.tools.support
Logbook
p3
c__builtin__
list
p4
(lp5
(dp6
S'hv|spread|igd|frontier#|valid#'
p7
(F0.155
F0.74
F0.076
I14
I56
tp8
sS'timestamp'
p9
F0.016323089599609375
sS'evals'
p10
I100
sS'gen'
p11
I0
sa(dp12
g7
(F0.157
F0.805
F0.076
I13
I100
tp13
sg9
F2.077548027038574
sg10
I100
sg11
I100
sa(dp14
g7
(F0.157
F0.998
F0.076
I13
I100
tp15
sg9
F4.155523061752319
sg10
I100
sg11
I200
sa(dp16
g7
(F0.157
F0.815
F0.076
I13
I100
tp17
sg9
F6.221213102340698
sg10
I100
sg11
I300
sa(dp18
g7
(F0.157
F0.904
F0.076
I13
I100
tp19
sg9
F8.267176151275635
sg10
I100
sg11
I400
sa(dp20
g7
(F0.157
F0.947
F0.076
I13
I100
tp21
sg9
F10.337695121765137
sg10
I100
sg11
I500
satp22
Rp23
(dp24
S'log_header'
p25
I01
sS'header'
p26
(S'gen'
p27
S'evals'
p28
S'hv|spread|igd|frontier#|valid#'
p29
S'timestamp'
p30
tp31
sS'columns_len'
p32
(lp33
I3
aI5
aI30
aI9
asS'buffindex'
p34
I6
sS'chapters'
p35
ccollections
defaultdict
p36
(g3
tp37
Rp38
sbsS'SPEA2-SIP'
p39
g2
(g3
g4
(lp40
(dp41
g7
(F0.138
F0.853
F0.083
I13
I53
tp42
sg9
F0.015759944915771484
sg10
I100
sg11
I0
sa(dp43
g7
(F0.157
F0.837
F0.076
I13
I100
tp44
sg9
F139.96890091896057
sg10
I100
sg11
I100
sa(dp45
g7
(F0.157
F0.904
F0.076
I13
I100
tp46
sg9
F282.88725090026855
sg10
I100
sg11
I200
sa(dp47
g7
(F0.157
F0.808
F0.076
I13
I100
tp48
sg9
F427.18415808677673
sg10
I100
sg11
I300
sa(dp49
g7
(F0.157
F0.63
F0.076
I13
I100
tp50
sg9
F571.2175209522247
sg10
I100
sg11
I400
sa(dp51
g7
(F0.157
F0.904
F0.076
I13
I100
tp52
sg9
F716.6642019748688
sg10
I100
sg11
I500
satp53
Rp54
(dp55
g25
I01
sg26
g31
sg32
(lp56
I3
aI5
aI30
aI9
asg34
I6
sg35
g36
(g3
tp57
Rp58
sbsS'SPEA2'
p59
g2
(g3
g4
(lp60
(dp61
g7
(F0.073
F0.929
F0.102
I3
I3
tp62
sg9
F0.01533198356628418
sg10
I100
sg11
I0
sa(dp63
g7
(I0
I0
I0
I0
I0
tp64
sg9
F111.30689692497253
sg10
I100
sg11
I100
sa(dp65
g7
g64
sg9
F224.62930703163147
sg10
I100
sg11
I200
sa(dp66
g7
g64
sg9
F338.8300828933716
sg10
I100
sg11
I300
sa(dp67
g7
g64
sg9
F451.57889199256897
sg10
I100
sg11
I400
sa(dp68
g7
g64
sg9
F565.3553318977356
sg10
I100
sg11
I500
satp69
Rp70
(dp71
g25
I01
sg26
g31
sg32
(lp72
I3
aI5
aI30
aI9
asg34
I6
sg35
g36
(g3
tp73
Rp74
sbsS'IBEA'
p75
g2
(g3
g4
(lp76
(dp77
g7
(F0.079
F0.966
F0.106
I2
I5
tp78
sg9
F0.015635967254638672
sg10
I100
sg11
I0
sa(dp79
g7
(F0.13
F0.891
F0.11
I4
I5
tp80
sg9
F5.879348993301392
sg10
I100
sg11
I100
sa(dp81
g7
(F0.1
F0.94
F0.09
I2
I4
tp82
sg9
F11.891229152679443
sg10
I100
sg11
I200
sa(dp83
g7
(F0.1
F0.94
F0.09
I2
I11
tp84
sg9
F17.84286904335022
sg10
I100
sg11
I300
sa(dp85
g7
(F0.067
F2.407
F0.0
I1
I1
tp86
sg9
F23.766155004501343
sg10
I100
sg11
I400
sa(dp87
g7
(F0.1
F0.94
F0.09
I2
I5
tp88
sg9
F29.70000696182251
sg10
I100
sg11
I500
satp89
Rp90
(dp91
g25
I01
sg26
g31
sg32
(lp92
I3
aI5
aI30
aI9
asg34
I6
sg35
g36
(g3
tp93
Rp94
sbsS'NSGA2'
p95
g2
(g3
g4
(lp96
(dp97
g7
(F0.098
F0.935
F0.159
I3
I4
tp98
sg9
F0.015551090240478516
sg10
I100
sg11
I0
sa(dp99
g7
g64
sg9
F5.425951957702637
sg10
I100
sg11
I100
sa(dp100
g7
g64
sg9
F10.794384002685547
sg10
I100
sg11
I200
sa(dp101
g7
(F0.088
F2.407
F0.081
I1
I1
tp102
sg9
F16.192017078399658
sg10
I100
sg11
I300
sa(dp103
g7
(F0.092
F2.312
F0.154
I1
I1
tp104
sg9
F21.61505913734436
sg10
I100
sg11
I400
sa(dp105
g7
g64
sg9
F27.059968948364258
sg10
I100
sg11
I500
satp106
Rp107
(dp108
g25
I01
sg26
g31
sg32
(lp109
I3
aI5
aI30
aI9
asg34
I6
sg35
g36
(g3
tp110
Rp111
sbsS'IBEA-SIP'
p112
g2
(g3
g4
(lp113
(dp114
g7
(F0.153
F0.698
F0.075
I12
I58
tp115
sg9
F0.015942811965942383
sg10
I100
sg11
I0
sa(dp116
g7
(F0.152
F0.824
F0.087
I9
I100
tp117
sg9
F5.357398986816406
sg10
I100
sg11
I100
sa(dp118
g7
(F0.153
F0.78
F0.082
I10
I100
tp119
sg9
F10.819607973098755
sg10
I100
sg11
I200
sa(dp120
g7
(F0.154
F0.801
F0.107
I8
I100
tp121
sg9
F16.309855937957764
sg10
I100
sg11
I300
sa(dp122
g7
(F0.156
F0.708
F0.093
I11
I100
tp123
sg9
F21.819769859313965
sg10
I100
sg11
I400
sa(dp124
g7
(F0.139
F0.985
F0.091
I10
I100
tp125
sg9
F27.25310492515564
sg10
I100
sg11
I500
satp126
Rp127
(dp128
g25
I01
sg26
g31
sg32
(lp129
I3
aI5
aI30
aI9
asg34
I6
sg35
g36
(g3
tp130
Rp131
sbs.