(dp0
S'NSGA2-SIP'
p1
ccopy_reg
_reconstructor
p2
(cdeap.tools.support
Logbook
p3
c__builtin__
list
p4
(lp5
(dp6
S'hv|spread|igd|frontier#|valid#'
p7
(F0.147
F0.871
F0.055
I12
I59
tp8
sS'timestamp'
p9
F0.016430139541625977
sS'evals'
p10
I100
sS'gen'
p11
I0
sa(dp12
g7
(F0.157
F0.726
F0.076
I13
I100
tp13
sg9
F2.175029993057251
sg10
I100
sg11
I100
sa(dp14
g7
(F0.157
F0.805
F0.076
I13
I100
tp15
sg9
F4.390859127044678
sg10
I100
sg11
I200
sa(dp16
g7
(F0.157
F0.86
F0.076
I13
I100
tp17
sg9
F6.6047961711883545
sg10
I100
sg11
I300
sa(dp18
g7
(F0.157
F0.726
F0.076
I13
I100
tp19
sg9
F8.818387031555176
sg10
I100
sg11
I400
sa(dp20
g7
(F0.157
F0.726
F0.076
I13
I100
tp21
sg9
F11.034727096557617
sg10
I100
sg11
I500
satp22
Rp23
(dp24
S'log_header'
p25
I01
sS'header'
p26
(S'gen'
p27
S'evals'
p28
S'hv|spread|igd|frontier#|valid#'
p29
S'timestamp'
p30
tp31
sS'columns_len'
p32
(lp33
I3
aI5
aI30
aI9
asS'buffindex'
p34
I6
sS'chapters'
p35
ccollections
defaultdict
p36
(g3
tp37
Rp38
sbsS'SPEA2-SIP'
p39
g2
(g3
g4
(lp40
(dp41
g7
(F0.152
F0.802
F0.071
I13
I56
tp42
sg9
F0.01863884925842285
sg10
I100
sg11
I0
sa(dp43
g7
(F0.157
F0.805
F0.076
I13
I100
tp44
sg9
F148.74106693267822
sg10
I100
sg11
I100
sa(dp45
g7
(F0.157
F0.904
F0.076
I13
I100
tp46
sg9
F298.5007939338684
sg10
I100
sg11
I200
sa(dp47
g7
(F0.157
F0.726
F0.076
I13
I100
tp48
sg9
F448.52362298965454
sg10
I100
sg11
I300
sa(dp49
g7
(F0.157
F0.837
F0.076
I13
I100
tp50
sg9
F602.8032808303833
sg10
I100
sg11
I400
sa(dp51
g7
(F0.157
F0.824
F0.076
I13
I100
tp52
sg9
F753.6816518306732
sg10
I100
sg11
I500
satp53
Rp54
(dp55
g25
I01
sg26
g31
sg32
(lp56
I3
aI5
aI30
aI9
asg34
I6
sg35
g36
(g3
tp57
Rp58
sbsS'SPEA2'
p59
g2
(g3
g4
(lp60
(dp61
g7
(F0.088
F0.876
F0.122
I3
I5
tp62
sg9
F0.0162661075592041
sg10
I100
sg11
I0
sa(dp63
g7
(I0
I0
I0
I0
I0
tp64
sg9
F116.90661001205444
sg10
I100
sg11
I100
sa(dp65
g7
g64
sg9
F234.18863892555237
sg10
I100
sg11
I200
sa(dp66
g7
g64
sg9
F351.63116002082825
sg10
I100
sg11
I300
sa(dp67
g7
g64
sg9
F470.1536691188812
sg10
I100
sg11
I400
sa(dp68
g7
g64
sg9
F589.1688830852509
sg10
I100
sg11
I500
satp69
Rp70
(dp71
g25
I01
sg26
g31
sg32
(lp72
I3
aI5
aI30
aI9
asg34
I6
sg35
g36
(g3
tp73
Rp74
sbsS'IBEA-PEN'
p75
g2
(g3
g4
(lp76
(dp77
g7
(F0.114
F0.899
F0.0
I5
I60
tp78
sg9
F0.026766061782836914
sg10
I100
sg11
I0
sa(dp79
g7
(F0.088
F2.407
F0.081
I1
I1
tp80
sg9
F6.361027956008911
sg10
I100
sg11
I100
sa(dp81
g7
g64
sg9
F12.630435943603516
sg10
I100
sg11
I200
sa(dp82
g7
g64
sg9
F18.890721082687378
sg10
I100
sg11
I300
sa(dp83
g7
(F0.11
F0.908
F0.127
I2
I2
tp84
sg9
F25.14794111251831
sg10
I100
sg11
I400
sa(dp85
g7
(F0.037
F2.599
F0.099
I1
I1
tp86
sg9
F31.405238151550293
sg10
I100
sg11
I500
satp87
Rp88
(dp89
g25
I01
sg26
g31
sg32
(lp90
I3
aI5
aI30
aI9
asg34
I6
sg35
g36
(g3
tp91
Rp92
sbsS'IBEA'
p93
g2
(g3
g4
(lp94
(dp95
g7
(F0.077
F0.932
F0.105
I2
I3
tp96
sg9
F0.02350020408630371
sg10
I100
sg11
I0
sa(dp97
g7
(F0.1
F0.94
F0.09
I2
I3
tp98
sg9
F6.223174095153809
sg10
I100
sg11
I100
sa(dp99
g7
(F0.037
F2.599
F0.099
I1
I1
tp100
sg9
F12.472486019134521
sg10
I100
sg11
I200
sa(dp101
g7
(F0.092
F0.968
F0.07
I2
I3
tp102
sg9
F18.67288112640381
sg10
I100
sg11
I300
sa(dp103
g7
(F0.037
F2.599
F0.099
I1
I2
tp104
sg9
F24.870387077331543
sg10
I100
sg11
I400
sa(dp105
g7
(F0.1
F0.94
F0.09
I2
I3
tp106
sg9
F31.080928087234497
sg10
I100
sg11
I500
satp107
Rp108
(dp109
g25
I01
sg26
g31
sg32
(lp110
I3
aI5
aI30
aI9
asg34
I6
sg35
g36
(g3
tp111
Rp112
sbsS'NSGA2'
p113
g2
(g3
g4
(lp114
(dp115
g7
(F0.067
F1.0
F0.09
I2
I2
tp116
sg9
F0.015820980072021484
sg10
I100
sg11
I0
sa(dp117
g7
(F0.088
F2.407
F0.081
I1
I1
tp118
sg9
F5.647700071334839
sg10
I100
sg11
I100
sa(dp119
g7
g64
sg9
F11.346113920211792
sg10
I100
sg11
I200
sa(dp120
g7
(F0.092
F2.312
F0.154
I1
I1
tp121
sg9
F16.9672269821167
sg10
I100
sg11
I300
sa(dp122
g7
(F0.092
F2.312
F0.154
I1
I1
tp123
sg9
F22.617538928985596
sg10
I100
sg11
I400
sa(dp124
g7
(F0.055
F2.5
F0.106
I1
I1
tp125
sg9
F28.276505947113037
sg10
I100
sg11
I500
satp126
Rp127
(dp128
g25
I01
sg26
g31
sg32
(lp129
I3
aI5
aI30
aI9
asg34
I6
sg35
g36
(g3
tp130
Rp131
sbsS'IBEA-SIP'
p132
g2
(g3
g4
(lp133
(dp134
g7
(F0.153
F0.878
F0.074
I11
I50
tp135
sg9
F0.015573978424072266
sg10
I100
sg11
I0
sa(dp136
g7
(F0.155
F0.578
F0.088
I10
I100
tp137
sg9
F5.627429962158203
sg10
I100
sg11
I100
sa(dp138
g7
(F0.148
F0.708
F0.085
I11
I100
tp139
sg9
F11.283971071243286
sg10
I100
sg11
I200
sa(dp140
g7
(F0.153
F0.567
F0.079
I9
I100
tp141
sg9
F16.9719979763031
sg10
I100
sg11
I300
sa(dp142
g7
(F0.142
F0.794
F0.08
I10
I100
tp143
sg9
F22.661965131759644
sg10
I100
sg11
I400
sa(dp144
g7
(F0.139
F0.843
F0.101
I9
I100
tp145
sg9
F28.385239124298096
sg10
I100
sg11
I500
satp146
Rp147
(dp148
g25
I01
sg26
g31
sg32
(lp149
I3
aI5
aI30
aI9
asg34
I6
sg35
g36
(g3
tp150
Rp151
sbs.