(dp0
S'NSGA2-SIP'
p1
ccopy_reg
_reconstructor
p2
(cdeap.tools.support
Logbook
p3
c__builtin__
list
p4
(lp5
(dp6
S'hv|spread|igd|frontier#|valid#'
p7
(F0.148
F0.536
F0.085
I14
I59
tp8
sS'timestamp'
p9
F0.01928114891052246
sS'evals'
p10
I100
sS'gen'
p11
I0
sa(dp12
g7
(F0.157
F0.809
F0.076
I13
I100
tp13
sg9
F2.402949094772339
sg10
I100
sg11
I100
sa(dp14
g7
(F0.157
F0.895
F0.076
I13
I100
tp15
sg9
F4.866490125656128
sg10
I100
sg11
I200
sa(dp16
g7
(F0.157
F0.86
F0.076
I13
I100
tp17
sg9
F7.324632167816162
sg10
I100
sg11
I300
sa(dp18
g7
(F0.157
F0.86
F0.076
I13
I100
tp19
sg9
F9.782897233963013
sg10
I100
sg11
I400
sa(dp20
g7
(F0.157
F0.86
F0.076
I13
I100
tp21
sg9
F12.238174200057983
sg10
I100
sg11
I500
satp22
Rp23
(dp24
S'log_header'
p25
I01
sS'header'
p26
(S'gen'
p27
S'evals'
p28
S'hv|spread|igd|frontier#|valid#'
p29
S'timestamp'
p30
tp31
sS'columns_len'
p32
(lp33
I3
aI5
aI30
aI9
asS'buffindex'
p34
I6
sS'chapters'
p35
ccollections
defaultdict
p36
(g3
tp37
Rp38
sbsS'SPEA2-SIP'
p39
g2
(g3
g4
(lp40
(dp41
g7
(F0.149
F0.87
F0.061
I11
I58
tp42
sg9
F0.03169512748718262
sg10
I100
sg11
I0
sa(dp43
g7
(F0.157
F0.808
F0.076
I13
I100
tp44
sg9
F171.11170506477356
sg10
I100
sg11
I100
sa(dp45
g7
(F0.157
F0.805
F0.076
I13
I100
tp46
sg9
F338.69114804267883
sg10
I100
sg11
I200
sa(dp47
g7
(F0.157
F0.734
F0.076
I13
I100
tp48
sg9
F506.10524797439575
sg10
I100
sg11
I300
sa(dp49
g7
(F0.157
F0.827
F0.076
I13
I100
tp50
sg9
F674.2228419780731
sg10
I100
sg11
I400
sa(dp51
g7
(F0.157
F0.808
F0.076
I13
I100
tp52
sg9
F843.5371990203857
sg10
I100
sg11
I500
satp53
Rp54
(dp55
g25
I01
sg26
g31
sg32
(lp56
I3
aI5
aI30
aI9
asg34
I6
sg35
g36
(g3
tp57
Rp58
sbsS'SPEA2'
p59
g2
(g3
g4
(lp60
(dp61
g7
(F0.095
F0.825
F0.09
I3
I6
tp62
sg9
F0.017857074737548828
sg10
I100
sg11
I0
sa(dp63
g7
(F0.087
F2.236
F0.121
I1
I1
tp64
sg9
F128.07032203674316
sg10
I100
sg11
I100
sa(dp65
g7
(I0
I0
I0
I0
I0
tp66
sg9
F263.216521024704
sg10
I100
sg11
I200
sa(dp67
g7
g66
sg9
F395.3744580745697
sg10
I100
sg11
I300
sa(dp68
g7
g66
sg9
F527.73388504982
sg10
I100
sg11
I400
sa(dp69
g7
g66
sg9
F661.7196960449219
sg10
I100
sg11
I500
satp70
Rp71
(dp72
g25
I01
sg26
g31
sg32
(lp73
I3
aI5
aI30
aI9
asg34
I6
sg35
g36
(g3
tp74
Rp75
sbsS'IBEA'
p76
g2
(g3
g4
(lp77
(dp78
g7
(F0.078
F0.965
F0.075
I2
I3
tp79
sg9
F0.018018007278442383
sg10
I100
sg11
I0
sa(dp80
g7
(F0.059
F0.97
F0.103
I2
I2
tp81
sg9
F6.8659210205078125
sg10
I100
sg11
I100
sa(dp82
g7
(F0.088
F2.407
F0.081
I1
I1
tp83
sg9
F13.867373943328857
sg10
I100
sg11
I200
sa(dp84
g7
(F0.088
F2.407
F0.081
I1
I3
tp85
sg9
F20.866060972213745
sg10
I100
sg11
I300
sa(dp86
g7
g66
sg9
F27.895509958267212
sg10
I100
sg11
I400
sa(dp87
g7
(F0.092
F2.312
F0.154
I1
I1
tp88
sg9
F34.97559905052185
sg10
I100
sg11
I500
satp89
Rp90
(dp91
g25
I01
sg26
g31
sg32
(lp92
I3
aI5
aI30
aI9
asg34
I6
sg35
g36
(g3
tp93
Rp94
sbsS'NSGA2'
p95
g2
(g3
g4
(lp96
(dp97
g7
(F0.115
F0.8
F0.072
I6
I6
tp98
sg9
F0.01849508285522461
sg10
I100
sg11
I0
sa(dp99
g7
g66
sg9
F6.288969039916992
sg10
I100
sg11
I100
sa(dp100
g7
(F0.092
F2.312
F0.154
I1
I1
tp101
sg9
F12.661317110061646
sg10
I100
sg11
I200
sa(dp102
g7
(F0.088
F2.407
F0.081
I1
I1
tp103
sg9
F18.971422910690308
sg10
I100
sg11
I300
sa(dp104
g7
(F0.092
F2.312
F0.154
I1
I1
tp105
sg9
F25.340986013412476
sg10
I100
sg11
I400
sa(dp106
g7
g66
sg9
F31.56104803085327
sg10
I100
sg11
I500
satp107
Rp108
(dp109
g25
I01
sg26
g31
sg32
(lp110
I3
aI5
aI30
aI9
asg34
I6
sg35
g36
(g3
tp111
Rp112
sbsS'IBEA-SIP'
p113
g2
(g3
g4
(lp114
(dp115
g7
(F0.147
F0.885
F0.09
I11
I58
tp116
sg9
F0.018134117126464844
sg10
I100
sg11
I0
sa(dp117
g7
(F0.149
F0.87
F0.061
I11
I100
tp118
sg9
F6.253106117248535
sg10
I100
sg11
I100
sa(dp119
g7
(F0.156
F0.985
F0.099
I10
I100
tp120
sg9
F12.592101097106934
sg10
I100
sg11
I200
sa(dp121
g7
(F0.155
F0.829
F0.078
I10
I100
tp122
sg9
F18.918979167938232
sg10
I100
sg11
I300
sa(dp123
g7
(F0.156
F0.778
F0.084
I11
I100
tp124
sg9
F25.362879991531372
sg10
I100
sg11
I400
sa(dp125
g7
(F0.156
F0.829
F0.089
I10
I100
tp126
sg9
F31.68444299697876
sg10
I100
sg11
I500
satp127
Rp128
(dp129
g25
I01
sg26
g31
sg32
(lp130
I3
aI5
aI30
aI9
asg34
I6
sg35
g36
(g3
tp131
Rp132
sbs.