(dp0
S'NSGA2-SIP'
p1
ccopy_reg
_reconstructor
p2
(cdeap.tools.support
Logbook
p3
c__builtin__
list
p4
(lp5
(dp6
S'hv|spread|igd|frontier#|valid#'
p7
(F0.15
F0.651
F0.089
I13
I61
tp8
sS'timestamp'
p9
F0.020971059799194336
sS'evals'
p10
I100
sS'gen'
p11
I0
sa(dp12
g7
(F0.157
F0.904
F0.076
I13
I100
tp13
sg9
F2.6615710258483887
sg10
I100
sg11
I100
sa(dp14
g7
(F0.157
F0.817
F0.076
I13
I100
tp15
sg9
F5.328588008880615
sg10
I100
sg11
I200
sa(dp16
g7
(F0.157
F0.99
F0.076
I13
I100
tp17
sg9
F7.9535322189331055
sg10
I100
sg11
I300
sa(dp18
g7
(F0.157
F0.99
F0.076
I13
I100
tp19
sg9
F10.706590175628662
sg10
I100
sg11
I400
sa(dp20
g7
(F0.157
F0.99
F0.076
I13
I100
tp21
sg9
F13.460416078567505
sg10
I100
sg11
I500
satp22
Rp23
(dp24
S'log_header'
p25
I01
sS'header'
p26
(S'gen'
p27
S'evals'
p28
S'hv|spread|igd|frontier#|valid#'
p29
S'timestamp'
p30
tp31
sS'columns_len'
p32
(lp33
I3
aI5
aI30
aI9
asS'buffindex'
p34
I6
sS'chapters'
p35
ccollections
defaultdict
p36
(g3
tp37
Rp38
sbsS'SPEA2-SIP'
p39
g2
(g3
g4
(lp40
(dp41
g7
(F0.15
F0.843
F0.085
I12
I48
tp42
sg9
F0.019648075103759766
sg10
I100
sg11
I0
sa(dp43
g7
(F0.157
F0.642
F0.076
I13
I100
tp44
sg9
F167.6680769920349
sg10
I100
sg11
I100
sa(dp45
g7
(F0.157
F0.817
F0.076
I13
I100
tp46
sg9
F338.3554890155792
sg10
I100
sg11
I200
sa(dp47
g7
(F0.157
F0.642
F0.076
I13
I100
tp48
sg9
F510.7929060459137
sg10
I100
sg11
I300
sa(dp49
g7
(F0.157
F0.734
F0.076
I13
I100
tp50
sg9
F683.6171259880066
sg10
I100
sg11
I400
sa(dp51
g7
(F0.157
F0.726
F0.076
I13
I100
tp52
sg9
F855.1008400917053
sg10
I100
sg11
I500
satp53
Rp54
(dp55
g25
I01
sg26
g31
sg32
(lp56
I3
aI5
aI30
aI9
asg34
I6
sg35
g36
(g3
tp57
Rp58
sbsS'SPEA2'
p59
g2
(g3
g4
(lp60
(dp61
g7
(F0.121
F0.77
F0.095
I4
I6
tp62
sg9
F0.020307064056396484
sg10
I100
sg11
I0
sa(dp63
g7
(I0
I0
I0
I0
I0
tp64
sg9
F135.0661370754242
sg10
I100
sg11
I100
sa(dp65
g7
g64
sg9
F271.9061930179596
sg10
I100
sg11
I200
sa(dp66
g7
g64
sg9
F406.14057207107544
sg10
I100
sg11
I300
sa(dp67
g7
g64
sg9
F540.5376689434052
sg10
I100
sg11
I400
sa(dp68
g7
g64
sg9
F677.6954400539398
sg10
I100
sg11
I500
satp69
Rp70
(dp71
g25
I01
sg26
g31
sg32
(lp72
I3
aI5
aI30
aI9
asg34
I6
sg35
g36
(g3
tp73
Rp74
sbsS'IBEA'
p75
g2
(g3
g4
(lp76
(dp77
g7
(F0.104
F0.891
F0.031
I4
I4
tp78
sg9
F0.02036595344543457
sg10
I100
sg11
I0
sa(dp79
g7
(F0.037
F2.599
F0.099
I1
I1
tp80
sg9
F6.908055067062378
sg10
I100
sg11
I100
sa(dp81
g7
(F0.11
F0.908
F0.127
I2
I4
tp82
sg9
F13.885859966278076
sg10
I100
sg11
I200
sa(dp83
g7
(F0.088
F2.407
F0.081
I1
I2
tp84
sg9
F20.844691038131714
sg10
I100
sg11
I300
sa(dp85
g7
g64
sg9
F27.88239884376526
sg10
I100
sg11
I400
sa(dp86
g7
(F0.083
F2.236
F0.115
I1
I1
tp87
sg9
F34.85328698158264
sg10
I100
sg11
I500
satp88
Rp89
(dp90
g25
I01
sg26
g31
sg32
(lp91
I3
aI5
aI30
aI9
asg34
I6
sg35
g36
(g3
tp92
Rp93
sbsS'NSGA2'
p94
g2
(g3
g4
(lp95
(dp96
g7
(F0.075
F0.909
F0.12
I4
I5
tp97
sg9
F0.020579099655151367
sg10
I100
sg11
I0
sa(dp98
g7
(F0.092
F2.312
F0.154
I1
I1
tp99
sg9
F7.341063022613525
sg10
I100
sg11
I100
sa(dp100
g7
g64
sg9
F14.73117709159851
sg10
I100
sg11
I200
sa(dp101
g7
g64
sg9
F22.05323314666748
sg10
I100
sg11
I300
sa(dp102
g7
(F0.088
F2.407
F0.081
I1
I1
tp103
sg9
F29.364941120147705
sg10
I100
sg11
I400
sa(dp104
g7
g64
sg9
F36.78743815422058
sg10
I100
sg11
I500
satp105
Rp106
(dp107
g25
I01
sg26
g31
sg32
(lp108
I3
aI5
aI30
aI9
asg34
I6
sg35
g36
(g3
tp109
Rp110
sbsS'IBEA-SIP'
p111
g2
(g3
g4
(lp112
(dp113
g7
(F0.15
F0.7
F0.07
I11
I53
tp114
sg9
F0.019899845123291016
sg10
I100
sg11
I0
sa(dp115
g7
(F0.144
F0.974
F0.057
I10
I100
tp116
sg9
F6.3637189865112305
sg10
I100
sg11
I100
sa(dp117
g7
(F0.143
F0.788
F0.091
I10
I100
tp118
sg9
F12.742539882659912
sg10
I100
sg11
I200
sa(dp119
g7
(F0.155
F0.855
F0.072
I12
I100
tp120
sg9
F19.11202383041382
sg10
I100
sg11
I300
sa(dp121
g7
(F0.149
F0.638
F0.091
I10
I100
tp122
sg9
F25.463963985443115
sg10
I100
sg11
I400
sa(dp123
g7
(F0.151
F0.96
F0.076
I10
I100
tp124
sg9
F31.78874397277832
sg10
I100
sg11
I500
satp125
Rp126
(dp127
g25
I01
sg26
g31
sg32
(lp128
I3
aI5
aI30
aI9
asg34
I6
sg35
g36
(g3
tp129
Rp130
sbs.