(dp0
S'NSGA2-SIP'
p1
ccopy_reg
_reconstructor
p2
(cdeap.tools.support
Logbook
p3
c__builtin__
list
p4
(lp5
(dp6
S'hv|spread|igd|frontier#|valid#'
p7
(F0.155
F0.669
F0.085
I11
I63
tp8
sS'timestamp'
p9
F0.020340919494628906
sS'evals'
p10
I100
sS'gen'
p11
I0
sa(dp12
g7
(F0.157
F0.904
F0.076
I13
I100
tp13
sg9
F2.6383769512176514
sg10
I100
sg11
I100
sa(dp14
g7
(F0.157
F0.837
F0.076
I13
I100
tp15
sg9
F5.265428066253662
sg10
I100
sg11
I200
sa(dp16
g7
(F0.157
F0.734
F0.076
I13
I100
tp17
sg9
F7.994545936584473
sg10
I100
sg11
I300
sa(dp18
g7
(F0.157
F0.808
F0.076
I13
I100
tp19
sg9
F10.733850002288818
sg10
I100
sg11
I400
sa(dp20
g7
(F0.157
F0.726
F0.076
I13
I100
tp21
sg9
F13.478963851928711
sg10
I100
sg11
I500
satp22
Rp23
(dp24
S'log_header'
p25
I01
sS'header'
p26
(S'gen'
p27
S'evals'
p28
S'hv|spread|igd|frontier#|valid#'
p29
S'timestamp'
p30
tp31
sS'columns_len'
p32
(lp33
I3
aI5
aI30
aI9
asS'buffindex'
p34
I6
sS'chapters'
p35
ccollections
defaultdict
p36
(g3
tp37
Rp38
sbsS'SPEA2-SIP'
p39
g2
(g3
g4
(lp40
(dp41
g7
(F0.154
F0.802
F0.075
I13
I48
tp42
sg9
F0.020613908767700195
sg10
I100
sg11
I0
sa(dp43
g7
(F0.157
F0.86
F0.076
I13
I100
tp44
sg9
F178.79110598564148
sg10
I100
sg11
I100
sa(dp45
g7
(F0.157
F0.947
F0.076
I13
I100
tp46
sg9
F357.3533329963684
sg10
I100
sg11
I200
sa(dp47
g7
(F0.157
F0.809
F0.076
I13
I100
tp48
sg9
F537.9448199272156
sg10
I100
sg11
I300
sa(dp49
g7
(F0.157
F0.63
F0.076
I13
I100
tp50
sg9
F715.3964610099792
sg10
I100
sg11
I400
sa(dp51
g7
(F0.157
F0.837
F0.076
I13
I100
tp52
sg9
F892.4045658111572
sg10
I100
sg11
I500
satp53
Rp54
(dp55
g25
I01
sg26
g31
sg32
(lp56
I3
aI5
aI30
aI9
asg34
I6
sg35
g36
(g3
tp57
Rp58
sbsS'SPEA2'
p59
g2
(g3
g4
(lp60
(dp61
g7
(F0.073
F0.965
F0.029
I2
I2
tp62
sg9
F0.0199429988861084
sg10
I100
sg11
I0
sa(dp63
g7
(I0
I0
I0
I0
I0
tp64
sg9
F132.35998392105103
sg10
I100
sg11
I100
sa(dp65
g7
g64
sg9
F269.435467004776
sg10
I100
sg11
I200
sa(dp66
g7
(F0.087
F2.236
F0.121
I1
I1
tp67
sg9
F405.7554450035095
sg10
I100
sg11
I300
sa(dp68
g7
g64
sg9
F542.2708830833435
sg10
I100
sg11
I400
sa(dp69
g7
g64
sg9
F678.6826620101929
sg10
I100
sg11
I500
satp70
Rp71
(dp72
g25
I01
sg26
g31
sg32
(lp73
I3
aI5
aI30
aI9
asg34
I6
sg35
g36
(g3
tp74
Rp75
sbsS'IBEA'
p76
g2
(g3
g4
(lp77
(dp78
g7
(F0.033
F2.062
F0.322
I1
I1
tp79
sg9
F0.019613027572631836
sg10
I100
sg11
I0
sa(dp80
g7
(F0.1
F0.94
F0.09
I2
I2
tp81
sg9
F6.8834068775177
sg10
I100
sg11
I100
sa(dp82
g7
g64
sg9
F13.826756000518799
sg10
I100
sg11
I200
sa(dp83
g7
(F0.113
F0.963
F0.118
I2
I2
tp84
sg9
F20.743146896362305
sg10
I100
sg11
I300
sa(dp85
g7
(F0.051
F2.5
F0.106
I1
I1
tp86
sg9
F27.683712005615234
sg10
I100
sg11
I400
sa(dp87
g7
(F0.061
F0.97
F0.103
I2
I3
tp88
sg9
F34.62613582611084
sg10
I100
sg11
I500
satp89
Rp90
(dp91
g25
I01
sg26
g31
sg32
(lp92
I3
aI5
aI30
aI9
asg34
I6
sg35
g36
(g3
tp93
Rp94
sbsS'NSGA2'
p95
g2
(g3
g4
(lp96
(dp97
g7
(F0.075
F0.932
F0.087
I2
I4
tp98
sg9
F0.019930124282836914
sg10
I100
sg11
I0
sa(dp99
g7
g64
sg9
F6.988065958023071
sg10
I100
sg11
I100
sa(dp100
g7
(F0.088
F2.407
F0.081
I1
I1
tp101
sg9
F13.948454141616821
sg10
I100
sg11
I200
sa(dp102
g7
g64
sg9
F20.984101057052612
sg10
I100
sg11
I300
sa(dp103
g7
g64
sg9
F28.018399000167847
sg10
I100
sg11
I400
sa(dp104
g7
g64
sg9
F34.93472909927368
sg10
I100
sg11
I500
satp105
Rp106
(dp107
g25
I01
sg26
g31
sg32
(lp108
I3
aI5
aI30
aI9
asg34
I6
sg35
g36
(g3
tp109
Rp110
sbsS'IBEA-SIP'
p111
g2
(g3
g4
(lp112
(dp113
g7
(F0.142
F0.808
F0.069
I12
I59
tp114
sg9
F0.020487070083618164
sg10
I100
sg11
I0
sa(dp115
g7
(F0.149
F0.918
F0.055
I11
I100
tp116
sg9
F6.229529142379761
sg10
I100
sg11
I100
sa(dp117
g7
(F0.139
F0.698
F0.091
I10
I100
tp118
sg9
F12.609699010848999
sg10
I100
sg11
I200
sa(dp119
g7
(F0.152
F0.873
F0.081
I11
I100
tp120
sg9
F18.96452808380127
sg10
I100
sg11
I300
sa(dp121
g7
(F0.149
F0.867
F0.061
I11
I100
tp122
sg9
F25.301562070846558
sg10
I100
sg11
I400
sa(dp123
g7
(F0.152
F0.848
F0.076
I10
I100
tp124
sg9
F31.63812494277954
sg10
I100
sg11
I500
satp125
Rp126
(dp127
g25
I01
sg26
g31
sg32
(lp128
I3
aI5
aI30
aI9
asg34
I6
sg35
g36
(g3
tp129
Rp130
sbs.