(dp0
S'NSGA2-SIP'
p1
ccopy_reg
_reconstructor
p2
(cdeap.tools.support
Logbook
p3
c__builtin__
list
p4
(lp5
(dp6
S'hv|spread|igd|frontier#|valid#'
p7
(F0.14
F0.885
F0.055
I11
I54
tp8
sS'timestamp'
p9
F0.015939950942993164
sS'evals'
p10
I100
sS'gen'
p11
I0
sa(dp12
g7
(F0.157
F0.81
F0.076
I13
I100
tp13
sg9
F2.1744208335876465
sg10
I100
sg11
I100
sa(dp14
g7
(F0.157
F0.998
F0.076
I13
I100
tp15
sg9
F4.315080881118774
sg10
I100
sg11
I200
sa(dp16
g7
(F0.157
F0.895
F0.076
I13
I100
tp17
sg9
F6.408872842788696
sg10
I100
sg11
I300
sa(dp18
g7
(F0.157
F0.668
F0.076
I13
I100
tp19
sg9
F8.60167384147644
sg10
I100
sg11
I400
sa(dp20
g7
(F0.157
F0.726
F0.076
I13
I100
tp21
sg9
F10.817101001739502
sg10
I100
sg11
I500
satp22
Rp23
(dp24
S'log_header'
p25
I01
sS'header'
p26
(S'gen'
p27
S'evals'
p28
S'hv|spread|igd|frontier#|valid#'
p29
S'timestamp'
p30
tp31
sS'columns_len'
p32
(lp33
I3
aI5
aI30
aI9
asS'buffindex'
p34
I6
sS'chapters'
p35
ccollections
defaultdict
p36
(g3
tp37
Rp38
sbsS'SPEA2-SIP'
p39
g2
(g3
g4
(lp40
(dp41
g7
(F0.149
F0.886
F0.07
I10
I59
tp42
sg9
F0.016038179397583008
sg10
I100
sg11
I0
sa(dp43
g7
(F0.157
F0.867
F0.076
I13
I100
tp44
sg9
F147.94956612586975
sg10
I100
sg11
I100
sa(dp45
g7
(F0.157
F0.904
F0.076
I13
I100
tp46
sg9
F297.4980959892273
sg10
I100
sg11
I200
sa(dp47
g7
(F0.157
F0.904
F0.076
I13
I100
tp48
sg9
F450.3578701019287
sg10
I100
sg11
I300
sa(dp49
g7
(F0.157
F0.998
F0.076
I13
I100
tp50
sg9
F602.7731630802155
sg10
I100
sg11
I400
sa(dp51
g7
(F0.157
F0.827
F0.076
I13
I100
tp52
sg9
F754.5098080635071
sg10
I100
sg11
I500
satp53
Rp54
(dp55
g25
I01
sg26
g31
sg32
(lp56
I3
aI5
aI30
aI9
asg34
I6
sg35
g36
(g3
tp57
Rp58
sbsS'SPEA2'
p59
g2
(g3
g4
(lp60
(dp61
g7
(F0.123
F0.873
F0.123
I3
I6
tp62
sg9
F0.016791105270385742
sg10
I100
sg11
I0
sa(dp63
g7
(I0
I0
I0
I0
I0
tp64
sg9
F119.41452407836914
sg10
I100
sg11
I100
sa(dp65
g7
g64
sg9
F237.02787899971008
sg10
I100
sg11
I200
sa(dp66
g7
g64
sg9
F354.8803770542145
sg10
I100
sg11
I300
sa(dp67
g7
g64
sg9
F473.9582939147949
sg10
I100
sg11
I400
sa(dp68
g7
g64
sg9
F590.9867799282074
sg10
I100
sg11
I500
satp69
Rp70
(dp71
g25
I01
sg26
g31
sg32
(lp72
I3
aI5
aI30
aI9
asg34
I6
sg35
g36
(g3
tp73
Rp74
sbsS'IBEA'
p75
g2
(g3
g4
(lp76
(dp77
g7
(F0.105
F0.902
F0.065
I5
I7
tp78
sg9
F0.016964197158813477
sg10
I100
sg11
I0
sa(dp79
g7
g64
sg9
F6.1478190422058105
sg10
I100
sg11
I100
sa(dp80
g7
(F0.104
F0.943
F0.096
I3
I7
tp81
sg9
F12.418422222137451
sg10
I100
sg11
I200
sa(dp82
g7
g64
sg9
F18.654994010925293
sg10
I100
sg11
I300
sa(dp83
g7
(F0.1
F0.94
F0.09
I2
I3
tp84
sg9
F24.890098094940186
sg10
I100
sg11
I400
sa(dp85
g7
(F0.1
F0.94
F0.09
I2
I2
tp86
sg9
F31.118213176727295
sg10
I100
sg11
I500
satp87
Rp88
(dp89
g25
I01
sg26
g31
sg32
(lp90
I3
aI5
aI30
aI9
asg34
I6
sg35
g36
(g3
tp91
Rp92
sbsS'NSGA2'
p93
g2
(g3
g4
(lp94
(dp95
g7
(F0.113
F1.022
F0.086
I4
I7
tp96
sg9
F0.016600847244262695
sg10
I100
sg11
I0
sa(dp97
g7
g64
sg9
F5.5719568729400635
sg10
I100
sg11
I100
sa(dp98
g7
(F0.092
F2.312
F0.154
I1
I1
tp99
sg9
F11.220554828643799
sg10
I100
sg11
I200
sa(dp100
g7
g64
sg9
F16.825146913528442
sg10
I100
sg11
I300
sa(dp101
g7
g64
sg9
F22.491252899169922
sg10
I100
sg11
I400
sa(dp102
g7
g64
sg9
F28.189313888549805
sg10
I100
sg11
I500
satp103
Rp104
(dp105
g25
I01
sg26
g31
sg32
(lp106
I3
aI5
aI30
aI9
asg34
I6
sg35
g36
(g3
tp107
Rp108
sbsS'IBEA-SIP'
p109
g2
(g3
g4
(lp110
(dp111
g7
(F0.157
F0.74
F0.078
I14
I61
tp112
sg9
F0.017467975616455078
sg10
I100
sg11
I0
sa(dp113
g7
(F0.149
F0.944
F0.076
I10
I100
tp114
sg9
F5.588673114776611
sg10
I100
sg11
I100
sa(dp115
g7
(F0.143
F0.792
F0.113
I8
I100
tp116
sg9
F11.324747085571289
sg10
I100
sg11
I200
sa(dp117
g7
(F0.149
F0.729
F0.082
I11
I100
tp118
sg9
F17.06393003463745
sg10
I100
sg11
I300
sa(dp119
g7
(F0.137
F0.92
F0.053
I11
I100
tp120
sg9
F22.743816137313843
sg10
I100
sg11
I400
sa(dp121
g7
(F0.15
F0.67
F0.082
I10
I100
tp122
sg9
F28.448158979415894
sg10
I100
sg11
I500
satp123
Rp124
(dp125
g25
I01
sg26
g31
sg32
(lp126
I3
aI5
aI30
aI9
asg34
I6
sg35
g36
(g3
tp127
Rp128
sbs.