(dp0
S'NSGA2-SIP'
p1
ccopy_reg
_reconstructor
p2
(cdeap.tools.support
Logbook
p3
c__builtin__
list
p4
(lp5
(dp6
S'hv|spread|igd|frontier#|valid#'
p7
(F0.151
F0.767
F0.095
I10
I51
tp8
sS'timestamp'
p9
F0.018653154373168945
sS'evals'
p10
I100
sS'gen'
p11
I0
sa(dp12
g7
(F0.157
F0.827
F0.076
I13
I100
tp13
sg9
F2.6744439601898193
sg10
I100
sg11
I100
sa(dp14
g7
(F0.157
F0.86
F0.076
I13
I100
tp15
sg9
F5.427113056182861
sg10
I100
sg11
I200
sa(dp16
g7
(F0.157
F0.827
F0.076
I13
I100
tp17
sg9
F8.16672396659851
sg10
I100
sg11
I300
sa(dp18
g7
(F0.157
F0.668
F0.076
I13
I100
tp19
sg9
F10.914196014404297
sg10
I100
sg11
I400
sa(dp20
g7
(F0.157
F0.63
F0.076
I13
I100
tp21
sg9
F13.660825967788696
sg10
I100
sg11
I500
satp22
Rp23
(dp24
S'log_header'
p25
I01
sS'header'
p26
(S'gen'
p27
S'evals'
p28
S'hv|spread|igd|frontier#|valid#'
p29
S'timestamp'
p30
tp31
sS'columns_len'
p32
(lp33
I3
aI5
aI30
aI9
asS'buffindex'
p34
I6
sS'chapters'
p35
ccollections
defaultdict
p36
(g3
tp37
Rp38
sbsS'SPEA2-SIP'
p39
g2
(g3
g4
(lp40
(dp41
g7
(F0.15
F0.854
F0.056
I12
I63
tp42
sg9
F0.020984888076782227
sg10
I100
sg11
I0
sa(dp43
g7
(F0.157
F0.815
F0.076
I13
I100
tp44
sg9
F168.85239601135254
sg10
I100
sg11
I100
sa(dp45
g7
(F0.157
F0.895
F0.076
I13
I100
tp46
sg9
F339.54699993133545
sg10
I100
sg11
I200
sa(dp47
g7
(F0.157
F0.642
F0.076
I13
I100
tp48
sg9
F509.9911880493164
sg10
I100
sg11
I300
sa(dp49
g7
(F0.157
F0.895
F0.076
I13
I100
tp50
sg9
F682.3669629096985
sg10
I100
sg11
I400
sa(dp51
g7
(F0.157
F0.933
F0.076
I13
I100
tp52
sg9
F853.4664618968964
sg10
I100
sg11
I500
satp53
Rp54
(dp55
g25
I01
sg26
g31
sg32
(lp56
I3
aI5
aI30
aI9
asg34
I6
sg35
g36
(g3
tp57
Rp58
sbsS'SPEA2'
p59
g2
(g3
g4
(lp60
(dp61
g7
(F0.116
F0.91
F0.114
I4
I6
tp62
sg9
F0.020464181900024414
sg10
I100
sg11
I0
sa(dp63
g7
(I0
I0
I0
I0
I0
tp64
sg9
F129.83358001708984
sg10
I100
sg11
I100
sa(dp65
g7
g64
sg9
F264.03432297706604
sg10
I100
sg11
I200
sa(dp66
g7
g64
sg9
F398.2126500606537
sg10
I100
sg11
I300
sa(dp67
g7
g64
sg9
F533.9907469749451
sg10
I100
sg11
I400
sa(dp68
g7
g64
sg9
F668.9328150749207
sg10
I100
sg11
I500
satp69
Rp70
(dp71
g25
I01
sg26
g31
sg32
(lp72
I3
aI5
aI30
aI9
asg34
I6
sg35
g36
(g3
tp73
Rp74
sbsS'IBEA'
p75
g2
(g3
g4
(lp76
(dp77
g7
(F0.086
F0.88
F0.058
I2
I2
tp78
sg9
F0.019694805145263672
sg10
I100
sg11
I0
sa(dp79
g7
g64
sg9
F6.880082845687866
sg10
I100
sg11
I100
sa(dp80
g7
(F0.092
F2.312
F0.154
I1
I1
tp81
sg9
F13.78066897392273
sg10
I100
sg11
I200
sa(dp82
g7
(F0.088
F2.407
F0.081
I1
I1
tp83
sg9
F20.67750096321106
sg10
I100
sg11
I300
sa(dp84
g7
(F0.125
F0.884
F0.112
I3
I8
tp85
sg9
F27.647892951965332
sg10
I100
sg11
I400
sa(dp86
g7
g64
sg9
F34.599408864974976
sg10
I100
sg11
I500
satp87
Rp88
(dp89
g25
I01
sg26
g31
sg32
(lp90
I3
aI5
aI30
aI9
asg34
I6
sg35
g36
(g3
tp91
Rp92
sbsS'NSGA2'
p93
g2
(g3
g4
(lp94
(dp95
g7
(F0.089
F0.942
F0.11
I3
I4
tp96
sg9
F0.020164012908935547
sg10
I100
sg11
I0
sa(dp97
g7
g64
sg9
F6.891809940338135
sg10
I100
sg11
I100
sa(dp98
g7
g64
sg9
F13.880623817443848
sg10
I100
sg11
I200
sa(dp99
g7
g64
sg9
F20.889803886413574
sg10
I100
sg11
I300
sa(dp100
g7
g64
sg9
F27.865936994552612
sg10
I100
sg11
I400
sa(dp101
g7
(F0.092
F2.312
F0.154
I1
I1
tp102
sg9
F34.9262478351593
sg10
I100
sg11
I500
satp103
Rp104
(dp105
g25
I01
sg26
g31
sg32
(lp106
I3
aI5
aI30
aI9
asg34
I6
sg35
g36
(g3
tp107
Rp108
sbsS'IBEA-SIP'
p109
g2
(g3
g4
(lp110
(dp111
g7
(F0.143
F0.831
F0.062
I13
I55
tp112
sg9
F0.021380901336669922
sg10
I100
sg11
I0
sa(dp113
g7
(F0.15
F0.826
F0.093
I11
I100
tp114
sg9
F6.238147974014282
sg10
I100
sg11
I100
sa(dp115
g7
(F0.151
F0.962
F0.089
I10
I100
tp116
sg9
F12.630393981933594
sg10
I100
sg11
I200
sa(dp117
g7
(F0.137
F0.829
F0.053
I11
I100
tp118
sg9
F18.97086191177368
sg10
I100
sg11
I300
sa(dp119
g7
(F0.156
F0.964
F0.089
I10
I100
tp120
sg9
F25.350165843963623
sg10
I100
sg11
I400
sa(dp121
g7
(F0.15
F0.99
F0.099
I9
I100
tp122
sg9
F31.690311908721924
sg10
I100
sg11
I500
satp123
Rp124
(dp125
g25
I01
sg26
g31
sg32
(lp126
I3
aI5
aI30
aI9
asg34
I6
sg35
g36
(g3
tp127
Rp128
sbs.