(dp0
S'NSGA2-SIP'
p1
ccopy_reg
_reconstructor
p2
(cdeap.tools.support
Logbook
p3
c__builtin__
list
p4
(lp5
(dp6
S'hv|spread|igd|frontier#|valid#'
p7
(F0.157
F0.697
F0.09
I11
I54
tp8
sS'timestamp'
p9
F0.016803979873657227
sS'evals'
p10
I100
sS'gen'
p11
I0
sa(dp12
g7
(F0.157
F0.808
F0.076
I13
I100
tp13
sg9
F2.2576100826263428
sg10
I100
sg11
I100
sa(dp14
g7
(F0.157
F0.81
F0.076
I13
I100
tp15
sg9
F4.360036134719849
sg10
I100
sg11
I200
sa(dp16
g7
(F0.157
F0.824
F0.076
I13
I100
tp17
sg9
F6.432415008544922
sg10
I100
sg11
I300
sa(dp18
g7
(F0.157
F0.904
F0.076
I13
I100
tp19
sg9
F8.527034044265747
sg10
I100
sg11
I400
sa(dp20
g7
(F0.157
F0.81
F0.076
I13
I100
tp21
sg9
F10.63510799407959
sg10
I100
sg11
I500
satp22
Rp23
(dp24
S'log_header'
p25
I01
sS'header'
p26
(S'gen'
p27
S'evals'
p28
S'hv|spread|igd|frontier#|valid#'
p29
S'timestamp'
p30
tp31
sS'columns_len'
p32
(lp33
I3
aI5
aI30
aI9
asS'buffindex'
p34
I6
sS'chapters'
p35
ccollections
defaultdict
p36
(g3
tp37
Rp38
sbsS'SPEA2-SIP'
p39
g2
(g3
g4
(lp40
(dp41
g7
(F0.154
F0.802
F0.075
I13
I56
tp42
sg9
F0.01764678955078125
sg10
I100
sg11
I0
sa(dp43
g7
(F0.157
F0.805
F0.076
I13
I100
tp44
sg9
F143.77285480499268
sg10
I100
sg11
I100
sa(dp45
g7
(F0.157
F0.827
F0.076
I13
I100
tp46
sg9
F287.15483689308167
sg10
I100
sg11
I200
sa(dp47
g7
(F0.157
F0.947
F0.076
I13
I100
tp48
sg9
F429.90427899360657
sg10
I100
sg11
I300
sa(dp49
g7
(F0.157
F0.86
F0.076
I13
I100
tp50
sg9
F571.634202003479
sg10
I100
sg11
I400
sa(dp51
g7
(F0.157
F0.817
F0.076
I13
I100
tp52
sg9
F714.8581998348236
sg10
I100
sg11
I500
satp53
Rp54
(dp55
g25
I01
sg26
g31
sg32
(lp56
I3
aI5
aI30
aI9
asg34
I6
sg35
g36
(g3
tp57
Rp58
sbsS'SPEA2'
p59
g2
(g3
g4
(lp60
(dp61
g7
(F0.099
F0.981
F0.12
I4
I7
tp62
sg9
F0.017461061477661133
sg10
I100
sg11
I0
sa(dp63
g7
(I0
I0
I0
I0
I0
tp64
sg9
F108.23451089859009
sg10
I100
sg11
I100
sa(dp65
g7
g64
sg9
F220.82071185112
sg10
I100
sg11
I200
sa(dp66
g7
g64
sg9
F334.12926292419434
sg10
I100
sg11
I300
sa(dp67
g7
g64
sg9
F445.25351786613464
sg10
I100
sg11
I400
sa(dp68
g7
g64
sg9
F558.5901770591736
sg10
I100
sg11
I500
satp69
Rp70
(dp71
g25
I01
sg26
g31
sg32
(lp72
I3
aI5
aI30
aI9
asg34
I6
sg35
g36
(g3
tp73
Rp74
sbsS'IBEA-PEN'
p75
g2
(g3
g4
(lp76
(dp77
g7
(F0.114
F0.9
F0.0
I5
I64
tp78
sg9
F0.02762603759765625
sg10
I100
sg11
I0
sa(dp79
g7
(F0.088
F2.407
F0.081
I1
I1
tp80
sg9
F6.391645193099976
sg10
I100
sg11
I100
sa(dp81
g7
g64
sg9
F12.500554084777832
sg10
I100
sg11
I200
sa(dp82
g7
(F0.059
F0.97
F0.103
I2
I3
tp83
sg9
F18.638317108154297
sg10
I100
sg11
I300
sa(dp84
g7
(F0.096
F0.968
F0.094
I2
I2
tp85
sg9
F24.798352003097534
sg10
I100
sg11
I400
sa(dp86
g7
(F0.1
F0.94
F0.09
I2
I10
tp87
sg9
F30.893484115600586
sg10
I100
sg11
I500
satp88
Rp89
(dp90
g25
I01
sg26
g31
sg32
(lp91
I3
aI5
aI30
aI9
asg34
I6
sg35
g36
(g3
tp92
Rp93
sbsS'IBEA'
p94
g2
(g3
g4
(lp95
(dp96
g7
(F0.091
F0.836
F0.131
I4
I5
tp97
sg9
F0.017677783966064453
sg10
I100
sg11
I0
sa(dp98
g7
(F0.111
F0.934
F0.13
I2
I2
tp99
sg9
F6.273875951766968
sg10
I100
sg11
I100
sa(dp100
g7
(F0.1
F0.94
F0.09
I2
I2
tp101
sg9
F12.298388004302979
sg10
I100
sg11
I200
sa(dp102
g7
(F0.125
F0.884
F0.112
I3
I4
tp103
sg9
F18.34246301651001
sg10
I100
sg11
I300
sa(dp104
g7
(F0.088
F2.407
F0.081
I1
I3
tp105
sg9
F24.384207010269165
sg10
I100
sg11
I400
sa(dp106
g7
(F0.125
F0.884
F0.112
I3
I5
tp107
sg9
F30.428658962249756
sg10
I100
sg11
I500
satp108
Rp109
(dp110
g25
I01
sg26
g31
sg32
(lp111
I3
aI5
aI30
aI9
asg34
I6
sg35
g36
(g3
tp112
Rp113
sbsS'NSGA2'
p114
g2
(g3
g4
(lp115
(dp116
g7
(F0.118
F0.738
F0.088
I6
I10
tp117
sg9
F0.018362045288085938
sg10
I100
sg11
I0
sa(dp118
g7
(F0.092
F2.312
F0.154
I1
I1
tp119
sg9
F5.581523895263672
sg10
I100
sg11
I100
sa(dp120
g7
(F0.055
F2.5
F0.106
I1
I1
tp121
sg9
F10.964791059494019
sg10
I100
sg11
I200
sa(dp122
g7
g64
sg9
F16.40062403678894
sg10
I100
sg11
I300
sa(dp123
g7
(F0.092
F2.312
F0.154
I1
I1
tp124
sg9
F21.799551010131836
sg10
I100
sg11
I400
sa(dp125
g7
g64
sg9
F27.1735520362854
sg10
I100
sg11
I500
satp126
Rp127
(dp128
g25
I01
sg26
g31
sg32
(lp129
I3
aI5
aI30
aI9
asg34
I6
sg35
g36
(g3
tp130
Rp131
sbsS'IBEA-SIP'
p132
g2
(g3
g4
(lp133
(dp134
g7
(F0.146
F0.727
F0.087
I11
I59
tp135
sg9
F0.01829981803894043
sg10
I100
sg11
I0
sa(dp136
g7
(F0.149
F0.991
F0.074
I9
I100
tp137
sg9
F5.6606268882751465
sg10
I100
sg11
I100
sa(dp138
g7
(F0.151
F0.905
F0.084
I9
I100
tp139
sg9
F11.287714004516602
sg10
I100
sg11
I200
sa(dp140
g7
(F0.153
F0.878
F0.084
I9
I100
tp141
sg9
F16.871920824050903
sg10
I100
sg11
I300
sa(dp142
g7
(F0.139
F0.744
F0.08
I10
I100
tp143
sg9
F22.406807899475098
sg10
I100
sg11
I400
sa(dp144
g7
(F0.152
F0.893
F0.076
I10
I100
tp145
sg9
F27.960328817367554
sg10
I100
sg11
I500
satp146
Rp147
(dp148
g25
I01
sg26
g31
sg32
(lp149
I3
aI5
aI30
aI9
asg34
I6
sg35
g36
(g3
tp150
Rp151
sbs.