(dp0
S'NSGA2-SIP'
p1
ccopy_reg
_reconstructor
p2
(cdeap.tools.support
Logbook
p3
c__builtin__
list
p4
(lp5
(dp6
S'hv|spread|igd|frontier#|valid#'
p7
(F0.151
F0.757
F0.08
I14
I56
tp8
sS'timestamp'
p9
F0.02127695083618164
sS'evals'
p10
I100
sS'gen'
p11
I0
sa(dp12
g7
(F0.157
F0.86
F0.076
I13
I100
tp13
sg9
F2.63913893699646
sg10
I100
sg11
I100
sa(dp14
g7
(F0.157
F0.933
F0.076
I13
I100
tp15
sg9
F5.367187976837158
sg10
I100
sg11
I200
sa(dp16
g7
(F0.157
F0.827
F0.076
I13
I100
tp17
sg9
F8.103445053100586
sg10
I100
sg11
I300
sa(dp18
g7
(F0.157
F0.63
F0.076
I13
I100
tp19
sg9
F10.85502314567566
sg10
I100
sg11
I400
sa(dp20
g7
(F0.157
F0.933
F0.076
I13
I100
tp21
sg9
F13.592854022979736
sg10
I100
sg11
I500
satp22
Rp23
(dp24
S'log_header'
p25
I01
sS'header'
p26
(S'gen'
p27
S'evals'
p28
S'hv|spread|igd|frontier#|valid#'
p29
S'timestamp'
p30
tp31
sS'columns_len'
p32
(lp33
I3
aI5
aI30
aI9
asS'buffindex'
p34
I6
sS'chapters'
p35
ccollections
defaultdict
p36
(g3
tp37
Rp38
sbsS'SPEA2-SIP'
p39
g2
(g3
g4
(lp40
(dp41
g7
(F0.151
F0.658
F0.088
I12
I52
tp42
sg9
F0.020097970962524414
sg10
I100
sg11
I0
sa(dp43
g7
(F0.157
F0.998
F0.076
I13
I100
tp44
sg9
F169.36663103103638
sg10
I100
sg11
I100
sa(dp45
g7
(F0.157
F0.895
F0.076
I13
I100
tp46
sg9
F336.7241439819336
sg10
I100
sg11
I200
sa(dp47
g7
(F0.157
F0.895
F0.076
I13
I100
tp48
sg9
F508.5209560394287
sg10
I100
sg11
I300
sa(dp49
g7
(F0.157
F0.827
F0.076
I13
I100
tp50
sg9
F681.0232508182526
sg10
I100
sg11
I400
sa(dp51
g7
(F0.157
F0.895
F0.076
I13
I100
tp52
sg9
F853.8495049476624
sg10
I100
sg11
I500
satp53
Rp54
(dp55
g25
I01
sg26
g31
sg32
(lp56
I3
aI5
aI30
aI9
asg34
I6
sg35
g36
(g3
tp57
Rp58
sbsS'SPEA2'
p59
g2
(g3
g4
(lp60
(dp61
g7
(F0.069
F2.236
F0.13
I1
I1
tp62
sg9
F0.019551992416381836
sg10
I100
sg11
I0
sa(dp63
g7
(I0
I0
I0
I0
I0
tp64
sg9
F130.460942029953
sg10
I100
sg11
I100
sa(dp65
g7
(F0.087
F2.236
F0.121
I1
I1
tp66
sg9
F265.3881199359894
sg10
I100
sg11
I200
sa(dp67
g7
g64
sg9
F400.12271094322205
sg10
I100
sg11
I300
sa(dp68
g7
g64
sg9
F536.3081259727478
sg10
I100
sg11
I400
sa(dp69
g7
g64
sg9
F670.220468044281
sg10
I100
sg11
I500
satp70
Rp71
(dp72
g25
I01
sg26
g31
sg32
(lp73
I3
aI5
aI30
aI9
asg34
I6
sg35
g36
(g3
tp74
Rp75
sbsS'IBEA'
p76
g2
(g3
g4
(lp77
(dp78
g7
(F0.094
F1.0
F0.089
I3
I4
tp79
sg9
F0.02001810073852539
sg10
I100
sg11
I0
sa(dp80
g7
(F0.111
F0.934
F0.13
I2
I2
tp81
sg9
F6.944691181182861
sg10
I100
sg11
I100
sa(dp82
g7
(F0.037
F2.599
F0.099
I1
I1
tp83
sg9
F13.929753065109253
sg10
I100
sg11
I200
sa(dp84
g7
(F0.092
F2.312
F0.154
I1
I1
tp85
sg9
F20.875561952590942
sg10
I100
sg11
I300
sa(dp86
g7
(F0.124
F0.825
F0.12
I3
I8
tp87
sg9
F27.850133180618286
sg10
I100
sg11
I400
sa(dp88
g7
(F0.088
F2.407
F0.081
I1
I1
tp89
sg9
F34.80923914909363
sg10
I100
sg11
I500
satp90
Rp91
(dp92
g25
I01
sg26
g31
sg32
(lp93
I3
aI5
aI30
aI9
asg34
I6
sg35
g36
(g3
tp94
Rp95
sbsS'NSGA2'
p96
g2
(g3
g4
(lp97
(dp98
g7
(F0.081
F0.887
F0.117
I4
I4
tp99
sg9
F0.020376920700073242
sg10
I100
sg11
I0
sa(dp100
g7
(F0.092
F2.312
F0.154
I1
I1
tp101
sg9
F6.8248069286346436
sg10
I100
sg11
I100
sa(dp102
g7
g64
sg9
F13.77649188041687
sg10
I100
sg11
I200
sa(dp103
g7
(F0.092
F2.312
F0.154
I1
I1
tp104
sg9
F20.699915885925293
sg10
I100
sg11
I300
sa(dp105
g7
g64
sg9
F27.70506501197815
sg10
I100
sg11
I400
sa(dp106
g7
g64
sg9
F34.69794988632202
sg10
I100
sg11
I500
satp107
Rp108
(dp109
g25
I01
sg26
g31
sg32
(lp110
I3
aI5
aI30
aI9
asg34
I6
sg35
g36
(g3
tp111
Rp112
sbsS'IBEA-SIP'
p113
g2
(g3
g4
(lp114
(dp115
g7
(F0.149
F0.808
F0.083
I13
I52
tp116
sg9
F0.020817995071411133
sg10
I100
sg11
I0
sa(dp117
g7
(F0.157
F0.891
F0.08
I11
I100
tp118
sg9
F6.3300440311431885
sg10
I100
sg11
I100
sa(dp119
g7
(F0.143
F0.778
F0.082
I11
I100
tp120
sg9
F12.734771013259888
sg10
I100
sg11
I200
sa(dp121
g7
(F0.137
F0.942
F0.093
I9
I100
tp122
sg9
F19.18827795982361
sg10
I100
sg11
I300
sa(dp123
g7
(F0.153
F0.813
F0.069
I11
I100
tp124
sg9
F25.653146028518677
sg10
I100
sg11
I400
sa(dp125
g7
(F0.139
F0.784
F0.091
I10
I100
tp126
sg9
F32.09599494934082
sg10
I100
sg11
I500
satp127
Rp128
(dp129
g25
I01
sg26
g31
sg32
(lp130
I3
aI5
aI30
aI9
asg34
I6
sg35
g36
(g3
tp131
Rp132
sbs.