(dp0
S'NSGA2-SIP'
p1
ccopy_reg
_reconstructor
p2
(cdeap.tools.support
Logbook
p3
c__builtin__
list
p4
(lp5
(dp6
S'hv|spread|igd|frontier#|valid#'
p7
(F0.15
F0.697
F0.087
I13
I61
tp8
sS'timestamp'
p9
F0.01659989356994629
sS'evals'
p10
I100
sS'gen'
p11
I0
sa(dp12
g7
(F0.157
F0.998
F0.076
I13
I100
tp13
sg9
F2.0733020305633545
sg10
I100
sg11
I100
sa(dp14
g7
(F0.157
F0.827
F0.076
I13
I100
tp15
sg9
F4.127572059631348
sg10
I100
sg11
I200
sa(dp16
g7
(F0.157
F0.805
F0.076
I13
I100
tp17
sg9
F6.2631800174713135
sg10
I100
sg11
I300
sa(dp18
g7
(F0.157
F0.933
F0.076
I13
I100
tp19
sg9
F8.400130987167358
sg10
I100
sg11
I400
sa(dp20
g7
(F0.157
F0.805
F0.076
I13
I100
tp21
sg9
F10.54244089126587
sg10
I100
sg11
I500
satp22
Rp23
(dp24
S'log_header'
p25
I01
sS'header'
p26
(S'gen'
p27
S'evals'
p28
S'hv|spread|igd|frontier#|valid#'
p29
S'timestamp'
p30
tp31
sS'columns_len'
p32
(lp33
I3
aI5
aI30
aI9
asS'buffindex'
p34
I6
sS'chapters'
p35
ccollections
defaultdict
p36
(g3
tp37
Rp38
sbsS'SPEA2-SIP'
p39
g2
(g3
g4
(lp40
(dp41
g7
(F0.148
F0.854
F0.052
I12
I54
tp42
sg9
F0.016143083572387695
sg10
I100
sg11
I0
sa(dp43
g7
(F0.157
F0.726
F0.076
I13
I100
tp44
sg9
F140.59097719192505
sg10
I100
sg11
I100
sa(dp45
g7
(F0.157
F0.99
F0.076
I13
I100
tp46
sg9
F284.87102913856506
sg10
I100
sg11
I200
sa(dp47
g7
(F0.157
F0.726
F0.076
I13
I100
tp48
sg9
F427.3422040939331
sg10
I100
sg11
I300
sa(dp49
g7
(F0.157
F0.99
F0.076
I13
I100
tp50
sg9
F572.48131108284
sg10
I100
sg11
I400
sa(dp51
g7
(F0.157
F0.726
F0.076
I13
I100
tp52
sg9
F715.9149231910706
sg10
I100
sg11
I500
satp53
Rp54
(dp55
g25
I01
sg26
g31
sg32
(lp56
I3
aI5
aI30
aI9
asg34
I6
sg35
g36
(g3
tp57
Rp58
sbsS'SPEA2'
p59
g2
(g3
g4
(lp60
(dp61
g7
(F0.112
F0.902
F0.032
I2
I6
tp62
sg9
F0.0156400203704834
sg10
I100
sg11
I0
sa(dp63
g7
(I0
I0
I0
I0
I0
tp64
sg9
F114.3472330570221
sg10
I100
sg11
I100
sa(dp65
g7
g64
sg9
F226.70151615142822
sg10
I100
sg11
I200
sa(dp66
g7
g64
sg9
F339.39073610305786
sg10
I100
sg11
I300
sa(dp67
g7
g64
sg9
F452.34515500068665
sg10
I100
sg11
I400
sa(dp68
g7
g64
sg9
F566.2908232212067
sg10
I100
sg11
I500
satp69
Rp70
(dp71
g25
I01
sg26
g31
sg32
(lp72
I3
aI5
aI30
aI9
asg34
I6
sg35
g36
(g3
tp73
Rp74
sbsS'IBEA'
p75
g2
(g3
g4
(lp76
(dp77
g7
(F0.083
F0.957
F0.108
I4
I4
tp78
sg9
F0.01518106460571289
sg10
I100
sg11
I0
sa(dp79
g7
(F0.044
F2.5
F0.062
I1
I1
tp80
sg9
F5.711543083190918
sg10
I100
sg11
I100
sa(dp81
g7
g64
sg9
F11.526789903640747
sg10
I100
sg11
I200
sa(dp82
g7
(F0.037
F2.599
F0.099
I1
I4
tp83
sg9
F17.338617086410522
sg10
I100
sg11
I300
sa(dp84
g7
(F0.099
F0.908
F0.118
I2
I3
tp85
sg9
F23.15754508972168
sg10
I100
sg11
I400
sa(dp86
g7
g64
sg9
F28.98282504081726
sg10
I100
sg11
I500
satp87
Rp88
(dp89
g25
I01
sg26
g31
sg32
(lp90
I3
aI5
aI30
aI9
asg34
I6
sg35
g36
(g3
tp91
Rp92
sbsS'NSGA2'
p93
g2
(g3
g4
(lp94
(dp95
g7
(F0.069
F0.854
F0.128
I6
I6
tp96
sg9
F0.016216039657592773
sg10
I100
sg11
I0
sa(dp97
g7
(F0.055
F2.5
F0.106
I1
I1
tp98
sg9
F5.416263103485107
sg10
I100
sg11
I100
sa(dp99
g7
g64
sg9
F10.939223051071167
sg10
I100
sg11
I200
sa(dp100
g7
g64
sg9
F16.46452021598816
sg10
I100
sg11
I300
sa(dp101
g7
(F0.1
F0.94
F0.09
I2
I2
tp102
sg9
F21.995795011520386
sg10
I100
sg11
I400
sa(dp103
g7
(F0.083
F2.236
F0.115
I1
I1
tp104
sg9
F27.469999074935913
sg10
I100
sg11
I500
satp105
Rp106
(dp107
g25
I01
sg26
g31
sg32
(lp108
I3
aI5
aI30
aI9
asg34
I6
sg35
g36
(g3
tp109
Rp110
sbsS'IBEA-SIP'
p111
g2
(g3
g4
(lp112
(dp113
g7
(F0.15
F0.694
F0.08
I14
I66
tp114
sg9
F0.016324996948242188
sg10
I100
sg11
I0
sa(dp115
g7
(F0.157
F0.879
F0.082
I12
I100
tp116
sg9
F5.551281213760376
sg10
I100
sg11
I100
sa(dp117
g7
(F0.138
F0.586
F0.082
I11
I100
tp118
sg9
F11.15230107307434
sg10
I100
sg11
I200
sa(dp119
g7
(F0.157
F0.81
F0.082
I12
I100
tp120
sg9
F16.759262084960938
sg10
I100
sg11
I300
sa(dp121
g7
(F0.157
F0.664
F0.082
I12
I100
tp122
sg9
F22.357287168502808
sg10
I100
sg11
I400
sa(dp123
g7
(F0.152
F0.717
F0.091
I9
I100
tp124
sg9
F27.87299108505249
sg10
I100
sg11
I500
satp125
Rp126
(dp127
g25
I01
sg26
g31
sg32
(lp128
I3
aI5
aI30
aI9
asg34
I6
sg35
g36
(g3
tp129
Rp130
sbs.