(dp0
S'NSGA2-SIP'
p1
ccopy_reg
_reconstructor
p2
(cdeap.tools.support
Logbook
p3
c__builtin__
list
p4
(lp5
(dp6
S'hv|spread|igd|frontier#|valid#'
p7
(F0.132
F0.775
F0.064
I10
I58
tp8
sS'timestamp'
p9
F0.016479015350341797
sS'evals'
p10
I100
sS'gen'
p11
I0
sa(dp12
g7
(F0.157
F0.726
F0.076
I13
I100
tp13
sg9
F2.2702019214630127
sg10
I100
sg11
I100
sa(dp14
g7
(F0.157
F0.86
F0.076
I13
I100
tp15
sg9
F4.613663911819458
sg10
I100
sg11
I200
sa(dp16
g7
(F0.157
F0.808
F0.076
I13
I100
tp17
sg9
F6.951251983642578
sg10
I100
sg11
I300
sa(dp18
g7
(F0.157
F0.809
F0.076
I13
I100
tp19
sg9
F9.288424015045166
sg10
I100
sg11
I400
sa(dp20
g7
(F0.157
F0.99
F0.076
I13
I100
tp21
sg9
F11.632194995880127
sg10
I100
sg11
I500
satp22
Rp23
(dp24
S'log_header'
p25
I01
sS'header'
p26
(S'gen'
p27
S'evals'
p28
S'hv|spread|igd|frontier#|valid#'
p29
S'timestamp'
p30
tp31
sS'columns_len'
p32
(lp33
I3
aI5
aI30
aI9
asS'buffindex'
p34
I6
sS'chapters'
p35
ccollections
defaultdict
p36
(g3
tp37
Rp38
sbsS'SPEA2-SIP'
p39
g2
(g3
g4
(lp40
(dp41
g7
(F0.147
F0.745
F0.085
I11
I61
tp42
sg9
F0.017065048217773438
sg10
I100
sg11
I0
sa(dp43
g7
(F0.157
F0.805
F0.076
I13
I100
tp44
sg9
F157.90677189826965
sg10
I100
sg11
I100
sa(dp45
g7
(F0.157
F0.734
F0.076
I13
I100
tp46
sg9
F315.6401159763336
sg10
I100
sg11
I200
sa(dp47
g7
(F0.157
F0.837
F0.076
I13
I100
tp48
sg9
F475.43170499801636
sg10
I100
sg11
I300
sa(dp49
g7
(F0.157
F0.815
F0.076
I13
I100
tp50
sg9
F636.4760200977325
sg10
I100
sg11
I400
sa(dp51
g7
(F0.157
F0.867
F0.076
I13
I100
tp52
sg9
F797.466304063797
sg10
I100
sg11
I500
satp53
Rp54
(dp55
g25
I01
sg26
g31
sg32
(lp56
I3
aI5
aI30
aI9
asg34
I6
sg35
g36
(g3
tp57
Rp58
sbsS'SPEA2'
p59
g2
(g3
g4
(lp60
(dp61
g7
(F0.092
F0.936
F0.115
I3
I4
tp62
sg9
F0.01680302619934082
sg10
I100
sg11
I0
sa(dp63
g7
(I0
I0
I0
I0
I0
tp64
sg9
F127.63329601287842
sg10
I100
sg11
I100
sa(dp65
g7
g64
sg9
F250.10683703422546
sg10
I100
sg11
I200
sa(dp66
g7
g64
sg9
F374.864315032959
sg10
I100
sg11
I300
sa(dp67
g7
g64
sg9
F497.1273009777069
sg10
I100
sg11
I400
sa(dp68
g7
g64
sg9
F621.593868970871
sg10
I100
sg11
I500
satp69
Rp70
(dp71
g25
I01
sg26
g31
sg32
(lp72
I3
aI5
aI30
aI9
asg34
I6
sg35
g36
(g3
tp73
Rp74
sbsS'IBEA'
p75
g2
(g3
g4
(lp76
(dp77
g7
(F0.102
F0.869
F0.077
I4
I5
tp78
sg9
F0.026122093200683594
sg10
I100
sg11
I0
sa(dp79
g7
(F0.061
F0.97
F0.103
I2
I3
tp80
sg9
F6.563823938369751
sg10
I100
sg11
I100
sa(dp81
g7
(F0.092
F2.312
F0.154
I1
I2
tp82
sg9
F13.247316122055054
sg10
I100
sg11
I200
sa(dp83
g7
g64
sg9
F19.932755947113037
sg10
I100
sg11
I300
sa(dp84
g7
(F0.088
F2.407
F0.081
I1
I2
tp85
sg9
F26.61092495918274
sg10
I100
sg11
I400
sa(dp86
g7
(F0.037
F2.599
F0.099
I1
I1
tp87
sg9
F33.28967094421387
sg10
I100
sg11
I500
satp88
Rp89
(dp90
g25
I01
sg26
g31
sg32
(lp91
I3
aI5
aI30
aI9
asg34
I6
sg35
g36
(g3
tp92
Rp93
sbsS'NSGA2'
p94
g2
(g3
g4
(lp95
(dp96
g7
(F0.1
F0.909
F0.124
I4
I7
tp97
sg9
F0.017373085021972656
sg10
I100
sg11
I0
sa(dp98
g7
g64
sg9
F6.04324197769165
sg10
I100
sg11
I100
sa(dp99
g7
g64
sg9
F11.977334976196289
sg10
I100
sg11
I200
sa(dp100
g7
g64
sg9
F17.973716974258423
sg10
I100
sg11
I300
sa(dp101
g7
(F0.098
F0.968
F0.094
I2
I2
tp102
sg9
F23.890043020248413
sg10
I100
sg11
I400
sa(dp103
g7
(F0.092
F2.312
F0.154
I1
I1
tp104
sg9
F29.882013082504272
sg10
I100
sg11
I500
satp105
Rp106
(dp107
g25
I01
sg26
g31
sg32
(lp108
I3
aI5
aI30
aI9
asg34
I6
sg35
g36
(g3
tp109
Rp110
sbsS'IBEA-SIP'
p111
g2
(g3
g4
(lp112
(dp113
g7
(F0.157
F0.692
F0.082
I12
I56
tp114
sg9
F0.01751399040222168
sg10
I100
sg11
I0
sa(dp115
g7
(F0.157
F0.901
F0.082
I12
I100
tp116
sg9
F6.046874046325684
sg10
I100
sg11
I100
sa(dp117
g7
(F0.157
F0.731
F0.082
I12
I100
tp118
sg9
F12.187525987625122
sg10
I100
sg11
I200
sa(dp119
g7
(F0.143
F0.654
F0.101
I9
I100
tp120
sg9
F18.258031129837036
sg10
I100
sg11
I300
sa(dp121
g7
(F0.157
F0.759
F0.082
I12
I100
tp122
sg9
F24.292914152145386
sg10
I100
sg11
I400
sa(dp123
g7
(F0.157
F0.966
F0.082
I12
I100
tp124
sg9
F30.416221141815186
sg10
I100
sg11
I500
satp125
Rp126
(dp127
g25
I01
sg26
g31
sg32
(lp128
I3
aI5
aI30
aI9
asg34
I6
sg35
g36
(g3
tp129
Rp130
sbs.