(dp0
S'NSGA2-SIP'
p1
ccopy_reg
_reconstructor
p2
(cdeap.tools.support
Logbook
p3
c__builtin__
list
p4
(lp5
(dp6
S'hv|spread|igd|frontier#|valid#'
p7
(F0.148
F0.819
F0.079
I13
I52
tp8
sS'timestamp'
p9
F0.018846988677978516
sS'evals'
p10
I100
sS'gen'
p11
I0
sa(dp12
g7
(F0.157
F0.933
F0.076
I13
I100
tp13
sg9
F2.5120389461517334
sg10
I100
sg11
I100
sa(dp14
g7
(F0.157
F0.683
F0.076
I13
I100
tp15
sg9
F5.02106785774231
sg10
I100
sg11
I200
sa(dp16
g7
(F0.157
F0.947
F0.076
I13
I100
tp17
sg9
F7.54719090461731
sg10
I100
sg11
I300
sa(dp18
g7
(F0.157
F0.947
F0.076
I13
I100
tp19
sg9
F10.022631883621216
sg10
I100
sg11
I400
sa(dp20
g7
(F0.157
F0.81
F0.076
I13
I100
tp21
sg9
F12.533663034439087
sg10
I100
sg11
I500
satp22
Rp23
(dp24
S'log_header'
p25
I01
sS'header'
p26
(S'gen'
p27
S'evals'
p28
S'hv|spread|igd|frontier#|valid#'
p29
S'timestamp'
p30
tp31
sS'columns_len'
p32
(lp33
I3
aI5
aI30
aI9
asS'buffindex'
p34
I6
sS'chapters'
p35
ccollections
defaultdict
p36
(g3
tp37
Rp38
sbsS'SPEA2-SIP'
p39
g2
(g3
g4
(lp40
(dp41
g7
(F0.144
F0.648
F0.091
I12
I48
tp42
sg9
F0.01958489418029785
sg10
I100
sg11
I0
sa(dp43
g7
(F0.157
F0.726
F0.076
I13
I100
tp44
sg9
F164.611083984375
sg10
I100
sg11
I100
sa(dp45
g7
(F0.157
F0.809
F0.076
I13
I100
tp46
sg9
F336.2223129272461
sg10
I100
sg11
I200
sa(dp47
g7
(F0.157
F0.947
F0.076
I13
I100
tp48
sg9
F506.93990087509155
sg10
I100
sg11
I300
sa(dp49
g7
(F0.157
F0.998
F0.076
I13
I100
tp50
sg9
F677.5883088111877
sg10
I100
sg11
I400
sa(dp51
g7
(F0.157
F0.827
F0.076
I13
I100
tp52
sg9
F845.7304549217224
sg10
I100
sg11
I500
satp53
Rp54
(dp55
g25
I01
sg26
g31
sg32
(lp56
I3
aI5
aI30
aI9
asg34
I6
sg35
g36
(g3
tp57
Rp58
sbsS'SPEA2'
p59
g2
(g3
g4
(lp60
(dp61
g7
(F0.039
F0.94
F0.124
I2
I2
tp62
sg9
F0.01891183853149414
sg10
I100
sg11
I0
sa(dp63
g7
(I0
I0
I0
I0
I0
tp64
sg9
F129.23631381988525
sg10
I100
sg11
I100
sa(dp65
g7
g64
sg9
F262.85544896125793
sg10
I100
sg11
I200
sa(dp66
g7
g64
sg9
F397.91923689842224
sg10
I100
sg11
I300
sa(dp67
g7
g64
sg9
F530.3302929401398
sg10
I100
sg11
I400
sa(dp68
g7
g64
sg9
F663.7838618755341
sg10
I100
sg11
I500
satp69
Rp70
(dp71
g25
I01
sg26
g31
sg32
(lp72
I3
aI5
aI30
aI9
asg34
I6
sg35
g36
(g3
tp73
Rp74
sbsS'IBEA-PEN'
p75
g2
(g3
g4
(lp76
(dp77
g7
(F0.114
F0.824
F0.0
I5
I59
tp78
sg9
F0.024209976196289062
sg10
I100
sg11
I0
sa(dp79
g7
(F0.143
F0.869
F0.101
I9
I48
tp80
sg9
F7.271167993545532
sg10
I100
sg11
I100
sa(dp81
g7
(F0.137
F0.818
F0.048
I10
I58
tp82
sg9
F14.589715003967285
sg10
I100
sg11
I200
sa(dp83
g7
(F0.14
F0.649
F0.114
I8
I39
tp84
sg9
F21.866997003555298
sg10
I100
sg11
I300
sa(dp85
g7
(F0.151
F0.98
F0.087
I9
I64
tp86
sg9
F29.17927598953247
sg10
I100
sg11
I400
sa(dp87
g7
(F0.137
F0.834
F0.061
I9
I37
tp88
sg9
F36.47446894645691
sg10
I100
sg11
I500
satp89
Rp90
(dp91
g25
I01
sg26
g31
sg32
(lp92
I3
aI5
aI30
aI9
asg34
I6
sg35
g36
(g3
tp93
Rp94
sbsS'IBEA'
p95
g2
(g3
g4
(lp96
(dp97
g7
(F0.114
F0.909
F0.176
I4
I6
tp98
sg9
F0.020095109939575195
sg10
I100
sg11
I0
sa(dp99
g7
(F0.096
F0.968
F0.094
I2
I4
tp100
sg9
F7.121850967407227
sg10
I100
sg11
I100
sa(dp101
g7
(F0.1
F0.94
F0.09
I2
I3
tp102
sg9
F14.312579154968262
sg10
I100
sg11
I200
sa(dp103
g7
(F0.088
F2.407
F0.081
I1
I1
tp104
sg9
F21.464717149734497
sg10
I100
sg11
I300
sa(dp105
g7
(F0.047
F2.5
F0.083
I1
I1
tp106
sg9
F28.715079069137573
sg10
I100
sg11
I400
sa(dp107
g7
g64
sg9
F35.997955083847046
sg10
I100
sg11
I500
satp108
Rp109
(dp110
g25
I01
sg26
g31
sg32
(lp111
I3
aI5
aI30
aI9
asg34
I6
sg35
g36
(g3
tp112
Rp113
sbsS'NSGA2'
p114
g2
(g3
g4
(lp115
(dp116
g7
(F0.105
F0.974
F0.137
I4
I6
tp117
sg9
F0.019190073013305664
sg10
I100
sg11
I0
sa(dp118
g7
(F0.084
F2.312
F0.139
I1
I1
tp119
sg9
F6.508281946182251
sg10
I100
sg11
I100
sa(dp120
g7
g64
sg9
F13.121583938598633
sg10
I100
sg11
I200
sa(dp121
g7
(F0.065
F2.312
F0.107
I1
I1
tp122
sg9
F19.643784046173096
sg10
I100
sg11
I300
sa(dp123
g7
g64
sg9
F26.240117073059082
sg10
I100
sg11
I400
sa(dp124
g7
g64
sg9
F32.766757011413574
sg10
I100
sg11
I500
satp125
Rp126
(dp127
g25
I01
sg26
g31
sg32
(lp128
I3
aI5
aI30
aI9
asg34
I6
sg35
g36
(g3
tp129
Rp130
sbsS'IBEA-SIP'
p131
g2
(g3
g4
(lp132
(dp133
g7
(F0.147
F0.697
F0.08
I15
I53
tp134
sg9
F0.020437955856323242
sg10
I100
sg11
I0
sa(dp135
g7
(F0.153
F0.68
F0.082
I10
I100
tp136
sg9
F6.595694065093994
sg10
I100
sg11
I100
sa(dp137
g7
(F0.139
F0.784
F0.091
I10
I100
tp138
sg9
F13.118515968322754
sg10
I100
sg11
I200
sa(dp139
g7
(F0.148
F0.918
F0.051
I11
I100
tp140
sg9
F19.697593927383423
sg10
I100
sg11
I300
sa(dp141
g7
(F0.154
F0.862
F0.078
I11
I100
tp142
sg9
F26.23343801498413
sg10
I100
sg11
I400
sa(dp143
g7
(F0.157
F0.982
F0.082
I12
I100
tp144
sg9
F32.82457709312439
sg10
I100
sg11
I500
satp145
Rp146
(dp147
g25
I01
sg26
g31
sg32
(lp148
I3
aI5
aI30
aI9
asg34
I6
sg35
g36
(g3
tp149
Rp150
sbs.