(dp0
S'NSGA2-SIP'
p1
ccopy_reg
_reconstructor
p2
(cdeap.tools.support
Logbook
p3
c__builtin__
list
p4
(lp5
(dp6
S'hv|spread|igd|frontier#|valid#'
p7
(F0.15
F0.663
F0.082
I11
I47
tp8
sS'timestamp'
p9
F0.01921391487121582
sS'evals'
p10
I100
sS'gen'
p11
I0
sa(dp12
g7
(F0.157
F0.827
F0.076
I13
I100
tp13
sg9
F2.6695311069488525
sg10
I100
sg11
I100
sa(dp14
g7
(F0.157
F0.81
F0.076
I13
I100
tp15
sg9
F5.3119049072265625
sg10
I100
sg11
I200
sa(dp16
g7
(F0.157
F0.683
F0.076
I13
I100
tp17
sg9
F7.9524970054626465
sg10
I100
sg11
I300
sa(dp18
g7
(F0.157
F0.947
F0.076
I13
I100
tp19
sg9
F10.637864112854004
sg10
I100
sg11
I400
sa(dp20
g7
(F0.157
F0.81
F0.076
I13
I100
tp21
sg9
F13.291943073272705
sg10
I100
sg11
I500
satp22
Rp23
(dp24
S'log_header'
p25
I01
sS'header'
p26
(S'gen'
p27
S'evals'
p28
S'hv|spread|igd|frontier#|valid#'
p29
S'timestamp'
p30
tp31
sS'columns_len'
p32
(lp33
I3
aI5
aI30
aI9
asS'buffindex'
p34
I6
sS'chapters'
p35
ccollections
defaultdict
p36
(g3
tp37
Rp38
sbsS'SPEA2-SIP'
p39
g2
(g3
g4
(lp40
(dp41
g7
(F0.156
F0.6
F0.093
I12
I59
tp42
sg9
F0.020598173141479492
sg10
I100
sg11
I0
sa(dp43
g7
(F0.157
F0.99
F0.076
I13
I100
tp44
sg9
F172.35430908203125
sg10
I100
sg11
I100
sa(dp45
g7
(F0.157
F0.99
F0.076
I13
I100
tp46
sg9
F344.81791496276855
sg10
I100
sg11
I200
sa(dp47
g7
(F0.157
F0.808
F0.076
I13
I100
tp48
sg9
F513.9227540493011
sg10
I100
sg11
I300
sa(dp49
g7
(F0.157
F0.63
F0.076
I13
I100
tp50
sg9
F683.1373951435089
sg10
I100
sg11
I400
sa(dp51
g7
(F0.157
F0.805
F0.076
I13
I100
tp52
sg9
F853.6659309864044
sg10
I100
sg11
I500
satp53
Rp54
(dp55
g25
I01
sg26
g31
sg32
(lp56
I3
aI5
aI30
aI9
asg34
I6
sg35
g36
(g3
tp57
Rp58
sbsS'SPEA2'
p59
g2
(g3
g4
(lp60
(dp61
g7
(F0.103
F0.966
F0.109
I4
I4
tp62
sg9
F0.020047903060913086
sg10
I100
sg11
I0
sa(dp63
g7
(I0
I0
I0
I0
I0
tp64
sg9
F135.7101800441742
sg10
I100
sg11
I100
sa(dp65
g7
g64
sg9
F271.41936111450195
sg10
I100
sg11
I200
sa(dp66
g7
(F0.087
F2.236
F0.121
I1
I1
tp67
sg9
F406.5636200904846
sg10
I100
sg11
I300
sa(dp68
g7
g64
sg9
F541.0805048942566
sg10
I100
sg11
I400
sa(dp69
g7
g64
sg9
F676.1749770641327
sg10
I100
sg11
I500
satp70
Rp71
(dp72
g25
I01
sg26
g31
sg32
(lp73
I3
aI5
aI30
aI9
asg34
I6
sg35
g36
(g3
tp74
Rp75
sbsS'IBEA'
p76
g2
(g3
g4
(lp77
(dp78
g7
(F0.076
F0.884
F0.117
I4
I4
tp79
sg9
F0.020611047744750977
sg10
I100
sg11
I0
sa(dp80
g7
(F0.037
F2.599
F0.099
I1
I2
tp81
sg9
F6.880454063415527
sg10
I100
sg11
I100
sa(dp82
g7
g64
sg9
F13.763345003128052
sg10
I100
sg11
I200
sa(dp83
g7
(F0.037
F2.599
F0.099
I1
I2
tp84
sg9
F20.70317506790161
sg10
I100
sg11
I300
sa(dp85
g7
g64
sg9
F27.62964391708374
sg10
I100
sg11
I400
sa(dp86
g7
(F0.092
F2.312
F0.154
I1
I1
tp87
sg9
F34.5485680103302
sg10
I100
sg11
I500
satp88
Rp89
(dp90
g25
I01
sg26
g31
sg32
(lp91
I3
aI5
aI30
aI9
asg34
I6
sg35
g36
(g3
tp92
Rp93
sbsS'NSGA2'
p94
g2
(g3
g4
(lp95
(dp96
g7
(F0.092
F2.312
F0.154
I1
I5
tp97
sg9
F0.019613027572631836
sg10
I100
sg11
I0
sa(dp98
g7
g64
sg9
F7.0096659660339355
sg10
I100
sg11
I100
sa(dp99
g7
(F0.092
F2.312
F0.154
I1
I1
tp100
sg9
F13.98207402229309
sg10
I100
sg11
I200
sa(dp101
g7
(F0.092
F2.312
F0.154
I1
I1
tp102
sg9
F21.06492280960083
sg10
I100
sg11
I300
sa(dp103
g7
g64
sg9
F28.11502480506897
sg10
I100
sg11
I400
sa(dp104
g7
(F0.055
F2.5
F0.106
I1
I1
tp105
sg9
F35.11676383018494
sg10
I100
sg11
I500
satp106
Rp107
(dp108
g25
I01
sg26
g31
sg32
(lp109
I3
aI5
aI30
aI9
asg34
I6
sg35
g36
(g3
tp110
Rp111
sbsS'IBEA-SIP'
p112
g2
(g3
g4
(lp113
(dp114
g7
(F0.152
F0.802
F0.071
I13
I59
tp115
sg9
F0.021446943283081055
sg10
I100
sg11
I0
sa(dp116
g7
(F0.148
F0.908
F0.06
I10
I100
tp117
sg9
F6.274695158004761
sg10
I100
sg11
I100
sa(dp118
g7
(F0.156
F0.826
F0.098
I9
I100
tp119
sg9
F12.666221141815186
sg10
I100
sg11
I200
sa(dp120
g7
(F0.15
F0.905
F0.077
I9
I100
tp121
sg9
F19.047590017318726
sg10
I100
sg11
I300
sa(dp122
g7
(F0.143
F0.718
F0.091
I10
I100
tp123
sg9
F25.429353952407837
sg10
I100
sg11
I400
sa(dp124
g7
(F0.155
F0.907
F0.086
I10
I100
tp125
sg9
F31.809998989105225
sg10
I100
sg11
I500
satp126
Rp127
(dp128
g25
I01
sg26
g31
sg32
(lp129
I3
aI5
aI30
aI9
asg34
I6
sg35
g36
(g3
tp130
Rp131
sbs.