(dp0
S'NSGA2-SIP'
p1
ccopy_reg
_reconstructor
p2
(cdeap.tools.support
Logbook
p3
c__builtin__
list
p4
(lp5
(dp6
S'hv|spread|igd|frontier#|valid#'
p7
(F0.147
F0.808
F0.091
I10
I53
tp8
sS'timestamp'
p9
F0.016557931900024414
sS'evals'
p10
I100
sS'gen'
p11
I0
sa(dp12
g7
(F0.157
F0.734
F0.076
I13
I100
tp13
sg9
F2.2628910541534424
sg10
I100
sg11
I100
sa(dp14
g7
(F0.157
F0.734
F0.076
I13
I100
tp15
sg9
F4.528710842132568
sg10
I100
sg11
I200
sa(dp16
g7
(F0.157
F0.805
F0.076
I13
I100
tp17
sg9
F6.771971940994263
sg10
I100
sg11
I300
sa(dp18
g7
(F0.157
F0.933
F0.076
I13
I100
tp19
sg9
F9.050302982330322
sg10
I100
sg11
I400
sa(dp20
g7
(F0.157
F0.809
F0.076
I13
I100
tp21
sg9
F11.386291027069092
sg10
I100
sg11
I500
satp22
Rp23
(dp24
S'log_header'
p25
I01
sS'header'
p26
(S'gen'
p27
S'evals'
p28
S'hv|spread|igd|frontier#|valid#'
p29
S'timestamp'
p30
tp31
sS'columns_len'
p32
(lp33
I3
aI5
aI30
aI9
asS'buffindex'
p34
I6
sS'chapters'
p35
ccollections
defaultdict
p36
(g3
tp37
Rp38
sbsS'SPEA2-SIP'
p39
g2
(g3
g4
(lp40
(dp41
g7
(F0.148
F0.734
F0.075
I10
I52
tp42
sg9
F0.016602039337158203
sg10
I100
sg11
I0
sa(dp43
g7
(F0.157
F0.99
F0.076
I13
I100
tp44
sg9
F154.990571975708
sg10
I100
sg11
I100
sa(dp45
g7
(F0.157
F0.726
F0.076
I13
I100
tp46
sg9
F315.99499011039734
sg10
I100
sg11
I200
sa(dp47
g7
(F0.157
F0.815
F0.076
I13
I100
tp48
sg9
F471.94737100601196
sg10
I100
sg11
I300
sa(dp49
g7
(F0.157
F0.815
F0.076
I13
I100
tp50
sg9
F632.2864871025085
sg10
I100
sg11
I400
sa(dp51
g7
(F0.157
F0.726
F0.076
I13
I100
tp52
sg9
F790.4922790527344
sg10
I100
sg11
I500
satp53
Rp54
(dp55
g25
I01
sg26
g31
sg32
(lp56
I3
aI5
aI30
aI9
asg34
I6
sg35
g36
(g3
tp57
Rp58
sbsS'SPEA2'
p59
g2
(g3
g4
(lp60
(dp61
g7
(F0.083
F0.874
F0.087
I3
I4
tp62
sg9
F0.017122983932495117
sg10
I100
sg11
I0
sa(dp63
g7
(I0
I0
I0
I0
I0
tp64
sg9
F123.67269802093506
sg10
I100
sg11
I100
sa(dp65
g7
g64
sg9
F249.87460708618164
sg10
I100
sg11
I200
sa(dp66
g7
(F0.087
F2.236
F0.121
I1
I1
tp67
sg9
F374.89498805999756
sg10
I100
sg11
I300
sa(dp68
g7
g64
sg9
F502.1817719936371
sg10
I100
sg11
I400
sa(dp69
g7
g64
sg9
F627.30437707901
sg10
I100
sg11
I500
satp70
Rp71
(dp72
g25
I01
sg26
g31
sg32
(lp73
I3
aI5
aI30
aI9
asg34
I6
sg35
g36
(g3
tp74
Rp75
sbsS'IBEA-PEN'
p76
g2
(g3
g4
(lp77
(dp78
g7
(F0.114
F0.824
F0.0
I5
I70
tp79
sg9
F0.022967100143432617
sg10
I100
sg11
I0
sa(dp80
g7
(F0.155
F0.885
F0.104
I9
I47
tp81
sg9
F6.650099039077759
sg10
I100
sg11
I100
sa(dp82
g7
(F0.143
F0.727
F0.079
I10
I67
tp83
sg9
F13.326415061950684
sg10
I100
sg11
I200
sa(dp84
g7
(F0.151
F0.646
F0.087
I11
I52
tp85
sg9
F19.991419076919556
sg10
I100
sg11
I300
sa(dp86
g7
(F0.155
F0.901
F0.089
I10
I63
tp87
sg9
F26.65115213394165
sg10
I100
sg11
I400
sa(dp88
g7
(F0.15
F0.641
F0.086
I11
I60
tp89
sg9
F33.314850091934204
sg10
I100
sg11
I500
satp90
Rp91
(dp92
g25
I01
sg26
g31
sg32
(lp93
I3
aI5
aI30
aI9
asg34
I6
sg35
g36
(g3
tp94
Rp95
sbsS'IBEA'
p96
g2
(g3
g4
(lp97
(dp98
g7
(F0.09
F0.873
F0.079
I4
I7
tp99
sg9
F0.01774001121520996
sg10
I100
sg11
I0
sa(dp100
g7
(F0.098
F0.968
F0.094
I2
I2
tp101
sg9
F6.540684938430786
sg10
I100
sg11
I100
sa(dp102
g7
g64
sg9
F13.133880853652954
sg10
I100
sg11
I200
sa(dp103
g7
g64
sg9
F19.70896601676941
sg10
I100
sg11
I300
sa(dp104
g7
(F0.1
F0.94
F0.09
I2
I5
tp105
sg9
F26.292558908462524
sg10
I100
sg11
I400
sa(dp106
g7
g64
sg9
F32.873987913131714
sg10
I100
sg11
I500
satp107
Rp108
(dp109
g25
I01
sg26
g31
sg32
(lp110
I3
aI5
aI30
aI9
asg34
I6
sg35
g36
(g3
tp111
Rp112
sbsS'NSGA2'
p113
g2
(g3
g4
(lp114
(dp115
g7
(F0.102
F0.971
F0.134
I4
I5
tp116
sg9
F0.01754283905029297
sg10
I100
sg11
I0
sa(dp117
g7
g64
sg9
F6.1162109375
sg10
I100
sg11
I100
sa(dp118
g7
g64
sg9
F12.097574949264526
sg10
I100
sg11
I200
sa(dp119
g7
g64
sg9
F18.076335906982422
sg10
I100
sg11
I300
sa(dp120
g7
g64
sg9
F23.993140935897827
sg10
I100
sg11
I400
sa(dp121
g7
g64
sg9
F29.89897894859314
sg10
I100
sg11
I500
satp122
Rp123
(dp124
g25
I01
sg26
g31
sg32
(lp125
I3
aI5
aI30
aI9
asg34
I6
sg35
g36
(g3
tp126
Rp127
sbsS'IBEA-SIP'
p128
g2
(g3
g4
(lp129
(dp130
g7
(F0.146
F0.856
F0.057
I12
I51
tp131
sg9
F0.017198801040649414
sg10
I100
sg11
I0
sa(dp132
g7
(F0.152
F0.806
F0.075
I10
I100
tp133
sg9
F5.922245979309082
sg10
I100
sg11
I100
sa(dp134
g7
(F0.157
F0.724
F0.09
I11
I100
tp135
sg9
F12.039963960647583
sg10
I100
sg11
I200
sa(dp136
g7
(F0.156
F0.636
F0.082
I12
I100
tp137
sg9
F18.126200914382935
sg10
I100
sg11
I300
sa(dp138
g7
(F0.155
F0.907
F0.086
I10
I100
tp139
sg9
F24.19861102104187
sg10
I100
sg11
I400
sa(dp140
g7
(F0.151
F0.708
F0.099
I9
I100
tp141
sg9
F30.255879878997803
sg10
I100
sg11
I500
satp142
Rp143
(dp144
g25
I01
sg26
g31
sg32
(lp145
I3
aI5
aI30
aI9
asg34
I6
sg35
g36
(g3
tp146
Rp147
sbs.