(dp0
S'NSGA2-SIP'
p1
ccopy_reg
_reconstructor
p2
(cdeap.tools.support
Logbook
p3
c__builtin__
list
p4
(lp5
(dp6
S'hv|spread|igd|frontier#|valid#'
p7
(F0.115
F0.763
F0.031
I21
I33
tp8
sS'timestamp'
p9
F0.09510588645935059
sS'evals'
p10
I100
sS'gen'
p11
I0
sa(dp12
g7
(F0.196
F0.651
F0.065
I100
I100
tp13
sg9
F11.277966976165771
sg10
I100
sg11
I100
sa(dp14
g7
(F0.201
F0.643
F0.064
I98
I100
tp15
sg9
F22.411934852600098
sg10
I100
sg11
I200
sa(dp16
g7
(F0.203
F0.622
F0.066
I99
I100
tp17
sg9
F33.56590795516968
sg10
I100
sg11
I300
sa(dp18
g7
(F0.209
F0.677
F0.067
I99
I100
tp19
sg9
F44.59857487678528
sg10
I100
sg11
I400
sa(dp20
g7
(F0.209
F0.621
F0.065
I99
I100
tp21
sg9
F55.38652205467224
sg10
I100
sg11
I500
satp22
Rp23
(dp24
S'log_header'
p25
I01
sS'header'
p26
(S'gen'
p27
S'evals'
p28
S'hv|spread|igd|frontier#|valid#'
p29
S'timestamp'
p30
tp31
sS'columns_len'
p32
(lp33
I3
aI5
aI31
aI9
asS'buffindex'
p34
I6
sS'chapters'
p35
ccollections
defaultdict
p36
(g3
tp37
Rp38
sbsS'SPEA2-SIP'
p39
g2
(g3
g4
(lp40
(dp41
g7
(F0.111
F0.667
F0.026
I15
I25
tp42
sg9
F0.07771778106689453
sg10
I100
sg11
I0
sa(dp43
g7
(F0.186
F0.651
F0.067
I100
I100
tp44
sg9
F66.85650181770325
sg10
I100
sg11
I100
sa(dp45
g7
(F0.19
F0.636
F0.066
I100
I100
tp46
sg9
F144.0162148475647
sg10
I100
sg11
I200
sa(dp47
g7
(F0.191
F0.635
F0.065
I100
I100
tp48
sg9
F220.1024308204651
sg10
I100
sg11
I300
sa(dp49
g7
(F0.198
F0.64
F0.067
I100
I100
tp50
sg9
F297.63175988197327
sg10
I100
sg11
I400
sa(dp51
g7
(F0.198
F0.637
F0.068
I100
I100
tp52
sg9
F376.40545082092285
sg10
I100
sg11
I500
satp53
Rp54
(dp55
g25
I01
sg26
g31
sg32
(lp56
I3
aI5
aI31
aI9
asg34
I6
sg35
g36
(g3
tp57
Rp58
sbsS'SPEA2'
p59
g2
(g3
g4
(lp60
(dp61
g7
(I0
I0
I0
I0
I0
tp62
sg9
F0.043402910232543945
sg10
I100
sg11
I0
sa(dp63
g7
g62
sg9
F73.76088500022888
sg10
I100
sg11
I100
sa(dp64
g7
g62
sg9
F169.8243579864502
sg10
I100
sg11
I200
sa(dp65
g7
g62
sg9
F264.9962420463562
sg10
I100
sg11
I300
sa(dp66
g7
g62
sg9
F367.4246039390564
sg10
I100
sg11
I400
sa(dp67
g7
g62
sg9
F467.9177930355072
sg10
I100
sg11
I500
satp68
Rp69
(dp70
g25
I01
sg26
g31
sg32
(lp71
I3
aI5
aI30
aI9
asg34
I6
sg35
g36
(g3
tp72
Rp73
sbsS'IBEA'
p74
g2
(g3
g4
(lp75
(dp76
g7
g62
sg9
F0.04416799545288086
sg10
I100
sg11
I0
sa(dp77
g7
g62
sg9
F8.21886682510376
sg10
I100
sg11
I100
sa(dp78
g7
g62
sg9
F16.35145401954651
sg10
I100
sg11
I200
sa(dp79
g7
g62
sg9
F24.472594022750854
sg10
I100
sg11
I300
sa(dp80
g7
g62
sg9
F32.60831689834595
sg10
I100
sg11
I400
sa(dp81
g7
g62
sg9
F40.753238916397095
sg10
I100
sg11
I500
satp82
Rp83
(dp84
g25
I01
sg26
g31
sg32
(lp85
I3
aI5
aI30
aI9
asg34
I6
sg35
g36
(g3
tp86
Rp87
sbsS'NSGA2'
p88
g2
(g3
g4
(lp89
(dp90
g7
(F0.062
F2.169
F0.024
I1
I1
tp91
sg9
F0.04643702507019043
sg10
I100
sg11
I0
sa(dp92
g7
g62
sg9
F10.857126951217651
sg10
I100
sg11
I100
sa(dp93
g7
g62
sg9
F21.65709114074707
sg10
I100
sg11
I200
sa(dp94
g7
g62
sg9
F32.40744209289551
sg10
I100
sg11
I300
sa(dp95
g7
g62
sg9
F43.17349314689636
sg10
I100
sg11
I400
sa(dp96
g7
g62
sg9
F53.999659061431885
sg10
I100
sg11
I500
satp97
Rp98
(dp99
g25
I01
sg26
g31
sg32
(lp100
I3
aI5
aI30
aI9
asg34
I6
sg35
g36
(g3
tp101
Rp102
sbsS'IBEA-SIP'
p103
g2
(g3
g4
(lp104
(dp105
g7
(F0.116
F0.647
F0.024
I16
I26
tp106
sg9
F0.07915592193603516
sg10
I100
sg11
I0
sa(dp107
g7
(F0.198
F0.666
F0.071
I80
I100
tp108
sg9
F8.376795053482056
sg10
I100
sg11
I100
sa(dp109
g7
(F0.204
F0.67
F0.076
I81
I100
tp110
sg9
F16.775949001312256
sg10
I100
sg11
I200
sa(dp111
g7
(F0.207
F0.716
F0.073
I76
I100
tp112
sg9
F25.12157106399536
sg10
I100
sg11
I300
sa(dp113
g7
(F0.209
F0.633
F0.075
I78
I100
tp114
sg9
F33.453803062438965
sg10
I100
sg11
I400
sa(dp115
g7
(F0.209
F0.543
F0.076
I80
I100
tp116
sg9
F41.50601291656494
sg10
I100
sg11
I500
satp117
Rp118
(dp119
g25
I01
sg26
g31
sg32
(lp120
I3
aI5
aI30
aI9
asg34
I6
sg35
g36
(g3
tp121
Rp122
sbs.