(dp0
S'NSGA2-SIP'
p1
ccopy_reg
_reconstructor
p2
(cdeap.tools.support
Logbook
p3
c__builtin__
list
p4
(lp5
(dp6
S'hv|spread|igd|frontier#|valid#'
p7
(F0.112
F0.822
F0.025
I13
I26
tp8
sS'timestamp'
p9
F0.08557415008544922
sS'evals'
p10
I100
sS'gen'
p11
I0
sa(dp12
g7
(F0.197
F0.693
F0.061
I98
I100
tp13
sg9
F12.824146032333374
sg10
I100
sg11
I100
sa(dp14
g7
(F0.2
F0.666
F0.062
I98
I100
tp15
sg9
F25.426160097122192
sg10
I100
sg11
I200
sa(dp16
g7
(F0.2
F0.585
F0.062
I99
I100
tp17
sg9
F38.03059101104736
sg10
I100
sg11
I300
sa(dp18
g7
(F0.206
F0.605
F0.064
I99
I100
tp19
sg9
F50.657379150390625
sg10
I100
sg11
I400
sa(dp20
g7
(F0.214
F0.605
F0.069
I98
I100
tp21
sg9
F63.2544481754303
sg10
I100
sg11
I500
satp22
Rp23
(dp24
S'log_header'
p25
I01
sS'header'
p26
(S'gen'
p27
S'evals'
p28
S'hv|spread|igd|frontier#|valid#'
p29
S'timestamp'
p30
tp31
sS'columns_len'
p32
(lp33
I3
aI5
aI30
aI9
asS'buffindex'
p34
I6
sS'chapters'
p35
ccollections
defaultdict
p36
(g3
tp37
Rp38
sbsS'SPEA2-SIP'
p39
g2
(g3
g4
(lp40
(dp41
g7
(F0.114
F0.885
F0.028
I15
I28
tp42
sg9
F0.09281396865844727
sg10
I100
sg11
I0
sa(dp43
g7
(F0.19
F0.641
F0.063
I100
I100
tp44
sg9
F76.2311179637909
sg10
I100
sg11
I100
sa(dp45
g7
(F0.194
F0.616
F0.065
I100
I100
tp46
sg9
F163.56941294670105
sg10
I100
sg11
I200
sa(dp47
g7
(F0.195
F0.577
F0.066
I100
I100
tp48
sg9
F256.0145869255066
sg10
I100
sg11
I300
sa(dp49
g7
(F0.196
F0.633
F0.068
I100
I100
tp50
sg9
F346.32773900032043
sg10
I100
sg11
I400
sa(dp51
g7
(F0.196
F0.634
F0.068
I100
I100
tp52
sg9
F438.1880569458008
sg10
I100
sg11
I500
satp53
Rp54
(dp55
g25
I01
sg26
g31
sg32
(lp56
I3
aI5
aI31
aI9
asg34
I6
sg35
g36
(g3
tp57
Rp58
sbsS'SPEA2'
p59
g2
(g3
g4
(lp60
(dp61
g7
(I0
I0
I0
I0
I0
tp62
sg9
F0.05212998390197754
sg10
I100
sg11
I0
sa(dp63
g7
g62
sg9
F98.0110170841217
sg10
I100
sg11
I100
sa(dp64
g7
g62
sg9
F223.6980221271515
sg10
I100
sg11
I200
sa(dp65
g7
g62
sg9
F354.12608790397644
sg10
I100
sg11
I300
sa(dp66
g7
g62
sg9
F484.6428210735321
sg10
I100
sg11
I400
sa(dp67
g7
g62
sg9
F612.8478629589081
sg10
I100
sg11
I500
satp68
Rp69
(dp70
g25
I01
sg26
g31
sg32
(lp71
I3
aI5
aI30
aI9
asg34
I6
sg35
g36
(g3
tp72
Rp73
sbsS'IBEA-PEN'
p74
g2
(g3
g4
(lp75
(dp76
g7
(F0.104
F0.748
F0.035
I21
I26
tp77
sg9
F0.17049002647399902
sg10
I100
sg11
I0
sa(dp78
g7
(F0.199
F0.714
F0.072
I56
I87
tp79
sg9
F13.71095085144043
sg10
I100
sg11
I100
sa(dp80
g7
(F0.21
F0.642
F0.081
I60
I88
tp81
sg9
F27.337363958358765
sg10
I100
sg11
I200
sa(dp82
g7
(F0.206
F0.678
F0.085
I59
I86
tp83
sg9
F40.97817802429199
sg10
I100
sg11
I300
sa(dp84
g7
(F0.207
F0.638
F0.09
I67
I95
tp85
sg9
F54.746986865997314
sg10
I100
sg11
I400
sa(dp86
g7
(F0.212
F0.779
F0.097
I61
I96
tp87
sg9
F68.40892601013184
sg10
I100
sg11
I500
satp88
Rp89
(dp90
g25
I01
sg26
g31
sg32
(lp91
I3
aI5
aI30
aI9
asg34
I6
sg35
g36
(g3
tp92
Rp93
sbsS'IBEA'
p94
g2
(g3
g4
(lp95
(dp96
g7
g62
sg9
F0.05220913887023926
sg10
I100
sg11
I0
sa(dp97
g7
g62
sg9
F9.797238111495972
sg10
I100
sg11
I100
sa(dp98
g7
g62
sg9
F19.587871074676514
sg10
I100
sg11
I200
sa(dp99
g7
g62
sg9
F29.314831018447876
sg10
I100
sg11
I300
sa(dp100
g7
g62
sg9
F39.0409471988678
sg10
I100
sg11
I400
sa(dp101
g7
g62
sg9
F48.74089217185974
sg10
I100
sg11
I500
satp102
Rp103
(dp104
g25
I01
sg26
g31
sg32
(lp105
I3
aI5
aI30
aI9
asg34
I6
sg35
g36
(g3
tp106
Rp107
sbsS'NSGA2'
p108
g2
(g3
g4
(lp109
(dp110
g7
(F0.063
F2.201
F0.03
I1
I1
tp111
sg9
F0.05519890785217285
sg10
I100
sg11
I0
sa(dp112
g7
g62
sg9
F12.943954944610596
sg10
I100
sg11
I100
sa(dp113
g7
g62
sg9
F25.83487296104431
sg10
I100
sg11
I200
sa(dp114
g7
g62
sg9
F38.66679811477661
sg10
I100
sg11
I300
sa(dp115
g7
g62
sg9
F51.505698919296265
sg10
I100
sg11
I400
sa(dp116
g7
g62
sg9
F64.36713695526123
sg10
I100
sg11
I500
satp117
Rp118
(dp119
g25
I01
sg26
g31
sg32
(lp120
I3
aI5
aI30
aI9
asg34
I6
sg35
g36
(g3
tp121
Rp122
sbsS'IBEA-SIP'
p123
g2
(g3
g4
(lp124
(dp125
g7
(F0.115
F0.871
F0.025
I14
I30
tp126
sg9
F0.08933401107788086
sg10
I100
sg11
I0
sa(dp127
g7
(F0.201
F0.568
F0.069
I84
I100
tp128
sg9
F10.34005093574524
sg10
I100
sg11
I100
sa(dp129
g7
(F0.203
F0.692
F0.072
I78
I100
tp130
sg9
F20.345396041870117
sg10
I100
sg11
I200
sa(dp131
g7
(F0.204
F0.668
F0.075
I81
I100
tp132
sg9
F30.390373945236206
sg10
I100
sg11
I300
sa(dp133
g7
(F0.208
F0.623
F0.079
I76
I100
tp134
sg9
F40.39856004714966
sg10
I100
sg11
I400
sa(dp135
g7
(F0.208
F0.677
F0.085
I72
I100
tp136
sg9
F50.278871059417725
sg10
I100
sg11
I500
satp137
Rp138
(dp139
g25
I01
sg26
g31
sg32
(lp140
I3
aI5
aI30
aI9
asg34
I6
sg35
g36
(g3
tp141
Rp142
sbs.