(dp0
S'NSGA2-SIP'
p1
ccopy_reg
_reconstructor
p2
(cdeap.tools.support
Logbook
p3
c__builtin__
list
p4
(lp5
(dp6
S'hv|spread|igd|frontier#|valid#'
p7
(F0.124
F0.799
F0.035
I21
I28
tp8
sS'timestamp'
p9
F0.09741806983947754
sS'evals'
p10
I100
sS'gen'
p11
I0
sa(dp12
g7
(F0.195
F0.58
F0.058
I98
I100
tp13
sg9
F11.2415771484375
sg10
I100
sg11
I100
sa(dp14
g7
(F0.198
F0.588
F0.06
I98
I100
tp15
sg9
F22.5486581325531
sg10
I100
sg11
I200
sa(dp16
g7
(F0.199
F0.588
F0.062
I97
I100
tp17
sg9
F33.79241418838501
sg10
I100
sg11
I300
sa(dp18
g7
(F0.2
F0.616
F0.059
I100
I100
tp19
sg9
F45.16154599189758
sg10
I100
sg11
I400
sa(dp20
g7
(F0.204
F0.629
F0.064
I100
I100
tp21
sg9
F56.48797917366028
sg10
I100
sg11
I500
satp22
Rp23
(dp24
S'log_header'
p25
I01
sS'header'
p26
(S'gen'
p27
S'evals'
p28
S'hv|spread|igd|frontier#|valid#'
p29
S'timestamp'
p30
tp31
sS'columns_len'
p32
(lp33
I3
aI5
aI31
aI9
asS'buffindex'
p34
I6
sS'chapters'
p35
ccollections
defaultdict
p36
(g3
tp37
Rp38
sbsS'SPEA2-SIP'
p39
g2
(g3
g4
(lp40
(dp41
g7
(F0.115
F0.843
F0.028
I16
I33
tp42
sg9
F0.08294391632080078
sg10
I100
sg11
I0
sa(dp43
g7
(F0.198
F0.634
F0.065
I100
I100
tp44
sg9
F68.2255129814148
sg10
I100
sg11
I100
sa(dp45
g7
(F0.201
F0.708
F0.068
I100
I100
tp46
sg9
F146.050390958786
sg10
I100
sg11
I200
sa(dp47
g7
(F0.203
F0.64
F0.067
I100
I100
tp48
sg9
F224.12919688224792
sg10
I100
sg11
I300
sa(dp49
g7
(F0.203
F0.668
F0.068
I100
I100
tp50
sg9
F301.53383207321167
sg10
I100
sg11
I400
sa(dp51
g7
(F0.206
F0.614
F0.07
I100
I100
tp52
sg9
F378.2372179031372
sg10
I100
sg11
I500
satp53
Rp54
(dp55
g25
I01
sg26
g31
sg32
(lp56
I3
aI5
aI31
aI9
asg34
I6
sg35
g36
(g3
tp57
Rp58
sbsS'SPEA2'
p59
g2
(g3
g4
(lp60
(dp61
g7
(I0
I0
I0
I0
I0
tp62
sg9
F0.044931888580322266
sg10
I100
sg11
I0
sa(dp63
g7
g62
sg9
F84.95684885978699
sg10
I100
sg11
I100
sa(dp64
g7
g62
sg9
F185.32540798187256
sg10
I100
sg11
I200
sa(dp65
g7
g62
sg9
F295.25009202957153
sg10
I100
sg11
I300
sa(dp66
g7
g62
sg9
F402.8464848995209
sg10
I100
sg11
I400
sa(dp67
g7
g62
sg9
F508.6808269023895
sg10
I100
sg11
I500
satp68
Rp69
(dp70
g25
I01
sg26
g31
sg32
(lp71
I3
aI5
aI30
aI9
asg34
I6
sg35
g36
(g3
tp72
Rp73
sbsS'IBEA'
p74
g2
(g3
g4
(lp75
(dp76
g7
(F0.069
F2.302
F0.033
I1
I1
tp77
sg9
F0.04751920700073242
sg10
I100
sg11
I0
sa(dp78
g7
g62
sg9
F8.346113204956055
sg10
I100
sg11
I100
sa(dp79
g7
g62
sg9
F16.67371106147766
sg10
I100
sg11
I200
sa(dp80
g7
g62
sg9
F24.917630195617676
sg10
I100
sg11
I300
sa(dp81
g7
g62
sg9
F33.13210701942444
sg10
I100
sg11
I400
sa(dp82
g7
g62
sg9
F41.37759518623352
sg10
I100
sg11
I500
satp83
Rp84
(dp85
g25
I01
sg26
g31
sg32
(lp86
I3
aI5
aI30
aI9
asg34
I6
sg35
g36
(g3
tp87
Rp88
sbsS'NSGA2'
p89
g2
(g3
g4
(lp90
(dp91
g7
(F0.063
F2.21
F0.022
I1
I1
tp92
sg9
F0.04718303680419922
sg10
I100
sg11
I0
sa(dp93
g7
g62
sg9
F11.03369688987732
sg10
I100
sg11
I100
sa(dp94
g7
g62
sg9
F22.021288871765137
sg10
I100
sg11
I200
sa(dp95
g7
g62
sg9
F32.990495920181274
sg10
I100
sg11
I300
sa(dp96
g7
g62
sg9
F43.93423295021057
sg10
I100
sg11
I400
sa(dp97
g7
g62
sg9
F54.857717990875244
sg10
I100
sg11
I500
satp98
Rp99
(dp100
g25
I01
sg26
g31
sg32
(lp101
I3
aI5
aI30
aI9
asg34
I6
sg35
g36
(g3
tp102
Rp103
sbsS'IBEA-SIP'
p104
g2
(g3
g4
(lp105
(dp106
g7
(F0.124
F0.869
F0.033
I14
I32
tp107
sg9
F0.07668709754943848
sg10
I100
sg11
I0
sa(dp108
g7
(F0.197
F0.609
F0.073
I79
I100
tp109
sg9
F8.811789989471436
sg10
I100
sg11
I100
sa(dp110
g7
(F0.203
F0.668
F0.073
I71
I100
tp111
sg9
F17.460535049438477
sg10
I100
sg11
I200
sa(dp112
g7
(F0.208
F0.602
F0.081
I76
I100
tp113
sg9
F25.925215005874634
sg10
I100
sg11
I300
sa(dp114
g7
(F0.206
F0.659
F0.077
I83
I100
tp115
sg9
F34.47865414619446
sg10
I100
sg11
I400
sa(dp116
g7
(F0.209
F0.664
F0.081
I84
I100
tp117
sg9
F43.05954694747925
sg10
I100
sg11
I500
satp118
Rp119
(dp120
g25
I01
sg26
g31
sg32
(lp121
I3
aI5
aI30
aI9
asg34
I6
sg35
g36
(g3
tp122
Rp123
sbs.