(dp0
S'NSGA2-SIP'
p1
ccopy_reg
_reconstructor
p2
(cdeap.tools.support
Logbook
p3
c__builtin__
list
p4
(lp5
(dp6
S'hv|spread|igd|frontier#|valid#'
p7
(F0.112
F0.866
F0.032
I10
I27
tp8
sS'timestamp'
p9
F0.0724639892578125
sS'evals'
p10
I100
sS'gen'
p11
I0
sa(dp12
g7
(F0.19
F0.638
F0.058
I99
I100
tp13
sg9
F11.53336501121521
sg10
I100
sg11
I100
sa(dp14
g7
(F0.196
F0.647
F0.061
I97
I100
tp15
sg9
F22.745665788650513
sg10
I100
sg11
I200
sa(dp16
g7
(F0.203
F0.693
F0.063
I99
I100
tp17
sg9
F33.945350885391235
sg10
I100
sg11
I300
sa(dp18
g7
(F0.205
F0.53
F0.063
I98
I100
tp19
sg9
F45.134315967559814
sg10
I100
sg11
I400
sa(dp20
g7
(F0.205
F0.54
F0.064
I97
I100
tp21
sg9
F56.2809579372406
sg10
I100
sg11
I500
satp22
Rp23
(dp24
S'log_header'
p25
I01
sS'header'
p26
(S'gen'
p27
S'evals'
p28
S'hv|spread|igd|frontier#|valid#'
p29
S'timestamp'
p30
tp31
sS'columns_len'
p32
(lp33
I3
aI5
aI30
aI9
asS'buffindex'
p34
I6
sS'chapters'
p35
ccollections
defaultdict
p36
(g3
tp37
Rp38
sbsS'SPEA2-SIP'
p39
g2
(g3
g4
(lp40
(dp41
g7
(F0.108
F0.915
F0.026
I13
I24
tp42
sg9
F0.0718388557434082
sg10
I100
sg11
I0
sa(dp43
g7
(F0.195
F0.67
F0.064
I100
I100
tp44
sg9
F68.51623582839966
sg10
I100
sg11
I100
sa(dp45
g7
(F0.196
F0.626
F0.064
I100
I100
tp46
sg9
F148.60539484024048
sg10
I100
sg11
I200
sa(dp47
g7
(F0.197
F0.615
F0.066
I100
I100
tp48
sg9
F225.10868787765503
sg10
I100
sg11
I300
sa(dp49
g7
(F0.197
F0.625
F0.064
I100
I100
tp50
sg9
F302.58165097236633
sg10
I100
sg11
I400
sa(dp51
g7
(F0.198
F0.658
F0.064
I100
I100
tp52
sg9
F380.0601348876953
sg10
I100
sg11
I500
satp53
Rp54
(dp55
g25
I01
sg26
g31
sg32
(lp56
I3
aI5
aI31
aI9
asg34
I6
sg35
g36
(g3
tp57
Rp58
sbsS'SPEA2'
p59
g2
(g3
g4
(lp60
(dp61
g7
(I0
I0
I0
I0
I0
tp62
sg9
F0.04533886909484863
sg10
I100
sg11
I0
sa(dp63
g7
g62
sg9
F81.45505380630493
sg10
I100
sg11
I100
sa(dp64
g7
g62
sg9
F184.2626338005066
sg10
I100
sg11
I200
sa(dp65
g7
g62
sg9
F283.0129837989807
sg10
I100
sg11
I300
sa(dp66
g7
g62
sg9
F381.17015385627747
sg10
I100
sg11
I400
sa(dp67
g7
g62
sg9
F478.6545259952545
sg10
I100
sg11
I500
satp68
Rp69
(dp70
g25
I01
sg26
g31
sg32
(lp71
I3
aI5
aI30
aI9
asg34
I6
sg35
g36
(g3
tp72
Rp73
sbsS'IBEA'
p74
g2
(g3
g4
(lp75
(dp76
g7
(F0.081
F2.302
F0.061
I1
I1
tp77
sg9
F0.048126935958862305
sg10
I100
sg11
I0
sa(dp78
g7
g62
sg9
F8.416003942489624
sg10
I100
sg11
I100
sa(dp79
g7
g62
sg9
F16.77341103553772
sg10
I100
sg11
I200
sa(dp80
g7
g62
sg9
F25.1251540184021
sg10
I100
sg11
I300
sa(dp81
g7
g62
sg9
F33.504936933517456
sg10
I100
sg11
I400
sa(dp82
g7
g62
sg9
F41.86628007888794
sg10
I100
sg11
I500
satp83
Rp84
(dp85
g25
I01
sg26
g31
sg32
(lp86
I3
aI5
aI30
aI9
asg34
I6
sg35
g36
(g3
tp87
Rp88
sbsS'NSGA2'
p89
g2
(g3
g4
(lp90
(dp91
g7
g62
sg9
F0.044441938400268555
sg10
I100
sg11
I0
sa(dp92
g7
g62
sg9
F11.09874701499939
sg10
I100
sg11
I100
sa(dp93
g7
g62
sg9
F22.063753843307495
sg10
I100
sg11
I200
sa(dp94
g7
g62
sg9
F33.059244871139526
sg10
I100
sg11
I300
sa(dp95
g7
g62
sg9
F43.99352502822876
sg10
I100
sg11
I400
sa(dp96
g7
g62
sg9
F54.93163204193115
sg10
I100
sg11
I500
satp97
Rp98
(dp99
g25
I01
sg26
g31
sg32
(lp100
I3
aI5
aI30
aI9
asg34
I6
sg35
g36
(g3
tp101
Rp102
sbsS'IBEA-SIP'
p103
g2
(g3
g4
(lp104
(dp105
g7
(F0.113
F0.893
F0.031
I13
I26
tp106
sg9
F0.07280802726745605
sg10
I100
sg11
I0
sa(dp107
g7
(F0.194
F0.656
F0.067
I83
I100
tp108
sg9
F8.916182041168213
sg10
I100
sg11
I100
sa(dp109
g7
(F0.204
F0.702
F0.072
I77
I100
tp110
sg9
F17.89871883392334
sg10
I100
sg11
I200
sa(dp111
g7
(F0.206
F0.627
F0.077
I77
I100
tp112
sg9
F26.597527027130127
sg10
I100
sg11
I300
sa(dp113
g7
(F0.206
F0.641
F0.073
I75
I100
tp114
sg9
F35.245347023010254
sg10
I100
sg11
I400
sa(dp115
g7
(F0.207
F0.655
F0.081
I75
I100
tp116
sg9
F43.750762939453125
sg10
I100
sg11
I500
satp117
Rp118
(dp119
g25
I01
sg26
g31
sg32
(lp120
I3
aI5
aI30
aI9
asg34
I6
sg35
g36
(g3
tp121
Rp122
sbs.