(dp0
S'NSGA2-SIP'
p1
ccopy_reg
_reconstructor
p2
(cdeap.tools.support
Logbook
p3
c__builtin__
list
p4
(lp5
(dp6
S'hv|spread|igd|frontier#|valid#'
p7
(F0.117
F0.851
F0.027
I15
I25
tp8
sS'timestamp'
p9
F0.08765506744384766
sS'evals'
p10
I100
sS'gen'
p11
I0
sa(dp12
g7
(F0.195
F0.584
F0.058
I96
I100
tp13
sg9
F12.232896089553833
sg10
I100
sg11
I100
sa(dp14
g7
(F0.199
F0.573
F0.062
I99
I100
tp15
sg9
F24.583476066589355
sg10
I100
sg11
I200
sa(dp16
g7
(F0.206
F0.567
F0.065
I99
I100
tp17
sg9
F36.85132694244385
sg10
I100
sg11
I300
sa(dp18
g7
(F0.208
F0.613
F0.064
I99
I100
tp19
sg9
F49.11167097091675
sg10
I100
sg11
I400
sa(dp20
g7
(F0.21
F0.662
F0.071
I99
I100
tp21
sg9
F61.24380803108215
sg10
I100
sg11
I500
satp22
Rp23
(dp24
S'log_header'
p25
I01
sS'header'
p26
(S'gen'
p27
S'evals'
p28
g7
S'timestamp'
p29
tp30
sS'columns_len'
p31
(lp32
I3
aI5
aI30
aI9
asS'buffindex'
p33
I6
sS'chapters'
p34
ccollections
defaultdict
p35
(g3
tp36
Rp37
sbsS'SPEA2-SIP'
p38
g2
(g3
g4
(lp39
(dp40
g7
(F0.106
F0.81
F0.028
I16
I25
tp41
sg9
F0.09069395065307617
sg10
I100
sg11
I0
sa(dp42
g7
(F0.189
F0.625
F0.061
I100
I100
tp43
sg9
F77.6703131198883
sg10
I100
sg11
I100
sa(dp44
g7
(F0.192
F0.642
F0.063
I100
I100
tp45
sg9
F164.63709998130798
sg10
I100
sg11
I200
sa(dp46
g7
(F0.194
F0.74
F0.063
I100
I100
tp47
sg9
F252.28461813926697
sg10
I100
sg11
I300
sa(dp48
g7
(F0.199
F0.713
F0.065
I100
I100
tp49
sg9
F339.31882405281067
sg10
I100
sg11
I400
sa(dp50
g7
(F0.2
F0.607
F0.068
I100
I100
tp51
sg9
F423.7262990474701
sg10
I100
sg11
I500
satp52
Rp53
(dp54
g25
I01
sg26
g30
sg31
(lp55
I3
aI5
aI31
aI9
asg33
I6
sg34
g35
(g3
tp56
Rp57
sbsS'SPEA2'
p58
g2
(g3
g4
(lp59
(dp60
g7
(I0
I0
I0
I0
I0
tp61
sg9
F0.050570011138916016
sg10
I100
sg11
I0
sa(dp62
g7
g61
sg9
F98.69064092636108
sg10
I100
sg11
I100
sa(dp63
g7
g61
sg9
F215.71994304656982
sg10
I100
sg11
I200
sa(dp64
g7
g61
sg9
F338.08719301223755
sg10
I100
sg11
I300
sa(dp65
g7
g61
sg9
F460.2607560157776
sg10
I100
sg11
I400
sa(dp66
g7
g61
sg9
F583.7031021118164
sg10
I100
sg11
I500
satp67
Rp68
(dp69
g25
I01
sg26
g30
sg31
(lp70
I3
aI5
aI30
aI9
asg33
I6
sg34
g35
(g3
tp71
Rp72
sbsS'IBEA-PEN'
p73
g2
(g3
g4
(lp74
(dp75
g7
(F0.105
F0.801
F0.027
I19
I33
tp76
sg9
F0.16013097763061523
sg10
I100
sg11
I0
sa(dp77
g7
(F0.196
F0.631
F0.057
I68
I86
tp78
sg9
F13.507134914398193
sg10
I100
sg11
I100
sa(dp79
g7
(F0.208
F0.686
F0.083
I64
I94
tp80
sg9
F26.753952980041504
sg10
I100
sg11
I200
sa(dp81
g7
(F0.205
F0.703
F0.077
I60
I92
tp82
sg9
F40.00265407562256
sg10
I100
sg11
I300
sa(dp83
g7
(F0.208
F0.564
F0.086
I67
I94
tp84
sg9
F53.22479295730591
sg10
I100
sg11
I400
sa(dp85
g7
(F0.209
F0.664
F0.092
I60
I93
tp86
sg9
F66.46694803237915
sg10
I100
sg11
I500
satp87
Rp88
(dp89
g25
I01
sg26
g30
sg31
(lp90
I3
aI5
aI30
aI9
asg33
I6
sg34
g35
(g3
tp91
Rp92
sbsS'IBEA'
p93
g2
(g3
g4
(lp94
(dp95
g7
g61
sg9
F0.050354957580566406
sg10
I100
sg11
I0
sa(dp96
g7
g61
sg9
F9.344576835632324
sg10
I100
sg11
I100
sa(dp97
g7
g61
sg9
F18.67724299430847
sg10
I100
sg11
I200
sa(dp98
g7
g61
sg9
F28.03255581855774
sg10
I100
sg11
I300
sa(dp99
g7
g61
sg9
F37.39404296875
sg10
I100
sg11
I400
sa(dp100
g7
g61
sg9
F46.734301805496216
sg10
I100
sg11
I500
satp101
Rp102
(dp103
g25
I01
sg26
g30
sg31
(lp104
I3
aI5
aI30
aI9
asg33
I6
sg34
g35
(g3
tp105
Rp106
sbsS'NSGA2'
p107
g2
(g3
g4
(lp108
(dp109
g7
g61
sg9
F0.04937314987182617
sg10
I100
sg11
I0
sa(dp110
g7
g61
sg9
F12.453258037567139
sg10
I100
sg11
I100
sa(dp111
g7
g61
sg9
F24.885616064071655
sg10
I100
sg11
I200
sa(dp112
g7
g61
sg9
F37.31777501106262
sg10
I100
sg11
I300
sa(dp113
g7
g61
sg9
F49.72688698768616
sg10
I100
sg11
I400
sa(dp114
g7
g61
sg9
F62.13323402404785
sg10
I100
sg11
I500
satp115
Rp116
(dp117
g25
I01
sg26
g30
sg31
(lp118
I3
aI5
aI30
aI9
asg33
I6
sg34
g35
(g3
tp119
Rp120
sbsS'IBEA-SIP'
p121
g2
(g3
g4
(lp122
(dp123
g7
(F0.114
F0.828
F0.025
I15
I28
tp124
sg9
F0.08964109420776367
sg10
I100
sg11
I0
sa(dp125
g7
(F0.21
F0.662
F0.074
I76
I100
tp126
sg9
F10.01672887802124
sg10
I100
sg11
I100
sa(dp127
g7
(F0.21
F0.627
F0.075
I70
I100
tp128
sg9
F20.027941942214966
sg10
I100
sg11
I200
sa(dp129
g7
(F0.211
F0.64
F0.073
I78
I100
tp130
sg9
F30.052370071411133
sg10
I100
sg11
I300
sa(dp131
g7
(F0.213
F0.717
F0.088
I71
I100
tp132
sg9
F39.97823405265808
sg10
I100
sg11
I400
sa(dp133
g7
(F0.209
F0.664
F0.083
I76
I100
tp134
sg9
F49.97907590866089
sg10
I100
sg11
I500
satp135
Rp136
(dp137
g25
I01
sg26
g30
sg31
(lp138
I3
aI5
aI30
aI9
asg33
I6
sg34
g35
(g3
tp139
Rp140
sbs.