(dp0
S'NSGA2-SIP'
p1
ccopy_reg
_reconstructor
p2
(cdeap.tools.support
Logbook
p3
c__builtin__
list
p4
(lp5
(dp6
S'hv|spread|igd|frontier#|valid#'
p7
(F0.119
F0.852
F0.02
I17
I28
tp8
sS'timestamp'
p9
F0.09286999702453613
sS'evals'
p10
I100
sS'gen'
p11
I0
sa(dp12
g7
(F0.193
F0.64
F0.06
I98
I100
tp13
sg9
F12.325330018997192
sg10
I100
sg11
I100
sa(dp14
g7
(F0.205
F0.559
F0.062
I99
I100
tp15
sg9
F24.677783966064453
sg10
I100
sg11
I200
sa(dp16
g7
(F0.204
F0.588
F0.059
I98
I100
tp17
sg9
F36.971545934677124
sg10
I100
sg11
I300
sa(dp18
g7
(F0.203
F0.657
F0.061
I97
I100
tp19
sg9
F49.17711400985718
sg10
I100
sg11
I400
sa(dp20
g7
(F0.207
F0.615
F0.065
I98
I100
tp21
sg9
F61.39142107963562
sg10
I100
sg11
I500
satp22
Rp23
(dp24
S'log_header'
p25
I01
sS'header'
p26
(S'gen'
p27
S'evals'
p28
S'hv|spread|igd|frontier#|valid#'
p29
S'timestamp'
p30
tp31
sS'columns_len'
p32
(lp33
I3
aI5
aI30
aI9
asS'buffindex'
p34
I6
sS'chapters'
p35
ccollections
defaultdict
p36
(g3
tp37
Rp38
sbsS'SPEA2-SIP'
p39
g2
(g3
g4
(lp40
(dp41
g7
(F0.121
F0.797
F0.026
I21
I30
tp42
sg9
F0.10556387901306152
sg10
I100
sg11
I0
sa(dp43
g7
(F0.196
F0.719
F0.067
I100
I100
tp44
sg9
F73.34165287017822
sg10
I100
sg11
I100
sa(dp45
g7
(F0.201
F0.652
F0.067
I100
I100
tp46
sg9
F159.78108882904053
sg10
I100
sg11
I200
sa(dp47
g7
(F0.202
F0.688
F0.069
I100
I100
tp48
sg9
F245.47302198410034
sg10
I100
sg11
I300
sa(dp49
g7
(F0.203
F0.607
F0.07
I100
I100
tp50
sg9
F330.6797049045563
sg10
I100
sg11
I400
sa(dp51
g7
(F0.203
F0.728
F0.071
I100
I100
tp52
sg9
F417.98667192459106
sg10
I100
sg11
I500
satp53
Rp54
(dp55
g25
I01
sg26
g31
sg32
(lp56
I3
aI5
aI31
aI9
asg34
I6
sg35
g36
(g3
tp57
Rp58
sbsS'SPEA2'
p59
g2
(g3
g4
(lp60
(dp61
g7
(F0.066
F2.218
F0.01
I1
I1
tp62
sg9
F0.04930877685546875
sg10
I100
sg11
I0
sa(dp63
g7
(I0
I0
I0
I0
I0
tp64
sg9
F87.44520688056946
sg10
I100
sg11
I100
sa(dp65
g7
g64
sg9
F198.9539818763733
sg10
I100
sg11
I200
sa(dp66
g7
g64
sg9
F315.87446999549866
sg10
I100
sg11
I300
sa(dp67
g7
g64
sg9
F434.95652890205383
sg10
I100
sg11
I400
sa(dp68
g7
g64
sg9
F554.4417819976807
sg10
I100
sg11
I500
satp69
Rp70
(dp71
g25
I01
sg26
g31
sg32
(lp72
I3
aI5
aI30
aI9
asg34
I6
sg35
g36
(g3
tp73
Rp74
sbsS'IBEA-PEN'
p75
g2
(g3
g4
(lp76
(dp77
g7
(F0.105
F0.555
F0.031
I17
I22
tp78
sg9
F0.14557409286499023
sg10
I100
sg11
I0
sa(dp79
g7
(F0.203
F0.674
F0.078
I67
I91
tp80
sg9
F12.861126899719238
sg10
I100
sg11
I100
sa(dp81
g7
(F0.202
F0.66
F0.068
I59
I91
tp82
sg9
F25.719187021255493
sg10
I100
sg11
I200
sa(dp83
g7
(F0.205
F0.579
F0.086
I56
I92
tp84
sg9
F38.46612501144409
sg10
I100
sg11
I300
sa(dp85
g7
(F0.209
F0.612
F0.08
I65
I91
tp86
sg9
F51.327471017837524
sg10
I100
sg11
I400
sa(dp87
g7
(F0.201
F0.772
F0.087
I48
I86
tp88
sg9
F63.58007788658142
sg10
I100
sg11
I500
satp89
Rp90
(dp91
g25
I01
sg26
g31
sg32
(lp92
I3
aI5
aI30
aI9
asg34
I6
sg35
g36
(g3
tp93
Rp94
sbsS'IBEA'
p95
g2
(g3
g4
(lp96
(dp97
g7
g64
sg9
F0.04841899871826172
sg10
I100
sg11
I0
sa(dp98
g7
g64
sg9
F9.07157588005066
sg10
I100
sg11
I100
sa(dp99
g7
g64
sg9
F18.16958498954773
sg10
I100
sg11
I200
sa(dp100
g7
g64
sg9
F27.221499919891357
sg10
I100
sg11
I300
sa(dp101
g7
g64
sg9
F36.245996952056885
sg10
I100
sg11
I400
sa(dp102
g7
g64
sg9
F45.246049880981445
sg10
I100
sg11
I500
satp103
Rp104
(dp105
g25
I01
sg26
g31
sg32
(lp106
I3
aI5
aI30
aI9
asg34
I6
sg35
g36
(g3
tp107
Rp108
sbsS'NSGA2'
p109
g2
(g3
g4
(lp110
(dp111
g7
g64
sg9
F0.04889702796936035
sg10
I100
sg11
I0
sa(dp112
g7
g64
sg9
F12.08673620223999
sg10
I100
sg11
I100
sa(dp113
g7
g64
sg9
F24.141321182250977
sg10
I100
sg11
I200
sa(dp114
g7
g64
sg9
F36.163511991500854
sg10
I100
sg11
I300
sa(dp115
g7
g64
sg9
F48.17784309387207
sg10
I100
sg11
I400
sa(dp116
g7
g64
sg9
F60.1516900062561
sg10
I100
sg11
I500
satp117
Rp118
(dp119
g25
I01
sg26
g31
sg32
(lp120
I3
aI5
aI30
aI9
asg34
I6
sg35
g36
(g3
tp121
Rp122
sbsS'IBEA-SIP'
p123
g2
(g3
g4
(lp124
(dp125
g7
(F0.126
F0.779
F0.033
I16
I32
tp126
sg9
F0.08986020088195801
sg10
I100
sg11
I0
sa(dp127
g7
(F0.198
F0.587
F0.069
I70
I100
tp128
sg9
F9.561520099639893
sg10
I100
sg11
I100
sa(dp129
g7
(F0.206
F0.724
F0.08
I79
I100
tp130
sg9
F19.310854196548462
sg10
I100
sg11
I200
sa(dp131
g7
(F0.206
F0.639
F0.079
I83
I100
tp132
sg9
F28.840886116027832
sg10
I100
sg11
I300
sa(dp133
g7
(F0.211
F0.71
F0.079
I77
I100
tp134
sg9
F38.132575035095215
sg10
I100
sg11
I400
sa(dp135
g7
(F0.211
F0.746
F0.081
I80
I100
tp136
sg9
F47.28656220436096
sg10
I100
sg11
I500
satp137
Rp138
(dp139
g25
I01
sg26
g31
sg32
(lp140
I3
aI5
aI30
aI9
asg34
I6
sg35
g36
(g3
tp141
Rp142
sbs.