(dp0
S'NSGA2-SIP'
p1
ccopy_reg
_reconstructor
p2
(cdeap.tools.support
Logbook
p3
c__builtin__
list
p4
(lp5
(dp6
S'hv|spread|igd|frontier#|valid#'
p7
(F0.109
F0.957
F0.032
I10
I28
tp8
sS'timestamp'
p9
F0.07509994506835938
sS'evals'
p10
I100
sS'gen'
p11
I0
sa(dp12
g7
(F0.198
F0.622
F0.06
I99
I100
tp13
sg9
F12.71746301651001
sg10
I100
sg11
I100
sa(dp14
g7
(F0.202
F0.605
F0.063
I97
I100
tp15
sg9
F25.365626096725464
sg10
I100
sg11
I200
sa(dp16
g7
(F0.205
F0.61
F0.065
I98
I100
tp17
sg9
F37.857276916503906
sg10
I100
sg11
I300
sa(dp18
g7
(F0.211
F0.639
F0.065
I98
I100
tp19
sg9
F50.18418002128601
sg10
I100
sg11
I400
sa(dp20
g7
(F0.211
F0.605
F0.067
I98
I100
tp21
sg9
F62.074026107788086
sg10
I100
sg11
I500
satp22
Rp23
(dp24
S'log_header'
p25
I01
sS'header'
p26
(S'gen'
p27
S'evals'
p28
S'hv|spread|igd|frontier#|valid#'
p29
S'timestamp'
p30
tp31
sS'columns_len'
p32
(lp33
I3
aI5
aI30
aI9
asS'buffindex'
p34
I6
sS'chapters'
p35
ccollections
defaultdict
p36
(g3
tp37
Rp38
sbsS'SPEA2-SIP'
p39
g2
(g3
g4
(lp40
(dp41
g7
(F0.121
F0.857
F0.027
I16
I30
tp42
sg9
F0.0906679630279541
sg10
I100
sg11
I0
sa(dp43
g7
(F0.185
F0.666
F0.064
I100
I100
tp44
sg9
F73.18695402145386
sg10
I100
sg11
I100
sa(dp45
g7
(F0.192
F0.697
F0.065
I100
I100
tp46
sg9
F157.9897539615631
sg10
I100
sg11
I200
sa(dp47
g7
(F0.194
F0.633
F0.064
I100
I100
tp48
sg9
F244.77762389183044
sg10
I100
sg11
I300
sa(dp49
g7
(F0.194
F0.685
F0.065
I100
I100
tp50
sg9
F328.1087050437927
sg10
I100
sg11
I400
sa(dp51
g7
(F0.196
F0.643
F0.064
I100
I100
tp52
sg9
F410.50320291519165
sg10
I100
sg11
I500
satp53
Rp54
(dp55
g25
I01
sg26
g31
sg32
(lp56
I3
aI5
aI31
aI9
asg34
I6
sg35
g36
(g3
tp57
Rp58
sbsS'SPEA2'
p59
g2
(g3
g4
(lp60
(dp61
g7
(F0.064
F2.227
F0.026
I1
I1
tp62
sg9
F0.052410125732421875
sg10
I100
sg11
I0
sa(dp63
g7
(I0
I0
I0
I0
I0
tp64
sg9
F96.42642903327942
sg10
I100
sg11
I100
sa(dp65
g7
g64
sg9
F211.67559909820557
sg10
I100
sg11
I200
sa(dp66
g7
g64
sg9
F332.7527639865875
sg10
I100
sg11
I300
sa(dp67
g7
g64
sg9
F450.06998109817505
sg10
I100
sg11
I400
sa(dp68
g7
g64
sg9
F566.6997020244598
sg10
I100
sg11
I500
satp69
Rp70
(dp71
g25
I01
sg26
g31
sg32
(lp72
I3
aI5
aI30
aI9
asg34
I6
sg35
g36
(g3
tp73
Rp74
sbsS'IBEA'
p75
g2
(g3
g4
(lp76
(dp77
g7
g64
sg9
F0.050482988357543945
sg10
I100
sg11
I0
sa(dp78
g7
g64
sg9
F9.261313199996948
sg10
I100
sg11
I100
sa(dp79
g7
g64
sg9
F18.480561017990112
sg10
I100
sg11
I200
sa(dp80
g7
g64
sg9
F27.67310404777527
sg10
I100
sg11
I300
sa(dp81
g7
g64
sg9
F36.894286155700684
sg10
I100
sg11
I400
sa(dp82
g7
g64
sg9
F46.17554807662964
sg10
I100
sg11
I500
satp83
Rp84
(dp85
g25
I01
sg26
g31
sg32
(lp86
I3
aI5
aI30
aI9
asg34
I6
sg35
g36
(g3
tp87
Rp88
sbsS'NSGA2'
p89
g2
(g3
g4
(lp90
(dp91
g7
g64
sg9
F0.05079197883605957
sg10
I100
sg11
I0
sa(dp92
g7
g64
sg9
F12.238348007202148
sg10
I100
sg11
I100
sa(dp93
g7
g64
sg9
F24.456430196762085
sg10
I100
sg11
I200
sa(dp94
g7
g64
sg9
F36.661476135253906
sg10
I100
sg11
I300
sa(dp95
g7
g64
sg9
F48.84259009361267
sg10
I100
sg11
I400
sa(dp96
g7
g64
sg9
F61.01707196235657
sg10
I100
sg11
I500
satp97
Rp98
(dp99
g25
I01
sg26
g31
sg32
(lp100
I3
aI5
aI30
aI9
asg34
I6
sg35
g36
(g3
tp101
Rp102
sbsS'IBEA-SIP'
p103
g2
(g3
g4
(lp104
(dp105
g7
(F0.116
F0.793
F0.032
I14
I28
tp106
sg9
F0.08339405059814453
sg10
I100
sg11
I0
sa(dp107
g7
(F0.195
F0.704
F0.064
I76
I100
tp108
sg9
F9.484131097793579
sg10
I100
sg11
I100
sa(dp109
g7
(F0.202
F0.682
F0.076
I81
I100
tp110
sg9
F18.977296113967896
sg10
I100
sg11
I200
sa(dp111
g7
(F0.206
F0.671
F0.079
I75
I100
tp112
sg9
F28.440898180007935
sg10
I100
sg11
I300
sa(dp113
g7
(F0.204
F0.622
F0.081
I72
I100
tp114
sg9
F37.8188681602478
sg10
I100
sg11
I400
sa(dp115
g7
(F0.21
F0.677
F0.084
I67
I100
tp116
sg9
F47.211748123168945
sg10
I100
sg11
I500
satp117
Rp118
(dp119
g25
I01
sg26
g31
sg32
(lp120
I3
aI5
aI30
aI9
asg34
I6
sg35
g36
(g3
tp121
Rp122
sbs.