(dp0
S'NSGA2-SIP'
p1
ccopy_reg
_reconstructor
p2
(cdeap.tools.support
Logbook
p3
c__builtin__
list
p4
(lp5
(dp6
S'hv|spread|igd|frontier#|valid#'
p7
(F0.112
F0.782
F0.024
I20
I35
tp8
sS'timestamp'
p9
F0.10298800468444824
sS'evals'
p10
I100
sS'gen'
p11
I0
sa(dp12
g7
(F0.19
F0.68
F0.06
I99
I100
tp13
sg9
F11.960894107818604
sg10
I100
sg11
I100
sa(dp14
g7
(F0.194
F0.613
F0.06
I99
I100
tp15
sg9
F23.832773208618164
sg10
I100
sg11
I200
sa(dp16
g7
(F0.197
F0.674
F0.063
I98
I100
tp17
sg9
F35.2817280292511
sg10
I100
sg11
I300
sa(dp18
g7
(F0.204
F0.576
F0.063
I99
I100
tp19
sg9
F47.138742208480835
sg10
I100
sg11
I400
sa(dp20
g7
(F0.209
F0.557
F0.067
I100
I100
tp21
sg9
F58.81262516975403
sg10
I100
sg11
I500
satp22
Rp23
(dp24
S'log_header'
p25
I01
sS'header'
p26
(S'gen'
p27
S'evals'
p28
S'hv|spread|igd|frontier#|valid#'
p29
S'timestamp'
p30
tp31
sS'columns_len'
p32
(lp33
I3
aI5
aI31
aI9
asS'buffindex'
p34
I6
sS'chapters'
p35
ccollections
defaultdict
p36
(g3
tp37
Rp38
sbsS'SPEA2-SIP'
p39
g2
(g3
g4
(lp40
(dp41
g7
(F0.115
F0.901
F0.039
I12
I25
tp42
sg9
F0.08289384841918945
sg10
I100
sg11
I0
sa(dp43
g7
(F0.193
F0.685
F0.063
I100
I100
tp44
sg9
F71.53314900398254
sg10
I100
sg11
I100
sa(dp45
g7
(F0.195
F0.618
F0.065
I100
I100
tp46
sg9
F155.23132395744324
sg10
I100
sg11
I200
sa(dp47
g7
(F0.197
F0.687
F0.067
I100
I100
tp48
sg9
F237.90077304840088
sg10
I100
sg11
I300
sa(dp49
g7
(F0.197
F0.655
F0.067
I100
I100
tp50
sg9
F321.47754287719727
sg10
I100
sg11
I400
sa(dp51
g7
(F0.199
F0.646
F0.067
I100
I100
tp52
sg9
F402.4627540111542
sg10
I100
sg11
I500
satp53
Rp54
(dp55
g25
I01
sg26
g31
sg32
(lp56
I3
aI5
aI31
aI9
asg34
I6
sg35
g36
(g3
tp57
Rp58
sbsS'SPEA2'
p59
g2
(g3
g4
(lp60
(dp61
g7
(I0
I0
I0
I0
I0
tp62
sg9
F0.04925799369812012
sg10
I100
sg11
I0
sa(dp63
g7
g62
sg9
F100.49664402008057
sg10
I100
sg11
I100
sa(dp64
g7
g62
sg9
F214.42660689353943
sg10
I100
sg11
I200
sa(dp65
g7
g62
sg9
F326.91428303718567
sg10
I100
sg11
I300
sa(dp66
g7
g62
sg9
F443.48544001579285
sg10
I100
sg11
I400
sa(dp67
g7
g62
sg9
F558.2119379043579
sg10
I100
sg11
I500
satp68
Rp69
(dp70
g25
I01
sg26
g31
sg32
(lp71
I3
aI5
aI30
aI9
asg34
I6
sg35
g36
(g3
tp72
Rp73
sbsS'IBEA-PEN'
p74
g2
(g3
g4
(lp75
(dp76
g7
(F0.092
F0.841
F0.031
I18
I30
tp77
sg9
F0.15313100814819336
sg10
I100
sg11
I0
sa(dp78
g7
(F0.205
F0.626
F0.073
I50
I90
tp79
sg9
F12.75362515449524
sg10
I100
sg11
I100
sa(dp80
g7
(F0.21
F0.631
F0.094
I60
I89
tp81
sg9
F25.5889630317688
sg10
I100
sg11
I200
sa(dp82
g7
(F0.209
F0.689
F0.086
I51
I89
tp83
sg9
F38.40201115608215
sg10
I100
sg11
I300
sa(dp84
g7
(F0.208
F0.696
F0.074
I68
I94
tp85
sg9
F51.27121901512146
sg10
I100
sg11
I400
sa(dp86
g7
(F0.202
F0.78
F0.088
I57
I87
tp87
sg9
F63.99769401550293
sg10
I100
sg11
I500
satp88
Rp89
(dp90
g25
I01
sg26
g31
sg32
(lp91
I3
aI5
aI30
aI9
asg34
I6
sg35
g36
(g3
tp92
Rp93
sbsS'IBEA'
p94
g2
(g3
g4
(lp95
(dp96
g7
(F0.059
F2.201
F0.037
I1
I1
tp97
sg9
F0.05561089515686035
sg10
I100
sg11
I0
sa(dp98
g7
g62
sg9
F9.008996963500977
sg10
I100
sg11
I100
sa(dp99
g7
g62
sg9
F17.916908979415894
sg10
I100
sg11
I200
sa(dp100
g7
g62
sg9
F26.954169988632202
sg10
I100
sg11
I300
sa(dp101
g7
g62
sg9
F35.98757290840149
sg10
I100
sg11
I400
sa(dp102
g7
g62
sg9
F45.01378297805786
sg10
I100
sg11
I500
satp103
Rp104
(dp105
g25
I01
sg26
g31
sg32
(lp106
I3
aI5
aI30
aI9
asg34
I6
sg35
g36
(g3
tp107
Rp108
sbsS'NSGA2'
p109
g2
(g3
g4
(lp110
(dp111
g7
g62
sg9
F0.04891490936279297
sg10
I100
sg11
I0
sa(dp112
g7
g62
sg9
F12.062867879867554
sg10
I100
sg11
I100
sa(dp113
g7
g62
sg9
F24.107789993286133
sg10
I100
sg11
I200
sa(dp114
g7
g62
sg9
F35.91818404197693
sg10
I100
sg11
I300
sa(dp115
g7
g62
sg9
F47.96676993370056
sg10
I100
sg11
I400
sa(dp116
g7
g62
sg9
F60.00198984146118
sg10
I100
sg11
I500
satp117
Rp118
(dp119
g25
I01
sg26
g31
sg32
(lp120
I3
aI5
aI30
aI9
asg34
I6
sg35
g36
(g3
tp121
Rp122
sbsS'IBEA-SIP'
p123
g2
(g3
g4
(lp124
(dp125
g7
(F0.126
F0.797
F0.041
I14
I31
tp126
sg9
F0.08398103713989258
sg10
I100
sg11
I0
sa(dp127
g7
(F0.205
F0.708
F0.077
I80
I100
tp128
sg9
F9.383749008178711
sg10
I100
sg11
I100
sa(dp129
g7
(F0.205
F0.664
F0.078
I80
I100
tp130
sg9
F18.698671102523804
sg10
I100
sg11
I200
sa(dp131
g7
(F0.204
F0.588
F0.07
I69
I100
tp132
sg9
F27.9903621673584
sg10
I100
sg11
I300
sa(dp133
g7
(F0.209
F0.678
F0.085
I72
I100
tp134
sg9
F37.175952196121216
sg10
I100
sg11
I400
sa(dp135
g7
(F0.212
F0.705
F0.083
I76
I100
tp136
sg9
F46.484055042266846
sg10
I100
sg11
I500
satp137
Rp138
(dp139
g25
I01
sg26
g31
sg32
(lp140
I3
aI5
aI30
aI9
asg34
I6
sg35
g36
(g3
tp141
Rp142
sbs.