(dp0
S'NSGA2-SIP'
p1
ccopy_reg
_reconstructor
p2
(cdeap.tools.support
Logbook
p3
c__builtin__
list
p4
(lp5
(dp6
S'hv|spread|igd|frontier#|valid#'
p7
(F0.118
F0.798
F0.027
I19
I31
tp8
sS'timestamp'
p9
F0.11074709892272949
sS'evals'
p10
I100
sS'gen'
p11
I0
sa(dp12
g7
(F0.199
F0.61
F0.059
I99
I100
tp13
sg9
F14.03951907157898
sg10
I100
sg11
I100
sa(dp14
g7
(F0.202
F0.635
F0.06
I96
I100
tp15
sg9
F28.036293983459473
sg10
I100
sg11
I200
sa(dp16
g7
(F0.207
F0.594
F0.063
I99
I100
tp17
sg9
F42.13690400123596
sg10
I100
sg11
I300
sa(dp18
g7
(F0.207
F0.675
F0.063
I98
I100
tp19
sg9
F56.123629093170166
sg10
I100
sg11
I400
sa(dp20
g7
(F0.206
F0.684
F0.065
I95
I100
tp21
sg9
F69.95181202888489
sg10
I100
sg11
I500
satp22
Rp23
(dp24
S'log_header'
p25
I01
sS'header'
p26
(S'gen'
p27
S'evals'
p28
S'hv|spread|igd|frontier#|valid#'
p29
S'timestamp'
p30
tp31
sS'columns_len'
p32
(lp33
I3
aI5
aI30
aI9
asS'buffindex'
p34
I6
sS'chapters'
p35
ccollections
defaultdict
p36
(g3
tp37
Rp38
sbsS'SPEA2-SIP'
p39
g2
(g3
g4
(lp40
(dp41
g7
(F0.11
F0.843
F0.031
I18
I25
tp42
sg9
F0.10608506202697754
sg10
I100
sg11
I0
sa(dp43
g7
(F0.191
F0.635
F0.064
I100
I100
tp44
sg9
F79.62706208229065
sg10
I100
sg11
I100
sa(dp45
g7
(F0.199
F0.664
F0.067
I100
I100
tp46
sg9
F168.11266589164734
sg10
I100
sg11
I200
sa(dp47
g7
(F0.201
F0.633
F0.066
I100
I100
tp48
sg9
F258.07754397392273
sg10
I100
sg11
I300
sa(dp49
g7
(F0.202
F0.618
F0.069
I100
I100
tp50
sg9
F350.37029504776
sg10
I100
sg11
I400
sa(dp51
g7
(F0.201
F0.64
F0.07
I100
I100
tp52
sg9
F440.75654006004333
sg10
I100
sg11
I500
satp53
Rp54
(dp55
g25
I01
sg26
g31
sg32
(lp56
I3
aI5
aI31
aI9
asg34
I6
sg35
g36
(g3
tp57
Rp58
sbsS'SPEA2'
p59
g2
(g3
g4
(lp60
(dp61
g7
(F0.066
F2.264
F0.024
I1
I1
tp62
sg9
F0.057943105697631836
sg10
I100
sg11
I0
sa(dp63
g7
(I0
I0
I0
I0
I0
tp64
sg9
F96.46363496780396
sg10
I100
sg11
I100
sa(dp65
g7
g64
sg9
F219.89163398742676
sg10
I100
sg11
I200
sa(dp66
g7
g64
sg9
F349.31895112991333
sg10
I100
sg11
I300
sa(dp67
g7
g64
sg9
F476.8289430141449
sg10
I100
sg11
I400
sa(dp68
g7
g64
sg9
F603.0278260707855
sg10
I100
sg11
I500
satp69
Rp70
(dp71
g25
I01
sg26
g31
sg32
(lp72
I3
aI5
aI30
aI9
asg34
I6
sg35
g36
(g3
tp73
Rp74
sbsS'IBEA-PEN'
p75
g2
(g3
g4
(lp76
(dp77
g7
(F0.097
F0.844
F0.034
I18
I28
tp78
sg9
F0.18172097206115723
sg10
I100
sg11
I0
sa(dp79
g7
g64
sg9
F10.030272960662842
sg10
I100
sg11
I100
sa(dp80
g7
g64
sg9
F19.834184885025024
sg10
I100
sg11
I200
sa(dp81
g7
g64
sg9
F29.67056894302368
sg10
I100
sg11
I300
sa(dp82
g7
g64
sg9
F39.467137813568115
sg10
I100
sg11
I400
sa(dp83
g7
g64
sg9
F49.2772479057312
sg10
I100
sg11
I500
satp84
Rp85
(dp86
g25
I01
sg26
g31
sg32
(lp87
I3
aI5
aI30
aI9
asg34
I6
sg35
g36
(g3
tp88
Rp89
sbsS'IBEA'
p90
g2
(g3
g4
(lp91
(dp92
g7
g64
sg9
F0.054641008377075195
sg10
I100
sg11
I0
sa(dp93
g7
g64
sg9
F9.660720109939575
sg10
I100
sg11
I100
sa(dp94
g7
g64
sg9
F19.2933349609375
sg10
I100
sg11
I200
sa(dp95
g7
g64
sg9
F28.933134078979492
sg10
I100
sg11
I300
sa(dp96
g7
g64
sg9
F38.531858921051025
sg10
I100
sg11
I400
sa(dp97
g7
g64
sg9
F48.11601996421814
sg10
I100
sg11
I500
satp98
Rp99
(dp100
g25
I01
sg26
g31
sg32
(lp101
I3
aI5
aI30
aI9
asg34
I6
sg35
g36
(g3
tp102
Rp103
sbsS'NSGA2'
p104
g2
(g3
g4
(lp105
(dp106
g7
g64
sg9
F0.05426192283630371
sg10
I100
sg11
I0
sa(dp107
g7
g64
sg9
F13.683580875396729
sg10
I100
sg11
I100
sa(dp108
g7
g64
sg9
F27.29129195213318
sg10
I100
sg11
I200
sa(dp109
g7
g64
sg9
F40.77610397338867
sg10
I100
sg11
I300
sa(dp110
g7
g64
sg9
F54.339277029037476
sg10
I100
sg11
I400
sa(dp111
g7
g64
sg9
F67.87936592102051
sg10
I100
sg11
I500
satp112
Rp113
(dp114
g25
I01
sg26
g31
sg32
(lp115
I3
aI5
aI30
aI9
asg34
I6
sg35
g36
(g3
tp116
Rp117
sbsS'IBEA-SIP'
p118
g2
(g3
g4
(lp119
(dp120
g7
(F0.107
F0.753
F0.03
I12
I23
tp121
sg9
F0.08386397361755371
sg10
I100
sg11
I0
sa(dp122
g7
(F0.202
F0.686
F0.07
I82
I100
tp123
sg9
F10.336725950241089
sg10
I100
sg11
I100
sa(dp124
g7
(F0.206
F0.635
F0.078
I68
I100
tp125
sg9
F20.3123300075531
sg10
I100
sg11
I200
sa(dp126
g7
(F0.211
F0.604
F0.084
I73
I100
tp127
sg9
F30.147186994552612
sg10
I100
sg11
I300
sa(dp128
g7
(F0.211
F0.625
F0.086
I72
I100
tp129
sg9
F39.99739193916321
sg10
I100
sg11
I400
sa(dp130
g7
(F0.212
F0.667
F0.085
I72
I100
tp131
sg9
F49.87757992744446
sg10
I100
sg11
I500
satp132
Rp133
(dp134
g25
I01
sg26
g31
sg32
(lp135
I3
aI5
aI30
aI9
asg34
I6
sg35
g36
(g3
tp136
Rp137
sbs.