(dp0
S'NSGA2-SIP'
p1
ccopy_reg
_reconstructor
p2
(cdeap.tools.support
Logbook
p3
c__builtin__
list
p4
(lp5
(dp6
S'hv|spread|igd|frontier#|valid#'
p7
(F0.11
F0.914
F0.035
I14
I26
tp8
sS'timestamp'
p9
F0.0905768871307373
sS'evals'
p10
I100
sS'gen'
p11
I0
sa(dp12
g7
(F0.195
F0.57
F0.058
I98
I100
tp13
sg9
F13.373443841934204
sg10
I100
sg11
I100
sa(dp14
g7
(F0.205
F0.603
F0.066
I99
I100
tp15
sg9
F26.747694969177246
sg10
I100
sg11
I200
sa(dp16
g7
(F0.206
F0.542
F0.066
I99
I100
tp17
sg9
F40.22195100784302
sg10
I100
sg11
I300
sa(dp18
g7
(F0.207
F0.559
F0.067
I100
I100
tp19
sg9
F53.73296093940735
sg10
I100
sg11
I400
sa(dp20
g7
(F0.207
F0.565
F0.068
I98
I100
tp21
sg9
F66.90919184684753
sg10
I100
sg11
I500
satp22
Rp23
(dp24
S'log_header'
p25
I01
sS'header'
p26
(S'gen'
p27
S'evals'
p28
S'hv|spread|igd|frontier#|valid#'
p29
S'timestamp'
p30
tp31
sS'columns_len'
p32
(lp33
I3
aI5
aI31
aI9
asS'buffindex'
p34
I6
sS'chapters'
p35
ccollections
defaultdict
p36
(g3
tp37
Rp38
sbsS'SPEA2-SIP'
p39
g2
(g3
g4
(lp40
(dp41
g7
(F0.116
F0.937
F0.024
I16
I29
tp42
sg9
F0.0976400375366211
sg10
I100
sg11
I0
sa(dp43
g7
(F0.191
F0.728
F0.068
I100
I100
tp44
sg9
F81.89554905891418
sg10
I100
sg11
I100
sa(dp45
g7
(F0.194
F0.613
F0.069
I100
I100
tp46
sg9
F176.63799118995667
sg10
I100
sg11
I200
sa(dp47
g7
(F0.199
F0.628
F0.067
I100
I100
tp48
sg9
F272.682177066803
sg10
I100
sg11
I300
sa(dp49
g7
(F0.2
F0.642
F0.069
I100
I100
tp50
sg9
F367.71723318099976
sg10
I100
sg11
I400
sa(dp51
g7
(F0.2
F0.657
F0.068
I100
I100
tp52
sg9
F463.6318461894989
sg10
I100
sg11
I500
satp53
Rp54
(dp55
g25
I01
sg26
g31
sg32
(lp56
I3
aI5
aI31
aI9
asg34
I6
sg35
g36
(g3
tp57
Rp58
sbsS'SPEA2'
p59
g2
(g3
g4
(lp60
(dp61
g7
(I0
I0
I0
I0
I0
tp62
sg9
F0.05400991439819336
sg10
I100
sg11
I0
sa(dp63
g7
g62
sg9
F103.4041919708252
sg10
I100
sg11
I100
sa(dp64
g7
g62
sg9
F221.9347059726715
sg10
I100
sg11
I200
sa(dp65
g7
g62
sg9
F342.9314229488373
sg10
I100
sg11
I300
sa(dp66
g7
g62
sg9
F463.9251229763031
sg10
I100
sg11
I400
sa(dp67
g7
g62
sg9
F585.7993431091309
sg10
I100
sg11
I500
satp68
Rp69
(dp70
g25
I01
sg26
g31
sg32
(lp71
I3
aI5
aI30
aI9
asg34
I6
sg35
g36
(g3
tp72
Rp73
sbsS'IBEA-PEN'
p74
g2
(g3
g4
(lp75
(dp76
g7
(F0.114
F0.823
F0.022
I16
I36
tp77
sg9
F0.1603860855102539
sg10
I100
sg11
I0
sa(dp78
g7
(F0.202
F0.613
F0.067
I58
I86
tp79
sg9
F13.85197114944458
sg10
I100
sg11
I100
sa(dp80
g7
(F0.21
F0.668
F0.084
I61
I93
tp81
sg9
F27.701892137527466
sg10
I100
sg11
I200
sa(dp82
g7
(F0.206
F0.764
F0.086
I55
I90
tp83
sg9
F41.476062059402466
sg10
I100
sg11
I300
sa(dp84
g7
(F0.208
F0.62
F0.066
I57
I90
tp85
sg9
F55.1886191368103
sg10
I100
sg11
I400
sa(dp86
g7
(F0.212
F0.594
F0.088
I65
I90
tp87
sg9
F69.12323999404907
sg10
I100
sg11
I500
satp88
Rp89
(dp90
g25
I01
sg26
g31
sg32
(lp91
I3
aI5
aI30
aI9
asg34
I6
sg35
g36
(g3
tp92
Rp93
sbsS'IBEA'
p94
g2
(g3
g4
(lp95
(dp96
g7
(F0.066
F2.227
F0.022
I1
I1
tp97
sg9
F0.05671191215515137
sg10
I100
sg11
I0
sa(dp98
g7
g62
sg9
F9.896857023239136
sg10
I100
sg11
I100
sa(dp99
g7
g62
sg9
F19.76814103126526
sg10
I100
sg11
I200
sa(dp100
g7
g62
sg9
F29.6030490398407
sg10
I100
sg11
I300
sa(dp101
g7
g62
sg9
F39.409910917282104
sg10
I100
sg11
I400
sa(dp102
g7
g62
sg9
F49.21366286277771
sg10
I100
sg11
I500
satp103
Rp104
(dp105
g25
I01
sg26
g31
sg32
(lp106
I3
aI5
aI30
aI9
asg34
I6
sg35
g36
(g3
tp107
Rp108
sbsS'NSGA2'
p109
g2
(g3
g4
(lp110
(dp111
g7
g62
sg9
F0.05325889587402344
sg10
I100
sg11
I0
sa(dp112
g7
g62
sg9
F13.12260890007019
sg10
I100
sg11
I100
sa(dp113
g7
g62
sg9
F26.214310884475708
sg10
I100
sg11
I200
sa(dp114
g7
g62
sg9
F39.264336824417114
sg10
I100
sg11
I300
sa(dp115
g7
g62
sg9
F52.339316844940186
sg10
I100
sg11
I400
sa(dp116
g7
g62
sg9
F65.413321018219
sg10
I100
sg11
I500
satp117
Rp118
(dp119
g25
I01
sg26
g31
sg32
(lp120
I3
aI5
aI30
aI9
asg34
I6
sg35
g36
(g3
tp121
Rp122
sbsS'IBEA-SIP'
p123
g2
(g3
g4
(lp124
(dp125
g7
(F0.111
F0.863
F0.026
I16
I28
tp126
sg9
F0.09646797180175781
sg10
I100
sg11
I0
sa(dp127
g7
(F0.201
F0.622
F0.074
I74
I100
tp128
sg9
F10.076882123947144
sg10
I100
sg11
I100
sa(dp129
g7
(F0.204
F0.636
F0.073
I70
I100
tp130
sg9
F20.111279010772705
sg10
I100
sg11
I200
sa(dp131
g7
(F0.211
F0.615
F0.079
I74
I100
tp132
sg9
F30.0613009929657
sg10
I100
sg11
I300
sa(dp133
g7
(F0.213
F0.613
F0.083
I74
I100
tp134
sg9
F40.04462909698486
sg10
I100
sg11
I400
sa(dp135
g7
(F0.213
F0.627
F0.086
I81
I100
tp136
sg9
F50.07196807861328
sg10
I100
sg11
I500
satp137
Rp138
(dp139
g25
I01
sg26
g31
sg32
(lp140
I3
aI5
aI30
aI9
asg34
I6
sg35
g36
(g3
tp141
Rp142
sbs.