(dp0
S'NSGA2-SIP'
p1
ccopy_reg
_reconstructor
p2
(cdeap.tools.support
Logbook
p3
c__builtin__
list
p4
(lp5
(dp6
S'hv|spread|igd|frontier#|valid#'
p7
(F0.111
F0.882
F0.03
I10
I26
tp8
sS'timestamp'
p9
F0.0651559829711914
sS'evals'
p10
I100
sS'gen'
p11
I0
sa(dp12
g7
(F0.195
F0.576
F0.056
I100
I100
tp13
sg9
F10.968394994735718
sg10
I100
sg11
I100
sa(dp14
g7
(F0.2
F0.597
F0.06
I99
I100
tp15
sg9
F21.92842698097229
sg10
I100
sg11
I200
sa(dp16
g7
(F0.205
F0.648
F0.061
I98
I100
tp17
sg9
F32.82892394065857
sg10
I100
sg11
I300
sa(dp18
g7
(F0.207
F0.627
F0.064
I98
I100
tp19
sg9
F43.6855309009552
sg10
I100
sg11
I400
sa(dp20
g7
(F0.208
F0.627
F0.064
I99
I100
tp21
sg9
F54.65533089637756
sg10
I100
sg11
I500
satp22
Rp23
(dp24
S'log_header'
p25
I01
sS'header'
p26
(S'gen'
p27
S'evals'
p28
S'hv|spread|igd|frontier#|valid#'
p29
S'timestamp'
p30
tp31
sS'columns_len'
p32
(lp33
I3
aI5
aI31
aI9
asS'buffindex'
p34
I6
sS'chapters'
p35
ccollections
defaultdict
p36
(g3
tp37
Rp38
sbsS'SPEA2-SIP'
p39
g2
(g3
g4
(lp40
(dp41
g7
(F0.114
F0.805
F0.03
I12
I27
tp42
sg9
F0.07114601135253906
sg10
I100
sg11
I0
sa(dp43
g7
(F0.192
F0.586
F0.063
I100
I100
tp44
sg9
F70.06112217903137
sg10
I100
sg11
I100
sa(dp45
g7
(F0.195
F0.528
F0.064
I100
I100
tp46
sg9
F150.3140389919281
sg10
I100
sg11
I200
sa(dp47
g7
(F0.199
F0.615
F0.066
I100
I100
tp48
sg9
F228.88210320472717
sg10
I100
sg11
I300
sa(dp49
g7
(F0.199
F0.581
F0.066
I100
I100
tp50
sg9
F306.5589520931244
sg10
I100
sg11
I400
sa(dp51
g7
(F0.2
F0.618
F0.066
I100
I100
tp52
sg9
F383.883248090744
sg10
I100
sg11
I500
satp53
Rp54
(dp55
g25
I01
sg26
g31
sg32
(lp56
I3
aI5
aI31
aI9
asg34
I6
sg35
g36
(g3
tp57
Rp58
sbsS'SPEA2'
p59
g2
(g3
g4
(lp60
(dp61
g7
(F0.059
F2.264
F0.03
I1
I1
tp62
sg9
F0.04783821105957031
sg10
I100
sg11
I0
sa(dp63
g7
(I0
I0
I0
I0
I0
tp64
sg9
F81.88348007202148
sg10
I100
sg11
I100
sa(dp65
g7
g64
sg9
F187.505273103714
sg10
I100
sg11
I200
sa(dp66
g7
g64
sg9
F290.47955203056335
sg10
I100
sg11
I300
sa(dp67
g7
g64
sg9
F394.4804320335388
sg10
I100
sg11
I400
sa(dp68
g7
g64
sg9
F502.1456780433655
sg10
I100
sg11
I500
satp69
Rp70
(dp71
g25
I01
sg26
g31
sg32
(lp72
I3
aI5
aI30
aI9
asg34
I6
sg35
g36
(g3
tp73
Rp74
sbsS'IBEA'
p75
g2
(g3
g4
(lp76
(dp77
g7
g64
sg9
F0.04542803764343262
sg10
I100
sg11
I0
sa(dp78
g7
g64
sg9
F8.412075996398926
sg10
I100
sg11
I100
sa(dp79
g7
g64
sg9
F16.828218936920166
sg10
I100
sg11
I200
sa(dp80
g7
g64
sg9
F25.231775999069214
sg10
I100
sg11
I300
sa(dp81
g7
g64
sg9
F33.646995067596436
sg10
I100
sg11
I400
sa(dp82
g7
g64
sg9
F42.09026598930359
sg10
I100
sg11
I500
satp83
Rp84
(dp85
g25
I01
sg26
g31
sg32
(lp86
I3
aI5
aI30
aI9
asg34
I6
sg35
g36
(g3
tp87
Rp88
sbsS'NSGA2'
p89
g2
(g3
g4
(lp90
(dp91
g7
g64
sg9
F0.04522705078125
sg10
I100
sg11
I0
sa(dp92
g7
g64
sg9
F11.131932020187378
sg10
I100
sg11
I100
sa(dp93
g7
g64
sg9
F22.2007839679718
sg10
I100
sg11
I200
sa(dp94
g7
g64
sg9
F33.301589012145996
sg10
I100
sg11
I300
sa(dp95
g7
g64
sg9
F44.37738800048828
sg10
I100
sg11
I400
sa(dp96
g7
g64
sg9
F55.4679958820343
sg10
I100
sg11
I500
satp97
Rp98
(dp99
g25
I01
sg26
g31
sg32
(lp100
I3
aI5
aI30
aI9
asg34
I6
sg35
g36
(g3
tp101
Rp102
sbsS'IBEA-SIP'
p103
g2
(g3
g4
(lp104
(dp105
g7
(F0.114
F0.865
F0.031
I15
I31
tp106
sg9
F0.07908391952514648
sg10
I100
sg11
I0
sa(dp107
g7
(F0.199
F0.663
F0.07
I75
I100
tp108
sg9
F8.607980012893677
sg10
I100
sg11
I100
sa(dp109
g7
(F0.21
F0.647
F0.075
I77
I100
tp110
sg9
F17.32260489463806
sg10
I100
sg11
I200
sa(dp111
g7
(F0.21
F0.643
F0.079
I79
I100
tp112
sg9
F25.89782404899597
sg10
I100
sg11
I300
sa(dp113
g7
(F0.213
F0.663
F0.079
I84
I100
tp114
sg9
F34.58929991722107
sg10
I100
sg11
I400
sa(dp115
g7
(F0.211
F0.638
F0.087
I79
I100
tp116
sg9
F43.13575196266174
sg10
I100
sg11
I500
satp117
Rp118
(dp119
g25
I01
sg26
g31
sg32
(lp120
I3
aI5
aI30
aI9
asg34
I6
sg35
g36
(g3
tp121
Rp122
sbs.