(dp0
S'NSGA2-SIP'
p1
ccopy_reg
_reconstructor
p2
(cdeap.tools.support
Logbook
p3
c__builtin__
list
p4
(lp5
(dp6
S'hv|spread|igd|frontier#|valid#'
p7
(F0.116
F0.805
F0.028
I16
I26
tp8
sS'timestamp'
p9
F0.08908390998840332
sS'evals'
p10
I100
sS'gen'
p11
I0
sa(dp12
g7
(F0.192
F0.661
F0.058
I97
I100
tp13
sg9
F12.131151914596558
sg10
I100
sg11
I100
sa(dp14
g7
(F0.202
F0.596
F0.058
I100
I100
tp15
sg9
F23.96774983406067
sg10
I100
sg11
I200
sa(dp16
g7
(F0.204
F0.627
F0.064
I98
I100
tp17
sg9
F35.6560959815979
sg10
I100
sg11
I300
sa(dp18
g7
(F0.208
F0.617
F0.065
I99
I100
tp19
sg9
F47.576613903045654
sg10
I100
sg11
I400
sa(dp20
g7
(F0.208
F0.605
F0.064
I98
I100
tp21
sg9
F59.52124285697937
sg10
I100
sg11
I500
satp22
Rp23
(dp24
S'log_header'
p25
I01
sS'header'
p26
(S'gen'
p27
S'evals'
p28
S'hv|spread|igd|frontier#|valid#'
p29
S'timestamp'
p30
tp31
sS'columns_len'
p32
(lp33
I3
aI5
aI31
aI9
asS'buffindex'
p34
I6
sS'chapters'
p35
ccollections
defaultdict
p36
(g3
tp37
Rp38
sbsS'SPEA2-SIP'
p39
g2
(g3
g4
(lp40
(dp41
g7
(F0.127
F0.841
F0.031
I17
I35
tp42
sg9
F0.09520316123962402
sg10
I100
sg11
I0
sa(dp43
g7
(F0.195
F0.685
F0.065
I100
I100
tp44
sg9
F74.93066310882568
sg10
I100
sg11
I100
sa(dp45
g7
(F0.198
F0.568
F0.069
I100
I100
tp46
sg9
F157.79789018630981
sg10
I100
sg11
I200
sa(dp47
g7
(F0.2
F0.672
F0.065
I100
I100
tp48
sg9
F241.51543998718262
sg10
I100
sg11
I300
sa(dp49
g7
(F0.2
F0.632
F0.066
I100
I100
tp50
sg9
F324.86605620384216
sg10
I100
sg11
I400
sa(dp51
g7
(F0.201
F0.613
F0.068
I100
I100
tp52
sg9
F408.04025506973267
sg10
I100
sg11
I500
satp53
Rp54
(dp55
g25
I01
sg26
g31
sg32
(lp56
I3
aI5
aI31
aI9
asg34
I6
sg35
g36
(g3
tp57
Rp58
sbsS'SPEA2'
p59
g2
(g3
g4
(lp60
(dp61
g7
(I0
I0
I0
I0
I0
tp62
sg9
F0.04940509796142578
sg10
I100
sg11
I0
sa(dp63
g7
g62
sg9
F86.50283718109131
sg10
I100
sg11
I100
sa(dp64
g7
g62
sg9
F190.61115217208862
sg10
I100
sg11
I200
sa(dp65
g7
g62
sg9
F303.1017291545868
sg10
I100
sg11
I300
sa(dp66
g7
g62
sg9
F419.4644470214844
sg10
I100
sg11
I400
sa(dp67
g7
g62
sg9
F540.276652097702
sg10
I100
sg11
I500
satp68
Rp69
(dp70
g25
I01
sg26
g31
sg32
(lp71
I3
aI5
aI30
aI9
asg34
I6
sg35
g36
(g3
tp72
Rp73
sbsS'IBEA-PEN'
p74
g2
(g3
g4
(lp75
(dp76
g7
(F0.096
F0.773
F0.03
I20
I26
tp77
sg9
F0.15559697151184082
sg10
I100
sg11
I0
sa(dp78
g7
(F0.201
F0.675
F0.076
I64
I89
tp79
sg9
F13.131010055541992
sg10
I100
sg11
I100
sa(dp80
g7
(F0.204
F0.645
F0.081
I64
I93
tp81
sg9
F26.23629403114319
sg10
I100
sg11
I200
sa(dp82
g7
(F0.212
F0.661
F0.078
I63
I94
tp83
sg9
F39.254255056381226
sg10
I100
sg11
I300
sa(dp84
g7
(F0.213
F0.71
F0.09
I71
I95
tp85
sg9
F52.415616035461426
sg10
I100
sg11
I400
sa(dp86
g7
(F0.205
F0.636
F0.079
I49
I90
tp87
sg9
F65.40524792671204
sg10
I100
sg11
I500
satp88
Rp89
(dp90
g25
I01
sg26
g31
sg32
(lp91
I3
aI5
aI30
aI9
asg34
I6
sg35
g36
(g3
tp92
Rp93
sbsS'IBEA'
p94
g2
(g3
g4
(lp95
(dp96
g7
(F0.067
F2.177
F0.01
I1
I1
tp97
sg9
F0.052525997161865234
sg10
I100
sg11
I0
sa(dp98
g7
g62
sg9
F9.246601104736328
sg10
I100
sg11
I100
sa(dp99
g7
g62
sg9
F18.50901508331299
sg10
I100
sg11
I200
sa(dp100
g7
g62
sg9
F27.791086196899414
sg10
I100
sg11
I300
sa(dp101
g7
g62
sg9
F37.06152606010437
sg10
I100
sg11
I400
sa(dp102
g7
g62
sg9
F46.32252216339111
sg10
I100
sg11
I500
satp103
Rp104
(dp105
g25
I01
sg26
g31
sg32
(lp106
I3
aI5
aI30
aI9
asg34
I6
sg35
g36
(g3
tp107
Rp108
sbsS'NSGA2'
p109
g2
(g3
g4
(lp110
(dp111
g7
g62
sg9
F0.04974198341369629
sg10
I100
sg11
I0
sa(dp112
g7
g62
sg9
F12.224270820617676
sg10
I100
sg11
I100
sa(dp113
g7
g62
sg9
F24.42442297935486
sg10
I100
sg11
I200
sa(dp114
g7
g62
sg9
F36.5853488445282
sg10
I100
sg11
I300
sa(dp115
g7
g62
sg9
F48.76258993148804
sg10
I100
sg11
I400
sa(dp116
g7
g62
sg9
F60.90414500236511
sg10
I100
sg11
I500
satp117
Rp118
(dp119
g25
I01
sg26
g31
sg32
(lp120
I3
aI5
aI30
aI9
asg34
I6
sg35
g36
(g3
tp121
Rp122
sbsS'IBEA-SIP'
p123
g2
(g3
g4
(lp124
(dp125
g7
(F0.121
F0.871
F0.028
I16
I31
tp126
sg9
F0.09036707878112793
sg10
I100
sg11
I0
sa(dp127
g7
(F0.201
F0.622
F0.071
I82
I100
tp128
sg9
F9.587275981903076
sg10
I100
sg11
I100
sa(dp129
g7
(F0.202
F0.662
F0.073
I70
I100
tp130
sg9
F18.91194796562195
sg10
I100
sg11
I200
sa(dp131
g7
(F0.204
F0.652
F0.074
I79
I100
tp132
sg9
F28.31233501434326
sg10
I100
sg11
I300
sa(dp133
g7
(F0.207
F0.708
F0.08
I76
I100
tp134
sg9
F37.73245906829834
sg10
I100
sg11
I400
sa(dp135
g7
(F0.207
F0.674
F0.077
I82
I100
tp136
sg9
F47.228628158569336
sg10
I100
sg11
I500
satp137
Rp138
(dp139
g25
I01
sg26
g31
sg32
(lp140
I3
aI5
aI30
aI9
asg34
I6
sg35
g36
(g3
tp141
Rp142
sbs.