(dp0
S'NSGA2-SIP'
p1
ccopy_reg
_reconstructor
p2
(cdeap.tools.support
Logbook
p3
c__builtin__
list
p4
(lp5
(dp6
S'hv|spread|igd|frontier#|valid#'
p7
(F0.122
F0.704
F0.027
I20
I28
tp8
sS'timestamp'
p9
F0.10410308837890625
sS'evals'
p10
I100
sS'gen'
p11
I0
sa(dp12
g7
(F0.198
F0.628
F0.061
I99
I100
tp13
sg9
F12.709769010543823
sg10
I100
sg11
I100
sa(dp14
g7
(F0.203
F0.612
F0.064
I98
I100
tp15
sg9
F25.480156183242798
sg10
I100
sg11
I200
sa(dp16
g7
(F0.213
F0.61
F0.065
I98
I100
tp17
sg9
F38.18046021461487
sg10
I100
sg11
I300
sa(dp18
g7
(F0.213
F0.584
F0.069
I99
I100
tp19
sg9
F50.68508505821228
sg10
I100
sg11
I400
sa(dp20
g7
(F0.211
F0.605
F0.069
I98
I100
tp21
sg9
F63.402146100997925
sg10
I100
sg11
I500
satp22
Rp23
(dp24
S'log_header'
p25
I01
sS'header'
p26
(S'gen'
p27
S'evals'
p28
g7
S'timestamp'
p29
tp30
sS'columns_len'
p31
(lp32
I3
aI5
aI30
aI9
asS'buffindex'
p33
I6
sS'chapters'
p34
ccollections
defaultdict
p35
(g3
tp36
Rp37
sbsS'SPEA2-SIP'
p38
g2
(g3
g4
(lp39
(dp40
g7
(F0.121
F0.814
F0.026
I18
I31
tp41
sg9
F0.09820818901062012
sg10
I100
sg11
I0
sa(dp42
g7
(F0.19
F0.663
F0.064
I100
I100
tp43
sg9
F78.98238897323608
sg10
I100
sg11
I100
sa(dp44
g7
(F0.196
F0.592
F0.066
I100
I100
tp45
sg9
F171.9492461681366
sg10
I100
sg11
I200
sa(dp46
g7
(F0.197
F0.671
F0.068
I100
I100
tp47
sg9
F263.1643991470337
sg10
I100
sg11
I300
sa(dp48
g7
(F0.197
F0.621
F0.066
I100
I100
tp49
sg9
F354.9545409679413
sg10
I100
sg11
I400
sa(dp50
g7
(F0.197
F0.663
F0.068
I100
I100
tp51
sg9
F446.701416015625
sg10
I100
sg11
I500
satp52
Rp53
(dp54
g25
I01
sg26
g30
sg31
(lp55
I3
aI5
aI31
aI9
asg33
I6
sg34
g35
(g3
tp56
Rp57
sbsS'SPEA2'
p58
g2
(g3
g4
(lp59
(dp60
g7
(F0.073
F2.245
F0.037
I1
I1
tp61
sg9
F0.052728891372680664
sg10
I100
sg11
I0
sa(dp62
g7
(I0
I0
I0
I0
I0
tp63
sg9
F88.36114287376404
sg10
I100
sg11
I100
sa(dp64
g7
g63
sg9
F206.95531105995178
sg10
I100
sg11
I200
sa(dp65
g7
g63
sg9
F324.6114299297333
sg10
I100
sg11
I300
sa(dp66
g7
g63
sg9
F441.6739730834961
sg10
I100
sg11
I400
sa(dp67
g7
g63
sg9
F561.0296559333801
sg10
I100
sg11
I500
satp68
Rp69
(dp70
g25
I01
sg26
g30
sg31
(lp71
I3
aI5
aI30
aI9
asg33
I6
sg34
g35
(g3
tp72
Rp73
sbsS'IBEA'
p74
g2
(g3
g4
(lp75
(dp76
g7
g63
sg9
F0.05218195915222168
sg10
I100
sg11
I0
sa(dp77
g7
g63
sg9
F9.447710037231445
sg10
I100
sg11
I100
sa(dp78
g7
g63
sg9
F18.802243947982788
sg10
I100
sg11
I200
sa(dp79
g7
g63
sg9
F28.16737389564514
sg10
I100
sg11
I300
sa(dp80
g7
g63
sg9
F37.497281074523926
sg10
I100
sg11
I400
sa(dp81
g7
g63
sg9
F46.85771083831787
sg10
I100
sg11
I500
satp82
Rp83
(dp84
g25
I01
sg26
g30
sg31
(lp85
I3
aI5
aI30
aI9
asg33
I6
sg34
g35
(g3
tp86
Rp87
sbsS'NSGA2'
p88
g2
(g3
g4
(lp89
(dp90
g7
g63
sg9
F0.050009965896606445
sg10
I100
sg11
I0
sa(dp91
g7
g63
sg9
F12.505111932754517
sg10
I100
sg11
I100
sa(dp92
g7
g63
sg9
F24.917444944381714
sg10
I100
sg11
I200
sa(dp93
g7
g63
sg9
F37.308562994003296
sg10
I100
sg11
I300
sa(dp94
g7
g63
sg9
F49.64650511741638
sg10
I100
sg11
I400
sa(dp95
g7
g63
sg9
F62.024765968322754
sg10
I100
sg11
I500
satp96
Rp97
(dp98
g25
I01
sg26
g30
sg31
(lp99
I3
aI5
aI30
aI9
asg33
I6
sg34
g35
(g3
tp100
Rp101
sbsS'IBEA-SIP'
p102
g2
(g3
g4
(lp103
(dp104
g7
(F0.106
F0.934
F0.02
I12
I29
tp105
sg9
F0.07984185218811035
sg10
I100
sg11
I0
sa(dp106
g7
(F0.198
F0.708
F0.071
I75
I100
tp107
sg9
F9.950821876525879
sg10
I100
sg11
I100
sa(dp108
g7
(F0.207
F0.618
F0.082
I72
I100
tp109
sg9
F20.04003405570984
sg10
I100
sg11
I200
sa(dp110
g7
(F0.205
F0.589
F0.086
I68
I100
tp111
sg9
F29.991313934326172
sg10
I100
sg11
I300
sa(dp112
g7
(F0.212
F0.672
F0.08
I76
I100
tp113
sg9
F40.11693787574768
sg10
I100
sg11
I400
sa(dp114
g7
(F0.211
F0.642
F0.093
I65
I100
tp115
sg9
F50.09571385383606
sg10
I100
sg11
I500
satp116
Rp117
(dp118
g25
I01
sg26
g30
sg31
(lp119
I3
aI5
aI30
aI9
asg33
I6
sg34
g35
(g3
tp120
Rp121
sbs.