(dp0
S'NSGA2-SIP'
p1
ccopy_reg
_reconstructor
p2
(cdeap.tools.support
Logbook
p3
c__builtin__
list
p4
(lp5
(dp6
S'hv|spread|igd|frontier#|valid#'
p7
(F0.109
F0.85
F0.023
I13
I29
tp8
sS'timestamp'
p9
F0.08273005485534668
sS'evals'
p10
I100
sS'gen'
p11
I0
sa(dp12
g7
(F0.192
F0.61
F0.06
I100
I100
tp13
sg9
F12.581446170806885
sg10
I100
sg11
I100
sa(dp14
g7
(F0.203
F0.621
F0.063
I98
I100
tp15
sg9
F25.14479112625122
sg10
I100
sg11
I200
sa(dp16
g7
(F0.207
F0.642
F0.067
I99
I100
tp17
sg9
F37.3206582069397
sg10
I100
sg11
I300
sa(dp18
g7
(F0.206
F0.642
F0.065
I100
I100
tp19
sg9
F49.43208718299866
sg10
I100
sg11
I400
sa(dp20
g7
(F0.204
F0.651
F0.062
I99
I100
tp21
sg9
F61.56991004943848
sg10
I100
sg11
I500
satp22
Rp23
(dp24
S'log_header'
p25
I01
sS'header'
p26
(S'gen'
p27
S'evals'
p28
S'hv|spread|igd|frontier#|valid#'
p29
S'timestamp'
p30
tp31
sS'columns_len'
p32
(lp33
I3
aI5
aI31
aI9
asS'buffindex'
p34
I6
sS'chapters'
p35
ccollections
defaultdict
p36
(g3
tp37
Rp38
sbsS'SPEA2-SIP'
p39
g2
(g3
g4
(lp40
(dp41
g7
(F0.128
F0.843
F0.035
I18
I27
tp42
sg9
F0.0971229076385498
sg10
I100
sg11
I0
sa(dp43
g7
(F0.201
F0.692
F0.067
I100
I100
tp44
sg9
F76.46810102462769
sg10
I100
sg11
I100
sa(dp45
g7
(F0.202
F0.632
F0.07
I100
I100
tp46
sg9
F163.39418697357178
sg10
I100
sg11
I200
sa(dp47
g7
(F0.204
F0.589
F0.071
I100
I100
tp48
sg9
F248.7547631263733
sg10
I100
sg11
I300
sa(dp49
g7
(F0.207
F0.657
F0.07
I100
I100
tp50
sg9
F335.5698969364166
sg10
I100
sg11
I400
sa(dp51
g7
(F0.207
F0.684
F0.068
I100
I100
tp52
sg9
F420.4860999584198
sg10
I100
sg11
I500
satp53
Rp54
(dp55
g25
I01
sg26
g31
sg32
(lp56
I3
aI5
aI31
aI9
asg34
I6
sg35
g36
(g3
tp57
Rp58
sbsS'SPEA2'
p59
g2
(g3
g4
(lp60
(dp61
g7
(I0
I0
I0
I0
I0
tp62
sg9
F0.04947805404663086
sg10
I100
sg11
I0
sa(dp63
g7
g62
sg9
F94.07357597351074
sg10
I100
sg11
I100
sa(dp64
g7
g62
sg9
F209.18792009353638
sg10
I100
sg11
I200
sa(dp65
g7
g62
sg9
F323.28621006011963
sg10
I100
sg11
I300
sa(dp66
g7
g62
sg9
F434.3686490058899
sg10
I100
sg11
I400
sa(dp67
g7
g62
sg9
F550.424488067627
sg10
I100
sg11
I500
satp68
Rp69
(dp70
g25
I01
sg26
g31
sg32
(lp71
I3
aI5
aI30
aI9
asg34
I6
sg35
g36
(g3
tp72
Rp73
sbsS'IBEA-PEN'
p74
g2
(g3
g4
(lp75
(dp76
g7
(F0.108
F0.813
F0.028
I19
I30
tp77
sg9
F0.15713787078857422
sg10
I100
sg11
I0
sa(dp78
g7
(F0.202
F0.633
F0.058
I64
I96
tp79
sg9
F13.375414848327637
sg10
I100
sg11
I100
sa(dp80
g7
(F0.211
F0.681
F0.091
I65
I93
tp81
sg9
F26.68834900856018
sg10
I100
sg11
I200
sa(dp82
g7
(F0.207
F0.703
F0.083
I65
I91
tp83
sg9
F40.02395486831665
sg10
I100
sg11
I300
sa(dp84
g7
(F0.201
F0.739
F0.085
I53
I89
tp85
sg9
F53.21341300010681
sg10
I100
sg11
I400
sa(dp86
g7
(F0.204
F0.584
F0.074
I51
I89
tp87
sg9
F66.34565496444702
sg10
I100
sg11
I500
satp88
Rp89
(dp90
g25
I01
sg26
g31
sg32
(lp91
I3
aI5
aI30
aI9
asg34
I6
sg35
g36
(g3
tp92
Rp93
sbsS'IBEA'
p94
g2
(g3
g4
(lp95
(dp96
g7
g62
sg9
F0.04947805404663086
sg10
I100
sg11
I0
sa(dp97
g7
g62
sg9
F9.207412958145142
sg10
I100
sg11
I100
sa(dp98
g7
g62
sg9
F18.179017066955566
sg10
I100
sg11
I200
sa(dp99
g7
g62
sg9
F27.549329042434692
sg10
I100
sg11
I300
sa(dp100
g7
g62
sg9
F37.003679037094116
sg10
I100
sg11
I400
sa(dp101
g7
g62
sg9
F46.42784309387207
sg10
I100
sg11
I500
satp102
Rp103
(dp104
g25
I01
sg26
g31
sg32
(lp105
I3
aI5
aI30
aI9
asg34
I6
sg35
g36
(g3
tp106
Rp107
sbsS'NSGA2'
p108
g2
(g3
g4
(lp109
(dp110
g7
(F0.067
F2.218
F0.014
I1
I1
tp111
sg9
F0.052127838134765625
sg10
I100
sg11
I0
sa(dp112
g7
g62
sg9
F12.237494945526123
sg10
I100
sg11
I100
sa(dp113
g7
g62
sg9
F24.470581769943237
sg10
I100
sg11
I200
sa(dp114
g7
g62
sg9
F36.67305278778076
sg10
I100
sg11
I300
sa(dp115
g7
g62
sg9
F48.815778970718384
sg10
I100
sg11
I400
sa(dp116
g7
g62
sg9
F60.6913697719574
sg10
I100
sg11
I500
satp117
Rp118
(dp119
g25
I01
sg26
g31
sg32
(lp120
I3
aI5
aI30
aI9
asg34
I6
sg35
g36
(g3
tp121
Rp122
sbsS'IBEA-SIP'
p123
g2
(g3
g4
(lp124
(dp125
g7
(F0.124
F0.823
F0.024
I17
I30
tp126
sg9
F0.09385418891906738
sg10
I100
sg11
I0
sa(dp127
g7
(F0.191
F0.641
F0.065
I73
I100
tp128
sg9
F9.828051090240479
sg10
I100
sg11
I100
sa(dp129
g7
(F0.207
F0.618
F0.074
I78
I100
tp130
sg9
F19.670099020004272
sg10
I100
sg11
I200
sa(dp131
g7
(F0.208
F0.692
F0.078
I75
I100
tp132
sg9
F29.200242042541504
sg10
I100
sg11
I300
sa(dp133
g7
(F0.212
F0.632
F0.081
I82
I100
tp134
sg9
F38.589290142059326
sg10
I100
sg11
I400
sa(dp135
g7
(F0.21
F0.672
F0.084
I82
I100
tp136
sg9
F48.106314182281494
sg10
I100
sg11
I500
satp137
Rp138
(dp139
g25
I01
sg26
g31
sg32
(lp140
I3
aI5
aI30
aI9
asg34
I6
sg35
g36
(g3
tp141
Rp142
sbs.