(dp0
S'NSGA2-SIP'
p1
ccopy_reg
_reconstructor
p2
(cdeap.tools.support
Logbook
p3
c__builtin__
list
p4
(lp5
(dp6
S'hv|spread|igd|frontier#|valid#'
p7
(F0.12
F0.835
F0.027
I18
I31
tp8
sS'timestamp'
p9
F0.10806012153625488
sS'evals'
p10
I100
sS'gen'
p11
I0
sa(dp12
g7
(F0.195
F0.611
F0.056
I98
I100
tp13
sg9
F13.69271206855774
sg10
I100
sg11
I100
sa(dp14
g7
(F0.202
F0.575
F0.062
I97
I100
tp15
sg9
F27.21452808380127
sg10
I100
sg11
I200
sa(dp16
g7
(F0.203
F0.682
F0.063
I98
I100
tp17
sg9
F40.63496208190918
sg10
I100
sg11
I300
sa(dp18
g7
(F0.206
F0.612
F0.063
I96
I100
tp19
sg9
F54.00518798828125
sg10
I100
sg11
I400
sa(dp20
g7
(F0.206
F0.6
F0.065
I98
I100
tp21
sg9
F67.48383712768555
sg10
I100
sg11
I500
satp22
Rp23
(dp24
S'log_header'
p25
I01
sS'header'
p26
(S'gen'
p27
S'evals'
p28
S'hv|spread|igd|frontier#|valid#'
p29
S'timestamp'
p30
tp31
sS'columns_len'
p32
(lp33
I3
aI5
aI30
aI9
asS'buffindex'
p34
I6
sS'chapters'
p35
ccollections
defaultdict
p36
(g3
tp37
Rp38
sbsS'SPEA2-SIP'
p39
g2
(g3
g4
(lp40
(dp41
g7
(F0.113
F0.926
F0.023
I16
I32
tp42
sg9
F0.1017758846282959
sg10
I100
sg11
I0
sa(dp43
g7
(F0.184
F0.656
F0.058
I100
I100
tp44
sg9
F77.49756693840027
sg10
I100
sg11
I100
sa(dp45
g7
(F0.187
F0.638
F0.062
I100
I100
tp46
sg9
F169.58469200134277
sg10
I100
sg11
I200
sa(dp47
g7
(F0.188
F0.655
F0.063
I100
I100
tp48
sg9
F264.82737708091736
sg10
I100
sg11
I300
sa(dp49
g7
(F0.19
F0.642
F0.062
I100
I100
tp50
sg9
F356.1307280063629
sg10
I100
sg11
I400
sa(dp51
g7
(F0.191
F0.623
F0.066
I100
I100
tp52
sg9
F446.61680006980896
sg10
I100
sg11
I500
satp53
Rp54
(dp55
g25
I01
sg26
g31
sg32
(lp56
I3
aI5
aI31
aI9
asg34
I6
sg35
g36
(g3
tp57
Rp58
sbsS'SPEA2'
p59
g2
(g3
g4
(lp60
(dp61
g7
(I0
I0
I0
I0
I0
tp62
sg9
F0.054921865463256836
sg10
I100
sg11
I0
sa(dp63
g7
g62
sg9
F100.4394690990448
sg10
I100
sg11
I100
sa(dp64
g7
g62
sg9
F220.24559807777405
sg10
I100
sg11
I200
sa(dp65
g7
g62
sg9
F343.68871307373047
sg10
I100
sg11
I300
sa(dp66
g7
g62
sg9
F468.80286693573
sg10
I100
sg11
I400
sa(dp67
g7
g62
sg9
F594.0065679550171
sg10
I100
sg11
I500
satp68
Rp69
(dp70
g25
I01
sg26
g31
sg32
(lp71
I3
aI5
aI30
aI9
asg34
I6
sg35
g36
(g3
tp72
Rp73
sbsS'IBEA-PEN'
p74
g2
(g3
g4
(lp75
(dp76
g7
(F0.107
F0.804
F0.029
I20
I31
tp77
sg9
F0.18751001358032227
sg10
I100
sg11
I0
sa(dp78
g7
g62
sg9
F9.87910509109497
sg10
I100
sg11
I100
sa(dp79
g7
g62
sg9
F19.58647608757019
sg10
I100
sg11
I200
sa(dp80
g7
g62
sg9
F29.32259702682495
sg10
I100
sg11
I300
sa(dp81
g7
g62
sg9
F39.08091711997986
sg10
I100
sg11
I400
sa(dp82
g7
g62
sg9
F48.81346607208252
sg10
I100
sg11
I500
satp83
Rp84
(dp85
g25
I01
sg26
g31
sg32
(lp86
I3
aI5
aI30
aI9
asg34
I6
sg35
g36
(g3
tp87
Rp88
sbsS'IBEA'
p89
g2
(g3
g4
(lp90
(dp91
g7
g62
sg9
F0.055448055267333984
sg10
I100
sg11
I0
sa(dp92
g7
g62
sg9
F9.811187982559204
sg10
I100
sg11
I100
sa(dp93
g7
g62
sg9
F19.553600072860718
sg10
I100
sg11
I200
sa(dp94
g7
g62
sg9
F29.283849954605103
sg10
I100
sg11
I300
sa(dp95
g7
g62
sg9
F39.039923906326294
sg10
I100
sg11
I400
sa(dp96
g7
g62
sg9
F48.72100210189819
sg10
I100
sg11
I500
satp97
Rp98
(dp99
g25
I01
sg26
g31
sg32
(lp100
I3
aI5
aI30
aI9
asg34
I6
sg35
g36
(g3
tp101
Rp102
sbsS'NSGA2'
p103
g2
(g3
g4
(lp104
(dp105
g7
(F0.061
F2.185
F0.032
I1
I1
tp106
sg9
F0.05736994743347168
sg10
I100
sg11
I0
sa(dp107
g7
g62
sg9
F13.892210006713867
sg10
I100
sg11
I100
sa(dp108
g7
g62
sg9
F27.769641876220703
sg10
I100
sg11
I200
sa(dp109
g7
g62
sg9
F41.60346508026123
sg10
I100
sg11
I300
sa(dp110
g7
g62
sg9
F55.36071491241455
sg10
I100
sg11
I400
sa(dp111
g7
g62
sg9
F69.22231388092041
sg10
I100
sg11
I500
satp112
Rp113
(dp114
g25
I01
sg26
g31
sg32
(lp115
I3
aI5
aI30
aI9
asg34
I6
sg35
g36
(g3
tp116
Rp117
sbsS'IBEA-SIP'
p118
g2
(g3
g4
(lp119
(dp120
g7
(F0.109
F0.857
F0.027
I17
I26
tp121
sg9
F0.10228300094604492
sg10
I100
sg11
I0
sa(dp122
g7
(F0.197
F0.622
F0.077
I75
I100
tp123
sg9
F10.476367950439453
sg10
I100
sg11
I100
sa(dp124
g7
(F0.208
F0.629
F0.08
I77
I100
tp125
sg9
F20.463632106781006
sg10
I100
sg11
I200
sa(dp126
g7
(F0.209
F0.654
F0.079
I74
I100
tp127
sg9
F30.414695978164673
sg10
I100
sg11
I300
sa(dp128
g7
(F0.21
F0.684
F0.081
I81
I100
tp129
sg9
F40.496108055114746
sg10
I100
sg11
I400
sa(dp130
g7
(F0.215
F0.733
F0.086
I70
I100
tp131
sg9
F50.36827898025513
sg10
I100
sg11
I500
satp132
Rp133
(dp134
g25
I01
sg26
g31
sg32
(lp135
I3
aI5
aI30
aI9
asg34
I6
sg35
g36
(g3
tp136
Rp137
sbs.