(dp0
S'NSGA2-SIP'
p1
ccopy_reg
_reconstructor
p2
(cdeap.tools.support
Logbook
p3
c__builtin__
list
p4
(lp5
(dp6
S'hv|spread|igd|frontier#|valid#'
p7
(F0.119
F0.814
F0.022
I17
I35
tp8
sS'timestamp'
p9
F0.1057288646697998
sS'evals'
p10
I100
sS'gen'
p11
I0
sa(dp12
g7
(F0.188
F0.632
F0.051
I99
I100
tp13
sg9
F13.745625972747803
sg10
I100
sg11
I100
sa(dp14
g7
(F0.199
F0.604
F0.056
I99
I100
tp15
sg9
F27.43880796432495
sg10
I100
sg11
I200
sa(dp16
g7
(F0.202
F0.684
F0.06
I98
I100
tp17
sg9
F41.162801027297974
sg10
I100
sg11
I300
sa(dp18
g7
(F0.202
F0.635
F0.061
I97
I100
tp19
sg9
F54.7629029750824
sg10
I100
sg11
I400
sa(dp20
g7
(F0.202
F0.603
F0.062
I99
I100
tp21
sg9
F68.25710892677307
sg10
I100
sg11
I500
satp22
Rp23
(dp24
S'log_header'
p25
I01
sS'header'
p26
(S'gen'
p27
S'evals'
p28
S'hv|spread|igd|frontier#|valid#'
p29
S'timestamp'
p30
tp31
sS'columns_len'
p32
(lp33
I3
aI5
aI30
aI9
asS'buffindex'
p34
I6
sS'chapters'
p35
ccollections
defaultdict
p36
(g3
tp37
Rp38
sbsS'SPEA2-SIP'
p39
g2
(g3
g4
(lp40
(dp41
g7
(F0.118
F0.74
F0.027
I17
I33
tp42
sg9
F0.10451698303222656
sg10
I100
sg11
I0
sa(dp43
g7
(F0.191
F0.65
F0.064
I100
I100
tp44
sg9
F82.10124707221985
sg10
I100
sg11
I100
sa(dp45
g7
(F0.194
F0.644
F0.066
I100
I100
tp46
sg9
F172.74207210540771
sg10
I100
sg11
I200
sa(dp47
g7
(F0.194
F0.59
F0.065
I100
I100
tp48
sg9
F264.75281596183777
sg10
I100
sg11
I300
sa(dp49
g7
(F0.194
F0.663
F0.066
I100
I100
tp50
sg9
F356.4329810142517
sg10
I100
sg11
I400
sa(dp51
g7
(F0.195
F0.61
F0.065
I100
I100
tp52
sg9
F445.1333999633789
sg10
I100
sg11
I500
satp53
Rp54
(dp55
g25
I01
sg26
g31
sg32
(lp56
I3
aI5
aI31
aI9
asg34
I6
sg35
g36
(g3
tp57
Rp58
sbsS'SPEA2'
p59
g2
(g3
g4
(lp60
(dp61
g7
(I0
I0
I0
I0
I0
tp62
sg9
F0.05705118179321289
sg10
I100
sg11
I0
sa(dp63
g7
g62
sg9
F100.19416308403015
sg10
I100
sg11
I100
sa(dp64
g7
g62
sg9
F220.47582912445068
sg10
I100
sg11
I200
sa(dp65
g7
g62
sg9
F345.1884241104126
sg10
I100
sg11
I300
sa(dp66
g7
g62
sg9
F467.0991370677948
sg10
I100
sg11
I400
sa(dp67
g7
g62
sg9
F588.8372111320496
sg10
I100
sg11
I500
satp68
Rp69
(dp70
g25
I01
sg26
g31
sg32
(lp71
I3
aI5
aI30
aI9
asg34
I6
sg35
g36
(g3
tp72
Rp73
sbsS'IBEA-PEN'
p74
g2
(g3
g4
(lp75
(dp76
g7
(F0.111
F0.769
F0.029
I21
I28
tp77
sg9
F0.19533085823059082
sg10
I100
sg11
I0
sa(dp78
g7
g62
sg9
F10.21110987663269
sg10
I100
sg11
I100
sa(dp79
g7
g62
sg9
F20.190475940704346
sg10
I100
sg11
I200
sa(dp80
g7
g62
sg9
F30.232226848602295
sg10
I100
sg11
I300
sa(dp81
g7
g62
sg9
F40.222113847732544
sg10
I100
sg11
I400
sa(dp82
g7
g62
sg9
F50.25734496116638
sg10
I100
sg11
I500
satp83
Rp84
(dp85
g25
I01
sg26
g31
sg32
(lp86
I3
aI5
aI30
aI9
asg34
I6
sg35
g36
(g3
tp87
Rp88
sbsS'IBEA'
p89
g2
(g3
g4
(lp90
(dp91
g7
(F0.056
F2.227
F0.049
I1
I1
tp92
sg9
F0.05818009376525879
sg10
I100
sg11
I0
sa(dp93
g7
g62
sg9
F9.873977899551392
sg10
I100
sg11
I100
sa(dp94
g7
g62
sg9
F19.739427089691162
sg10
I100
sg11
I200
sa(dp95
g7
g62
sg9
F29.583371877670288
sg10
I100
sg11
I300
sa(dp96
g7
g62
sg9
F39.43032193183899
sg10
I100
sg11
I400
sa(dp97
g7
g62
sg9
F49.30895400047302
sg10
I100
sg11
I500
satp98
Rp99
(dp100
g25
I01
sg26
g31
sg32
(lp101
I3
aI5
aI30
aI9
asg34
I6
sg35
g36
(g3
tp102
Rp103
sbsS'NSGA2'
p104
g2
(g3
g4
(lp105
(dp106
g7
g62
sg9
F0.055207014083862305
sg10
I100
sg11
I0
sa(dp107
g7
g62
sg9
F14.119096040725708
sg10
I100
sg11
I100
sa(dp108
g7
g62
sg9
F28.224246978759766
sg10
I100
sg11
I200
sa(dp109
g7
g62
sg9
F42.31469392776489
sg10
I100
sg11
I300
sa(dp110
g7
g62
sg9
F56.39501690864563
sg10
I100
sg11
I400
sa(dp111
g7
g62
sg9
F70.52462196350098
sg10
I100
sg11
I500
satp112
Rp113
(dp114
g25
I01
sg26
g31
sg32
(lp115
I3
aI5
aI30
aI9
asg34
I6
sg35
g36
(g3
tp116
Rp117
sbsS'IBEA-SIP'
p118
g2
(g3
g4
(lp119
(dp120
g7
(F0.112
F0.864
F0.03
I22
I28
tp121
sg9
F0.12035107612609863
sg10
I100
sg11
I0
sa(dp122
g7
(F0.197
F0.655
F0.069
I75
I100
tp123
sg9
F10.462815046310425
sg10
I100
sg11
I100
sa(dp124
g7
(F0.208
F0.627
F0.081
I76
I100
tp125
sg9
F20.941007137298584
sg10
I100
sg11
I200
sa(dp126
g7
(F0.208
F0.687
F0.082
I80
I100
tp127
sg9
F31.018859148025513
sg10
I100
sg11
I300
sa(dp128
g7
(F0.209
F0.602
F0.086
I74
I100
tp129
sg9
F41.04530119895935
sg10
I100
sg11
I400
sa(dp130
g7
(F0.211
F0.69
F0.081
I70
I100
tp131
sg9
F50.99866700172424
sg10
I100
sg11
I500
satp132
Rp133
(dp134
g25
I01
sg26
g31
sg32
(lp135
I3
aI5
aI30
aI9
asg34
I6
sg35
g36
(g3
tp136
Rp137
sbs.