(dp0
S'NSGA2-SIP'
p1
ccopy_reg
_reconstructor
p2
(cdeap.tools.support
Logbook
p3
c__builtin__
list
p4
(lp5
(dp6
S'hv|spread|igd|frontier#|valid#'
p7
(F0.11
F0.88
F0.026
I12
I26
tp8
sS'timestamp'
p9
F0.07799291610717773
sS'evals'
p10
I100
sS'gen'
p11
I0
sa(dp12
g7
(F0.196
F0.611
F0.061
I99
I100
tp13
sg9
F12.008558988571167
sg10
I100
sg11
I100
sa(dp14
g7
(F0.198
F0.612
F0.061
I98
I100
tp15
sg9
F23.996169090270996
sg10
I100
sg11
I200
sa(dp16
g7
(F0.202
F0.6
F0.065
I98
I100
tp17
sg9
F36.0354061126709
sg10
I100
sg11
I300
sa(dp18
g7
(F0.21
F0.697
F0.064
I99
I100
tp19
sg9
F48.07363200187683
sg10
I100
sg11
I400
sa(dp20
g7
(F0.211
F0.682
F0.068
I99
I100
tp21
sg9
F59.94701313972473
sg10
I100
sg11
I500
satp22
Rp23
(dp24
S'log_header'
p25
I01
sS'header'
p26
(S'gen'
p27
S'evals'
p28
S'hv|spread|igd|frontier#|valid#'
p29
S'timestamp'
p30
tp31
sS'columns_len'
p32
(lp33
I3
aI5
aI30
aI9
asS'buffindex'
p34
I6
sS'chapters'
p35
ccollections
defaultdict
p36
(g3
tp37
Rp38
sbsS'SPEA2-SIP'
p39
g2
(g3
g4
(lp40
(dp41
g7
(F0.12
F0.87
F0.023
I22
I32
tp42
sg9
F0.11113619804382324
sg10
I100
sg11
I0
sa(dp43
g7
(F0.188
F0.644
F0.063
I100
I100
tp44
sg9
F77.9341950416565
sg10
I100
sg11
I100
sa(dp45
g7
(F0.191
F0.588
F0.065
I100
I100
tp46
sg9
F166.85411500930786
sg10
I100
sg11
I200
sa(dp47
g7
(F0.195
F0.63
F0.068
I100
I100
tp48
sg9
F253.84698820114136
sg10
I100
sg11
I300
sa(dp49
g7
(F0.196
F0.555
F0.068
I100
I100
tp50
sg9
F339.3090341091156
sg10
I100
sg11
I400
sa(dp51
g7
(F0.197
F0.618
F0.069
I100
I100
tp52
sg9
F426.4028401374817
sg10
I100
sg11
I500
satp53
Rp54
(dp55
g25
I01
sg26
g31
sg32
(lp56
I3
aI5
aI31
aI9
asg34
I6
sg35
g36
(g3
tp57
Rp58
sbsS'SPEA2'
p59
g2
(g3
g4
(lp60
(dp61
g7
(I0
I0
I0
I0
I0
tp62
sg9
F0.048928022384643555
sg10
I100
sg11
I0
sa(dp63
g7
g62
sg9
F97.38382506370544
sg10
I100
sg11
I100
sa(dp64
g7
g62
sg9
F201.43885803222656
sg10
I100
sg11
I200
sa(dp65
g7
g62
sg9
F316.95207715034485
sg10
I100
sg11
I300
sa(dp66
g7
g62
sg9
F435.379056930542
sg10
I100
sg11
I400
sa(dp67
g7
g62
sg9
F556.5906569957733
sg10
I100
sg11
I500
satp68
Rp69
(dp70
g25
I01
sg26
g31
sg32
(lp71
I3
aI5
aI30
aI9
asg34
I6
sg35
g36
(g3
tp72
Rp73
sbsS'IBEA-PEN'
p74
g2
(g3
g4
(lp75
(dp76
g7
(F0.12
F0.663
F0.03
I21
I35
tp77
sg9
F0.16557002067565918
sg10
I100
sg11
I0
sa(dp78
g7
(F0.202
F0.671
F0.079
I60
I85
tp79
sg9
F13.114911079406738
sg10
I100
sg11
I100
sa(dp80
g7
(F0.205
F0.591
F0.081
I63
I95
tp81
sg9
F26.08093810081482
sg10
I100
sg11
I200
sa(dp82
g7
(F0.207
F0.739
F0.085
I69
I92
tp83
sg9
F39.09080505371094
sg10
I100
sg11
I300
sa(dp84
g7
(F0.207
F0.726
F0.095
I59
I94
tp85
sg9
F52.059152126312256
sg10
I100
sg11
I400
sa(dp86
g7
(F0.209
F0.668
F0.094
I62
I96
tp87
sg9
F65.06048202514648
sg10
I100
sg11
I500
satp88
Rp89
(dp90
g25
I01
sg26
g31
sg32
(lp91
I3
aI5
aI30
aI9
asg34
I6
sg35
g36
(g3
tp92
Rp93
sbsS'IBEA'
p94
g2
(g3
g4
(lp95
(dp96
g7
g62
sg9
F0.04907488822937012
sg10
I100
sg11
I0
sa(dp97
g7
g62
sg9
F9.178689956665039
sg10
I100
sg11
I100
sa(dp98
g7
g62
sg9
F18.327545881271362
sg10
I100
sg11
I200
sa(dp99
g7
g62
sg9
F27.468753814697266
sg10
I100
sg11
I300
sa(dp100
g7
g62
sg9
F36.59944987297058
sg10
I100
sg11
I400
sa(dp101
g7
g62
sg9
F45.708141803741455
sg10
I100
sg11
I500
satp102
Rp103
(dp104
g25
I01
sg26
g31
sg32
(lp105
I3
aI5
aI30
aI9
asg34
I6
sg35
g36
(g3
tp106
Rp107
sbsS'NSGA2'
p108
g2
(g3
g4
(lp109
(dp110
g7
(F0.061
F2.245
F0.03
I1
I1
tp111
sg9
F0.051759958267211914
sg10
I100
sg11
I0
sa(dp112
g7
g62
sg9
F12.112294912338257
sg10
I100
sg11
I100
sa(dp113
g7
g62
sg9
F24.194617986679077
sg10
I100
sg11
I200
sa(dp114
g7
g62
sg9
F36.247742891311646
sg10
I100
sg11
I300
sa(dp115
g7
g62
sg9
F48.22756290435791
sg10
I100
sg11
I400
sa(dp116
g7
g62
sg9
F60.196759939193726
sg10
I100
sg11
I500
satp117
Rp118
(dp119
g25
I01
sg26
g31
sg32
(lp120
I3
aI5
aI30
aI9
asg34
I6
sg35
g36
(g3
tp121
Rp122
sbsS'IBEA-SIP'
p123
g2
(g3
g4
(lp124
(dp125
g7
(F0.106
F0.871
F0.029
I12
I26
tp126
sg9
F0.07838702201843262
sg10
I100
sg11
I0
sa(dp127
g7
(F0.202
F0.631
F0.073
I82
I100
tp128
sg9
F9.89912486076355
sg10
I100
sg11
I100
sa(dp129
g7
(F0.205
F0.694
F0.076
I75
I100
tp130
sg9
F19.650074005126953
sg10
I100
sg11
I200
sa(dp131
g7
(F0.206
F0.591
F0.074
I76
I100
tp132
sg9
F29.03968906402588
sg10
I100
sg11
I300
sa(dp133
g7
(F0.207
F0.689
F0.069
I76
I100
tp134
sg9
F38.413691997528076
sg10
I100
sg11
I400
sa(dp135
g7
(F0.207
F0.678
F0.081
I74
I100
tp136
sg9
F47.68739199638367
sg10
I100
sg11
I500
satp137
Rp138
(dp139
g25
I01
sg26
g31
sg32
(lp140
I3
aI5
aI30
aI9
asg34
I6
sg35
g36
(g3
tp141
Rp142
sbs.