(dp0
S'NSGA2-SIP'
p1
ccopy_reg
_reconstructor
p2
(cdeap.tools.support
Logbook
p3
c__builtin__
list
p4
(lp5
(dp6
S'hv|spread|igd|frontier#|valid#'
p7
(F0.112
F0.892
F0.031
I14
I25
tp8
sS'timestamp'
p9
F0.08833885192871094
sS'evals'
p10
I100
sS'gen'
p11
I0
sa(dp12
g7
(F0.192
F0.643
F0.059
I100
I100
tp13
sg9
F13.102246046066284
sg10
I100
sg11
I100
sa(dp14
g7
(F0.196
F0.674
F0.059
I100
I100
tp15
sg9
F26.30385684967041
sg10
I100
sg11
I200
sa(dp16
g7
(F0.2
F0.643
F0.06
I100
I100
tp17
sg9
F39.51369786262512
sg10
I100
sg11
I300
sa(dp18
g7
(F0.202
F0.638
F0.061
I98
I100
tp19
sg9
F52.436532974243164
sg10
I100
sg11
I400
sa(dp20
g7
(F0.201
F0.693
F0.061
I97
I100
tp21
sg9
F65.20401287078857
sg10
I100
sg11
I500
satp22
Rp23
(dp24
S'log_header'
p25
I01
sS'header'
p26
(S'gen'
p27
S'evals'
p28
S'hv|spread|igd|frontier#|valid#'
p29
S'timestamp'
p30
tp31
sS'columns_len'
p32
(lp33
I3
aI5
aI31
aI9
asS'buffindex'
p34
I6
sS'chapters'
p35
ccollections
defaultdict
p36
(g3
tp37
Rp38
sbsS'SPEA2-SIP'
p39
g2
(g3
g4
(lp40
(dp41
g7
(F0.117
F0.785
F0.023
I12
I23
tp42
sg9
F0.08245301246643066
sg10
I100
sg11
I0
sa(dp43
g7
(F0.2
F0.634
F0.065
I100
I100
tp44
sg9
F81.35092806816101
sg10
I100
sg11
I100
sa(dp45
g7
(F0.204
F0.675
F0.067
I100
I100
tp46
sg9
F173.6306118965149
sg10
I100
sg11
I200
sa(dp47
g7
(F0.206
F0.713
F0.07
I100
I100
tp48
sg9
F265.5981330871582
sg10
I100
sg11
I300
sa(dp49
g7
(F0.207
F0.592
F0.072
I100
I100
tp50
sg9
F356.942626953125
sg10
I100
sg11
I400
sa(dp51
g7
(F0.206
F0.642
F0.07
I100
I100
tp52
sg9
F447.41835498809814
sg10
I100
sg11
I500
satp53
Rp54
(dp55
g25
I01
sg26
g31
sg32
(lp56
I3
aI5
aI31
aI9
asg34
I6
sg35
g36
(g3
tp57
Rp58
sbsS'SPEA2'
p59
g2
(g3
g4
(lp60
(dp61
g7
(F0.079
F0.953
F0.042
I2
I2
tp62
sg9
F0.05804896354675293
sg10
I100
sg11
I0
sa(dp63
g7
(I0
I0
I0
I0
I0
tp64
sg9
F96.3194010257721
sg10
I100
sg11
I100
sa(dp65
g7
g64
sg9
F224.56728887557983
sg10
I100
sg11
I200
sa(dp66
g7
g64
sg9
F356.33639097213745
sg10
I100
sg11
I300
sa(dp67
g7
g64
sg9
F479.6147439479828
sg10
I100
sg11
I400
sa(dp68
g7
g64
sg9
F605.3567578792572
sg10
I100
sg11
I500
satp69
Rp70
(dp71
g25
I01
sg26
g31
sg32
(lp72
I3
aI5
aI30
aI9
asg34
I6
sg35
g36
(g3
tp73
Rp74
sbsS'IBEA'
p75
g2
(g3
g4
(lp76
(dp77
g7
g64
sg9
F0.051856040954589844
sg10
I100
sg11
I0
sa(dp78
g7
g64
sg9
F9.713829040527344
sg10
I100
sg11
I100
sa(dp79
g7
g64
sg9
F19.427234172821045
sg10
I100
sg11
I200
sa(dp80
g7
g64
sg9
F29.14041805267334
sg10
I100
sg11
I300
sa(dp81
g7
g64
sg9
F38.82398319244385
sg10
I100
sg11
I400
sa(dp82
g7
g64
sg9
F48.49285912513733
sg10
I100
sg11
I500
satp83
Rp84
(dp85
g25
I01
sg26
g31
sg32
(lp86
I3
aI5
aI30
aI9
asg34
I6
sg35
g36
(g3
tp87
Rp88
sbsS'NSGA2'
p89
g2
(g3
g4
(lp90
(dp91
g7
g64
sg9
F0.05205392837524414
sg10
I100
sg11
I0
sa(dp92
g7
g64
sg9
F12.878696918487549
sg10
I100
sg11
I100
sa(dp93
g7
g64
sg9
F25.670098066329956
sg10
I100
sg11
I200
sa(dp94
g7
g64
sg9
F38.4694709777832
sg10
I100
sg11
I300
sa(dp95
g7
g64
sg9
F51.29783296585083
sg10
I100
sg11
I400
sa(dp96
g7
g64
sg9
F64.18108296394348
sg10
I100
sg11
I500
satp97
Rp98
(dp99
g25
I01
sg26
g31
sg32
(lp100
I3
aI5
aI30
aI9
asg34
I6
sg35
g36
(g3
tp101
Rp102
sbsS'IBEA-SIP'
p103
g2
(g3
g4
(lp104
(dp105
g7
(F0.105
F0.834
F0.037
I13
I22
tp106
sg9
F0.08349609375
sg10
I100
sg11
I0
sa(dp107
g7
(F0.195
F0.625
F0.069
I72
I100
tp108
sg9
F9.88273310661316
sg10
I100
sg11
I100
sa(dp109
g7
(F0.198
F0.663
F0.073
I64
I100
tp110
sg9
F19.67989993095398
sg10
I100
sg11
I200
sa(dp111
g7
(F0.207
F0.676
F0.075
I77
I100
tp112
sg9
F29.62286400794983
sg10
I100
sg11
I300
sa(dp113
g7
(F0.208
F0.605
F0.075
I79
I100
tp114
sg9
F39.64828109741211
sg10
I100
sg11
I400
sa(dp115
g7
(F0.208
F0.685
F0.073
I79
I100
tp116
sg9
F49.53908705711365
sg10
I100
sg11
I500
satp117
Rp118
(dp119
g25
I01
sg26
g31
sg32
(lp120
I3
aI5
aI30
aI9
asg34
I6
sg35
g36
(g3
tp121
Rp122
sbs.