(dp0
S'NSGA2-SIP'
p1
ccopy_reg
_reconstructor
p2
(cdeap.tools.support
Logbook
p3
c__builtin__
list
p4
(lp5
(dp6
S'hv|spread|igd|frontier#|valid#'
p7
(F0.124
F0.856
F0.032
I13
I20
tp8
sS'timestamp'
p9
F0.07108783721923828
sS'evals'
p10
I100
sS'gen'
p11
I0
sa(dp12
g7
(F0.195
F0.593
F0.058
I99
I100
tp13
sg9
F10.988322019577026
sg10
I100
sg11
I100
sa(dp14
g7
(F0.205
F0.612
F0.065
I100
I100
tp15
sg9
F21.988202810287476
sg10
I100
sg11
I200
sa(dp16
g7
(F0.206
F0.558
F0.066
I98
I100
tp17
sg9
F32.862143993377686
sg10
I100
sg11
I300
sa(dp18
g7
(F0.206
F0.598
F0.066
I98
I100
tp19
sg9
F43.7184898853302
sg10
I100
sg11
I400
sa(dp20
g7
(F0.207
F0.604
F0.064
I99
I100
tp21
sg9
F54.637640953063965
sg10
I100
sg11
I500
satp22
Rp23
(dp24
S'log_header'
p25
I01
sS'header'
p26
(S'gen'
p27
S'evals'
p28
S'hv|spread|igd|frontier#|valid#'
p29
S'timestamp'
p30
tp31
sS'columns_len'
p32
(lp33
I3
aI5
aI31
aI9
asS'buffindex'
p34
I6
sS'chapters'
p35
ccollections
defaultdict
p36
(g3
tp37
Rp38
sbsS'SPEA2-SIP'
p39
g2
(g3
g4
(lp40
(dp41
g7
(F0.134
F0.925
F0.04
I16
I37
tp42
sg9
F0.08396196365356445
sg10
I100
sg11
I0
sa(dp43
g7
(F0.201
F0.567
F0.068
I100
I100
tp44
sg9
F68.28980994224548
sg10
I100
sg11
I100
sa(dp45
g7
(F0.207
F0.653
F0.07
I100
I100
tp46
sg9
F144.85549807548523
sg10
I100
sg11
I200
sa(dp47
g7
(F0.209
F0.623
F0.068
I100
I100
tp48
sg9
F220.56608295440674
sg10
I100
sg11
I300
sa(dp49
g7
(F0.208
F0.65
F0.07
I100
I100
tp50
sg9
F294.630450963974
sg10
I100
sg11
I400
sa(dp51
g7
(F0.208
F0.633
F0.067
I100
I100
tp52
sg9
F369.43208289146423
sg10
I100
sg11
I500
satp53
Rp54
(dp55
g25
I01
sg26
g31
sg32
(lp56
I3
aI5
aI31
aI9
asg34
I6
sg35
g36
(g3
tp57
Rp58
sbsS'SPEA2'
p59
g2
(g3
g4
(lp60
(dp61
g7
(I0
I0
I0
I0
I0
tp62
sg9
F0.04508495330810547
sg10
I100
sg11
I0
sa(dp63
g7
g62
sg9
F82.50355696678162
sg10
I100
sg11
I100
sa(dp64
g7
g62
sg9
F188.6647961139679
sg10
I100
sg11
I200
sa(dp65
g7
g62
sg9
F294.729327917099
sg10
I100
sg11
I300
sa(dp66
g7
g62
sg9
F402.33176708221436
sg10
I100
sg11
I400
sa(dp67
g7
g62
sg9
F519.6419410705566
sg10
I100
sg11
I500
satp68
Rp69
(dp70
g25
I01
sg26
g31
sg32
(lp71
I3
aI5
aI30
aI9
asg34
I6
sg35
g36
(g3
tp72
Rp73
sbsS'IBEA'
p74
g2
(g3
g4
(lp75
(dp76
g7
g62
sg9
F0.04474306106567383
sg10
I100
sg11
I0
sa(dp77
g7
g62
sg9
F8.478913068771362
sg10
I100
sg11
I100
sa(dp78
g7
g62
sg9
F16.880894899368286
sg10
I100
sg11
I200
sa(dp79
g7
g62
sg9
F25.289735078811646
sg10
I100
sg11
I300
sa(dp80
g7
g62
sg9
F33.68221688270569
sg10
I100
sg11
I400
sa(dp81
g7
g62
sg9
F42.12516903877258
sg10
I100
sg11
I500
satp82
Rp83
(dp84
g25
I01
sg26
g31
sg32
(lp85
I3
aI5
aI30
aI9
asg34
I6
sg35
g36
(g3
tp86
Rp87
sbsS'NSGA2'
p88
g2
(g3
g4
(lp89
(dp90
g7
(F0.071
F2.21
F0.024
I1
I1
tp91
sg9
F0.04711008071899414
sg10
I100
sg11
I0
sa(dp92
g7
g62
sg9
F11.123396158218384
sg10
I100
sg11
I100
sa(dp93
g7
g62
sg9
F22.23733115196228
sg10
I100
sg11
I200
sa(dp94
g7
g62
sg9
F33.355977058410645
sg10
I100
sg11
I300
sa(dp95
g7
g62
sg9
F44.43798017501831
sg10
I100
sg11
I400
sa(dp96
g7
g62
sg9
F55.43832802772522
sg10
I100
sg11
I500
satp97
Rp98
(dp99
g25
I01
sg26
g31
sg32
(lp100
I3
aI5
aI30
aI9
asg34
I6
sg35
g36
(g3
tp101
Rp102
sbsS'IBEA-SIP'
p103
g2
(g3
g4
(lp104
(dp105
g7
(F0.117
F0.953
F0.032
I17
I22
tp106
sg9
F0.08247685432434082
sg10
I100
sg11
I0
sa(dp107
g7
(F0.201
F0.621
F0.075
I67
I100
tp108
sg9
F8.427901983261108
sg10
I100
sg11
I100
sa(dp109
g7
(F0.206
F0.763
F0.082
I78
I100
tp110
sg9
F17.011805057525635
sg10
I100
sg11
I200
sa(dp111
g7
(F0.209
F0.62
F0.089
I73
I100
tp112
sg9
F25.600430965423584
sg10
I100
sg11
I300
sa(dp113
g7
(F0.212
F0.636
F0.085
I77
I100
tp114
sg9
F34.20531892776489
sg10
I100
sg11
I400
sa(dp115
g7
(F0.208
F0.557
F0.078
I72
I100
tp116
sg9
F42.69226884841919
sg10
I100
sg11
I500
satp117
Rp118
(dp119
g25
I01
sg26
g31
sg32
(lp120
I3
aI5
aI30
aI9
asg34
I6
sg35
g36
(g3
tp121
Rp122
sbs.