(dp0
S'NSGA2-SIP'
p1
ccopy_reg
_reconstructor
p2
(cdeap.tools.support
Logbook
p3
c__builtin__
list
p4
(lp5
(dp6
S'hv|spread|igd|frontier#|valid#'
p7
(F0.118
F0.857
F0.029
I20
I31
tp8
sS'timestamp'
p9
F0.1164560317993164
sS'evals'
p10
I100
sS'gen'
p11
I0
sa(dp12
g7
(F0.194
F0.597
F0.06
I99
I100
tp13
sg9
F14.12778115272522
sg10
I100
sg11
I100
sa(dp14
g7
(F0.199
F0.585
F0.061
I98
I100
tp15
sg9
F28.237619161605835
sg10
I100
sg11
I200
sa(dp16
g7
(F0.203
F0.671
F0.064
I100
I100
tp17
sg9
F42.134824991226196
sg10
I100
sg11
I300
sa(dp18
g7
(F0.204
F0.664
F0.063
I99
I100
tp19
sg9
F55.79043912887573
sg10
I100
sg11
I400
sa(dp20
g7
(F0.205
F0.636
F0.066
I98
I100
tp21
sg9
F69.36176300048828
sg10
I100
sg11
I500
satp22
Rp23
(dp24
S'log_header'
p25
I01
sS'header'
p26
(S'gen'
p27
S'evals'
p28
S'hv|spread|igd|frontier#|valid#'
p29
S'timestamp'
p30
tp31
sS'columns_len'
p32
(lp33
I3
aI5
aI31
aI9
asS'buffindex'
p34
I6
sS'chapters'
p35
ccollections
defaultdict
p36
(g3
tp37
Rp38
sbsS'SPEA2-SIP'
p39
g2
(g3
g4
(lp40
(dp41
g7
(F0.112
F0.847
F0.033
I18
I22
tp42
sg9
F0.10624217987060547
sg10
I100
sg11
I0
sa(dp43
g7
(F0.191
F0.63
F0.063
I100
I100
tp44
sg9
F79.53906416893005
sg10
I100
sg11
I100
sa(dp45
g7
(F0.194
F0.609
F0.064
I100
I100
tp46
sg9
F170.03671598434448
sg10
I100
sg11
I200
sa(dp47
g7
(F0.196
F0.615
F0.067
I100
I100
tp48
sg9
F261.04279017448425
sg10
I100
sg11
I300
sa(dp49
g7
(F0.196
F0.584
F0.065
I100
I100
tp50
sg9
F351.9331569671631
sg10
I100
sg11
I400
sa(dp51
g7
(F0.196
F0.63
F0.067
I100
I100
tp52
sg9
F439.67183804512024
sg10
I100
sg11
I500
satp53
Rp54
(dp55
g25
I01
sg26
g31
sg32
(lp56
I3
aI5
aI31
aI9
asg34
I6
sg35
g36
(g3
tp57
Rp58
sbsS'SPEA2'
p59
g2
(g3
g4
(lp60
(dp61
g7
(F0.059
F2.227
F0.024
I1
I1
tp62
sg9
F0.05863499641418457
sg10
I100
sg11
I0
sa(dp63
g7
(I0
I0
I0
I0
I0
tp64
sg9
F91.1062421798706
sg10
I100
sg11
I100
sa(dp65
g7
g64
sg9
F207.56028604507446
sg10
I100
sg11
I200
sa(dp66
g7
g64
sg9
F330.8867311477661
sg10
I100
sg11
I300
sa(dp67
g7
g64
sg9
F460.56970620155334
sg10
I100
sg11
I400
sa(dp68
g7
g64
sg9
F585.996199131012
sg10
I100
sg11
I500
satp69
Rp70
(dp71
g25
I01
sg26
g31
sg32
(lp72
I3
aI5
aI30
aI9
asg34
I6
sg35
g36
(g3
tp73
Rp74
sbsS'IBEA-PEN'
p75
g2
(g3
g4
(lp76
(dp77
g7
(F0.12
F0.768
F0.026
I20
I39
tp78
sg9
F0.18941497802734375
sg10
I100
sg11
I0
sa(dp79
g7
g64
sg9
F10.121812105178833
sg10
I100
sg11
I100
sa(dp80
g7
g64
sg9
F20.054532051086426
sg10
I100
sg11
I200
sa(dp81
g7
g64
sg9
F29.86260199546814
sg10
I100
sg11
I300
sa(dp82
g7
g64
sg9
F39.647221088409424
sg10
I100
sg11
I400
sa(dp83
g7
g64
sg9
F49.45849609375
sg10
I100
sg11
I500
satp84
Rp85
(dp86
g25
I01
sg26
g31
sg32
(lp87
I3
aI5
aI30
aI9
asg34
I6
sg35
g36
(g3
tp88
Rp89
sbsS'IBEA'
p90
g2
(g3
g4
(lp91
(dp92
g7
g64
sg9
F0.05330395698547363
sg10
I100
sg11
I0
sa(dp93
g7
g64
sg9
F9.608903884887695
sg10
I100
sg11
I100
sa(dp94
g7
g64
sg9
F19.229902982711792
sg10
I100
sg11
I200
sa(dp95
g7
g64
sg9
F28.825143814086914
sg10
I100
sg11
I300
sa(dp96
g7
g64
sg9
F38.39134478569031
sg10
I100
sg11
I400
sa(dp97
g7
g64
sg9
F47.97811794281006
sg10
I100
sg11
I500
satp98
Rp99
(dp100
g25
I01
sg26
g31
sg32
(lp101
I3
aI5
aI30
aI9
asg34
I6
sg35
g36
(g3
tp102
Rp103
sbsS'NSGA2'
p104
g2
(g3
g4
(lp105
(dp106
g7
g64
sg9
F0.053468942642211914
sg10
I100
sg11
I0
sa(dp107
g7
g64
sg9
F13.921297073364258
sg10
I100
sg11
I100
sa(dp108
g7
g64
sg9
F27.817403078079224
sg10
I100
sg11
I200
sa(dp109
g7
g64
sg9
F41.660813093185425
sg10
I100
sg11
I300
sa(dp110
g7
g64
sg9
F55.567490100860596
sg10
I100
sg11
I400
sa(dp111
g7
g64
sg9
F69.42206907272339
sg10
I100
sg11
I500
satp112
Rp113
(dp114
g25
I01
sg26
g31
sg32
(lp115
I3
aI5
aI30
aI9
asg34
I6
sg35
g36
(g3
tp116
Rp117
sbsS'IBEA-SIP'
p118
g2
(g3
g4
(lp119
(dp120
g7
(F0.12
F0.876
F0.033
I17
I30
tp121
sg9
F0.10367989540100098
sg10
I100
sg11
I0
sa(dp122
g7
(F0.195
F0.634
F0.064
I69
I100
tp123
sg9
F9.88140082359314
sg10
I100
sg11
I100
sa(dp124
g7
(F0.205
F0.638
F0.078
I72
I100
tp125
sg9
F19.775301933288574
sg10
I100
sg11
I200
sa(dp126
g7
(F0.209
F0.688
F0.082
I76
I100
tp127
sg9
F29.711460828781128
sg10
I100
sg11
I300
sa(dp128
g7
(F0.209
F0.618
F0.081
I75
I100
tp129
sg9
F39.71414089202881
sg10
I100
sg11
I400
sa(dp130
g7
(F0.213
F0.601
F0.079
I77
I100
tp131
sg9
F49.78108096122742
sg10
I100
sg11
I500
satp132
Rp133
(dp134
g25
I01
sg26
g31
sg32
(lp135
I3
aI5
aI30
aI9
asg34
I6
sg35
g36
(g3
tp136
Rp137
sbs.