(dp0
S'NSGA2-SIP'
p1
ccopy_reg
_reconstructor
p2
(cdeap.tools.support
Logbook
p3
c__builtin__
list
p4
(lp5
(dp6
S'hv|spread|igd|frontier#|valid#'
p7
(F0.108
F0.802
F0.033
I17
I22
tp8
sS'timestamp'
p9
F0.08182001113891602
sS'evals'
p10
I100
sS'gen'
p11
I0
sa(dp12
g7
(F0.194
F0.637
F0.059
I100
I100
tp13
sg9
F10.986701011657715
sg10
I100
sg11
I100
sa(dp14
g7
(F0.198
F0.556
F0.062
I98
I100
tp15
sg9
F21.822992086410522
sg10
I100
sg11
I200
sa(dp16
g7
(F0.204
F0.628
F0.063
I99
I100
tp17
sg9
F32.63175702095032
sg10
I100
sg11
I300
sa(dp18
g7
(F0.205
F0.624
F0.061
I98
I100
tp19
sg9
F43.292860984802246
sg10
I100
sg11
I400
sa(dp20
g7
(F0.206
F0.602
F0.064
I98
I100
tp21
sg9
F54.03895711898804
sg10
I100
sg11
I500
satp22
Rp23
(dp24
S'log_header'
p25
I01
sS'header'
p26
(S'gen'
p27
S'evals'
p28
S'hv|spread|igd|frontier#|valid#'
p29
S'timestamp'
p30
tp31
sS'columns_len'
p32
(lp33
I3
aI5
aI31
aI9
asS'buffindex'
p34
I6
sS'chapters'
p35
ccollections
defaultdict
p36
(g3
tp37
Rp38
sbsS'SPEA2-SIP'
p39
g2
(g3
g4
(lp40
(dp41
g7
(F0.115
F0.856
F0.025
I14
I23
tp42
sg9
F0.0743250846862793
sg10
I100
sg11
I0
sa(dp43
g7
(F0.193
F0.545
F0.066
I100
I100
tp44
sg9
F71.24759006500244
sg10
I100
sg11
I100
sa(dp45
g7
(F0.201
F0.698
F0.07
I100
I100
tp46
sg9
F149.01442408561707
sg10
I100
sg11
I200
sa(dp47
g7
(F0.202
F0.58
F0.07
I100
I100
tp48
sg9
F226.4566559791565
sg10
I100
sg11
I300
sa(dp49
g7
(F0.204
F0.627
F0.069
I100
I100
tp50
sg9
F302.0882270336151
sg10
I100
sg11
I400
sa(dp51
g7
(F0.205
F0.634
F0.07
I100
I100
tp52
sg9
F380.1721398830414
sg10
I100
sg11
I500
satp53
Rp54
(dp55
g25
I01
sg26
g31
sg32
(lp56
I3
aI5
aI31
aI9
asg34
I6
sg35
g36
(g3
tp57
Rp58
sbsS'SPEA2'
p59
g2
(g3
g4
(lp60
(dp61
g7
(I0
I0
I0
I0
I0
tp62
sg9
F0.044937849044799805
sg10
I100
sg11
I0
sa(dp63
g7
g62
sg9
F92.21246790885925
sg10
I100
sg11
I100
sa(dp64
g7
g62
sg9
F203.08146786689758
sg10
I100
sg11
I200
sa(dp65
g7
g62
sg9
F305.6743378639221
sg10
I100
sg11
I300
sa(dp66
g7
g62
sg9
F411.49289202690125
sg10
I100
sg11
I400
sa(dp67
g7
g62
sg9
F518.100301027298
sg10
I100
sg11
I500
satp68
Rp69
(dp70
g25
I01
sg26
g31
sg32
(lp71
I3
aI5
aI30
aI9
asg34
I6
sg35
g36
(g3
tp72
Rp73
sbsS'IBEA'
p74
g2
(g3
g4
(lp75
(dp76
g7
(F0.066
F2.227
F0.02
I1
I1
tp77
sg9
F0.046952009201049805
sg10
I100
sg11
I0
sa(dp78
g7
g62
sg9
F8.489657878875732
sg10
I100
sg11
I100
sa(dp79
g7
g62
sg9
F16.995011806488037
sg10
I100
sg11
I200
sa(dp80
g7
g62
sg9
F25.43107295036316
sg10
I100
sg11
I300
sa(dp81
g7
g62
sg9
F33.86557698249817
sg10
I100
sg11
I400
sa(dp82
g7
g62
sg9
F42.31819200515747
sg10
I100
sg11
I500
satp83
Rp84
(dp85
g25
I01
sg26
g31
sg32
(lp86
I3
aI5
aI30
aI9
asg34
I6
sg35
g36
(g3
tp87
Rp88
sbsS'NSGA2'
p89
g2
(g3
g4
(lp90
(dp91
g7
g62
sg9
F0.04465603828430176
sg10
I100
sg11
I0
sa(dp92
g7
g62
sg9
F11.007978916168213
sg10
I100
sg11
I100
sa(dp93
g7
g62
sg9
F21.981935024261475
sg10
I100
sg11
I200
sa(dp94
g7
g62
sg9
F32.970978021621704
sg10
I100
sg11
I300
sa(dp95
g7
g62
sg9
F43.911465883255005
sg10
I100
sg11
I400
sa(dp96
g7
g62
sg9
F54.83559489250183
sg10
I100
sg11
I500
satp97
Rp98
(dp99
g25
I01
sg26
g31
sg32
(lp100
I3
aI5
aI30
aI9
asg34
I6
sg35
g36
(g3
tp101
Rp102
sbsS'IBEA-SIP'
p103
g2
(g3
g4
(lp104
(dp105
g7
(F0.11
F0.921
F0.033
I12
I25
tp106
sg9
F0.06996297836303711
sg10
I100
sg11
I0
sa(dp107
g7
(F0.201
F0.649
F0.072
I73
I100
tp108
sg9
F8.94996190071106
sg10
I100
sg11
I100
sa(dp109
g7
(F0.204
F0.663
F0.083
I71
I100
tp110
sg9
F18.005981922149658
sg10
I100
sg11
I200
sa(dp111
g7
(F0.21
F0.678
F0.082
I74
I100
tp112
sg9
F26.633485078811646
sg10
I100
sg11
I300
sa(dp113
g7
(F0.212
F0.64
F0.083
I80
I100
tp114
sg9
F35.321752071380615
sg10
I100
sg11
I400
sa(dp115
g7
(F0.21
F0.579
F0.082
I80
I100
tp116
sg9
F44.01031804084778
sg10
I100
sg11
I500
satp117
Rp118
(dp119
g25
I01
sg26
g31
sg32
(lp120
I3
aI5
aI30
aI9
asg34
I6
sg35
g36
(g3
tp121
Rp122
sbs.