(dp0
S'NSGA2-SIP'
p1
ccopy_reg
_reconstructor
p2
(cdeap.tools.support
Logbook
p3
c__builtin__
list
p4
(lp5
(dp6
S'hv|spread|igd|frontier#|valid#'
p7
(F0.105
F0.843
F0.027
I13
I22
tp8
sS'timestamp'
p9
F0.08777213096618652
sS'evals'
p10
I100
sS'gen'
p11
I0
sa(dp12
g7
(F0.19
F0.647
F0.059
I99
I100
tp13
sg9
F13.47111201286316
sg10
I100
sg11
I100
sa(dp14
g7
(F0.2
F0.599
F0.059
I99
I100
tp15
sg9
F27.015318155288696
sg10
I100
sg11
I200
sa(dp16
g7
(F0.203
F0.58
F0.062
I100
I100
tp17
sg9
F40.53911113739014
sg10
I100
sg11
I300
sa(dp18
g7
(F0.204
F0.626
F0.065
I99
I100
tp19
sg9
F54.008317947387695
sg10
I100
sg11
I400
sa(dp20
g7
(F0.204
F0.626
F0.064
I99
I100
tp21
sg9
F67.4737811088562
sg10
I100
sg11
I500
satp22
Rp23
(dp24
S'log_header'
p25
I01
sS'header'
p26
(S'gen'
p27
S'evals'
p28
S'hv|spread|igd|frontier#|valid#'
p29
S'timestamp'
p30
tp31
sS'columns_len'
p32
(lp33
I3
aI5
aI30
aI9
asS'buffindex'
p34
I6
sS'chapters'
p35
ccollections
defaultdict
p36
(g3
tp37
Rp38
sbsS'SPEA2-SIP'
p39
g2
(g3
g4
(lp40
(dp41
g7
(F0.123
F0.836
F0.033
I19
I30
tp42
sg9
F0.10934281349182129
sg10
I100
sg11
I0
sa(dp43
g7
(F0.194
F0.704
F0.066
I100
I100
tp44
sg9
F81.98468494415283
sg10
I100
sg11
I100
sa(dp45
g7
(F0.197
F0.664
F0.067
I100
I100
tp46
sg9
F173.69153094291687
sg10
I100
sg11
I200
sa(dp47
g7
(F0.199
F0.58
F0.065
I100
I100
tp48
sg9
F264.2598729133606
sg10
I100
sg11
I300
sa(dp49
g7
(F0.201
F0.671
F0.066
I100
I100
tp50
sg9
F354.47760486602783
sg10
I100
sg11
I400
sa(dp51
g7
(F0.208
F0.711
F0.068
I100
I100
tp52
sg9
F447.9606029987335
sg10
I100
sg11
I500
satp53
Rp54
(dp55
g25
I01
sg26
g31
sg32
(lp56
I3
aI5
aI31
aI9
asg34
I6
sg35
g36
(g3
tp57
Rp58
sbsS'SPEA2'
p59
g2
(g3
g4
(lp60
(dp61
g7
(I0
I0
I0
I0
I0
tp62
sg9
F0.054354190826416016
sg10
I100
sg11
I0
sa(dp63
g7
g62
sg9
F98.96660017967224
sg10
I100
sg11
I100
sa(dp64
g7
g62
sg9
F225.2845799922943
sg10
I100
sg11
I200
sa(dp65
g7
g62
sg9
F363.88730216026306
sg10
I100
sg11
I300
sa(dp66
g7
g62
sg9
F501.73353719711304
sg10
I100
sg11
I400
sa(dp67
g7
g62
sg9
F646.0037820339203
sg10
I100
sg11
I500
satp68
Rp69
(dp70
g25
I01
sg26
g31
sg32
(lp71
I3
aI5
aI30
aI9
asg34
I6
sg35
g36
(g3
tp72
Rp73
sbsS'IBEA-PEN'
p74
g2
(g3
g4
(lp75
(dp76
g7
(F0.092
F0.84
F0.034
I28
I40
tp77
sg9
F0.22437310218811035
sg10
I100
sg11
I0
sa(dp78
g7
g62
sg9
F10.13793420791626
sg10
I100
sg11
I100
sa(dp79
g7
g62
sg9
F19.9929621219635
sg10
I100
sg11
I200
sa(dp80
g7
g62
sg9
F29.828328132629395
sg10
I100
sg11
I300
sa(dp81
g7
g62
sg9
F39.63279318809509
sg10
I100
sg11
I400
sa(dp82
g7
g62
sg9
F49.69779419898987
sg10
I100
sg11
I500
satp83
Rp84
(dp85
g25
I01
sg26
g31
sg32
(lp86
I3
aI5
aI30
aI9
asg34
I6
sg35
g36
(g3
tp87
Rp88
sbsS'IBEA'
p89
g2
(g3
g4
(lp90
(dp91
g7
(F0.065
F2.227
F0.024
I1
I1
tp92
sg9
F0.05842995643615723
sg10
I100
sg11
I0
sa(dp93
g7
g62
sg9
F9.725693941116333
sg10
I100
sg11
I100
sa(dp94
g7
g62
sg9
F19.44833993911743
sg10
I100
sg11
I200
sa(dp95
g7
g62
sg9
F29.19945502281189
sg10
I100
sg11
I300
sa(dp96
g7
g62
sg9
F38.95644402503967
sg10
I100
sg11
I400
sa(dp97
g7
g62
sg9
F48.69363808631897
sg10
I100
sg11
I500
satp98
Rp99
(dp100
g25
I01
sg26
g31
sg32
(lp101
I3
aI5
aI30
aI9
asg34
I6
sg35
g36
(g3
tp102
Rp103
sbsS'NSGA2'
p104
g2
(g3
g4
(lp105
(dp106
g7
g62
sg9
F0.05414390563964844
sg10
I100
sg11
I0
sa(dp107
g7
g62
sg9
F13.921742916107178
sg10
I100
sg11
I100
sa(dp108
g7
g62
sg9
F27.79305601119995
sg10
I100
sg11
I200
sa(dp109
g7
g62
sg9
F41.622304916381836
sg10
I100
sg11
I300
sa(dp110
g7
g62
sg9
F55.449548959732056
sg10
I100
sg11
I400
sa(dp111
g7
g62
sg9
F69.20150589942932
sg10
I100
sg11
I500
satp112
Rp113
(dp114
g25
I01
sg26
g31
sg32
(lp115
I3
aI5
aI30
aI9
asg34
I6
sg35
g36
(g3
tp116
Rp117
sbsS'IBEA-SIP'
p118
g2
(g3
g4
(lp119
(dp120
g7
(F0.114
F0.799
F0.025
I15
I30
tp121
sg9
F0.09559798240661621
sg10
I100
sg11
I0
sa(dp122
g7
(F0.199
F0.717
F0.073
I76
I100
tp123
sg9
F10.33732008934021
sg10
I100
sg11
I100
sa(dp124
g7
(F0.206
F0.613
F0.078
I75
I100
tp125
sg9
F20.711733102798462
sg10
I100
sg11
I200
sa(dp126
g7
(F0.208
F0.591
F0.081
I84
I100
tp127
sg9
F31.2032470703125
sg10
I100
sg11
I300
sa(dp128
g7
(F0.21
F0.622
F0.085
I71
I100
tp129
sg9
F41.52321219444275
sg10
I100
sg11
I400
sa(dp130
g7
(F0.212
F0.646
F0.085
I72
I100
tp131
sg9
F51.41916012763977
sg10
I100
sg11
I500
satp132
Rp133
(dp134
g25
I01
sg26
g31
sg32
(lp135
I3
aI5
aI30
aI9
asg34
I6
sg35
g36
(g3
tp136
Rp137
sbs.