(dp0
S'NSGA2-SIP'
p1
ccopy_reg
_reconstructor
p2
(cdeap.tools.support
Logbook
p3
c__builtin__
list
p4
(lp5
(dp6
S'hv|spread|igd|frontier#|valid#'
p7
(F0.115
F0.856
F0.033
I12
I33
tp8
sS'timestamp'
p9
F0.07885503768920898
sS'evals'
p10
I100
sS'gen'
p11
I0
sa(dp12
g7
(F0.197
F0.593
F0.061
I99
I100
tp13
sg9
F12.480060815811157
sg10
I100
sg11
I100
sa(dp14
g7
(F0.205
F0.629
F0.066
I100
I100
tp15
sg9
F24.79807996749878
sg10
I100
sg11
I200
sa(dp16
g7
(F0.208
F0.617
F0.065
I99
I100
tp17
sg9
F36.89437794685364
sg10
I100
sg11
I300
sa(dp18
g7
(F0.209
F0.642
F0.067
I99
I100
tp19
sg9
F48.902642011642456
sg10
I100
sg11
I400
sa(dp20
g7
(F0.209
F0.572
F0.068
I99
I100
tp21
sg9
F60.90146088600159
sg10
I100
sg11
I500
satp22
Rp23
(dp24
S'log_header'
p25
I01
sS'header'
p26
(S'gen'
p27
S'evals'
p28
S'hv|spread|igd|frontier#|valid#'
p29
S'timestamp'
p30
tp31
sS'columns_len'
p32
(lp33
I3
aI5
aI31
aI9
asS'buffindex'
p34
I6
sS'chapters'
p35
ccollections
defaultdict
p36
(g3
tp37
Rp38
sbsS'SPEA2-SIP'
p39
g2
(g3
g4
(lp40
(dp41
g7
(F0.116
F0.95
F0.029
I19
I33
tp42
sg9
F0.10040593147277832
sg10
I100
sg11
I0
sa(dp43
g7
(F0.189
F0.64
F0.063
I100
I100
tp44
sg9
F74.62416291236877
sg10
I100
sg11
I100
sa(dp45
g7
(F0.195
F0.684
F0.066
I100
I100
tp46
sg9
F158.38709688186646
sg10
I100
sg11
I200
sa(dp47
g7
(F0.196
F0.609
F0.068
I100
I100
tp48
sg9
F243.53163886070251
sg10
I100
sg11
I300
sa(dp49
g7
(F0.206
F0.616
F0.069
I100
I100
tp50
sg9
F330.277174949646
sg10
I100
sg11
I400
sa(dp51
g7
(F0.207
F0.568
F0.068
I100
I100
tp52
sg9
F416.4662969112396
sg10
I100
sg11
I500
satp53
Rp54
(dp55
g25
I01
sg26
g31
sg32
(lp56
I3
aI5
aI31
aI9
asg34
I6
sg35
g36
(g3
tp57
Rp58
sbsS'SPEA2'
p59
g2
(g3
g4
(lp60
(dp61
g7
(I0
I0
I0
I0
I0
tp62
sg9
F0.04995012283325195
sg10
I100
sg11
I0
sa(dp63
g7
g62
sg9
F94.55802202224731
sg10
I100
sg11
I100
sa(dp64
g7
g62
sg9
F212.4907729625702
sg10
I100
sg11
I200
sa(dp65
g7
g62
sg9
F326.31607604026794
sg10
I100
sg11
I300
sa(dp66
g7
g62
sg9
F444.01970195770264
sg10
I100
sg11
I400
sa(dp67
g7
g62
sg9
F555.7954931259155
sg10
I100
sg11
I500
satp68
Rp69
(dp70
g25
I01
sg26
g31
sg32
(lp71
I3
aI5
aI30
aI9
asg34
I6
sg35
g36
(g3
tp72
Rp73
sbsS'IBEA'
p74
g2
(g3
g4
(lp75
(dp76
g7
g62
sg9
F0.05033111572265625
sg10
I100
sg11
I0
sa(dp77
g7
g62
sg9
F9.433017015457153
sg10
I100
sg11
I100
sa(dp78
g7
g62
sg9
F18.815685033798218
sg10
I100
sg11
I200
sa(dp79
g7
g62
sg9
F28.233804941177368
sg10
I100
sg11
I300
sa(dp80
g7
g62
sg9
F37.6798939704895
sg10
I100
sg11
I400
sa(dp81
g7
g62
sg9
F47.148550033569336
sg10
I100
sg11
I500
satp82
Rp83
(dp84
g25
I01
sg26
g31
sg32
(lp85
I3
aI5
aI30
aI9
asg34
I6
sg35
g36
(g3
tp86
Rp87
sbsS'NSGA2'
p88
g2
(g3
g4
(lp89
(dp90
g7
(F0.07
F2.264
F0.02
I1
I1
tp91
sg9
F0.05298280715942383
sg10
I100
sg11
I0
sa(dp92
g7
g62
sg9
F12.434671878814697
sg10
I100
sg11
I100
sa(dp93
g7
g62
sg9
F24.820101022720337
sg10
I100
sg11
I200
sa(dp94
g7
g62
sg9
F37.09273290634155
sg10
I100
sg11
I300
sa(dp95
g7
g62
sg9
F49.26663088798523
sg10
I100
sg11
I400
sa(dp96
g7
g62
sg9
F61.45539593696594
sg10
I100
sg11
I500
satp97
Rp98
(dp99
g25
I01
sg26
g31
sg32
(lp100
I3
aI5
aI30
aI9
asg34
I6
sg35
g36
(g3
tp101
Rp102
sbsS'IBEA-SIP'
p103
g2
(g3
g4
(lp104
(dp105
g7
(F0.115
F0.851
F0.027
I18
I32
tp106
sg9
F0.09752607345581055
sg10
I100
sg11
I0
sa(dp107
g7
(F0.203
F0.735
F0.071
I74
I100
tp108
sg9
F9.634927988052368
sg10
I100
sg11
I100
sa(dp109
g7
(F0.207
F0.7
F0.079
I76
I100
tp110
sg9
F19.203075885772705
sg10
I100
sg11
I200
sa(dp111
g7
(F0.207
F0.655
F0.083
I76
I100
tp112
sg9
F28.735485076904297
sg10
I100
sg11
I300
sa(dp113
g7
(F0.21
F0.613
F0.083
I79
I100
tp114
sg9
F38.29408288002014
sg10
I100
sg11
I400
sa(dp115
g7
(F0.211
F0.652
F0.082
I73
I100
tp116
sg9
F47.678650856018066
sg10
I100
sg11
I500
satp117
Rp118
(dp119
g25
I01
sg26
g31
sg32
(lp120
I3
aI5
aI30
aI9
asg34
I6
sg35
g36
(g3
tp121
Rp122
sbs.