(dp0
S'NSGA2-SIP'
p1
ccopy_reg
_reconstructor
p2
(cdeap.tools.support
Logbook
p3
c__builtin__
list
p4
(lp5
(dp6
S'hv|spread|igd|frontier#|valid#'
p7
(F0.116
F0.842
F0.028
I17
I27
tp8
sS'timestamp'
p9
F0.0933079719543457
sS'evals'
p10
I100
sS'gen'
p11
I0
sa(dp12
g7
(F0.194
F0.701
F0.06
I99
I100
tp13
sg9
F11.717980861663818
sg10
I100
sg11
I100
sa(dp14
g7
(F0.202
F0.613
F0.063
I99
I100
tp15
sg9
F22.97716784477234
sg10
I100
sg11
I200
sa(dp16
g7
(F0.203
F0.639
F0.064
I98
I100
tp17
sg9
F34.40243482589722
sg10
I100
sg11
I300
sa(dp18
g7
(F0.203
F0.624
F0.063
I96
I100
tp19
sg9
F45.40251088142395
sg10
I100
sg11
I400
sa(dp20
g7
(F0.204
F0.6
F0.063
I97
I100
tp21
sg9
F55.87769889831543
sg10
I100
sg11
I500
satp22
Rp23
(dp24
S'log_header'
p25
I01
sS'header'
p26
(S'gen'
p27
S'evals'
p28
S'hv|spread|igd|frontier#|valid#'
p29
S'timestamp'
p30
tp31
sS'columns_len'
p32
(lp33
I3
aI5
aI30
aI9
asS'buffindex'
p34
I6
sS'chapters'
p35
ccollections
defaultdict
p36
(g3
tp37
Rp38
sbsS'SPEA2-SIP'
p39
g2
(g3
g4
(lp40
(dp41
g7
(F0.114
F0.901
F0.031
I18
I29
tp42
sg9
F0.09694790840148926
sg10
I100
sg11
I0
sa(dp43
g7
(F0.196
F0.624
F0.07
I100
I100
tp44
sg9
F70.26403594017029
sg10
I100
sg11
I100
sa(dp45
g7
(F0.197
F0.616
F0.069
I100
I100
tp46
sg9
F148.3014190196991
sg10
I100
sg11
I200
sa(dp47
g7
(F0.198
F0.609
F0.07
I100
I100
tp48
sg9
F226.47537302970886
sg10
I100
sg11
I300
sa(dp49
g7
(F0.2
F0.655
F0.069
I100
I100
tp50
sg9
F304.69767808914185
sg10
I100
sg11
I400
sa(dp51
g7
(F0.204
F0.718
F0.07
I100
I100
tp52
sg9
F383.7958710193634
sg10
I100
sg11
I500
satp53
Rp54
(dp55
g25
I01
sg26
g31
sg32
(lp56
I3
aI5
aI31
aI9
asg34
I6
sg35
g36
(g3
tp57
Rp58
sbsS'SPEA2'
p59
g2
(g3
g4
(lp60
(dp61
g7
(I0
I0
I0
I0
I0
tp62
sg9
F0.05040597915649414
sg10
I100
sg11
I0
sa(dp63
g7
g62
sg9
F82.2107138633728
sg10
I100
sg11
I100
sa(dp64
g7
g62
sg9
F176.2419629096985
sg10
I100
sg11
I200
sa(dp65
g7
g62
sg9
F278.8810648918152
sg10
I100
sg11
I300
sa(dp66
g7
g62
sg9
F385.1265139579773
sg10
I100
sg11
I400
sa(dp67
g7
g62
sg9
F493.2389600276947
sg10
I100
sg11
I500
satp68
Rp69
(dp70
g25
I01
sg26
g31
sg32
(lp71
I3
aI5
aI30
aI9
asg34
I6
sg35
g36
(g3
tp72
Rp73
sbsS'IBEA-PEN'
p74
g2
(g3
g4
(lp75
(dp76
g7
(F0.107
F0.748
F0.03
I18
I27
tp77
sg9
F0.16047000885009766
sg10
I100
sg11
I0
sa(dp78
g7
g62
sg9
F8.761636972427368
sg10
I100
sg11
I100
sa(dp79
g7
g62
sg9
F17.19308090209961
sg10
I100
sg11
I200
sa(dp80
g7
g62
sg9
F25.640957832336426
sg10
I100
sg11
I300
sa(dp81
g7
g62
sg9
F34.08532786369324
sg10
I100
sg11
I400
sa(dp82
g7
g62
sg9
F42.47608494758606
sg10
I100
sg11
I500
satp83
Rp84
(dp85
g25
I01
sg26
g31
sg32
(lp86
I3
aI5
aI30
aI9
asg34
I6
sg35
g36
(g3
tp87
Rp88
sbsS'IBEA'
p89
g2
(g3
g4
(lp90
(dp91
g7
(F0.065
F2.201
F0.03
I1
I1
tp92
sg9
F0.07148504257202148
sg10
I100
sg11
I0
sa(dp93
g7
g62
sg9
F8.6407630443573
sg10
I100
sg11
I100
sa(dp94
g7
g62
sg9
F16.93587589263916
sg10
I100
sg11
I200
sa(dp95
g7
g62
sg9
F25.213820934295654
sg10
I100
sg11
I300
sa(dp96
g7
g62
sg9
F33.488605976104736
sg10
I100
sg11
I400
sa(dp97
g7
g62
sg9
F41.830015897750854
sg10
I100
sg11
I500
satp98
Rp99
(dp100
g25
I01
sg26
g31
sg32
(lp101
I3
aI5
aI30
aI9
asg34
I6
sg35
g36
(g3
tp102
Rp103
sbsS'NSGA2'
p104
g2
(g3
g4
(lp105
(dp106
g7
(F0.056
F2.227
F0.037
I1
I1
tp107
sg9
F0.05244612693786621
sg10
I100
sg11
I0
sa(dp108
g7
g62
sg9
F11.194350004196167
sg10
I100
sg11
I100
sa(dp109
g7
g62
sg9
F22.122820138931274
sg10
I100
sg11
I200
sa(dp110
g7
g62
sg9
F33.03556799888611
sg10
I100
sg11
I300
sa(dp111
g7
g62
sg9
F43.96007800102234
sg10
I100
sg11
I400
sa(dp112
g7
g62
sg9
F54.864219188690186
sg10
I100
sg11
I500
satp113
Rp114
(dp115
g25
I01
sg26
g31
sg32
(lp116
I3
aI5
aI30
aI9
asg34
I6
sg35
g36
(g3
tp117
Rp118
sbsS'IBEA-SIP'
p119
g2
(g3
g4
(lp120
(dp121
g7
(F0.122
F0.853
F0.033
I16
I26
tp122
sg9
F0.08986592292785645
sg10
I100
sg11
I0
sa(dp123
g7
(F0.196
F0.649
F0.07
I85
I100
tp124
sg9
F8.729907035827637
sg10
I100
sg11
I100
sa(dp125
g7
(F0.205
F0.613
F0.073
I81
I100
tp126
sg9
F17.313865900039673
sg10
I100
sg11
I200
sa(dp127
g7
(F0.206
F0.667
F0.082
I78
I100
tp128
sg9
F25.805816888809204
sg10
I100
sg11
I300
sa(dp129
g7
(F0.209
F0.688
F0.08
I76
I100
tp130
sg9
F34.30936908721924
sg10
I100
sg11
I400
sa(dp131
g7
(F0.21
F0.643
F0.079
I74
I100
tp132
sg9
F42.79152488708496
sg10
I100
sg11
I500
satp133
Rp134
(dp135
g25
I01
sg26
g31
sg32
(lp136
I3
aI5
aI30
aI9
asg34
I6
sg35
g36
(g3
tp137
Rp138
sbs.