(dp0
S'NSGA2-SIP'
p1
ccopy_reg
_reconstructor
p2
(cdeap.tools.support
Logbook
p3
c__builtin__
list
p4
(lp5
(dp6
S'hv|spread|igd|frontier#|valid#'
p7
(F0.124
F0.836
F0.034
I19
I30
tp8
sS'timestamp'
p9
F0.08733797073364258
sS'evals'
p10
I100
sS'gen'
p11
I0
sa(dp12
g7
(F0.194
F0.631
F0.058
I99
I100
tp13
sg9
F10.974395036697388
sg10
I100
sg11
I100
sa(dp14
g7
(F0.203
F0.582
F0.063
I99
I100
tp15
sg9
F21.831421852111816
sg10
I100
sg11
I200
sa(dp16
g7
(F0.204
F0.635
F0.061
I98
I100
tp17
sg9
F32.486335039138794
sg10
I100
sg11
I300
sa(dp18
g7
(F0.205
F0.659
F0.064
I99
I100
tp19
sg9
F42.764055013656616
sg10
I100
sg11
I400
sa(dp20
g7
(F0.205
F0.578
F0.065
I98
I100
tp21
sg9
F53.01440095901489
sg10
I100
sg11
I500
satp22
Rp23
(dp24
S'log_header'
p25
I01
sS'header'
p26
(S'gen'
p27
S'evals'
p28
S'hv|spread|igd|frontier#|valid#'
p29
S'timestamp'
p30
tp31
sS'columns_len'
p32
(lp33
I3
aI5
aI30
aI9
asS'buffindex'
p34
I6
sS'chapters'
p35
ccollections
defaultdict
p36
(g3
tp37
Rp38
sbsS'SPEA2-SIP'
p39
g2
(g3
g4
(lp40
(dp41
g7
(F0.113
F0.652
F0.028
I12
I30
tp42
sg9
F0.06901812553405762
sg10
I100
sg11
I0
sa(dp43
g7
(F0.192
F0.644
F0.068
I100
I100
tp44
sg9
F64.57978105545044
sg10
I100
sg11
I100
sa(dp45
g7
(F0.195
F0.596
F0.067
I100
I100
tp46
sg9
F141.32600116729736
sg10
I100
sg11
I200
sa(dp47
g7
(F0.196
F0.668
F0.067
I100
I100
tp48
sg9
F215.9182951450348
sg10
I100
sg11
I300
sa(dp49
g7
(F0.198
F0.594
F0.067
I100
I100
tp50
sg9
F291.3848900794983
sg10
I100
sg11
I400
sa(dp51
g7
(F0.2
F0.641
F0.067
I100
I100
tp52
sg9
F367.53580117225647
sg10
I100
sg11
I500
satp53
Rp54
(dp55
g25
I01
sg26
g31
sg32
(lp56
I3
aI5
aI31
aI9
asg34
I6
sg35
g36
(g3
tp57
Rp58
sbsS'SPEA2'
p59
g2
(g3
g4
(lp60
(dp61
g7
(I0
I0
I0
I0
I0
tp62
sg9
F0.04542398452758789
sg10
I100
sg11
I0
sa(dp63
g7
g62
sg9
F83.19431900978088
sg10
I100
sg11
I100
sa(dp64
g7
g62
sg9
F186.81214904785156
sg10
I100
sg11
I200
sa(dp65
g7
g62
sg9
F290.54961490631104
sg10
I100
sg11
I300
sa(dp66
g7
g62
sg9
F394.24270606040955
sg10
I100
sg11
I400
sa(dp67
g7
g62
sg9
F501.0143439769745
sg10
I100
sg11
I500
satp68
Rp69
(dp70
g25
I01
sg26
g31
sg32
(lp71
I3
aI5
aI30
aI9
asg34
I6
sg35
g36
(g3
tp72
Rp73
sbsS'IBEA'
p74
g2
(g3
g4
(lp75
(dp76
g7
g62
sg9
F0.04580211639404297
sg10
I100
sg11
I0
sa(dp77
g7
g62
sg9
F8.439532041549683
sg10
I100
sg11
I100
sa(dp78
g7
g62
sg9
F16.84074115753174
sg10
I100
sg11
I200
sa(dp79
g7
g62
sg9
F25.23513412475586
sg10
I100
sg11
I300
sa(dp80
g7
g62
sg9
F33.644912004470825
sg10
I100
sg11
I400
sa(dp81
g7
g62
sg9
F42.08011603355408
sg10
I100
sg11
I500
satp82
Rp83
(dp84
g25
I01
sg26
g31
sg32
(lp85
I3
aI5
aI30
aI9
asg34
I6
sg35
g36
(g3
tp86
Rp87
sbsS'NSGA2'
p88
g2
(g3
g4
(lp89
(dp90
g7
(F0.077
F2.254
F0.061
I1
I1
tp91
sg9
F0.04775500297546387
sg10
I100
sg11
I0
sa(dp92
g7
g62
sg9
F11.078548908233643
sg10
I100
sg11
I100
sa(dp93
g7
g62
sg9
F22.109553813934326
sg10
I100
sg11
I200
sa(dp94
g7
g62
sg9
F33.17054200172424
sg10
I100
sg11
I300
sa(dp95
g7
g62
sg9
F44.16065287590027
sg10
I100
sg11
I400
sa(dp96
g7
g62
sg9
F55.16473579406738
sg10
I100
sg11
I500
satp97
Rp98
(dp99
g25
I01
sg26
g31
sg32
(lp100
I3
aI5
aI30
aI9
asg34
I6
sg35
g36
(g3
tp101
Rp102
sbsS'IBEA-SIP'
p103
g2
(g3
g4
(lp104
(dp105
g7
(F0.119
F0.76
F0.036
I19
I36
tp106
sg9
F0.08855485916137695
sg10
I100
sg11
I0
sa(dp107
g7
(F0.199
F0.613
F0.074
I75
I100
tp108
sg9
F8.821091890335083
sg10
I100
sg11
I100
sa(dp109
g7
(F0.206
F0.616
F0.079
I77
I100
tp110
sg9
F17.659862995147705
sg10
I100
sg11
I200
sa(dp111
g7
(F0.208
F0.627
F0.078
I74
I100
tp112
sg9
F26.608245849609375
sg10
I100
sg11
I300
sa(dp113
g7
(F0.21
F0.662
F0.083
I82
I100
tp114
sg9
F35.41303896903992
sg10
I100
sg11
I400
sa(dp115
g7
(F0.214
F0.691
F0.089
I77
I100
tp116
sg9
F43.90701389312744
sg10
I100
sg11
I500
satp117
Rp118
(dp119
g25
I01
sg26
g31
sg32
(lp120
I3
aI5
aI30
aI9
asg34
I6
sg35
g36
(g3
tp121
Rp122
sbs.