(dp0
S'NSGA2-SIP'
p1
ccopy_reg
_reconstructor
p2
(cdeap.tools.support
Logbook
p3
c__builtin__
list
p4
(lp5
(dp6
S'hv|spread|igd|frontier#|valid#'
p7
(F0.109
F0.895
F0.028
I16
I26
tp8
sS'timestamp'
p9
F0.08463311195373535
sS'evals'
p10
I100
sS'gen'
p11
I0
sa(dp12
g7
(F0.196
F0.637
F0.059
I100
I100
tp13
sg9
F12.034523010253906
sg10
I100
sg11
I100
sa(dp14
g7
(F0.2
F0.679
F0.061
I99
I100
tp15
sg9
F24.029250144958496
sg10
I100
sg11
I200
sa(dp16
g7
(F0.205
F0.602
F0.063
I98
I100
tp17
sg9
F35.69473910331726
sg10
I100
sg11
I300
sa(dp18
g7
(F0.205
F0.575
F0.064
I100
I100
tp19
sg9
F47.34518814086914
sg10
I100
sg11
I400
sa(dp20
g7
(F0.205
F0.633
F0.065
I97
I100
tp21
sg9
F58.76448392868042
sg10
I100
sg11
I500
satp22
Rp23
(dp24
S'log_header'
p25
I01
sS'header'
p26
(S'gen'
p27
S'evals'
p28
S'hv|spread|igd|frontier#|valid#'
p29
S'timestamp'
p30
tp31
sS'columns_len'
p32
(lp33
I3
aI5
aI31
aI9
asS'buffindex'
p34
I6
sS'chapters'
p35
ccollections
defaultdict
p36
(g3
tp37
Rp38
sbsS'SPEA2-SIP'
p39
g2
(g3
g4
(lp40
(dp41
g7
(F0.12
F0.811
F0.032
I17
I31
tp42
sg9
F0.08971095085144043
sg10
I100
sg11
I0
sa(dp43
g7
(F0.191
F0.656
F0.066
I100
I100
tp44
sg9
F70.77757692337036
sg10
I100
sg11
I100
sa(dp45
g7
(F0.198
F0.634
F0.067
I100
I100
tp46
sg9
F152.19114303588867
sg10
I100
sg11
I200
sa(dp47
g7
(F0.2
F0.565
F0.068
I100
I100
tp48
sg9
F231.7836639881134
sg10
I100
sg11
I300
sa(dp49
g7
(F0.201
F0.608
F0.067
I100
I100
tp50
sg9
F315.6111879348755
sg10
I100
sg11
I400
sa(dp51
g7
(F0.201
F0.618
F0.066
I100
I100
tp52
sg9
F399.3586049079895
sg10
I100
sg11
I500
satp53
Rp54
(dp55
g25
I01
sg26
g31
sg32
(lp56
I3
aI5
aI31
aI9
asg34
I6
sg35
g36
(g3
tp57
Rp58
sbsS'SPEA2'
p59
g2
(g3
g4
(lp60
(dp61
g7
(I0
I0
I0
I0
I0
tp62
sg9
F0.04758095741271973
sg10
I100
sg11
I0
sa(dp63
g7
g62
sg9
F93.75142097473145
sg10
I100
sg11
I100
sa(dp64
g7
g62
sg9
F203.16254997253418
sg10
I100
sg11
I200
sa(dp65
g7
g62
sg9
F314.77840304374695
sg10
I100
sg11
I300
sa(dp66
g7
g62
sg9
F424.82572889328003
sg10
I100
sg11
I400
sa(dp67
g7
g62
sg9
F538.664323091507
sg10
I100
sg11
I500
satp68
Rp69
(dp70
g25
I01
sg26
g31
sg32
(lp71
I3
aI5
aI30
aI9
asg34
I6
sg35
g36
(g3
tp72
Rp73
sbsS'IBEA'
p74
g2
(g3
g4
(lp75
(dp76
g7
(F0.056
F2.273
F0.035
I1
I1
tp77
sg9
F0.049111127853393555
sg10
I100
sg11
I0
sa(dp78
g7
g62
sg9
F8.732553005218506
sg10
I100
sg11
I100
sa(dp79
g7
g62
sg9
F17.44005799293518
sg10
I100
sg11
I200
sa(dp80
g7
g62
sg9
F26.138132095336914
sg10
I100
sg11
I300
sa(dp81
g7
g62
sg9
F34.93204307556152
sg10
I100
sg11
I400
sa(dp82
g7
g62
sg9
F43.68221616744995
sg10
I100
sg11
I500
satp83
Rp84
(dp85
g25
I01
sg26
g31
sg32
(lp86
I3
aI5
aI30
aI9
asg34
I6
sg35
g36
(g3
tp87
Rp88
sbsS'NSGA2'
p89
g2
(g3
g4
(lp90
(dp91
g7
(F0.059
F2.185
F0.037
I1
I1
tp92
sg9
F0.04935812950134277
sg10
I100
sg11
I0
sa(dp93
g7
g62
sg9
F11.655927181243896
sg10
I100
sg11
I100
sa(dp94
g7
g62
sg9
F23.22827911376953
sg10
I100
sg11
I200
sa(dp95
g7
g62
sg9
F34.767887115478516
sg10
I100
sg11
I300
sa(dp96
g7
g62
sg9
F46.31621599197388
sg10
I100
sg11
I400
sa(dp97
g7
g62
sg9
F57.83550715446472
sg10
I100
sg11
I500
satp98
Rp99
(dp100
g25
I01
sg26
g31
sg32
(lp101
I3
aI5
aI30
aI9
asg34
I6
sg35
g36
(g3
tp102
Rp103
sbsS'IBEA-SIP'
p104
g2
(g3
g4
(lp105
(dp106
g7
(F0.115
F0.805
F0.028
I18
I26
tp107
sg9
F0.09043097496032715
sg10
I100
sg11
I0
sa(dp108
g7
(F0.193
F0.657
F0.072
I76
I100
tp109
sg9
F9.318071842193604
sg10
I100
sg11
I100
sa(dp110
g7
(F0.199
F0.674
F0.072
I74
I100
tp111
sg9
F18.439344882965088
sg10
I100
sg11
I200
sa(dp112
g7
(F0.203
F0.731
F0.074
I74
I100
tp113
sg9
F27.391039848327637
sg10
I100
sg11
I300
sa(dp114
g7
(F0.203
F0.724
F0.072
I78
I100
tp115
sg9
F36.475525856018066
sg10
I100
sg11
I400
sa(dp116
g7
(F0.207
F0.69
F0.085
I71
I100
tp117
sg9
F45.416528940200806
sg10
I100
sg11
I500
satp118
Rp119
(dp120
g25
I01
sg26
g31
sg32
(lp121
I3
aI5
aI30
aI9
asg34
I6
sg35
g36
(g3
tp122
Rp123
sbs.