(dp0
S'NSGA2-SIP'
p1
ccopy_reg
_reconstructor
p2
(cdeap.tools.support
Logbook
p3
c__builtin__
list
p4
(lp5
(dp6
S'hv|spread|igd|frontier#|valid#'
p7
(F0.121
F0.759
F0.033
I14
I31
tp8
sS'timestamp'
p9
F0.09328103065490723
sS'evals'
p10
I100
sS'gen'
p11
I0
sa(dp12
g7
(F0.196
F0.641
F0.059
I99
I100
tp13
sg9
F14.030096054077148
sg10
I100
sg11
I100
sa(dp14
g7
(F0.197
F0.641
F0.058
I99
I100
tp15
sg9
F28.135077953338623
sg10
I100
sg11
I200
sa(dp16
g7
(F0.198
F0.701
F0.061
I98
I100
tp17
sg9
F42.0498309135437
sg10
I100
sg11
I300
sa(dp18
g7
(F0.197
F0.57
F0.057
I97
I100
tp19
sg9
F56.072924852371216
sg10
I100
sg11
I400
sa(dp20
g7
(F0.202
F0.591
F0.062
I98
I100
tp21
sg9
F70.07359290122986
sg10
I100
sg11
I500
satp22
Rp23
(dp24
S'log_header'
p25
I01
sS'header'
p26
(S'gen'
p27
S'evals'
p28
S'hv|spread|igd|frontier#|valid#'
p29
S'timestamp'
p30
tp31
sS'columns_len'
p32
(lp33
I3
aI5
aI30
aI9
asS'buffindex'
p34
I6
sS'chapters'
p35
ccollections
defaultdict
p36
(g3
tp37
Rp38
sbsS'SPEA2-SIP'
p39
g2
(g3
g4
(lp40
(dp41
g7
(F0.11
F0.871
F0.033
I14
I25
tp42
sg9
F0.09212088584899902
sg10
I100
sg11
I0
sa(dp43
g7
(F0.192
F0.628
F0.063
I100
I100
tp44
sg9
F83.51113295555115
sg10
I100
sg11
I100
sa(dp45
g7
(F0.196
F0.64
F0.066
I100
I100
tp46
sg9
F181.22553086280823
sg10
I100
sg11
I200
sa(dp47
g7
(F0.199
F0.664
F0.069
I100
I100
tp48
sg9
F277.70726799964905
sg10
I100
sg11
I300
sa(dp49
g7
(F0.2
F0.658
F0.071
I100
I100
tp50
sg9
F373.84088492393494
sg10
I100
sg11
I400
sa(dp51
g7
(F0.204
F0.63
F0.07
I100
I100
tp52
sg9
F472.39264392852783
sg10
I100
sg11
I500
satp53
Rp54
(dp55
g25
I01
sg26
g31
sg32
(lp56
I3
aI5
aI31
aI9
asg34
I6
sg35
g36
(g3
tp57
Rp58
sbsS'SPEA2'
p59
g2
(g3
g4
(lp60
(dp61
g7
(I0
I0
I0
I0
I0
tp62
sg9
F0.05426287651062012
sg10
I100
sg11
I0
sa(dp63
g7
g62
sg9
F98.85623097419739
sg10
I100
sg11
I100
sa(dp64
g7
g62
sg9
F218.50099992752075
sg10
I100
sg11
I200
sa(dp65
g7
g62
sg9
F346.2591609954834
sg10
I100
sg11
I300
sa(dp66
g7
g62
sg9
F470.5558090209961
sg10
I100
sg11
I400
sa(dp67
g7
g62
sg9
F595.8846669197083
sg10
I100
sg11
I500
satp68
Rp69
(dp70
g25
I01
sg26
g31
sg32
(lp71
I3
aI5
aI30
aI9
asg34
I6
sg35
g36
(g3
tp72
Rp73
sbsS'IBEA-PEN'
p74
g2
(g3
g4
(lp75
(dp76
g7
(F0.105
F0.75
F0.027
I25
I38
tp77
sg9
F0.20862889289855957
sg10
I100
sg11
I0
sa(dp78
g7
g62
sg9
F10.036065101623535
sg10
I100
sg11
I100
sa(dp79
g7
g62
sg9
F19.889981031417847
sg10
I100
sg11
I200
sa(dp80
g7
g62
sg9
F29.755120992660522
sg10
I100
sg11
I300
sa(dp81
g7
g62
sg9
F39.64031410217285
sg10
I100
sg11
I400
sa(dp82
g7
g62
sg9
F49.519197940826416
sg10
I100
sg11
I500
satp83
Rp84
(dp85
g25
I01
sg26
g31
sg32
(lp86
I3
aI5
aI30
aI9
asg34
I6
sg35
g36
(g3
tp87
Rp88
sbsS'IBEA'
p89
g2
(g3
g4
(lp90
(dp91
g7
g62
sg9
F0.054425954818725586
sg10
I100
sg11
I0
sa(dp92
g7
g62
sg9
F9.673179149627686
sg10
I100
sg11
I100
sa(dp93
g7
g62
sg9
F19.38207197189331
sg10
I100
sg11
I200
sa(dp94
g7
g62
sg9
F29.181161165237427
sg10
I100
sg11
I300
sa(dp95
g7
g62
sg9
F38.9817111492157
sg10
I100
sg11
I400
sa(dp96
g7
g62
sg9
F48.74538612365723
sg10
I100
sg11
I500
satp97
Rp98
(dp99
g25
I01
sg26
g31
sg32
(lp100
I3
aI5
aI30
aI9
asg34
I6
sg35
g36
(g3
tp101
Rp102
sbsS'NSGA2'
p103
g2
(g3
g4
(lp104
(dp105
g7
(F0.056
F2.177
F0.047
I1
I1
tp106
sg9
F0.05813097953796387
sg10
I100
sg11
I0
sa(dp107
g7
g62
sg9
F13.830896854400635
sg10
I100
sg11
I100
sa(dp108
g7
g62
sg9
F27.611748933792114
sg10
I100
sg11
I200
sa(dp109
g7
g62
sg9
F41.342023849487305
sg10
I100
sg11
I300
sa(dp110
g7
g62
sg9
F55.10306787490845
sg10
I100
sg11
I400
sa(dp111
g7
g62
sg9
F68.83221197128296
sg10
I100
sg11
I500
satp112
Rp113
(dp114
g25
I01
sg26
g31
sg32
(lp115
I3
aI5
aI30
aI9
asg34
I6
sg35
g36
(g3
tp116
Rp117
sbsS'IBEA-SIP'
p118
g2
(g3
g4
(lp119
(dp120
g7
(F0.117
F0.89
F0.024
I13
I30
tp121
sg9
F0.0888509750366211
sg10
I100
sg11
I0
sa(dp122
g7
(F0.201
F0.554
F0.07
I79
I100
tp123
sg9
F10.263702154159546
sg10
I100
sg11
I100
sa(dp124
g7
(F0.208
F0.654
F0.082
I68
I100
tp125
sg9
F20.069215059280396
sg10
I100
sg11
I200
sa(dp126
g7
(F0.208
F0.609
F0.089
I80
I100
tp127
sg9
F30.006352186203003
sg10
I100
sg11
I300
sa(dp128
g7
(F0.21
F0.693
F0.089
I70
I100
tp129
sg9
F39.85368204116821
sg10
I100
sg11
I400
sa(dp130
g7
(F0.212
F0.711
F0.09
I77
I100
tp131
sg9
F49.770869970321655
sg10
I100
sg11
I500
satp132
Rp133
(dp134
g25
I01
sg26
g31
sg32
(lp135
I3
aI5
aI30
aI9
asg34
I6
sg35
g36
(g3
tp136
Rp137
sbs.