(dp0
S'NSGA2-SIP'
p1
ccopy_reg
_reconstructor
p2
(cdeap.tools.support
Logbook
p3
c__builtin__
list
p4
(lp5
(dp6
S'hv|spread|igd|frontier#|valid#'
p7
(F0.118
F0.777
F0.033
I11
I18
tp8
sS'timestamp'
p9
F0.07441592216491699
sS'evals'
p10
I100
sS'gen'
p11
I0
sa(dp12
g7
(F0.188
F0.6
F0.054
I98
I100
tp13
sg9
F12.218925952911377
sg10
I100
sg11
I100
sa(dp14
g7
(F0.194
F0.689
F0.057
I99
I100
tp15
sg9
F24.452296018600464
sg10
I100
sg11
I200
sa(dp16
g7
(F0.199
F0.686
F0.058
I100
I100
tp17
sg9
F36.762380838394165
sg10
I100
sg11
I300
sa(dp18
g7
(F0.201
F0.661
F0.062
I98
I100
tp19
sg9
F48.97308087348938
sg10
I100
sg11
I400
sa(dp20
g7
(F0.202
F0.647
F0.061
I98
I100
tp21
sg9
F60.88903188705444
sg10
I100
sg11
I500
satp22
Rp23
(dp24
S'log_header'
p25
I01
sS'header'
p26
(S'gen'
p27
S'evals'
p28
S'hv|spread|igd|frontier#|valid#'
p29
S'timestamp'
p30
tp31
sS'columns_len'
p32
(lp33
I3
aI5
aI31
aI9
asS'buffindex'
p34
I6
sS'chapters'
p35
ccollections
defaultdict
p36
(g3
tp37
Rp38
sbsS'SPEA2-SIP'
p39
g2
(g3
g4
(lp40
(dp41
g7
(F0.121
F0.829
F0.032
I14
I28
tp42
sg9
F0.08668398857116699
sg10
I100
sg11
I0
sa(dp43
g7
(F0.198
F0.673
F0.066
I100
I100
tp44
sg9
F75.00010704994202
sg10
I100
sg11
I100
sa(dp45
g7
(F0.2
F0.609
F0.065
I100
I100
tp46
sg9
F161.32149004936218
sg10
I100
sg11
I200
sa(dp47
g7
(F0.203
F0.637
F0.067
I100
I100
tp48
sg9
F247.76997804641724
sg10
I100
sg11
I300
sa(dp49
g7
(F0.201
F0.698
F0.067
I100
I100
tp50
sg9
F335.15318393707275
sg10
I100
sg11
I400
sa(dp51
g7
(F0.202
F0.605
F0.068
I100
I100
tp52
sg9
F421.72303199768066
sg10
I100
sg11
I500
satp53
Rp54
(dp55
g25
I01
sg26
g31
sg32
(lp56
I3
aI5
aI31
aI9
asg34
I6
sg35
g36
(g3
tp57
Rp58
sbsS'SPEA2'
p59
g2
(g3
g4
(lp60
(dp61
g7
(I0
I0
I0
I0
I0
tp62
sg9
F0.050032854080200195
sg10
I100
sg11
I0
sa(dp63
g7
g62
sg9
F96.12600898742676
sg10
I100
sg11
I100
sa(dp64
g7
g62
sg9
F207.98509883880615
sg10
I100
sg11
I200
sa(dp65
g7
g62
sg9
F326.7042078971863
sg10
I100
sg11
I300
sa(dp66
g7
g62
sg9
F450.99439096450806
sg10
I100
sg11
I400
sa(dp67
g7
g62
sg9
F571.0089108943939
sg10
I100
sg11
I500
satp68
Rp69
(dp70
g25
I01
sg26
g31
sg32
(lp71
I3
aI5
aI30
aI9
asg34
I6
sg35
g36
(g3
tp72
Rp73
sbsS'IBEA-PEN'
p74
g2
(g3
g4
(lp75
(dp76
g7
(F0.116
F0.704
F0.031
I23
I32
tp77
sg9
F0.17150020599365234
sg10
I100
sg11
I0
sa(dp78
g7
(F0.194
F0.598
F0.058
I54
I86
tp79
sg9
F13.34332799911499
sg10
I100
sg11
I100
sa(dp80
g7
(F0.205
F0.672
F0.068
I70
I96
tp81
sg9
F26.731760025024414
sg10
I100
sg11
I200
sa(dp82
g7
(F0.21
F0.579
F0.076
I65
I93
tp83
sg9
F40.03236198425293
sg10
I100
sg11
I300
sa(dp84
g7
(F0.209
F0.692
F0.092
I60
I95
tp85
sg9
F53.20867109298706
sg10
I100
sg11
I400
sa(dp86
g7
(F0.208
F0.693
F0.083
I68
I96
tp87
sg9
F66.46130919456482
sg10
I100
sg11
I500
satp88
Rp89
(dp90
g25
I01
sg26
g31
sg32
(lp91
I3
aI5
aI30
aI9
asg34
I6
sg35
g36
(g3
tp92
Rp93
sbsS'IBEA'
p94
g2
(g3
g4
(lp95
(dp96
g7
g62
sg9
F0.049529075622558594
sg10
I100
sg11
I0
sa(dp97
g7
g62
sg9
F9.350714921951294
sg10
I100
sg11
I100
sa(dp98
g7
g62
sg9
F18.714716911315918
sg10
I100
sg11
I200
sa(dp99
g7
g62
sg9
F28.050920009613037
sg10
I100
sg11
I300
sa(dp100
g7
g62
sg9
F37.53417992591858
sg10
I100
sg11
I400
sa(dp101
g7
g62
sg9
F47.026236057281494
sg10
I100
sg11
I500
satp102
Rp103
(dp104
g25
I01
sg26
g31
sg32
(lp105
I3
aI5
aI30
aI9
asg34
I6
sg35
g36
(g3
tp106
Rp107
sbsS'NSGA2'
p108
g2
(g3
g4
(lp109
(dp110
g7
g62
sg9
F0.052971839904785156
sg10
I100
sg11
I0
sa(dp111
g7
g62
sg9
F12.70923399925232
sg10
I100
sg11
I100
sa(dp112
g7
g62
sg9
F25.38618493080139
sg10
I100
sg11
I200
sa(dp113
g7
g62
sg9
F38.05104684829712
sg10
I100
sg11
I300
sa(dp114
g7
g62
sg9
F50.5486319065094
sg10
I100
sg11
I400
sa(dp115
g7
g62
sg9
F62.96440386772156
sg10
I100
sg11
I500
satp116
Rp117
(dp118
g25
I01
sg26
g31
sg32
(lp119
I3
aI5
aI30
aI9
asg34
I6
sg35
g36
(g3
tp120
Rp121
sbsS'IBEA-SIP'
p122
g2
(g3
g4
(lp123
(dp124
g7
(F0.115
F0.875
F0.027
I15
I28
tp125
sg9
F0.09127187728881836
sg10
I100
sg11
I0
sa(dp126
g7
(F0.199
F0.641
F0.073
I77
I100
tp127
sg9
F9.980177879333496
sg10
I100
sg11
I100
sa(dp128
g7
(F0.205
F0.552
F0.079
I77
I100
tp129
sg9
F19.75895404815674
sg10
I100
sg11
I200
sa(dp130
g7
(F0.208
F0.61
F0.08
I71
I100
tp131
sg9
F29.458045959472656
sg10
I100
sg11
I300
sa(dp132
g7
(F0.208
F0.625
F0.089
I75
I100
tp133
sg9
F39.216078996658325
sg10
I100
sg11
I400
sa(dp134
g7
(F0.211
F0.652
F0.088
I75
I100
tp135
sg9
F48.943371057510376
sg10
I100
sg11
I500
satp136
Rp137
(dp138
g25
I01
sg26
g31
sg32
(lp139
I3
aI5
aI30
aI9
asg34
I6
sg35
g36
(g3
tp140
Rp141
sbs.