(dp0
S'NSGA2-SIP'
p1
ccopy_reg
_reconstructor
p2
(cdeap.tools.support
Logbook
p3
c__builtin__
list
p4
(lp5
(dp6
S'hv|spread|igd|frontier#|valid#'
p7
(F0.103
F0.878
F0.023
I10
I21
tp8
sS'timestamp'
p9
F0.07760119438171387
sS'evals'
p10
I100
sS'gen'
p11
I0
sa(dp12
g7
(F0.199
F0.627
F0.062
I98
I100
tp13
sg9
F14.084688186645508
sg10
I100
sg11
I100
sa(dp14
g7
(F0.203
F0.631
F0.065
I99
I100
tp15
sg9
F27.790356159210205
sg10
I100
sg11
I200
sa(dp16
g7
(F0.207
F0.566
F0.064
I98
I100
tp17
sg9
F41.315346002578735
sg10
I100
sg11
I300
sa(dp18
g7
(F0.208
F0.614
F0.063
I99
I100
tp19
sg9
F54.72199201583862
sg10
I100
sg11
I400
sa(dp20
g7
(F0.209
F0.615
F0.066
I99
I100
tp21
sg9
F68.25644302368164
sg10
I100
sg11
I500
satp22
Rp23
(dp24
S'log_header'
p25
I01
sS'header'
p26
(S'gen'
p27
S'evals'
p28
S'hv|spread|igd|frontier#|valid#'
p29
S'timestamp'
p30
tp31
sS'columns_len'
p32
(lp33
I3
aI5
aI30
aI9
asS'buffindex'
p34
I6
sS'chapters'
p35
ccollections
defaultdict
p36
(g3
tp37
Rp38
sbsS'SPEA2-SIP'
p39
g2
(g3
g4
(lp40
(dp41
g7
(F0.109
F0.875
F0.03
I17
I27
tp42
sg9
F0.10391497611999512
sg10
I100
sg11
I0
sa(dp43
g7
(F0.196
F0.597
F0.064
I100
I100
tp44
sg9
F79.94781804084778
sg10
I100
sg11
I100
sa(dp45
g7
(F0.2
F0.616
F0.066
I100
I100
tp46
sg9
F170.4967029094696
sg10
I100
sg11
I200
sa(dp47
g7
(F0.2
F0.635
F0.066
I100
I100
tp48
sg9
F264.1056809425354
sg10
I100
sg11
I300
sa(dp49
g7
(F0.203
F0.675
F0.068
I100
I100
tp50
sg9
F356.38902711868286
sg10
I100
sg11
I400
sa(dp51
g7
(F0.204
F0.641
F0.068
I100
I100
tp52
sg9
F447.39320611953735
sg10
I100
sg11
I500
satp53
Rp54
(dp55
g25
I01
sg26
g31
sg32
(lp56
I3
aI5
aI31
aI9
asg34
I6
sg35
g36
(g3
tp57
Rp58
sbsS'SPEA2'
p59
g2
(g3
g4
(lp60
(dp61
g7
(I0
I0
I0
I0
I0
tp62
sg9
F0.054888010025024414
sg10
I100
sg11
I0
sa(dp63
g7
g62
sg9
F100.30078792572021
sg10
I100
sg11
I100
sa(dp64
g7
g62
sg9
F217.96422696113586
sg10
I100
sg11
I200
sa(dp65
g7
g62
sg9
F344.60197281837463
sg10
I100
sg11
I300
sa(dp66
g7
g62
sg9
F471.36372780799866
sg10
I100
sg11
I400
sa(dp67
g7
g62
sg9
F600.0841410160065
sg10
I100
sg11
I500
satp68
Rp69
(dp70
g25
I01
sg26
g31
sg32
(lp71
I3
aI5
aI30
aI9
asg34
I6
sg35
g36
(g3
tp72
Rp73
sbsS'IBEA-PEN'
p74
g2
(g3
g4
(lp75
(dp76
g7
(F0.105
F0.862
F0.029
I20
I26
tp77
sg9
F0.18901801109313965
sg10
I100
sg11
I0
sa(dp78
g7
g62
sg9
F10.017287015914917
sg10
I100
sg11
I100
sa(dp79
g7
g62
sg9
F19.858736991882324
sg10
I100
sg11
I200
sa(dp80
g7
g62
sg9
F29.672926902770996
sg10
I100
sg11
I300
sa(dp81
g7
g62
sg9
F39.421123027801514
sg10
I100
sg11
I400
sa(dp82
g7
g62
sg9
F49.19385385513306
sg10
I100
sg11
I500
satp83
Rp84
(dp85
g25
I01
sg26
g31
sg32
(lp86
I3
aI5
aI30
aI9
asg34
I6
sg35
g36
(g3
tp87
Rp88
sbsS'IBEA'
p89
g2
(g3
g4
(lp90
(dp91
g7
(F0.056
F2.147
F0.048
I1
I1
tp92
sg9
F0.05748891830444336
sg10
I100
sg11
I0
sa(dp93
g7
g62
sg9
F9.70336103439331
sg10
I100
sg11
I100
sa(dp94
g7
g62
sg9
F19.327422857284546
sg10
I100
sg11
I200
sa(dp95
g7
g62
sg9
F28.986958980560303
sg10
I100
sg11
I300
sa(dp96
g7
g62
sg9
F38.606653928756714
sg10
I100
sg11
I400
sa(dp97
g7
g62
sg9
F48.293025970458984
sg10
I100
sg11
I500
satp98
Rp99
(dp100
g25
I01
sg26
g31
sg32
(lp101
I3
aI5
aI30
aI9
asg34
I6
sg35
g36
(g3
tp102
Rp103
sbsS'NSGA2'
p104
g2
(g3
g4
(lp105
(dp106
g7
g62
sg9
F0.05477094650268555
sg10
I100
sg11
I0
sa(dp107
g7
g62
sg9
F14.062671899795532
sg10
I100
sg11
I100
sa(dp108
g7
g62
sg9
F28.13232398033142
sg10
I100
sg11
I200
sa(dp109
g7
g62
sg9
F42.196539878845215
sg10
I100
sg11
I300
sa(dp110
g7
g62
sg9
F56.22396683692932
sg10
I100
sg11
I400
sa(dp111
g7
g62
sg9
F70.28052186965942
sg10
I100
sg11
I500
satp112
Rp113
(dp114
g25
I01
sg26
g31
sg32
(lp115
I3
aI5
aI30
aI9
asg34
I6
sg35
g36
(g3
tp116
Rp117
sbsS'IBEA-SIP'
p118
g2
(g3
g4
(lp119
(dp120
g7
(F0.115
F0.755
F0.023
I16
I31
tp121
sg9
F0.10096597671508789
sg10
I100
sg11
I0
sa(dp122
g7
(F0.193
F0.725
F0.067
I69
I100
tp123
sg9
F9.913193941116333
sg10
I100
sg11
I100
sa(dp124
g7
(F0.203
F0.725
F0.081
I66
I100
tp125
sg9
F19.506458044052124
sg10
I100
sg11
I200
sa(dp126
g7
(F0.207
F0.608
F0.084
I71
I100
tp127
sg9
F28.964097023010254
sg10
I100
sg11
I300
sa(dp128
g7
(F0.209
F0.666
F0.077
I74
I100
tp129
sg9
F38.644798040390015
sg10
I100
sg11
I400
sa(dp130
g7
(F0.212
F0.665
F0.079
I78
I100
tp131
sg9
F48.234699010849
sg10
I100
sg11
I500
satp132
Rp133
(dp134
g25
I01
sg26
g31
sg32
(lp135
I3
aI5
aI30
aI9
asg34
I6
sg35
g36
(g3
tp136
Rp137
sbs.