(dp0
S'NSGA2-SIP'
p1
ccopy_reg
_reconstructor
p2
(cdeap.tools.support
Logbook
p3
c__builtin__
list
p4
(lp5
(dp6
S'hv|spread|igd|frontier#|valid#'
p7
(F0.112
F0.895
F0.03
I11
I25
tp8
sS'timestamp'
p9
F0.0744469165802002
sS'evals'
p10
I100
sS'gen'
p11
I0
sa(dp12
g7
(F0.192
F0.642
F0.06
I99
I100
tp13
sg9
F12.175029039382935
sg10
I100
sg11
I100
sa(dp14
g7
(F0.199
F0.643
F0.065
I98
I100
tp15
sg9
F24.214072942733765
sg10
I100
sg11
I200
sa(dp16
g7
(F0.203
F0.645
F0.066
I99
I100
tp17
sg9
F36.28240084648132
sg10
I100
sg11
I300
sa(dp18
g7
(F0.206
F0.637
F0.067
I99
I100
tp19
sg9
F48.420039892196655
sg10
I100
sg11
I400
sa(dp20
g7
(F0.206
F0.638
F0.067
I100
I100
tp21
sg9
F60.4465229511261
sg10
I100
sg11
I500
satp22
Rp23
(dp24
S'log_header'
p25
I01
sS'header'
p26
(S'gen'
p27
S'evals'
p28
S'hv|spread|igd|frontier#|valid#'
p29
S'timestamp'
p30
tp31
sS'columns_len'
p32
(lp33
I3
aI5
aI31
aI9
asS'buffindex'
p34
I6
sS'chapters'
p35
ccollections
defaultdict
p36
(g3
tp37
Rp38
sbsS'SPEA2-SIP'
p39
g2
(g3
g4
(lp40
(dp41
g7
(F0.116
F0.914
F0.022
I14
I28
tp42
sg9
F0.08395504951477051
sg10
I100
sg11
I0
sa(dp43
g7
(F0.184
F0.694
F0.061
I100
I100
tp44
sg9
F74.81097197532654
sg10
I100
sg11
I100
sa(dp45
g7
(F0.188
F0.599
F0.065
I100
I100
tp46
sg9
F158.0035469532013
sg10
I100
sg11
I200
sa(dp47
g7
(F0.189
F0.622
F0.065
I100
I100
tp48
sg9
F243.8476369380951
sg10
I100
sg11
I300
sa(dp49
g7
(F0.203
F0.701
F0.066
I100
I100
tp50
sg9
F329.455237865448
sg10
I100
sg11
I400
sa(dp51
g7
(F0.206
F0.635
F0.068
I100
I100
tp52
sg9
F414.0253939628601
sg10
I100
sg11
I500
satp53
Rp54
(dp55
g25
I01
sg26
g31
sg32
(lp56
I3
aI5
aI31
aI9
asg34
I6
sg35
g36
(g3
tp57
Rp58
sbsS'SPEA2'
p59
g2
(g3
g4
(lp60
(dp61
g7
(I0
I0
I0
I0
I0
tp62
sg9
F0.05000805854797363
sg10
I100
sg11
I0
sa(dp63
g7
g62
sg9
F83.20057392120361
sg10
I100
sg11
I100
sa(dp64
g7
g62
sg9
F186.6217269897461
sg10
I100
sg11
I200
sa(dp65
g7
g62
sg9
F301.45192790031433
sg10
I100
sg11
I300
sa(dp66
g7
g62
sg9
F422.8684720993042
sg10
I100
sg11
I400
sa(dp67
g7
g62
sg9
F540.176265001297
sg10
I100
sg11
I500
satp68
Rp69
(dp70
g25
I01
sg26
g31
sg32
(lp71
I3
aI5
aI30
aI9
asg34
I6
sg35
g36
(g3
tp72
Rp73
sbsS'IBEA-PEN'
p74
g2
(g3
g4
(lp75
(dp76
g7
(F0.104
F0.868
F0.031
I16
I28
tp77
sg9
F0.14853215217590332
sg10
I100
sg11
I0
sa(dp78
g7
(F0.201
F0.55
F0.064
I66
I95
tp79
sg9
F13.22512412071228
sg10
I100
sg11
I100
sa(dp80
g7
(F0.205
F0.637
F0.074
I64
I89
tp81
sg9
F26.482519149780273
sg10
I100
sg11
I200
sa(dp82
g7
(F0.208
F0.651
F0.087
I44
I87
tp83
sg9
F39.5338180065155
sg10
I100
sg11
I300
sa(dp84
g7
(F0.209
F0.65
F0.085
I62
I97
tp85
sg9
F52.76206398010254
sg10
I100
sg11
I400
sa(dp86
g7
(F0.206
F0.634
F0.072
I58
I91
tp87
sg9
F65.89236998558044
sg10
I100
sg11
I500
satp88
Rp89
(dp90
g25
I01
sg26
g31
sg32
(lp91
I3
aI5
aI30
aI9
asg34
I6
sg35
g36
(g3
tp92
Rp93
sbsS'IBEA'
p94
g2
(g3
g4
(lp95
(dp96
g7
(F0.06
F2.147
F0.024
I1
I1
tp97
sg9
F0.05221104621887207
sg10
I100
sg11
I0
sa(dp98
g7
g62
sg9
F9.345055103302002
sg10
I100
sg11
I100
sa(dp99
g7
g62
sg9
F18.655368089675903
sg10
I100
sg11
I200
sa(dp100
g7
g62
sg9
F27.986273050308228
sg10
I100
sg11
I300
sa(dp101
g7
g62
sg9
F37.299734115600586
sg10
I100
sg11
I400
sa(dp102
g7
g62
sg9
F46.62212419509888
sg10
I100
sg11
I500
satp103
Rp104
(dp105
g25
I01
sg26
g31
sg32
(lp106
I3
aI5
aI30
aI9
asg34
I6
sg35
g36
(g3
tp107
Rp108
sbsS'NSGA2'
p109
g2
(g3
g4
(lp110
(dp111
g7
g62
sg9
F0.049504995346069336
sg10
I100
sg11
I0
sa(dp112
g7
g62
sg9
F12.334144115447998
sg10
I100
sg11
I100
sa(dp113
g7
g62
sg9
F24.701898097991943
sg10
I100
sg11
I200
sa(dp114
g7
g62
sg9
F37.03396797180176
sg10
I100
sg11
I300
sa(dp115
g7
g62
sg9
F49.315305948257446
sg10
I100
sg11
I400
sa(dp116
g7
g62
sg9
F61.64040493965149
sg10
I100
sg11
I500
satp117
Rp118
(dp119
g25
I01
sg26
g31
sg32
(lp120
I3
aI5
aI30
aI9
asg34
I6
sg35
g36
(g3
tp121
Rp122
sbsS'IBEA-SIP'
p123
g2
(g3
g4
(lp124
(dp125
g7
(F0.123
F0.96
F0.03
I17
I30
tp126
sg9
F0.0928499698638916
sg10
I100
sg11
I0
sa(dp127
g7
(F0.198
F0.618
F0.068
I76
I100
tp128
sg9
F9.679529905319214
sg10
I100
sg11
I100
sa(dp129
g7
(F0.203
F0.597
F0.072
I74
I100
tp130
sg9
F19.17729687690735
sg10
I100
sg11
I200
sa(dp131
g7
(F0.207
F0.637
F0.079
I80
I100
tp132
sg9
F28.805335998535156
sg10
I100
sg11
I300
sa(dp133
g7
(F0.209
F0.61
F0.074
I78
I100
tp134
sg9
F37.96011996269226
sg10
I100
sg11
I400
sa(dp135
g7
(F0.212
F0.604
F0.084
I76
I100
tp136
sg9
F47.021482944488525
sg10
I100
sg11
I500
satp137
Rp138
(dp139
g25
I01
sg26
g31
sg32
(lp140
I3
aI5
aI30
aI9
asg34
I6
sg35
g36
(g3
tp141
Rp142
sbs.