(dp0
S'NSGA2-SIP'
p1
ccopy_reg
_reconstructor
p2
(cdeap.tools.support
Logbook
p3
c__builtin__
list
p4
(lp5
(dp6
S'hv|spread|igd|frontier#|valid#'
p7
(F0.081
F0.979
F0.016
I6
I10
tp8
sS'timestamp'
p9
F0.25421595573425293
sS'evals'
p10
I100
sS'gen'
p11
I0
sa(dp12
g7
(F0.139
F0.814
F0.045
I100
I100
tp13
sg9
F32.727662086486816
sg10
I100
sg11
I100
sa(dp14
g7
(F0.15
F0.775
F0.052
I100
I100
tp15
sg9
F65.6171510219574
sg10
I100
sg11
I200
sa(dp16
g7
(F0.154
F0.658
F0.054
I100
I100
tp17
sg9
F98.8391420841217
sg10
I100
sg11
I300
sa(dp18
g7
(F0.158
F0.715
F0.055
I100
I100
tp19
sg9
F132.47420001029968
sg10
I100
sg11
I400
sa(dp20
g7
(F0.159
F0.734
F0.055
I100
I100
tp21
sg9
F165.8517780303955
sg10
I100
sg11
I500
satp22
Rp23
(dp24
S'log_header'
p25
I01
sS'header'
p26
(S'gen'
p27
S'evals'
p28
S'hv|spread|igd|frontier#|valid#'
p29
S'timestamp'
p30
tp31
sS'columns_len'
p32
(lp33
I3
aI5
aI31
aI9
asS'buffindex'
p34
I6
sS'chapters'
p35
ccollections
defaultdict
p36
(g3
tp37
Rp38
sbsS'SPEA2-SIP'
p39
g2
(g3
g4
(lp40
(dp41
g7
(F0.079
F0.862
F0.018
I7
I7
tp42
sg9
F0.25522398948669434
sg10
I100
sg11
I0
sa(dp43
g7
(F0.146
F0.934
F0.072
I84
I100
tp44
sg9
F78.5320930480957
sg10
I100
sg11
I100
sa(dp45
g7
(F0.156
F0.691
F0.086
I86
I100
tp46
sg9
F157.2796070575714
sg10
I100
sg11
I200
sa(dp47
g7
(F0.16
F0.731
F0.093
I84
I100
tp48
sg9
F235.39054918289185
sg10
I100
sg11
I300
sa(dp49
g7
(F0.162
F0.727
F0.095
I90
I100
tp50
sg9
F311.8477940559387
sg10
I100
sg11
I400
sa(dp51
g7
(F0.163
F0.69
F0.096
I100
I100
tp52
sg9
F389.54102516174316
sg10
I100
sg11
I500
satp53
Rp54
(dp55
g25
I01
sg26
g31
sg32
(lp56
I3
aI5
aI30
aI9
asg34
I6
sg35
g36
(g3
tp57
Rp58
sbsS'SPEA2'
p59
g2
(g3
g4
(lp60
(dp61
g7
(I0
I0
I0
I0
I0
tp62
sg9
F0.35507988929748535
sg10
I100
sg11
I0
sa(dp63
g7
g62
sg9
F86.264084815979
sg10
I100
sg11
I100
sa(dp64
g7
g62
sg9
F165.61090898513794
sg10
I100
sg11
I200
sa(dp65
g7
g62
sg9
F245.5217809677124
sg10
I100
sg11
I300
sa(dp66
g7
g62
sg9
F324.2938618659973
sg10
I100
sg11
I400
sa(dp67
g7
g62
sg9
F403.58366894721985
sg10
I100
sg11
I500
satp68
Rp69
(dp70
g25
I01
sg26
g31
sg32
(lp71
I3
aI5
aI30
aI9
asg34
I6
sg35
g36
(g3
tp72
Rp73
sbsS'IBEA-PEN'
p74
g2
(g3
g4
(lp75
(dp76
g7
(F0.121
F0.805
F0.018
I10
I13
tp77
sg9
F0.8299438953399658
sg10
I100
sg11
I0
sa(dp78
g7
(F0.031
F2.524
F0.017
I1
I1
tp79
sg9
F38.43207001686096
sg10
I100
sg11
I100
sa(dp80
g7
g62
sg9
F76.20390295982361
sg10
I100
sg11
I200
sa(dp81
g7
g62
sg9
F113.89331293106079
sg10
I100
sg11
I300
sa(dp82
g7
g62
sg9
F150.953106880188
sg10
I100
sg11
I400
sa(dp83
g7
(F0.033
F2.524
F0.014
I1
I1
tp84
sg9
F188.3080348968506
sg10
I100
sg11
I500
satp85
Rp86
(dp87
g25
I01
sg26
g31
sg32
(lp88
I3
aI5
aI30
aI9
asg34
I6
sg35
g36
(g3
tp89
Rp90
sbsS'IBEA'
p91
g2
(g3
g4
(lp92
(dp93
g7
g62
sg9
F0.3521609306335449
sg10
I100
sg11
I0
sa(dp94
g7
g62
sg9
F36.26345491409302
sg10
I100
sg11
I100
sa(dp95
g7
g62
sg9
F72.4985899925232
sg10
I100
sg11
I200
sa(dp96
g7
g62
sg9
F108.89385294914246
sg10
I100
sg11
I300
sa(dp97
g7
g62
sg9
F145.46716594696045
sg10
I100
sg11
I400
sa(dp98
g7
g62
sg9
F182.07304191589355
sg10
I100
sg11
I500
satp99
Rp100
(dp101
g25
I01
sg26
g31
sg32
(lp102
I3
aI5
aI30
aI9
asg34
I6
sg35
g36
(g3
tp103
Rp104
sbsS'NSGA2'
p105
g2
(g3
g4
(lp106
(dp107
g7
g62
sg9
F0.35281896591186523
sg10
I100
sg11
I0
sa(dp108
g7
g62
sg9
F41.2092559337616
sg10
I100
sg11
I100
sa(dp109
g7
g62
sg9
F82.76384902000427
sg10
I100
sg11
I200
sa(dp110
g7
g62
sg9
F124.38059687614441
sg10
I100
sg11
I300
sa(dp111
g7
g62
sg9
F166.90067195892334
sg10
I100
sg11
I400
sa(dp112
g7
g62
sg9
F209.26007199287415
sg10
I100
sg11
I500
satp113
Rp114
(dp115
g25
I01
sg26
g31
sg32
(lp116
I3
aI5
aI30
aI9
asg34
I6
sg35
g36
(g3
tp117
Rp118
sbsS'IBEA-SIP'
p119
g2
(g3
g4
(lp120
(dp121
g7
(F0.081
F0.942
F0.014
I5
I8
tp122
sg9
F0.24878311157226562
sg10
I100
sg11
I0
sa(dp123
g7
(F0.144
F0.717
F0.04
I75
I100
tp124
sg9
F30.45592212677002
sg10
I100
sg11
I100
sa(dp125
g7
(F0.153
F0.658
F0.05
I82
I100
tp126
sg9
F61.190514087677
sg10
I100
sg11
I200
sa(dp127
g7
(F0.159
F0.786
F0.054
I83
I100
tp128
sg9
F91.58198404312134
sg10
I100
sg11
I300
sa(dp129
g7
(F0.164
F0.766
F0.057
I83
I100
tp130
sg9
F121.67614698410034
sg10
I100
sg11
I400
sa(dp131
g7
(F0.165
F0.719
F0.06
I82
I100
tp132
sg9
F152.04244709014893
sg10
I100
sg11
I500
satp133
Rp134
(dp135
g25
I01
sg26
g31
sg32
(lp136
I3
aI5
aI30
aI9
asg34
I6
sg35
g36
(g3
tp137
Rp138
sbs.