(dp0
S'NSGA2-SIP'
p1
ccopy_reg
_reconstructor
p2
(cdeap.tools.support
Logbook
p3
c__builtin__
list
p4
(lp5
(dp6
S'hv|spread|igd|frontier#|valid#'
p7
(F0.074
F0.991
F0.02
I3
I4
tp8
sS'timestamp'
p9
F0.23073506355285645
sS'evals'
p10
I100
sS'gen'
p11
I0
sa(dp12
g7
(F0.141
F0.797
F0.045
I100
I100
tp13
sg9
F31.266688108444214
sg10
I100
sg11
I100
sa(dp14
g7
(F0.152
F0.798
F0.052
I100
I100
tp15
sg9
F63.095168113708496
sg10
I100
sg11
I200
sa(dp16
g7
(F0.156
F0.661
F0.056
I100
I100
tp17
sg9
F94.91523814201355
sg10
I100
sg11
I300
sa(dp18
g7
(F0.157
F0.753
F0.059
I100
I100
tp19
sg9
F126.6828031539917
sg10
I100
sg11
I400
sa(dp20
g7
(F0.16
F0.658
F0.061
I100
I100
tp21
sg9
F158.57765102386475
sg10
I100
sg11
I500
satp22
Rp23
(dp24
S'log_header'
p25
I01
sS'header'
p26
(S'gen'
p27
S'evals'
p28
g7
S'timestamp'
p29
tp30
sS'columns_len'
p31
(lp32
I3
aI5
aI31
aI9
asS'buffindex'
p33
I6
sS'chapters'
p34
ccollections
defaultdict
p35
(g3
tp36
Rp37
sbsS'SPEA2-SIP'
p38
g2
(g3
g4
(lp39
(dp40
g7
(F0.078
F0.922
F0.015
I4
I5
tp41
sg9
F0.2400681972503662
sg10
I100
sg11
I0
sa(dp42
g7
(F0.149
F0.758
F0.064
I93
I100
tp43
sg9
F70.42883610725403
sg10
I100
sg11
I100
sa(dp44
g7
(F0.156
F0.719
F0.077
I89
I100
tp45
sg9
F142.982488155365
sg10
I100
sg11
I200
sa(dp46
g7
(F0.16
F0.729
F0.084
I89
I100
tp47
sg9
F214.5249810218811
sg10
I100
sg11
I300
sa(dp48
g7
(F0.163
F0.72
F0.086
I89
I100
tp49
sg9
F285.95113706588745
sg10
I100
sg11
I400
sa(dp50
g7
(F0.164
F0.745
F0.089
I92
I100
tp51
sg9
F357.7227771282196
sg10
I100
sg11
I500
satp52
Rp53
(dp54
g25
I01
sg26
g30
sg31
(lp55
I3
aI5
aI30
aI9
asg33
I6
sg34
g35
(g3
tp56
Rp57
sbsS'SPEA2'
p58
g2
(g3
g4
(lp59
(dp60
g7
(I0
I0
I0
I0
I0
tp61
sg9
F0.34018611907958984
sg10
I100
sg11
I0
sa(dp62
g7
g61
sg9
F77.68169903755188
sg10
I100
sg11
I100
sa(dp63
g7
g61
sg9
F153.87225699424744
sg10
I100
sg11
I200
sa(dp64
g7
g61
sg9
F228.63279700279236
sg10
I100
sg11
I300
sa(dp65
g7
g61
sg9
F302.66816306114197
sg10
I100
sg11
I400
sa(dp66
g7
g61
sg9
F378.8765799999237
sg10
I100
sg11
I500
satp67
Rp68
(dp69
g25
I01
sg26
g30
sg31
(lp70
I3
aI5
aI30
aI9
asg33
I6
sg34
g35
(g3
tp71
Rp72
sbsS'IBEA-PEN'
p73
g2
(g3
g4
(lp74
(dp75
g7
(F0.112
F0.882
F0.02
I9
I10
tp76
sg9
F0.6478919982910156
sg10
I100
sg11
I0
sa(dp77
g7
(F0.154
F0.667
F0.018
I51
I70
tp78
sg9
F41.741687059402466
sg10
I100
sg11
I100
sa(dp79
g7
(F0.159
F0.632
F0.021
I43
I55
tp80
sg9
F83.12444710731506
sg10
I100
sg11
I200
sa(dp81
g7
(F0.16
F0.792
F0.024
I34
I61
tp82
sg9
F124.76901602745056
sg10
I100
sg11
I300
sa(dp83
g7
(F0.165
F0.684
F0.025
I54
I72
tp84
sg9
F166.68596506118774
sg10
I100
sg11
I400
sa(dp85
g7
(F0.166
F0.673
F0.028
I48
I72
tp86
sg9
F208.97306609153748
sg10
I100
sg11
I500
satp87
Rp88
(dp89
g25
I01
sg26
g30
sg31
(lp90
I3
aI5
aI30
aI9
asg33
I6
sg34
g35
(g3
tp91
Rp92
sbsS'IBEA'
p93
g2
(g3
g4
(lp94
(dp95
g7
g61
sg9
F0.3308579921722412
sg10
I100
sg11
I0
sa(dp96
g7
g61
sg9
F34.16850996017456
sg10
I100
sg11
I100
sa(dp97
g7
g61
sg9
F68.1579749584198
sg10
I100
sg11
I200
sa(dp98
g7
g61
sg9
F101.95309209823608
sg10
I100
sg11
I300
sa(dp99
g7
g61
sg9
F135.96777892112732
sg10
I100
sg11
I400
sa(dp100
g7
g61
sg9
F169.8926260471344
sg10
I100
sg11
I500
satp101
Rp102
(dp103
g25
I01
sg26
g30
sg31
(lp104
I3
aI5
aI30
aI9
asg33
I6
sg34
g35
(g3
tp105
Rp106
sbsS'NSGA2'
p107
g2
(g3
g4
(lp108
(dp109
g7
g61
sg9
F0.33155083656311035
sg10
I100
sg11
I0
sa(dp110
g7
g61
sg9
F38.34697699546814
sg10
I100
sg11
I100
sa(dp111
g7
g61
sg9
F76.3209879398346
sg10
I100
sg11
I200
sa(dp112
g7
g61
sg9
F115.00442099571228
sg10
I100
sg11
I300
sa(dp113
g7
g61
sg9
F153.84402680397034
sg10
I100
sg11
I400
sa(dp114
g7
g61
sg9
F192.75317287445068
sg10
I100
sg11
I500
satp115
Rp116
(dp117
g25
I01
sg26
g30
sg31
(lp118
I3
aI5
aI30
aI9
asg33
I6
sg34
g35
(g3
tp119
Rp120
sbsS'IBEA-SIP'
p121
g2
(g3
g4
(lp122
(dp123
g7
(F0.068
F0.989
F0.012
I2
I2
tp124
sg9
F0.22254514694213867
sg10
I100
sg11
I0
sa(dp125
g7
(F0.144
F0.736
F0.044
I69
I100
tp126
sg9
F28.933199167251587
sg10
I100
sg11
I100
sa(dp127
g7
(F0.153
F0.71
F0.053
I78
I100
tp128
sg9
F58.0477819442749
sg10
I100
sg11
I200
sa(dp129
g7
(F0.159
F0.66
F0.057
I82
I100
tp130
sg9
F87.17025709152222
sg10
I100
sg11
I300
sa(dp131
g7
(F0.164
F0.72
F0.06
I90
I100
tp132
sg9
F116.06856393814087
sg10
I100
sg11
I400
sa(dp133
g7
(F0.165
F0.654
F0.06
I91
I100
tp134
sg9
F145.37362408638
sg10
I100
sg11
I500
satp135
Rp136
(dp137
g25
I01
sg26
g30
sg31
(lp138
I3
aI5
aI30
aI9
asg33
I6
sg34
g35
(g3
tp139
Rp140
sbs.