(dp0
S'NSGA2'
p1
ccopy_reg
_reconstructor
p2
(cdeap.tools.support
Logbook
p3
c__builtin__
list
p4
(lp5
(dp6
S'hv|spread|igd|frontier#|valid#'
p7
(I0
I0
I0
I0
I0
tp8
sS'timestamp'
p9
F0.34332799911499023
sS'evals'
p10
I100
sS'gen'
p11
I0
sa(dp12
g7
g8
sg9
F39.97902488708496
sg10
I100
sg11
I100
sa(dp13
g7
g8
sg9
F79.42927479743958
sg10
I100
sg11
I200
sa(dp14
g7
g8
sg9
F118.76007199287415
sg10
I100
sg11
I300
sa(dp15
g7
g8
sg9
F158.196702003479
sg10
I100
sg11
I400
sa(dp16
g7
g8
sg9
F198.07958889007568
sg10
I100
sg11
I500
satp17
Rp18
(dp19
S'log_header'
p20
I01
sS'header'
p21
(S'gen'
p22
S'evals'
p23
S'hv|spread|igd|frontier#|valid#'
p24
S'timestamp'
p25
tp26
sS'columns_len'
p27
(lp28
I3
aI5
aI30
aI9
asS'buffindex'
p29
I6
sS'chapters'
p30
ccollections
defaultdict
p31
(g3
tp32
Rp33
sbsS'NSGA2-SIP'
p34
g2
(g3
g4
(lp35
(dp36
g7
(F0.068
F0.988
F0.025
I3
I4
tp37
sg9
F0.237105131149292
sg10
I100
sg11
I0
sa(dp38
g7
(F0.14
F0.844
F0.048
I100
I100
tp39
sg9
F31.83400297164917
sg10
I100
sg11
I100
sa(dp40
g7
(F0.149
F0.678
F0.053
I100
I100
tp41
sg9
F63.85559701919556
sg10
I100
sg11
I200
sa(dp42
g7
(F0.157
F0.692
F0.056
I100
I100
tp43
sg9
F96.23286294937134
sg10
I100
sg11
I300
sa(dp44
g7
(F0.161
F0.649
F0.058
I100
I100
tp45
sg9
F128.6955270767212
sg10
I100
sg11
I400
sa(dp46
g7
(F0.163
F0.712
F0.06
I100
I100
tp47
sg9
F161.14725995063782
sg10
I100
sg11
I500
satp48
Rp49
(dp50
g20
I01
sg21
g26
sg27
(lp51
I3
aI5
aI31
aI9
asg29
I6
sg30
g31
(g3
tp52
Rp53
sbsS'IBEA-SIP'
p54
g2
(g3
g4
(lp55
(dp56
g7
(F0.08
F0.964
F0.006
I3
I5
tp57
sg9
F0.2369999885559082
sg10
I100
sg11
I0
sa(dp58
g7
(F0.143
F0.74
F0.048
I71
I100
tp59
sg9
F30.00061011314392
sg10
I100
sg11
I100
sa(dp60
g7
(F0.154
F0.738
F0.054
I69
I100
tp61
sg9
F60.47907209396362
sg10
I100
sg11
I200
sa(dp62
g7
(F0.161
F0.73
F0.058
I81
I100
tp63
sg9
F91.16925406455994
sg10
I100
sg11
I300
sa(dp64
g7
(F0.168
F0.712
F0.06
I83
I100
tp65
sg9
F121.31560111045837
sg10
I100
sg11
I400
sa(dp66
g7
(F0.17
F0.71
F0.061
I88
I100
tp67
sg9
F151.0530321598053
sg10
I100
sg11
I500
satp68
Rp69
(dp70
g20
I01
sg21
g26
sg27
(lp71
I3
aI5
aI30
aI9
asg29
I6
sg30
g31
(g3
tp72
Rp73
sbsS'SPEA2'
p74
g2
(g3
g4
(lp75
(dp76
g7
g8
sg9
F0.3435790538787842
sg10
I100
sg11
I0
sa(dp77
g7
g8
sg9
F81.37943005561829
sg10
I100
sg11
I100
sa(dp78
g7
g8
sg9
F168.96584105491638
sg10
I100
sg11
I200
sa(dp79
g7
g8
sg9
F252.37285900115967
sg10
I100
sg11
I300
sa(dp80
g7
g8
sg9
F333.0326340198517
sg10
I100
sg11
I400
sa(dp81
g7
g8
sg9
F413.06099104881287
sg10
I100
sg11
I500
satp82
Rp83
(dp84
g20
I01
sg21
g26
sg27
(lp85
I3
aI5
aI30
aI9
asg29
I6
sg30
g31
(g3
tp86
Rp87
sbsS'IBEA'
p88
g2
(g3
g4
(lp89
(dp90
g7
g8
sg9
F0.3425459861755371
sg10
I100
sg11
I0
sa(dp91
g7
g8
sg9
F35.42476511001587
sg10
I100
sg11
I100
sa(dp92
g7
g8
sg9
F71.88204193115234
sg10
I100
sg11
I200
sa(dp93
g7
g8
sg9
F107.2413740158081
sg10
I100
sg11
I300
sa(dp94
g7
g8
sg9
F147.43722009658813
sg10
I100
sg11
I400
sa(dp95
g7
g8
sg9
F182.78714990615845
sg10
I100
sg11
I500
satp96
Rp97
(dp98
g20
I01
sg21
g26
sg27
(lp99
I3
aI5
aI30
aI9
asg29
I6
sg30
g31
(g3
tp100
Rp101
sbs.