(dp0
S'NSGA2-SIP'
p1
ccopy_reg
_reconstructor
p2
(cdeap.tools.support
Logbook
p3
c__builtin__
list
p4
(lp5
(dp6
S'hv|spread|igd|frontier#|valid#'
p7
(F0.058
F2.292
F0.03
I1
I1
tp8
sS'timestamp'
p9
F0.22797012329101562
sS'evals'
p10
I100
sS'gen'
p11
I0
sa(dp12
g7
(F0.139
F0.842
F0.048
I87
I100
tp13
sg9
F31.677139043807983
sg10
I100
sg11
I100
sa(dp14
g7
(F0.149
F0.705
F0.051
I100
I100
tp15
sg9
F63.834477186203
sg10
I100
sg11
I200
sa(dp16
g7
(F0.153
F0.688
F0.056
I100
I100
tp17
sg9
F95.99130916595459
sg10
I100
sg11
I300
sa(dp18
g7
(F0.154
F0.714
F0.058
I100
I100
tp19
sg9
F128.57839512825012
sg10
I100
sg11
I400
sa(dp20
g7
(F0.156
F0.691
F0.061
I100
I100
tp21
sg9
F161.20350623130798
sg10
I100
sg11
I500
satp22
Rp23
(dp24
S'log_header'
p25
I01
sS'header'
p26
(S'gen'
p27
S'evals'
p28
S'hv|spread|igd|frontier#|valid#'
p29
S'timestamp'
p30
tp31
sS'columns_len'
p32
(lp33
I3
aI5
aI31
aI9
asS'buffindex'
p34
I6
sS'chapters'
p35
ccollections
defaultdict
p36
(g3
tp37
Rp38
sbsS'SPEA2-SIP'
p39
g2
(g3
g4
(lp40
(dp41
g7
(F0.078
F0.943
F0.015
I3
I3
tp42
sg9
F0.23839521408081055
sg10
I100
sg11
I0
sa(dp43
g7
(F0.147
F0.907
F0.069
I86
I100
tp44
sg9
F73.9990541934967
sg10
I100
sg11
I100
sa(dp45
g7
(F0.152
F0.837
F0.079
I76
I100
tp46
sg9
F149.31705808639526
sg10
I100
sg11
I200
sa(dp47
g7
(F0.153
F0.718
F0.081
I81
I100
tp48
sg9
F224.45027017593384
sg10
I100
sg11
I300
sa(dp49
g7
(F0.156
F0.757
F0.085
I82
I100
tp50
sg9
F299.7795660495758
sg10
I100
sg11
I400
sa(dp51
g7
(F0.158
F0.781
F0.087
I80
I100
tp52
sg9
F373.7094130516052
sg10
I100
sg11
I500
satp53
Rp54
(dp55
g25
I01
sg26
g31
sg32
(lp56
I3
aI5
aI30
aI9
asg34
I6
sg35
g36
(g3
tp57
Rp58
sbsS'SPEA2'
p59
g2
(g3
g4
(lp60
(dp61
g7
(I0
I0
I0
I0
I0
tp62
sg9
F0.3444089889526367
sg10
I100
sg11
I0
sa(dp63
g7
g62
sg9
F80.12466406822205
sg10
I100
sg11
I100
sa(dp64
g7
g62
sg9
F159.15592312812805
sg10
I100
sg11
I200
sa(dp65
g7
g62
sg9
F238.2111361026764
sg10
I100
sg11
I300
sa(dp66
g7
g62
sg9
F318.2034170627594
sg10
I100
sg11
I400
sa(dp67
g7
g62
sg9
F398.5818281173706
sg10
I100
sg11
I500
satp68
Rp69
(dp70
g25
I01
sg26
g31
sg32
(lp71
I3
aI5
aI30
aI9
asg34
I6
sg35
g36
(g3
tp72
Rp73
sbsS'IBEA-PEN'
p74
g2
(g3
g4
(lp75
(dp76
g7
(F0.128
F0.746
F0.021
I14
I15
tp77
sg9
F0.7067630290985107
sg10
I100
sg11
I0
sa(dp78
g7
(F0.147
F0.695
F0.012
I31
I45
tp79
sg9
F42.50568413734436
sg10
I100
sg11
I100
sa(dp80
g7
(F0.151
F0.618
F0.017
I26
I31
tp81
sg9
F84.38284015655518
sg10
I100
sg11
I200
sa(dp82
g7
(F0.15
F0.584
F0.013
I31
I38
tp83
sg9
F126.52190613746643
sg10
I100
sg11
I300
sa(dp84
g7
(F0.154
F0.758
F0.013
I41
I45
tp85
sg9
F168.69400310516357
sg10
I100
sg11
I400
sa(dp86
g7
(F0.152
F0.74
F0.018
I35
I47
tp87
sg9
F211.05365300178528
sg10
I100
sg11
I500
satp88
Rp89
(dp90
g25
I01
sg26
g31
sg32
(lp91
I3
aI5
aI30
aI9
asg34
I6
sg35
g36
(g3
tp92
Rp93
sbsS'IBEA'
p94
g2
(g3
g4
(lp95
(dp96
g7
g62
sg9
F0.3481259346008301
sg10
I100
sg11
I0
sa(dp97
g7
g62
sg9
F35.793538093566895
sg10
I100
sg11
I100
sa(dp98
g7
g62
sg9
F71.58789896965027
sg10
I100
sg11
I200
sa(dp99
g7
g62
sg9
F107.49951004981995
sg10
I100
sg11
I300
sa(dp100
g7
g62
sg9
F143.1166388988495
sg10
I100
sg11
I400
sa(dp101
g7
g62
sg9
F178.78510403633118
sg10
I100
sg11
I500
satp102
Rp103
(dp104
g25
I01
sg26
g31
sg32
(lp105
I3
aI5
aI30
aI9
asg34
I6
sg35
g36
(g3
tp106
Rp107
sbsS'NSGA2'
p108
g2
(g3
g4
(lp109
(dp110
g7
g62
sg9
F0.3453068733215332
sg10
I100
sg11
I0
sa(dp111
g7
g62
sg9
F39.67136788368225
sg10
I100
sg11
I100
sa(dp112
g7
g62
sg9
F79.13655281066895
sg10
I100
sg11
I200
sa(dp113
g7
g62
sg9
F119.16887593269348
sg10
I100
sg11
I300
sa(dp114
g7
g62
sg9
F159.40272283554077
sg10
I100
sg11
I400
sa(dp115
g7
g62
sg9
F199.62298488616943
sg10
I100
sg11
I500
satp116
Rp117
(dp118
g25
I01
sg26
g31
sg32
(lp119
I3
aI5
aI30
aI9
asg34
I6
sg35
g36
(g3
tp120
Rp121
sbsS'IBEA-SIP'
p122
g2
(g3
g4
(lp123
(dp124
g7
g62
sg9
F0.2240920066833496
sg10
I100
sg11
I0
sa(dp125
g7
(F0.147
F0.751
F0.043
I79
I100
tp126
sg9
F30.249218940734863
sg10
I100
sg11
I100
sa(dp127
g7
(F0.159
F0.723
F0.051
I72
I100
tp128
sg9
F60.201672077178955
sg10
I100
sg11
I200
sa(dp129
g7
(F0.163
F0.687
F0.056
I84
I100
tp130
sg9
F90.33128905296326
sg10
I100
sg11
I300
sa(dp131
g7
(F0.166
F0.721
F0.06
I84
I100
tp132
sg9
F120.44087100028992
sg10
I100
sg11
I400
sa(dp133
g7
(F0.169
F0.681
F0.059
I91
I100
tp134
sg9
F150.62454295158386
sg10
I100
sg11
I500
satp135
Rp136
(dp137
g25
I01
sg26
g31
sg32
(lp138
I3
aI5
aI30
aI9
asg34
I6
sg35
g36
(g3
tp139
Rp140
sbs.