(dp0
S'NSGA2-SIP'
p1
ccopy_reg
_reconstructor
p2
(cdeap.tools.support
Logbook
p3
c__builtin__
list
p4
(lp5
(dp6
S'hv|spread|igd|frontier#|valid#'
p7
(F0.061
F2.21
F0.026
I1
I1
tp8
sS'timestamp'
p9
F0.22564411163330078
sS'evals'
p10
I100
sS'gen'
p11
I0
sa(dp12
g7
(F0.142
F0.68
F0.041
I100
I100
tp13
sg9
F32.28562307357788
sg10
I100
sg11
I100
sa(dp14
g7
(F0.156
F0.698
F0.05
I100
I100
tp15
sg9
F65.38880205154419
sg10
I100
sg11
I200
sa(dp16
g7
(F0.158
F0.674
F0.054
I100
I100
tp17
sg9
F97.89221501350403
sg10
I100
sg11
I300
sa(dp18
g7
(F0.159
F0.654
F0.056
I100
I100
tp19
sg9
F130.447909116745
sg10
I100
sg11
I400
sa(dp20
g7
(F0.162
F0.717
F0.058
I100
I100
tp21
sg9
F162.71782112121582
sg10
I100
sg11
I500
satp22
Rp23
(dp24
S'log_header'
p25
I01
sS'header'
p26
(S'gen'
p27
S'evals'
p28
S'hv|spread|igd|frontier#|valid#'
p29
S'timestamp'
p30
tp31
sS'columns_len'
p32
(lp33
I3
aI5
aI31
aI9
asS'buffindex'
p34
I6
sS'chapters'
p35
ccollections
defaultdict
p36
(g3
tp37
Rp38
sbsS'SPEA2-SIP'
p39
g2
(g3
g4
(lp40
(dp41
g7
(F0.066
F2.185
F0.01
I1
I2
tp42
sg9
F0.22619199752807617
sg10
I100
sg11
I0
sa(dp43
g7
(F0.14
F0.985
F0.068
I74
I100
tp44
sg9
F78.63765382766724
sg10
I100
sg11
I100
sa(dp45
g7
(F0.149
F0.806
F0.08
I90
I100
tp46
sg9
F156.53637099266052
sg10
I100
sg11
I200
sa(dp47
g7
(F0.151
F0.894
F0.084
I81
I100
tp48
sg9
F231.70346784591675
sg10
I100
sg11
I300
sa(dp49
g7
(F0.153
F0.909
F0.089
I69
I100
tp50
sg9
F308.03083395957947
sg10
I100
sg11
I400
sa(dp51
g7
(F0.154
F0.849
F0.091
I66
I100
tp52
sg9
F383.68546986579895
sg10
I100
sg11
I500
satp53
Rp54
(dp55
g25
I01
sg26
g31
sg32
(lp56
I3
aI5
aI30
aI9
asg34
I6
sg35
g36
(g3
tp57
Rp58
sbsS'SPEA2'
p59
g2
(g3
g4
(lp60
(dp61
g7
(I0
I0
I0
I0
I0
tp62
sg9
F0.350538969039917
sg10
I100
sg11
I0
sa(dp63
g7
g62
sg9
F83.4759030342102
sg10
I100
sg11
I100
sa(dp64
g7
g62
sg9
F162.41293001174927
sg10
I100
sg11
I200
sa(dp65
g7
g62
sg9
F242.2466950416565
sg10
I100
sg11
I300
sa(dp66
g7
g62
sg9
F322.88444209098816
sg10
I100
sg11
I400
sa(dp67
g7
g62
sg9
F404.47927713394165
sg10
I100
sg11
I500
satp68
Rp69
(dp70
g25
I01
sg26
g31
sg32
(lp71
I3
aI5
aI30
aI9
asg34
I6
sg35
g36
(g3
tp72
Rp73
sbsS'IBEA-PEN'
p74
g2
(g3
g4
(lp75
(dp76
g7
(F0.134
F0.751
F0.018
I14
I16
tp77
sg9
F0.8497350215911865
sg10
I100
sg11
I0
sa(dp78
g7
(F0.033
F2.5
F0.022
I1
I1
tp79
sg9
F37.98369598388672
sg10
I100
sg11
I100
sa(dp80
g7
(F0.033
F2.5
F0.022
I1
I1
tp81
sg9
F75.08144688606262
sg10
I100
sg11
I200
sa(dp82
g7
(F0.033
F2.5
F0.022
I1
I1
tp83
sg9
F112.06113290786743
sg10
I100
sg11
I300
sa(dp84
g7
g62
sg9
F149.14707589149475
sg10
I100
sg11
I400
sa(dp85
g7
g62
sg9
F185.81018590927124
sg10
I100
sg11
I500
satp86
Rp87
(dp88
g25
I01
sg26
g31
sg32
(lp89
I3
aI5
aI30
aI9
asg34
I6
sg35
g36
(g3
tp90
Rp91
sbsS'IBEA'
p92
g2
(g3
g4
(lp93
(dp94
g7
g62
sg9
F0.3500058650970459
sg10
I100
sg11
I0
sa(dp95
g7
g62
sg9
F36.852017879486084
sg10
I100
sg11
I100
sa(dp96
g7
g62
sg9
F73.38514494895935
sg10
I100
sg11
I200
sa(dp97
g7
g62
sg9
F109.60906481742859
sg10
I100
sg11
I300
sa(dp98
g7
g62
sg9
F145.62792801856995
sg10
I100
sg11
I400
sa(dp99
g7
g62
sg9
F181.58848595619202
sg10
I100
sg11
I500
satp100
Rp101
(dp102
g25
I01
sg26
g31
sg32
(lp103
I3
aI5
aI30
aI9
asg34
I6
sg35
g36
(g3
tp104
Rp105
sbsS'NSGA2'
p106
g2
(g3
g4
(lp107
(dp108
g7
g62
sg9
F0.3520510196685791
sg10
I100
sg11
I0
sa(dp109
g7
g62
sg9
F41.08439087867737
sg10
I100
sg11
I100
sa(dp110
g7
g62
sg9
F82.02009892463684
sg10
I100
sg11
I200
sa(dp111
g7
g62
sg9
F122.82913208007812
sg10
I100
sg11
I300
sa(dp112
g7
g62
sg9
F164.1628930568695
sg10
I100
sg11
I400
sa(dp113
g7
g62
sg9
F205.90189695358276
sg10
I100
sg11
I500
satp114
Rp115
(dp116
g25
I01
sg26
g31
sg32
(lp117
I3
aI5
aI30
aI9
asg34
I6
sg35
g36
(g3
tp118
Rp119
sbsS'IBEA-SIP'
p120
g2
(g3
g4
(lp121
(dp122
g7
(F0.064
F2.218
F0.02
I1
I2
tp123
sg9
F0.22561907768249512
sg10
I100
sg11
I0
sa(dp124
g7
(F0.15
F0.672
F0.042
I76
I100
tp125
sg9
F29.84188199043274
sg10
I100
sg11
I100
sa(dp126
g7
(F0.159
F0.724
F0.052
I81
I100
tp127
sg9
F60.184139013290405
sg10
I100
sg11
I200
sa(dp128
g7
(F0.163
F0.646
F0.058
I76
I100
tp129
sg9
F90.84974408149719
sg10
I100
sg11
I300
sa(dp130
g7
(F0.167
F0.698
F0.06
I77
I100
tp131
sg9
F121.58882689476013
sg10
I100
sg11
I400
sa(dp132
g7
(F0.17
F0.731
F0.061
I82
I100
tp133
sg9
F152.76206803321838
sg10
I100
sg11
I500
satp134
Rp135
(dp136
g25
I01
sg26
g31
sg32
(lp137
I3
aI5
aI30
aI9
asg34
I6
sg35
g36
(g3
tp138
Rp139
sbs.