(dp0
S'NSGA2'
p1
ccopy_reg
_reconstructor
p2
(cdeap.tools.support
Logbook
p3
c__builtin__
list
p4
(lp5
(dp6
S'hv|spread|igd|frontier#|valid#'
p7
(I0
I0
I0
I0
I0
tp8
sS'timestamp'
p9
F0.34833192825317383
sS'evals'
p10
I100
sS'gen'
p11
I0
sa(dp12
g7
g8
sg9
F39.542234897613525
sg10
I100
sg11
I100
sa(dp13
g7
g8
sg9
F79.60194492340088
sg10
I100
sg11
I200
sa(dp14
g7
g8
sg9
F119.9666178226471
sg10
I100
sg11
I300
sa(dp15
g7
g8
sg9
F160.42158699035645
sg10
I100
sg11
I400
sa(dp16
g7
g8
sg9
F200.72887992858887
sg10
I100
sg11
I500
satp17
Rp18
(dp19
S'log_header'
p20
I01
sS'header'
p21
(S'gen'
p22
S'evals'
p23
S'hv|spread|igd|frontier#|valid#'
p24
S'timestamp'
p25
tp26
sS'columns_len'
p27
(lp28
I3
aI5
aI30
aI9
asS'buffindex'
p29
I6
sS'chapters'
p30
ccollections
defaultdict
p31
(g3
tp32
Rp33
sbsS'NSGA2-SIP'
p34
g2
(g3
g4
(lp35
(dp36
g7
(F0.078
F0.984
F0.021
I6
I6
tp37
sg9
F0.25537896156311035
sg10
I100
sg11
I0
sa(dp38
g7
(F0.138
F0.768
F0.048
I99
I100
tp39
sg9
F32.03062200546265
sg10
I100
sg11
I100
sa(dp40
g7
(F0.15
F0.731
F0.055
I100
I100
tp41
sg9
F64.29955697059631
sg10
I100
sg11
I200
sa(dp42
g7
(F0.154
F0.69
F0.056
I100
I100
tp43
sg9
F96.3242859840393
sg10
I100
sg11
I300
sa(dp44
g7
(F0.157
F0.609
F0.057
I100
I100
tp45
sg9
F128.94096207618713
sg10
I100
sg11
I400
sa(dp46
g7
(F0.16
F0.712
F0.058
I100
I100
tp47
sg9
F161.60224103927612
sg10
I100
sg11
I500
satp48
Rp49
(dp50
g20
I01
sg21
g26
sg27
(lp51
I3
aI5
aI31
aI9
asg29
I6
sg30
g31
(g3
tp52
Rp53
sbsS'IBEA-SIP'
p54
g2
(g3
g4
(lp55
(dp56
g7
(F0.074
F0.988
F0.022
I5
I7
tp57
sg9
F0.24874591827392578
sg10
I100
sg11
I0
sa(dp58
g7
(F0.153
F0.737
F0.043
I74
I100
tp59
sg9
F30.420325994491577
sg10
I100
sg11
I100
sa(dp60
g7
(F0.162
F0.665
F0.053
I77
I100
tp61
sg9
F61.05812096595764
sg10
I100
sg11
I200
sa(dp62
g7
(F0.167
F0.669
F0.054
I82
I100
tp63
sg9
F91.32583904266357
sg10
I100
sg11
I300
sa(dp64
g7
(F0.17
F0.7
F0.057
I81
I100
tp65
sg9
F121.32992696762085
sg10
I100
sg11
I400
sa(dp66
g7
(F0.173
F0.731
F0.056
I92
I100
tp67
sg9
F151.10753893852234
sg10
I100
sg11
I500
satp68
Rp69
(dp70
g20
I01
sg21
g26
sg27
(lp71
I3
aI5
aI30
aI9
asg29
I6
sg30
g31
(g3
tp72
Rp73
sbsS'SPEA2'
p74
g2
(g3
g4
(lp75
(dp76
g7
g8
sg9
F0.3477201461791992
sg10
I100
sg11
I0
sa(dp77
g7
g8
sg9
F82.58073711395264
sg10
I100
sg11
I100
sa(dp78
g7
g8
sg9
F164.9699740409851
sg10
I100
sg11
I200
sa(dp79
g7
g8
sg9
F244.31158995628357
sg10
I100
sg11
I300
sa(dp80
g7
g8
sg9
F320.09210300445557
sg10
I100
sg11
I400
sa(dp81
g7
g8
sg9
F395.8602180480957
sg10
I100
sg11
I500
satp82
Rp83
(dp84
g20
I01
sg21
g26
sg27
(lp85
I3
aI5
aI30
aI9
asg29
I6
sg30
g31
(g3
tp86
Rp87
sbsS'IBEA'
p88
g2
(g3
g4
(lp89
(dp90
g7
g8
sg9
F0.3464381694793701
sg10
I100
sg11
I0
sa(dp91
g7
g8
sg9
F36.24679899215698
sg10
I100
sg11
I100
sa(dp92
g7
g8
sg9
F72.20029401779175
sg10
I100
sg11
I200
sa(dp93
g7
g8
sg9
F108.31583213806152
sg10
I100
sg11
I300
sa(dp94
g7
g8
sg9
F144.07420206069946
sg10
I100
sg11
I400
sa(dp95
g7
g8
sg9
F179.55664110183716
sg10
I100
sg11
I500
satp96
Rp97
(dp98
g20
I01
sg21
g26
sg27
(lp99
I3
aI5
aI30
aI9
asg29
I6
sg30
g31
(g3
tp100
Rp101
sbs.