(dp0
S'NSGA2'
p1
ccopy_reg
_reconstructor
p2
(cdeap.tools.support
Logbook
p3
c__builtin__
list
p4
(lp5
(dp6
S'hv|spread|igd|frontier#|valid#'
p7
(I0
I0
I0
I0
I0
tp8
sS'timestamp'
p9
F0.35535502433776855
sS'evals'
p10
I100
sS'gen'
p11
I0
sa(dp12
g7
g8
sg9
F40.109647035598755
sg10
I100
sg11
I100
sa(dp13
g7
g8
sg9
F80.4404239654541
sg10
I100
sg11
I200
sa(dp14
g7
g8
sg9
F121.19474792480469
sg10
I100
sg11
I300
sa(dp15
g7
g8
sg9
F161.61934900283813
sg10
I100
sg11
I400
sa(dp16
g7
g8
sg9
F201.81378412246704
sg10
I100
sg11
I500
satp17
Rp18
(dp19
S'log_header'
p20
I01
sS'header'
p21
(S'gen'
p22
S'evals'
p23
g7
S'timestamp'
p24
tp25
sS'columns_len'
p26
(lp27
I3
aI5
aI30
aI9
asS'buffindex'
p28
I6
sS'chapters'
p29
ccollections
defaultdict
p30
(g3
tp31
Rp32
sbsS'NSGA2-SIP'
p33
g2
(g3
g4
(lp34
(dp35
g7
(F0.071
F0.977
F0.031
I3
I3
tp36
sg9
F0.24293303489685059
sg10
I100
sg11
I0
sa(dp37
g7
(F0.137
F0.795
F0.042
I100
I100
tp38
sg9
F32.16847085952759
sg10
I100
sg11
I100
sa(dp39
g7
(F0.147
F0.786
F0.051
I100
I100
tp40
sg9
F64.9888060092926
sg10
I100
sg11
I200
sa(dp41
g7
(F0.154
F0.672
F0.055
I100
I100
tp42
sg9
F98.86129093170166
sg10
I100
sg11
I300
sa(dp43
g7
(F0.161
F0.614
F0.056
I100
I100
tp44
sg9
F132.41304302215576
sg10
I100
sg11
I400
sa(dp45
g7
(F0.162
F0.675
F0.056
I100
I100
tp46
sg9
F165.7949640750885
sg10
I100
sg11
I500
satp47
Rp48
(dp49
g20
I01
sg21
g25
sg26
(lp50
I3
aI5
aI31
aI9
asg28
I6
sg29
g30
(g3
tp51
Rp52
sbsS'IBEA-SIP'
p53
g2
(g3
g4
(lp54
(dp55
g7
(F0.07
F0.977
F0.014
I2
I3
tp56
sg9
F0.24521279335021973
sg10
I100
sg11
I0
sa(dp57
g7
(F0.144
F0.727
F0.048
I68
I100
tp58
sg9
F31.43663787841797
sg10
I100
sg11
I100
sa(dp59
g7
(F0.154
F0.742
F0.055
I82
I100
tp60
sg9
F63.92395091056824
sg10
I100
sg11
I200
sa(dp61
g7
(F0.164
F0.691
F0.057
I83
I100
tp62
sg9
F95.91467380523682
sg10
I100
sg11
I300
sa(dp63
g7
(F0.166
F0.658
F0.06
I83
I100
tp64
sg9
F127.21576690673828
sg10
I100
sg11
I400
sa(dp65
g7
(F0.171
F0.682
F0.061
I89
I100
tp66
sg9
F158.73812580108643
sg10
I100
sg11
I500
satp67
Rp68
(dp69
g20
I01
sg21
g25
sg26
(lp70
I3
aI5
aI30
aI9
asg28
I6
sg29
g30
(g3
tp71
Rp72
sbsS'SPEA2'
p73
g2
(g3
g4
(lp74
(dp75
g7
g8
sg9
F0.35207200050354004
sg10
I100
sg11
I0
sa(dp76
g7
g8
sg9
F86.90383315086365
sg10
I100
sg11
I100
sa(dp77
g7
g8
sg9
F178.67550897598267
sg10
I100
sg11
I200
sa(dp78
g7
g8
sg9
F267.9674291610718
sg10
I100
sg11
I300
sa(dp79
g7
g8
sg9
F354.6756730079651
sg10
I100
sg11
I400
sa(dp80
g7
g8
sg9
F440.08373498916626
sg10
I100
sg11
I500
satp81
Rp82
(dp83
g20
I01
sg21
g25
sg26
(lp84
I3
aI5
aI30
aI9
asg28
I6
sg29
g30
(g3
tp85
Rp86
sbsS'IBEA'
p87
g2
(g3
g4
(lp88
(dp89
g7
g8
sg9
F0.3570079803466797
sg10
I100
sg11
I0
sa(dp90
g7
g8
sg9
F37.09052395820618
sg10
I100
sg11
I100
sa(dp91
g7
g8
sg9
F74.00844192504883
sg10
I100
sg11
I200
sa(dp92
g7
g8
sg9
F110.58023190498352
sg10
I100
sg11
I300
sa(dp93
g7
g8
sg9
F147.0136649608612
sg10
I100
sg11
I400
sa(dp94
g7
g8
sg9
F183.39767003059387
sg10
I100
sg11
I500
satp95
Rp96
(dp97
g20
I01
sg21
g25
sg26
(lp98
I3
aI5
aI30
aI9
asg28
I6
sg29
g30
(g3
tp99
Rp100
sbs.