(dp0
S'NSGA2-SIP'
p1
ccopy_reg
_reconstructor
p2
(cdeap.tools.support
Logbook
p3
c__builtin__
list
p4
(lp5
(dp6
S'hv|spread|igd|frontier#|valid#'
p7
(F0.067
F1.0
F0.019
I2
I2
tp8
sS'timestamp'
p9
F0.2331080436706543
sS'evals'
p10
I100
sS'gen'
p11
I0
sa(dp12
g7
(F0.137
F0.844
F0.046
I99
I100
tp13
sg9
F32.02786207199097
sg10
I100
sg11
I100
sa(dp14
g7
(F0.144
F0.732
F0.053
I100
I100
tp15
sg9
F65.03813409805298
sg10
I100
sg11
I200
sa(dp16
g7
(F0.153
F0.67
F0.056
I100
I100
tp17
sg9
F98.72786092758179
sg10
I100
sg11
I300
sa(dp18
g7
(F0.158
F0.676
F0.06
I100
I100
tp19
sg9
F132.21230792999268
sg10
I100
sg11
I400
sa(dp20
g7
(F0.16
F0.657
F0.06
I100
I100
tp21
sg9
F166.1937918663025
sg10
I100
sg11
I500
satp22
Rp23
(dp24
S'log_header'
p25
I01
sS'header'
p26
(S'gen'
p27
S'evals'
p28
S'hv|spread|igd|frontier#|valid#'
p29
S'timestamp'
p30
tp31
sS'columns_len'
p32
(lp33
I3
aI5
aI31
aI9
asS'buffindex'
p34
I6
sS'chapters'
p35
ccollections
defaultdict
p36
(g3
tp37
Rp38
sbsS'SPEA2-SIP'
p39
g2
(g3
g4
(lp40
(dp41
g7
(F0.079
F0.939
F0.01
I2
I2
tp42
sg9
F0.23352599143981934
sg10
I100
sg11
I0
sa(dp43
g7
(F0.146
F0.981
F0.069
I79
I100
tp44
sg9
F78.7225570678711
sg10
I100
sg11
I100
sa(dp45
g7
(F0.151
F0.826
F0.078
I71
I100
tp46
sg9
F158.77114701271057
sg10
I100
sg11
I200
sa(dp47
g7
(F0.156
F0.823
F0.08
I78
I100
tp48
sg9
F237.45208311080933
sg10
I100
sg11
I300
sa(dp49
g7
(F0.157
F0.709
F0.082
I94
I100
tp50
sg9
F317.09242701530457
sg10
I100
sg11
I400
sa(dp51
g7
(F0.158
F0.677
F0.083
I84
I100
tp52
sg9
F395.3838050365448
sg10
I100
sg11
I500
satp53
Rp54
(dp55
g25
I01
sg26
g31
sg32
(lp56
I3
aI5
aI30
aI9
asg34
I6
sg35
g36
(g3
tp57
Rp58
sbsS'SPEA2'
p59
g2
(g3
g4
(lp60
(dp61
g7
(I0
I0
I0
I0
I0
tp62
sg9
F0.35452818870544434
sg10
I100
sg11
I0
sa(dp63
g7
g62
sg9
F87.4959089756012
sg10
I100
sg11
I100
sa(dp64
g7
g62
sg9
F175.1251540184021
sg10
I100
sg11
I200
sa(dp65
g7
g62
sg9
F260.44941115379333
sg10
I100
sg11
I300
sa(dp66
g7
g62
sg9
F344.07832312583923
sg10
I100
sg11
I400
sa(dp67
g7
g62
sg9
F429.58363819122314
sg10
I100
sg11
I500
satp68
Rp69
(dp70
g25
I01
sg26
g31
sg32
(lp71
I3
aI5
aI30
aI9
asg34
I6
sg35
g36
(g3
tp72
Rp73
sbsS'IBEA-PEN'
p74
g2
(g3
g4
(lp75
(dp76
g7
(F0.134
F0.847
F0.02
I12
I14
tp77
sg9
F0.8353760242462158
sg10
I100
sg11
I0
sa(dp78
g7
g62
sg9
F38.54009199142456
sg10
I100
sg11
I100
sa(dp79
g7
g62
sg9
F76.25150108337402
sg10
I100
sg11
I200
sa(dp80
g7
g62
sg9
F113.78262615203857
sg10
I100
sg11
I300
sa(dp81
g7
(F0.018
F2.586
F0.022
I1
I1
tp82
sg9
F151.2963330745697
sg10
I100
sg11
I400
sa(dp83
g7
(F0.018
F2.586
F0.022
I1
I1
tp84
sg9
F188.97548699378967
sg10
I100
sg11
I500
satp85
Rp86
(dp87
g25
I01
sg26
g31
sg32
(lp88
I3
aI5
aI30
aI9
asg34
I6
sg35
g36
(g3
tp89
Rp90
sbsS'IBEA'
p91
g2
(g3
g4
(lp92
(dp93
g7
g62
sg9
F0.35678601264953613
sg10
I100
sg11
I0
sa(dp94
g7
g62
sg9
F36.67054200172424
sg10
I100
sg11
I100
sa(dp95
g7
g62
sg9
F72.98973798751831
sg10
I100
sg11
I200
sa(dp96
g7
g62
sg9
F108.85282397270203
sg10
I100
sg11
I300
sa(dp97
g7
g62
sg9
F144.7436008453369
sg10
I100
sg11
I400
sa(dp98
g7
g62
sg9
F180.90940189361572
sg10
I100
sg11
I500
satp99
Rp100
(dp101
g25
I01
sg26
g31
sg32
(lp102
I3
aI5
aI30
aI9
asg34
I6
sg35
g36
(g3
tp103
Rp104
sbsS'NSGA2'
p105
g2
(g3
g4
(lp106
(dp107
g7
g62
sg9
F0.3494420051574707
sg10
I100
sg11
I0
sa(dp108
g7
g62
sg9
F41.68114495277405
sg10
I100
sg11
I100
sa(dp109
g7
g62
sg9
F83.09211802482605
sg10
I100
sg11
I200
sa(dp110
g7
g62
sg9
F124.75567698478699
sg10
I100
sg11
I300
sa(dp111
g7
g62
sg9
F167.02013897895813
sg10
I100
sg11
I400
sa(dp112
g7
g62
sg9
F209.48193192481995
sg10
I100
sg11
I500
satp113
Rp114
(dp115
g25
I01
sg26
g31
sg32
(lp116
I3
aI5
aI30
aI9
asg34
I6
sg35
g36
(g3
tp117
Rp118
sbsS'IBEA-SIP'
p119
g2
(g3
g4
(lp120
(dp121
g7
(F0.084
F0.926
F0.009
I3
I4
tp122
sg9
F0.23903799057006836
sg10
I100
sg11
I0
sa(dp123
g7
(F0.143
F0.752
F0.045
I76
I100
tp124
sg9
F30.399224996566772
sg10
I100
sg11
I100
sa(dp125
g7
(F0.157
F0.68
F0.056
I76
I100
tp126
sg9
F61.38256788253784
sg10
I100
sg11
I200
sa(dp127
g7
(F0.164
F0.771
F0.06
I86
I100
tp128
sg9
F92.35804891586304
sg10
I100
sg11
I300
sa(dp129
g7
(F0.167
F0.733
F0.059
I85
I100
tp130
sg9
F122.92814707756042
sg10
I100
sg11
I400
sa(dp131
g7
(F0.168
F0.746
F0.061
I79
I100
tp132
sg9
F153.77719902992249
sg10
I100
sg11
I500
satp133
Rp134
(dp135
g25
I01
sg26
g31
sg32
(lp136
I3
aI5
aI30
aI9
asg34
I6
sg35
g36
(g3
tp137
Rp138
sbs.