(dp0
S'NSGA2-SIP'
p1
ccopy_reg
_reconstructor
p2
(cdeap.tools.support
Logbook
p3
c__builtin__
list
p4
(lp5
(dp6
S'hv|spread|igd|frontier#|valid#'
p7
(F0.08
F0.953
F0.02
I7
I7
tp8
sS'timestamp'
p9
F0.2550089359283447
sS'evals'
p10
I100
sS'gen'
p11
I0
sa(dp12
g7
(F0.14
F0.763
F0.041
I100
I100
tp13
sg9
F32.35498595237732
sg10
I100
sg11
I100
sa(dp14
g7
(F0.149
F0.721
F0.05
I100
I100
tp15
sg9
F65.73440408706665
sg10
I100
sg11
I200
sa(dp16
g7
(F0.155
F0.742
F0.057
I100
I100
tp17
sg9
F99.64215612411499
sg10
I100
sg11
I300
sa(dp18
g7
(F0.157
F0.687
F0.059
I100
I100
tp19
sg9
F133.69718098640442
sg10
I100
sg11
I400
sa(dp20
g7
(F0.161
F0.592
F0.058
I100
I100
tp21
sg9
F167.7404100894928
sg10
I100
sg11
I500
satp22
Rp23
(dp24
S'log_header'
p25
I01
sS'header'
p26
(S'gen'
p27
S'evals'
p28
S'hv|spread|igd|frontier#|valid#'
p29
S'timestamp'
p30
tp31
sS'columns_len'
p32
(lp33
I3
aI5
aI31
aI9
asS'buffindex'
p34
I6
sS'chapters'
p35
ccollections
defaultdict
p36
(g3
tp37
Rp38
sbsS'SPEA2-SIP'
p39
g2
(g3
g4
(lp40
(dp41
g7
(F0.082
F0.959
F0.016
I2
I4
tp42
sg9
F0.23270106315612793
sg10
I100
sg11
I0
sa(dp43
g7
(F0.146
F0.895
F0.058
I80
I100
tp44
sg9
F77.45452809333801
sg10
I100
sg11
I100
sa(dp45
g7
(F0.156
F0.796
F0.07
I86
I100
tp46
sg9
F155.55874300003052
sg10
I100
sg11
I200
sa(dp47
g7
(F0.163
F0.723
F0.078
I89
I100
tp48
sg9
F236.2889518737793
sg10
I100
sg11
I300
sa(dp49
g7
(F0.166
F0.657
F0.08
I97
I100
tp50
sg9
F312.9574279785156
sg10
I100
sg11
I400
sa(dp51
g7
(F0.169
F0.64
F0.084
I89
I100
tp52
sg9
F391.25087904930115
sg10
I100
sg11
I500
satp53
Rp54
(dp55
g25
I01
sg26
g31
sg32
(lp56
I3
aI5
aI30
aI9
asg34
I6
sg35
g36
(g3
tp57
Rp58
sbsS'SPEA2'
p59
g2
(g3
g4
(lp60
(dp61
g7
(I0
I0
I0
I0
I0
tp62
sg9
F0.3581969738006592
sg10
I100
sg11
I0
sa(dp63
g7
g62
sg9
F87.6003201007843
sg10
I100
sg11
I100
sa(dp64
g7
g62
sg9
F187.5219190120697
sg10
I100
sg11
I200
sa(dp65
g7
g62
sg9
F283.7399151325226
sg10
I100
sg11
I300
sa(dp66
g7
g62
sg9
F379.9821779727936
sg10
I100
sg11
I400
sa(dp67
g7
g62
sg9
F468.88638401031494
sg10
I100
sg11
I500
satp68
Rp69
(dp70
g25
I01
sg26
g31
sg32
(lp71
I3
aI5
aI30
aI9
asg34
I6
sg35
g36
(g3
tp72
Rp73
sbsS'IBEA-PEN'
p74
g2
(g3
g4
(lp75
(dp76
g7
(F0.128
F0.883
F0.021
I9
I10
tp77
sg9
F0.8459570407867432
sg10
I100
sg11
I0
sa(dp78
g7
(F0.042
F2.453
F0.022
I1
I1
tp79
sg9
F39.420796155929565
sg10
I100
sg11
I100
sa(dp80
g7
g62
sg9
F77.86897611618042
sg10
I100
sg11
I200
sa(dp81
g7
g62
sg9
F116.41979694366455
sg10
I100
sg11
I300
sa(dp82
g7
g62
sg9
F154.71183705329895
sg10
I100
sg11
I400
sa(dp83
g7
g62
sg9
F193.0684790611267
sg10
I100
sg11
I500
satp84
Rp85
(dp86
g25
I01
sg26
g31
sg32
(lp87
I3
aI5
aI30
aI9
asg34
I6
sg35
g36
(g3
tp88
Rp89
sbsS'IBEA'
p90
g2
(g3
g4
(lp91
(dp92
g7
g62
sg9
F0.35872817039489746
sg10
I100
sg11
I0
sa(dp93
g7
g62
sg9
F37.342549085617065
sg10
I100
sg11
I100
sa(dp94
g7
g62
sg9
F74.54243206977844
sg10
I100
sg11
I200
sa(dp95
g7
g62
sg9
F111.62671899795532
sg10
I100
sg11
I300
sa(dp96
g7
g62
sg9
F148.92884707450867
sg10
I100
sg11
I400
sa(dp97
g7
g62
sg9
F186.23061895370483
sg10
I100
sg11
I500
satp98
Rp99
(dp100
g25
I01
sg26
g31
sg32
(lp101
I3
aI5
aI30
aI9
asg34
I6
sg35
g36
(g3
tp102
Rp103
sbsS'NSGA2'
p104
g2
(g3
g4
(lp105
(dp106
g7
g62
sg9
F0.3615148067474365
sg10
I100
sg11
I0
sa(dp107
g7
g62
sg9
F41.51992392539978
sg10
I100
sg11
I100
sa(dp108
g7
g62
sg9
F83.30690598487854
sg10
I100
sg11
I200
sa(dp109
g7
g62
sg9
F125.57227492332458
sg10
I100
sg11
I300
sa(dp110
g7
g62
sg9
F168.0780119895935
sg10
I100
sg11
I400
sa(dp111
g7
g62
sg9
F211.1507887840271
sg10
I100
sg11
I500
satp112
Rp113
(dp114
g25
I01
sg26
g31
sg32
(lp115
I3
aI5
aI30
aI9
asg34
I6
sg35
g36
(g3
tp116
Rp117
sbsS'IBEA-SIP'
p118
g2
(g3
g4
(lp119
(dp120
g7
(F0.075
F0.977
F0.012
I2
I2
tp121
sg9
F0.23078489303588867
sg10
I100
sg11
I0
sa(dp122
g7
(F0.143
F0.687
F0.044
I71
I100
tp123
sg9
F30.39064884185791
sg10
I100
sg11
I100
sa(dp124
g7
(F0.153
F0.682
F0.053
I77
I100
tp125
sg9
F60.827863931655884
sg10
I100
sg11
I200
sa(dp126
g7
(F0.162
F0.688
F0.056
I78
I100
tp127
sg9
F91.2993757724762
sg10
I100
sg11
I300
sa(dp128
g7
(F0.169
F0.711
F0.054
I83
I100
tp129
sg9
F122.00865983963013
sg10
I100
sg11
I400
sa(dp130
g7
(F0.169
F0.72
F0.056
I79
I100
tp131
sg9
F152.84611892700195
sg10
I100
sg11
I500
satp132
Rp133
(dp134
g25
I01
sg26
g31
sg32
(lp135
I3
aI5
aI30
aI9
asg34
I6
sg35
g36
(g3
tp136
Rp137
sbs.