(dp0
S'NSGA2-SIP'
p1
ccopy_reg
_reconstructor
p2
(cdeap.tools.support
Logbook
p3
c__builtin__
list
p4
(lp5
(dp6
S'hv|spread|igd|frontier#|valid#'
p7
(F0.069
F0.975
F0.021
I2
I4
tp8
sS'timestamp'
p9
F0.20276689529418945
sS'evals'
p10
I100
sS'gen'
p11
I0
sa(dp12
g7
(F0.144
F0.827
F0.042
I100
I100
tp13
sg9
F27.33032488822937
sg10
I100
sg11
I100
sa(dp14
g7
(F0.15
F0.7
F0.051
I100
I100
tp15
sg9
F55.20508098602295
sg10
I100
sg11
I200
sa(dp16
g7
(F0.152
F0.581
F0.056
I100
I100
tp17
sg9
F83.5632688999176
sg10
I100
sg11
I300
sa(dp18
g7
(F0.157
F0.698
F0.058
I100
I100
tp19
sg9
F111.87974500656128
sg10
I100
sg11
I400
sa(dp20
g7
(F0.159
F0.704
F0.058
I100
I100
tp21
sg9
F140.2046880722046
sg10
I100
sg11
I500
satp22
Rp23
(dp24
S'log_header'
p25
I01
sS'header'
p26
(S'gen'
p27
S'evals'
p28
g7
S'timestamp'
p29
tp30
sS'columns_len'
p31
(lp32
I3
aI5
aI31
aI9
asS'buffindex'
p33
I6
sS'chapters'
p34
ccollections
defaultdict
p35
(g3
tp36
Rp37
sbsS'SPEA2-SIP'
p38
g2
(g3
g4
(lp39
(dp40
g7
(F0.075
F0.98
F0.017
I4
I4
tp41
sg9
F0.20842695236206055
sg10
I100
sg11
I0
sa(dp42
g7
(F0.146
F0.868
F0.065
I80
I100
tp43
sg9
F64.7877550125122
sg10
I100
sg11
I100
sa(dp44
g7
(F0.155
F0.75
F0.078
I87
I100
tp45
sg9
F130.5036051273346
sg10
I100
sg11
I200
sa(dp46
g7
(F0.157
F0.688
F0.082
I83
I100
tp47
sg9
F195.7863631248474
sg10
I100
sg11
I300
sa(dp48
g7
(F0.158
F0.66
F0.085
I91
I100
tp49
sg9
F260.0819299221039
sg10
I100
sg11
I400
sa(dp50
g7
(F0.161
F0.657
F0.086
I92
I100
tp51
sg9
F325.6767489910126
sg10
I100
sg11
I500
satp52
Rp53
(dp54
g25
I01
sg26
g30
sg31
(lp55
I3
aI5
aI30
aI9
asg33
I6
sg34
g35
(g3
tp56
Rp57
sbsS'SPEA2'
p58
g2
(g3
g4
(lp59
(dp60
g7
(I0
I0
I0
I0
I0
tp61
sg9
F0.29778099060058594
sg10
I100
sg11
I0
sa(dp62
g7
g61
sg9
F68.01525592803955
sg10
I100
sg11
I100
sa(dp63
g7
g61
sg9
F136.31117486953735
sg10
I100
sg11
I200
sa(dp64
g7
g61
sg9
F205.42102479934692
sg10
I100
sg11
I300
sa(dp65
g7
g61
sg9
F273.81203389167786
sg10
I100
sg11
I400
sa(dp66
g7
g61
sg9
F339.34023690223694
sg10
I100
sg11
I500
satp67
Rp68
(dp69
g25
I01
sg26
g30
sg31
(lp70
I3
aI5
aI30
aI9
asg33
I6
sg34
g35
(g3
tp71
Rp72
sbsS'IBEA'
p73
g2
(g3
g4
(lp74
(dp75
g7
g61
sg9
F0.29700398445129395
sg10
I100
sg11
I0
sa(dp76
g7
g61
sg9
F30.81202507019043
sg10
I100
sg11
I100
sa(dp77
g7
g61
sg9
F61.14711904525757
sg10
I100
sg11
I200
sa(dp78
g7
g61
sg9
F91.77846717834473
sg10
I100
sg11
I300
sa(dp79
g7
g61
sg9
F122.3174979686737
sg10
I100
sg11
I400
sa(dp80
g7
g61
sg9
F152.69913506507874
sg10
I100
sg11
I500
satp81
Rp82
(dp83
g25
I01
sg26
g30
sg31
(lp84
I3
aI5
aI30
aI9
asg33
I6
sg34
g35
(g3
tp85
Rp86
sbsS'NSGA2'
p87
g2
(g3
g4
(lp88
(dp89
g7
g61
sg9
F0.2964491844177246
sg10
I100
sg11
I0
sa(dp90
g7
g61
sg9
F33.52511715888977
sg10
I100
sg11
I100
sa(dp91
g7
g61
sg9
F67.2549250125885
sg10
I100
sg11
I200
sa(dp92
g7
g61
sg9
F101.00204205513
sg10
I100
sg11
I300
sa(dp93
g7
g61
sg9
F135.02864718437195
sg10
I100
sg11
I400
sa(dp94
g7
g61
sg9
F169.12093901634216
sg10
I100
sg11
I500
satp95
Rp96
(dp97
g25
I01
sg26
g30
sg31
(lp98
I3
aI5
aI30
aI9
asg33
I6
sg34
g35
(g3
tp99
Rp100
sbsS'IBEA-SIP'
p101
g2
(g3
g4
(lp102
(dp103
g7
(F0.071
F0.983
F0.024
I4
I4
tp104
sg9
F0.206589937210083
sg10
I100
sg11
I0
sa(dp105
g7
(F0.141
F0.77
F0.045
I72
I100
tp106
sg9
F26.26683497428894
sg10
I100
sg11
I100
sa(dp107
g7
(F0.156
F0.728
F0.056
I82
I100
tp108
sg9
F52.799155950546265
sg10
I100
sg11
I200
sa(dp109
g7
(F0.161
F0.717
F0.058
I90
I100
tp110
sg9
F79.23010802268982
sg10
I100
sg11
I300
sa(dp111
g7
(F0.166
F0.676
F0.06
I83
I100
tp112
sg9
F105.71143102645874
sg10
I100
sg11
I400
sa(dp113
g7
(F0.168
F0.697
F0.06
I87
I100
tp114
sg9
F131.9844310283661
sg10
I100
sg11
I500
satp115
Rp116
(dp117
g25
I01
sg26
g30
sg31
(lp118
I3
aI5
aI30
aI9
asg33
I6
sg34
g35
(g3
tp119
Rp120
sbs.