(dp0
S'NSGA2'
p1
ccopy_reg
_reconstructor
p2
(cdeap.tools.support
Logbook
p3
c__builtin__
list
p4
(lp5
(dp6
S'hv|spread|igd|frontier#|valid#'
p7
(I0
I0
I0
I0
I0
tp8
sS'timestamp'
p9
F0.46962809562683105
sS'evals'
p10
I100
sS'gen'
p11
I0
sa(dp12
g7
g8
sg9
F39.08390021324158
sg10
I100
sg11
I100
sa(dp13
g7
g8
sg9
F78.25042819976807
sg10
I100
sg11
I200
sa(dp14
g7
g8
sg9
F117.3168511390686
sg10
I100
sg11
I300
sa(dp15
g7
g8
sg9
F156.56298899650574
sg10
I100
sg11
I400
sa(dp16
g7
g8
sg9
F197.22582006454468
sg10
I100
sg11
I500
satp17
Rp18
(dp19
S'log_header'
p20
I01
sS'header'
p21
(S'gen'
p22
S'evals'
p23
S'hv|spread|igd|frontier#|valid#'
p24
S'timestamp'
p25
tp26
sS'columns_len'
p27
(lp28
I3
aI5
aI30
aI9
asS'buffindex'
p29
I6
sS'chapters'
p30
ccollections
defaultdict
p31
(g3
tp32
Rp33
sbsS'NSGA2-SIP'
p34
g2
(g3
g4
(lp35
(dp36
g7
(F0.076
F0.971
F0.017
I4
I5
tp37
sg9
F0.24142789840698242
sg10
I100
sg11
I0
sa(dp38
g7
(F0.14
F0.763
F0.043
I100
I100
tp39
sg9
F30.76500391960144
sg10
I100
sg11
I100
sa(dp40
g7
(F0.15
F0.788
F0.051
I100
I100
tp41
sg9
F60.86379885673523
sg10
I100
sg11
I200
sa(dp42
g7
(F0.157
F0.713
F0.053
I100
I100
tp43
sg9
F91.7061619758606
sg10
I100
sg11
I300
sa(dp44
g7
(F0.16
F0.651
F0.054
I100
I100
tp45
sg9
F122.49046492576599
sg10
I100
sg11
I400
sa(dp46
g7
(F0.161
F0.612
F0.056
I100
I100
tp47
sg9
F153.07166981697083
sg10
I100
sg11
I500
satp48
Rp49
(dp50
g20
I01
sg21
g26
sg27
(lp51
I3
aI5
aI31
aI9
asg29
I6
sg30
g31
(g3
tp52
Rp53
sbsS'IBEA-SIP'
p54
g2
(g3
g4
(lp55
(dp56
g7
(F0.074
F1.0
F0.015
I3
I3
tp57
sg9
F0.2341899871826172
sg10
I100
sg11
I0
sa(dp58
g7
(F0.151
F0.82
F0.043
I69
I100
tp59
sg9
F30.226808071136475
sg10
I100
sg11
I100
sa(dp60
g7
(F0.157
F0.652
F0.046
I77
I100
tp61
sg9
F60.75138211250305
sg10
I100
sg11
I200
sa(dp62
g7
(F0.159
F0.686
F0.05
I84
I100
tp63
sg9
F91.2403359413147
sg10
I100
sg11
I300
sa(dp64
g7
(F0.163
F0.709
F0.054
I78
I100
tp65
sg9
F121.26559805870056
sg10
I100
sg11
I400
sa(dp66
g7
(F0.166
F0.637
F0.054
I88
I100
tp67
sg9
F151.791198015213
sg10
I100
sg11
I500
satp68
Rp69
(dp70
g20
I01
sg21
g26
sg27
(lp71
I3
aI5
aI30
aI9
asg29
I6
sg30
g31
(g3
tp72
Rp73
sbsS'SPEA2'
p74
g2
(g3
g4
(lp75
(dp76
g7
g8
sg9
F0.3726530075073242
sg10
I100
sg11
I0
sa(dp77
g7
g8
sg9
F81.51339912414551
sg10
I100
sg11
I100
sa(dp78
g7
g8
sg9
F159.21030712127686
sg10
I100
sg11
I200
sa(dp79
g7
g8
sg9
F253.20215392112732
sg10
I100
sg11
I300
sa(dp80
g7
g8
sg9
F332.88210892677307
sg10
I100
sg11
I400
sa(dp81
g7
g8
sg9
F411.1488559246063
sg10
I100
sg11
I500
satp82
Rp83
(dp84
g20
I01
sg21
g26
sg27
(lp85
I3
aI5
aI30
aI9
asg29
I6
sg30
g31
(g3
tp86
Rp87
sbsS'IBEA'
p88
g2
(g3
g4
(lp89
(dp90
g7
g8
sg9
F0.34070611000061035
sg10
I100
sg11
I0
sa(dp91
g7
g8
sg9
F35.51282811164856
sg10
I100
sg11
I100
sa(dp92
g7
g8
sg9
F71.13627696037292
sg10
I100
sg11
I200
sa(dp93
g7
g8
sg9
F106.71945214271545
sg10
I100
sg11
I300
sa(dp94
g7
g8
sg9
F142.0476679801941
sg10
I100
sg11
I400
sa(dp95
g7
g8
sg9
F177.5340759754181
sg10
I100
sg11
I500
satp96
Rp97
(dp98
g20
I01
sg21
g26
sg27
(lp99
I3
aI5
aI30
aI9
asg29
I6
sg30
g31
(g3
tp100
Rp101
sbs.