(dp0
S'NSGA2'
p1
ccopy_reg
_reconstructor
p2
(cdeap.tools.support
Logbook
p3
c__builtin__
list
p4
(lp5
(dp6
S'hv|spread|igd|frontier#|valid#'
p7
(I0
I0
I0
I0
I0
tp8
sS'timestamp'
p9
F0.3452639579772949
sS'evals'
p10
I100
sS'gen'
p11
I0
sa(dp12
g7
g8
sg9
F39.719866037368774
sg10
I100
sg11
I100
sa(dp13
g7
g8
sg9
F79.75492191314697
sg10
I100
sg11
I200
sa(dp14
g7
g8
sg9
F119.68489599227905
sg10
I100
sg11
I300
sa(dp15
g7
g8
sg9
F159.59407806396484
sg10
I100
sg11
I400
sa(dp16
g7
g8
sg9
F199.5494830608368
sg10
I100
sg11
I500
satp17
Rp18
(dp19
S'log_header'
p20
I01
sS'header'
p21
(S'gen'
p22
S'evals'
p23
S'hv|spread|igd|frontier#|valid#'
p24
S'timestamp'
p25
tp26
sS'columns_len'
p27
(lp28
I3
aI5
aI30
aI9
asS'buffindex'
p29
I6
sS'chapters'
p30
ccollections
defaultdict
p31
(g3
tp32
Rp33
sbsS'NSGA2-SIP'
p34
g2
(g3
g4
(lp35
(dp36
g7
(F0.061
F0.99
F0.036
I2
I2
tp37
sg9
F0.23501992225646973
sg10
I100
sg11
I0
sa(dp38
g7
(F0.139
F0.758
F0.04
I97
I100
tp39
sg9
F31.85168480873108
sg10
I100
sg11
I100
sa(dp40
g7
(F0.149
F0.681
F0.053
I100
I100
tp41
sg9
F64.56897687911987
sg10
I100
sg11
I200
sa(dp42
g7
(F0.155
F0.672
F0.056
I100
I100
tp43
sg9
F97.79034280776978
sg10
I100
sg11
I300
sa(dp44
g7
(F0.157
F0.609
F0.057
I100
I100
tp45
sg9
F131.0980498790741
sg10
I100
sg11
I400
sa(dp46
g7
(F0.16
F0.661
F0.057
I100
I100
tp47
sg9
F164.311851978302
sg10
I100
sg11
I500
satp48
Rp49
(dp50
g20
I01
sg21
g26
sg27
(lp51
I3
aI5
aI31
aI9
asg29
I6
sg30
g31
(g3
tp52
Rp53
sbsS'IBEA-SIP'
p54
g2
(g3
g4
(lp55
(dp56
g7
(F0.058
F1.12
F0.024
I1
I1
tp57
sg9
F0.2308361530303955
sg10
I100
sg11
I0
sa(dp58
g7
(F0.147
F0.771
F0.042
I78
I100
tp59
sg9
F30.715116024017334
sg10
I100
sg11
I100
sa(dp60
g7
(F0.158
F0.674
F0.053
I81
I100
tp61
sg9
F61.89706802368164
sg10
I100
sg11
I200
sa(dp62
g7
(F0.161
F0.68
F0.058
I83
I100
tp63
sg9
F92.8333101272583
sg10
I100
sg11
I300
sa(dp64
g7
(F0.166
F0.737
F0.06
I79
I100
tp65
sg9
F123.54386806488037
sg10
I100
sg11
I400
sa(dp66
g7
(F0.168
F0.633
F0.062
I78
I100
tp67
sg9
F153.73003101348877
sg10
I100
sg11
I500
satp68
Rp69
(dp70
g20
I01
sg21
g26
sg27
(lp71
I3
aI5
aI30
aI9
asg29
I6
sg30
g31
(g3
tp72
Rp73
sbsS'SPEA2'
p74
g2
(g3
g4
(lp75
(dp76
g7
g8
sg9
F0.34746289253234863
sg10
I100
sg11
I0
sa(dp77
g7
g8
sg9
F90.08267402648926
sg10
I100
sg11
I100
sa(dp78
g7
g8
sg9
F176.9327118396759
sg10
I100
sg11
I200
sa(dp79
g7
g8
sg9
F262.20678091049194
sg10
I100
sg11
I300
sa(dp80
g7
g8
sg9
F345.9664559364319
sg10
I100
sg11
I400
sa(dp81
g7
g8
sg9
F430.74582290649414
sg10
I100
sg11
I500
satp82
Rp83
(dp84
g20
I01
sg21
g26
sg27
(lp85
I3
aI5
aI30
aI9
asg29
I6
sg30
g31
(g3
tp86
Rp87
sbsS'IBEA'
p88
g2
(g3
g4
(lp89
(dp90
g7
g8
sg9
F0.34653687477111816
sg10
I100
sg11
I0
sa(dp91
g7
g8
sg9
F36.52803897857666
sg10
I100
sg11
I100
sa(dp92
g7
g8
sg9
F73.0014169216156
sg10
I100
sg11
I200
sa(dp93
g7
g8
sg9
F109.21873497962952
sg10
I100
sg11
I300
sa(dp94
g7
g8
sg9
F145.51741194725037
sg10
I100
sg11
I400
sa(dp95
g7
g8
sg9
F181.57786798477173
sg10
I100
sg11
I500
satp96
Rp97
(dp98
g20
I01
sg21
g26
sg27
(lp99
I3
aI5
aI30
aI9
asg29
I6
sg30
g31
(g3
tp100
Rp101
sbs.