(dp0
S'NSGA2-SIP'
p1
ccopy_reg
_reconstructor
p2
(cdeap.tools.support
Logbook
p3
c__builtin__
list
p4
(lp5
(dp6
S'hv|spread|igd|frontier#|valid#'
p7
(F0.072
F0.994
F0.017
I4
I4
tp8
sS'timestamp'
p9
F0.22910594940185547
sS'evals'
p10
I100
sS'gen'
p11
I0
sa(dp12
g7
(F0.142
F0.823
F0.044
I100
I100
tp13
sg9
F27.639930963516235
sg10
I100
sg11
I100
sa(dp14
g7
(F0.154
F0.714
F0.047
I100
I100
tp15
sg9
F55.56319499015808
sg10
I100
sg11
I200
sa(dp16
g7
(F0.158
F0.689
F0.049
I100
I100
tp17
sg9
F83.22581791877747
sg10
I100
sg11
I300
sa(dp18
g7
(F0.159
F0.691
F0.053
I100
I100
tp19
sg9
F110.80120801925659
sg10
I100
sg11
I400
sa(dp20
g7
(F0.161
F0.742
F0.054
I100
I100
tp21
sg9
F138.41757583618164
sg10
I100
sg11
I500
satp22
Rp23
(dp24
S'log_header'
p25
I01
sS'header'
p26
(S'gen'
p27
S'evals'
p28
S'hv|spread|igd|frontier#|valid#'
p29
S'timestamp'
p30
tp31
sS'columns_len'
p32
(lp33
I3
aI5
aI31
aI9
asS'buffindex'
p34
I6
sS'chapters'
p35
ccollections
defaultdict
p36
(g3
tp37
Rp38
sbsS'SPEA2-SIP'
p39
g2
(g3
g4
(lp40
(dp41
g7
(F0.081
F0.916
F0.017
I6
I6
tp42
sg9
F0.23797893524169922
sg10
I100
sg11
I0
sa(dp43
g7
(F0.151
F0.794
F0.063
I78
I100
tp44
sg9
F65.43576097488403
sg10
I100
sg11
I100
sa(dp45
g7
(F0.162
F0.848
F0.078
I77
I100
tp46
sg9
F130.4961540699005
sg10
I100
sg11
I200
sa(dp47
g7
(F0.166
F0.777
F0.082
I70
I100
tp48
sg9
F196.07722091674805
sg10
I100
sg11
I300
sa(dp49
g7
(F0.167
F0.851
F0.084
I73
I100
tp50
sg9
F260.7446858882904
sg10
I100
sg11
I400
sa(dp51
g7
(F0.169
F0.783
F0.085
I72
I100
tp52
sg9
F325.34092807769775
sg10
I100
sg11
I500
satp53
Rp54
(dp55
g25
I01
sg26
g31
sg32
(lp56
I3
aI5
aI30
aI9
asg34
I6
sg35
g36
(g3
tp57
Rp58
sbsS'SPEA2'
p59
g2
(g3
g4
(lp60
(dp61
g7
(I0
I0
I0
I0
I0
tp62
sg9
F0.328200101852417
sg10
I100
sg11
I0
sa(dp63
g7
g62
sg9
F68.66986799240112
sg10
I100
sg11
I100
sa(dp64
g7
g62
sg9
F135.48672008514404
sg10
I100
sg11
I200
sa(dp65
g7
g62
sg9
F201.11283111572266
sg10
I100
sg11
I300
sa(dp66
g7
g62
sg9
F267.87935495376587
sg10
I100
sg11
I400
sa(dp67
g7
g62
sg9
F335.229150056839
sg10
I100
sg11
I500
satp68
Rp69
(dp70
g25
I01
sg26
g31
sg32
(lp71
I3
aI5
aI30
aI9
asg34
I6
sg35
g36
(g3
tp72
Rp73
sbsS'IBEA-PEN'
p74
g2
(g3
g4
(lp75
(dp76
g7
(F0.127
F0.87
F0.022
I11
I11
tp77
sg9
F0.7705941200256348
sg10
I100
sg11
I0
sa(dp78
g7
g62
sg9
F32.43276309967041
sg10
I100
sg11
I100
sa(dp79
g7
g62
sg9
F63.42150902748108
sg10
I100
sg11
I200
sa(dp80
g7
g62
sg9
F94.98548603057861
sg10
I100
sg11
I300
sa(dp81
g7
g62
sg9
F126.29656505584717
sg10
I100
sg11
I400
sa(dp82
g7
(F0.037
F2.5
F0.01
I1
I1
tp83
sg9
F158.0216670036316
sg10
I100
sg11
I500
satp84
Rp85
(dp86
g25
I01
sg26
g31
sg32
(lp87
I3
aI5
aI30
aI9
asg34
I6
sg35
g36
(g3
tp88
Rp89
sbsS'IBEA'
p90
g2
(g3
g4
(lp91
(dp92
g7
g62
sg9
F0.3329019546508789
sg10
I100
sg11
I0
sa(dp93
g7
g62
sg9
F30.939414978027344
sg10
I100
sg11
I100
sa(dp94
g7
g62
sg9
F61.65178394317627
sg10
I100
sg11
I200
sa(dp95
g7
g62
sg9
F92.58451104164124
sg10
I100
sg11
I300
sa(dp96
g7
g62
sg9
F123.20937490463257
sg10
I100
sg11
I400
sa(dp97
g7
g62
sg9
F153.880756855011
sg10
I100
sg11
I500
satp98
Rp99
(dp100
g25
I01
sg26
g31
sg32
(lp101
I3
aI5
aI30
aI9
asg34
I6
sg35
g36
(g3
tp102
Rp103
sbsS'NSGA2'
p104
g2
(g3
g4
(lp105
(dp106
g7
g62
sg9
F0.32898402214050293
sg10
I100
sg11
I0
sa(dp107
g7
g62
sg9
F33.86659002304077
sg10
I100
sg11
I100
sa(dp108
g7
g62
sg9
F67.78146004676819
sg10
I100
sg11
I200
sa(dp109
g7
g62
sg9
F101.67649722099304
sg10
I100
sg11
I300
sa(dp110
g7
g62
sg9
F136.18657898902893
sg10
I100
sg11
I400
sa(dp111
g7
g62
sg9
F170.98603010177612
sg10
I100
sg11
I500
satp112
Rp113
(dp114
g25
I01
sg26
g31
sg32
(lp115
I3
aI5
aI30
aI9
asg34
I6
sg35
g36
(g3
tp116
Rp117
sbsS'IBEA-SIP'
p118
g2
(g3
g4
(lp119
(dp120
g7
(F0.076
F0.998
F0.02
I5
I5
tp121
sg9
F0.23269414901733398
sg10
I100
sg11
I0
sa(dp122
g7
(F0.148
F0.704
F0.043
I77
I100
tp123
sg9
F26.40731906890869
sg10
I100
sg11
I100
sa(dp124
g7
(F0.158
F0.681
F0.05
I76
I100
tp125
sg9
F52.13678002357483
sg10
I100
sg11
I200
sa(dp126
g7
(F0.166
F0.63
F0.056
I78
I100
tp127
sg9
F77.54270505905151
sg10
I100
sg11
I300
sa(dp128
g7
(F0.169
F0.773
F0.059
I73
I100
tp129
sg9
F102.9949541091919
sg10
I100
sg11
I400
sa(dp130
g7
(F0.172
F0.786
F0.061
I75
I100
tp131
sg9
F128.7530961036682
sg10
I100
sg11
I500
satp132
Rp133
(dp134
g25
I01
sg26
g31
sg32
(lp135
I3
aI5
aI30
aI9
asg34
I6
sg35
g36
(g3
tp136
Rp137
sbs.