(dp0
S'NSGA2-SIP'
p1
ccopy_reg
_reconstructor
p2
(cdeap.tools.support
Logbook
p3
c__builtin__
list
p4
(lp5
(dp6
S'hv|spread|igd|frontier#|valid#'
p7
(I0
I0
I0
I0
I0
tp8
sS'timestamp'
p9
F0.22501492500305176
sS'evals'
p10
I100
sS'gen'
p11
I0
sa(dp12
g7
(F0.141
F0.747
F0.042
I100
I100
tp13
sg9
F33.04260182380676
sg10
I100
sg11
I100
sa(dp14
g7
(F0.151
F0.693
F0.053
I100
I100
tp15
sg9
F66.38042187690735
sg10
I100
sg11
I200
sa(dp16
g7
(F0.156
F0.68
F0.056
I100
I100
tp17
sg9
F100.1229419708252
sg10
I100
sg11
I300
sa(dp18
g7
(F0.16
F0.733
F0.057
I100
I100
tp19
sg9
F133.72138285636902
sg10
I100
sg11
I400
sa(dp20
g7
(F0.161
F0.616
F0.057
I100
I100
tp21
sg9
F167.3890459537506
sg10
I100
sg11
I500
satp22
Rp23
(dp24
S'log_header'
p25
I01
sS'header'
p26
(S'gen'
p27
S'evals'
p28
S'hv|spread|igd|frontier#|valid#'
p29
S'timestamp'
p30
tp31
sS'columns_len'
p32
(lp33
I3
aI5
aI31
aI9
asS'buffindex'
p34
I6
sS'chapters'
p35
ccollections
defaultdict
p36
(g3
tp37
Rp38
sbsS'SPEA2-SIP'
p39
g2
(g3
g4
(lp40
(dp41
g7
(F0.078
F0.983
F0.022
I4
I4
tp42
sg9
F0.24097204208374023
sg10
I100
sg11
I0
sa(dp43
g7
(F0.149
F0.774
F0.069
I93
I100
tp44
sg9
F78.79754495620728
sg10
I100
sg11
I100
sa(dp45
g7
(F0.156
F0.738
F0.079
I94
I100
tp46
sg9
F158.16846203804016
sg10
I100
sg11
I200
sa(dp47
g7
(F0.158
F0.72
F0.085
I94
I100
tp48
sg9
F236.71650195121765
sg10
I100
sg11
I300
sa(dp49
g7
(F0.159
F0.716
F0.087
I92
I100
tp50
sg9
F313.3332920074463
sg10
I100
sg11
I400
sa(dp51
g7
(F0.16
F0.751
F0.09
I87
I100
tp52
sg9
F389.3905611038208
sg10
I100
sg11
I500
satp53
Rp54
(dp55
g25
I01
sg26
g31
sg32
(lp56
I3
aI5
aI30
aI9
asg34
I6
sg35
g36
(g3
tp57
Rp58
sbsS'SPEA2'
p59
g2
(g3
g4
(lp60
(dp61
g7
g8
sg9
F0.35246920585632324
sg10
I100
sg11
I0
sa(dp62
g7
g8
sg9
F81.74126315116882
sg10
I100
sg11
I100
sa(dp63
g7
g8
sg9
F169.84761714935303
sg10
I100
sg11
I200
sa(dp64
g7
g8
sg9
F265.90883708000183
sg10
I100
sg11
I300
sa(dp65
g7
g8
sg9
F356.17535400390625
sg10
I100
sg11
I400
sa(dp66
g7
g8
sg9
F449.3740210533142
sg10
I100
sg11
I500
satp67
Rp68
(dp69
g25
I01
sg26
g31
sg32
(lp70
I3
aI5
aI30
aI9
asg34
I6
sg35
g36
(g3
tp71
Rp72
sbsS'IBEA-PEN'
p73
g2
(g3
g4
(lp74
(dp75
g7
(F0.131
F0.71
F0.018
I16
I16
tp76
sg9
F0.847938060760498
sg10
I100
sg11
I0
sa(dp77
g7
g8
sg9
F37.5185329914093
sg10
I100
sg11
I100
sa(dp78
g7
g8
sg9
F74.37370204925537
sg10
I100
sg11
I200
sa(dp79
g7
g8
sg9
F111.29147911071777
sg10
I100
sg11
I300
sa(dp80
g7
g8
sg9
F148.0163950920105
sg10
I100
sg11
I400
sa(dp81
g7
g8
sg9
F184.88858699798584
sg10
I100
sg11
I500
satp82
Rp83
(dp84
g25
I01
sg26
g31
sg32
(lp85
I3
aI5
aI30
aI9
asg34
I6
sg35
g36
(g3
tp86
Rp87
sbsS'IBEA'
p88
g2
(g3
g4
(lp89
(dp90
g7
g8
sg9
F0.35242581367492676
sg10
I100
sg11
I0
sa(dp91
g7
g8
sg9
F36.567261934280396
sg10
I100
sg11
I100
sa(dp92
g7
g8
sg9
F73.07512998580933
sg10
I100
sg11
I200
sa(dp93
g7
g8
sg9
F109.45708894729614
sg10
I100
sg11
I300
sa(dp94
g7
g8
sg9
F145.3807017803192
sg10
I100
sg11
I400
sa(dp95
g7
g8
sg9
F181.35649991035461
sg10
I100
sg11
I500
satp96
Rp97
(dp98
g25
I01
sg26
g31
sg32
(lp99
I3
aI5
aI30
aI9
asg34
I6
sg35
g36
(g3
tp100
Rp101
sbsS'NSGA2'
p102
g2
(g3
g4
(lp103
(dp104
g7
g8
sg9
F0.35104894638061523
sg10
I100
sg11
I0
sa(dp105
g7
g8
sg9
F40.749271869659424
sg10
I100
sg11
I100
sa(dp106
g7
g8
sg9
F81.76495385169983
sg10
I100
sg11
I200
sa(dp107
g7
g8
sg9
F122.82246589660645
sg10
I100
sg11
I300
sa(dp108
g7
g8
sg9
F164.64849185943604
sg10
I100
sg11
I400
sa(dp109
g7
g8
sg9
F206.5661678314209
sg10
I100
sg11
I500
satp110
Rp111
(dp112
g25
I01
sg26
g31
sg32
(lp113
I3
aI5
aI30
aI9
asg34
I6
sg35
g36
(g3
tp114
Rp115
sbsS'IBEA-SIP'
p116
g2
(g3
g4
(lp117
(dp118
g7
(F0.073
F0.974
F0.015
I4
I6
tp119
sg9
F0.24412989616394043
sg10
I100
sg11
I0
sa(dp120
g7
(F0.139
F0.753
F0.046
I71
I100
tp121
sg9
F30.485312938690186
sg10
I100
sg11
I100
sa(dp122
g7
(F0.155
F0.74
F0.053
I83
I100
tp123
sg9
F61.400627851486206
sg10
I100
sg11
I200
sa(dp124
g7
(F0.162
F0.69
F0.057
I82
I100
tp125
sg9
F92.21720099449158
sg10
I100
sg11
I300
sa(dp126
g7
(F0.163
F0.775
F0.06
I84
I100
tp127
sg9
F123.05824184417725
sg10
I100
sg11
I400
sa(dp128
g7
(F0.168
F0.761
F0.063
I85
I100
tp129
sg9
F153.45268082618713
sg10
I100
sg11
I500
satp130
Rp131
(dp132
g25
I01
sg26
g31
sg32
(lp133
I3
aI5
aI30
aI9
asg34
I6
sg35
g36
(g3
tp134
Rp135
sbs.