(dp0
S'NSGA2-SIP'
p1
ccopy_reg
_reconstructor
p2
(cdeap.tools.support
Logbook
p3
c__builtin__
list
p4
(lp5
(dp6
S'hv|spread|igd|frontier#|valid#'
p7
(F0.077
F0.951
F0.016
I4
I4
tp8
sS'timestamp'
p9
F0.22753500938415527
sS'evals'
p10
I100
sS'gen'
p11
I0
sa(dp12
g7
(F0.14
F0.804
F0.046
I92
I100
tp13
sg9
F26.533668994903564
sg10
I100
sg11
I100
sa(dp14
g7
(F0.146
F0.721
F0.052
I100
I100
tp15
sg9
F52.791462898254395
sg10
I100
sg11
I200
sa(dp16
g7
(F0.149
F0.715
F0.053
I100
I100
tp17
sg9
F79.89670085906982
sg10
I100
sg11
I300
sa(dp18
g7
(F0.155
F0.668
F0.056
I100
I100
tp19
sg9
F106.96819496154785
sg10
I100
sg11
I400
sa(dp20
g7
(F0.158
F0.674
F0.059
I100
I100
tp21
sg9
F134.2095229625702
sg10
I100
sg11
I500
satp22
Rp23
(dp24
S'log_header'
p25
I01
sS'header'
p26
(S'gen'
p27
S'evals'
p28
S'hv|spread|igd|frontier#|valid#'
p29
S'timestamp'
p30
tp31
sS'columns_len'
p32
(lp33
I3
aI5
aI31
aI9
asS'buffindex'
p34
I6
sS'chapters'
p35
ccollections
defaultdict
p36
(g3
tp37
Rp38
sbsS'SPEA2-SIP'
p39
g2
(g3
g4
(lp40
(dp41
g7
(F0.075
F0.971
F0.018
I4
I4
tp42
sg9
F0.2361469268798828
sg10
I100
sg11
I0
sa(dp43
g7
(F0.142
F0.869
F0.058
I78
I100
tp44
sg9
F63.98031687736511
sg10
I100
sg11
I100
sa(dp45
g7
(F0.155
F0.693
F0.071
I96
I100
tp46
sg9
F130.03496885299683
sg10
I100
sg11
I200
sa(dp47
g7
(F0.159
F0.724
F0.076
I97
I100
tp48
sg9
F192.0977029800415
sg10
I100
sg11
I300
sa(dp49
g7
(F0.161
F0.733
F0.078
I93
I100
tp50
sg9
F254.43028783798218
sg10
I100
sg11
I400
sa(dp51
g7
(F0.162
F0.693
F0.08
I98
I100
tp52
sg9
F316.9346308708191
sg10
I100
sg11
I500
satp53
Rp54
(dp55
g25
I01
sg26
g31
sg32
(lp56
I3
aI5
aI30
aI9
asg34
I6
sg35
g36
(g3
tp57
Rp58
sbsS'SPEA2'
p59
g2
(g3
g4
(lp60
(dp61
g7
(I0
I0
I0
I0
I0
tp62
sg9
F0.3383450508117676
sg10
I100
sg11
I0
sa(dp63
g7
g62
sg9
F67.79699301719666
sg10
I100
sg11
I100
sa(dp64
g7
g62
sg9
F134.67362117767334
sg10
I100
sg11
I200
sa(dp65
g7
g62
sg9
F201.19717407226562
sg10
I100
sg11
I300
sa(dp66
g7
g62
sg9
F266.88420510292053
sg10
I100
sg11
I400
sa(dp67
g7
g62
sg9
F332.04756808280945
sg10
I100
sg11
I500
satp68
Rp69
(dp70
g25
I01
sg26
g31
sg32
(lp71
I3
aI5
aI30
aI9
asg34
I6
sg35
g36
(g3
tp72
Rp73
sbsS'IBEA-PEN'
p74
g2
(g3
g4
(lp75
(dp76
g7
(F0.102
F0.769
F0.02
I8
I11
tp77
sg9
F0.7664380073547363
sg10
I100
sg11
I0
sa(dp78
g7
(F0.036
F2.5
F0.014
I1
I1
tp79
sg9
F31.630691051483154
sg10
I100
sg11
I100
sa(dp80
g7
(F0.036
F2.5
F0.014
I1
I1
tp81
sg9
F62.11498999595642
sg10
I100
sg11
I200
sa(dp82
g7
(F0.036
F2.5
F0.014
I1
I1
tp83
sg9
F92.32475304603577
sg10
I100
sg11
I300
sa(dp84
g7
g62
sg9
F122.31798911094666
sg10
I100
sg11
I400
sa(dp85
g7
g62
sg9
F152.40989208221436
sg10
I100
sg11
I500
satp86
Rp87
(dp88
g25
I01
sg26
g31
sg32
(lp89
I3
aI5
aI30
aI9
asg34
I6
sg35
g36
(g3
tp90
Rp91
sbsS'IBEA'
p92
g2
(g3
g4
(lp93
(dp94
g7
g62
sg9
F0.3236548900604248
sg10
I100
sg11
I0
sa(dp95
g7
g62
sg9
F30.36296796798706
sg10
I100
sg11
I100
sa(dp96
g7
g62
sg9
F60.42179799079895
sg10
I100
sg11
I200
sa(dp97
g7
g62
sg9
F90.32200598716736
sg10
I100
sg11
I300
sa(dp98
g7
g62
sg9
F120.37388110160828
sg10
I100
sg11
I400
sa(dp99
g7
g62
sg9
F150.30878591537476
sg10
I100
sg11
I500
satp100
Rp101
(dp102
g25
I01
sg26
g31
sg32
(lp103
I3
aI5
aI30
aI9
asg34
I6
sg35
g36
(g3
tp104
Rp105
sbsS'NSGA2'
p106
g2
(g3
g4
(lp107
(dp108
g7
g62
sg9
F0.34265804290771484
sg10
I100
sg11
I0
sa(dp109
g7
g62
sg9
F33.395297050476074
sg10
I100
sg11
I100
sa(dp110
g7
g62
sg9
F66.40702509880066
sg10
I100
sg11
I200
sa(dp111
g7
g62
sg9
F99.69384407997131
sg10
I100
sg11
I300
sa(dp112
g7
g62
sg9
F132.90532994270325
sg10
I100
sg11
I400
sa(dp113
g7
g62
sg9
F166.7477171421051
sg10
I100
sg11
I500
satp114
Rp115
(dp116
g25
I01
sg26
g31
sg32
(lp117
I3
aI5
aI30
aI9
asg34
I6
sg35
g36
(g3
tp118
Rp119
sbsS'IBEA-SIP'
p120
g2
(g3
g4
(lp121
(dp122
g7
(F0.067
F0.991
F0.022
I3
I3
tp123
sg9
F0.22434210777282715
sg10
I100
sg11
I0
sa(dp124
g7
(F0.144
F0.728
F0.044
I72
I100
tp125
sg9
F25.683032035827637
sg10
I100
sg11
I100
sa(dp126
g7
(F0.154
F0.779
F0.053
I74
I100
tp127
sg9
F51.171035051345825
sg10
I100
sg11
I200
sa(dp128
g7
(F0.161
F0.727
F0.057
I81
I100
tp129
sg9
F77.02894902229309
sg10
I100
sg11
I300
sa(dp130
g7
(F0.166
F0.689
F0.058
I85
I100
tp131
sg9
F102.73763012886047
sg10
I100
sg11
I400
sa(dp132
g7
(F0.168
F0.684
F0.06
I83
I100
tp133
sg9
F128.264750957489
sg10
I100
sg11
I500
satp134
Rp135
(dp136
g25
I01
sg26
g31
sg32
(lp137
I3
aI5
aI30
aI9
asg34
I6
sg35
g36
(g3
tp138
Rp139
sbs.