(dp0
S'NSGA2-SIP'
p1
ccopy_reg
_reconstructor
p2
(cdeap.tools.support
Logbook
p3
c__builtin__
list
p4
(lp5
(dp6
S'hv|spread|igd|frontier#|valid#'
p7
(F0.071
F0.964
F0.023
I2
I3
tp8
sS'timestamp'
p9
F0.22092413902282715
sS'evals'
p10
I100
sS'gen'
p11
I0
sa(dp12
g7
(F0.138
F0.845
F0.044
I100
I100
tp13
sg9
F29.623870134353638
sg10
I100
sg11
I100
sa(dp14
g7
(F0.144
F0.712
F0.053
I100
I100
tp15
sg9
F60.33831310272217
sg10
I100
sg11
I200
sa(dp16
g7
(F0.149
F0.77
F0.057
I100
I100
tp17
sg9
F91.22482514381409
sg10
I100
sg11
I300
sa(dp18
g7
(F0.156
F0.7
F0.058
I100
I100
tp19
sg9
F122.21237301826477
sg10
I100
sg11
I400
sa(dp20
g7
(F0.157
F0.691
F0.059
I100
I100
tp21
sg9
F153.03880095481873
sg10
I100
sg11
I500
satp22
Rp23
(dp24
S'log_header'
p25
I01
sS'header'
p26
(S'gen'
p27
S'evals'
p28
S'hv|spread|igd|frontier#|valid#'
p29
S'timestamp'
p30
tp31
sS'columns_len'
p32
(lp33
I3
aI5
aI31
aI9
asS'buffindex'
p34
I6
sS'chapters'
p35
ccollections
defaultdict
p36
(g3
tp37
Rp38
sbsS'SPEA2-SIP'
p39
g2
(g3
g4
(lp40
(dp41
g7
(F0.08
F0.97
F0.022
I4
I6
tp42
sg9
F0.23604393005371094
sg10
I100
sg11
I0
sa(dp43
g7
(F0.148
F0.743
F0.062
I92
I100
tp44
sg9
F73.25765180587769
sg10
I100
sg11
I100
sa(dp45
g7
(F0.158
F0.685
F0.079
I98
I100
tp46
sg9
F148.1041829586029
sg10
I100
sg11
I200
sa(dp47
g7
(F0.164
F0.633
F0.086
I100
I100
tp48
sg9
F222.88132882118225
sg10
I100
sg11
I300
sa(dp49
g7
(F0.165
F0.674
F0.087
I100
I100
tp50
sg9
F295.6404528617859
sg10
I100
sg11
I400
sa(dp51
g7
(F0.166
F0.666
F0.089
I100
I100
tp52
sg9
F369.2234687805176
sg10
I100
sg11
I500
satp53
Rp54
(dp55
g25
I01
sg26
g31
sg32
(lp56
I3
aI5
aI31
aI9
asg34
I6
sg35
g36
(g3
tp57
Rp58
sbsS'SPEA2'
p59
g2
(g3
g4
(lp60
(dp61
g7
(I0
I0
I0
I0
I0
tp62
sg9
F0.3256669044494629
sg10
I100
sg11
I0
sa(dp63
g7
g62
sg9
F74.54231595993042
sg10
I100
sg11
I100
sa(dp64
g7
g62
sg9
F149.78217387199402
sg10
I100
sg11
I200
sa(dp65
g7
g62
sg9
F225.09316182136536
sg10
I100
sg11
I300
sa(dp66
g7
g62
sg9
F298.47437381744385
sg10
I100
sg11
I400
sa(dp67
g7
g62
sg9
F372.75424790382385
sg10
I100
sg11
I500
satp68
Rp69
(dp70
g25
I01
sg26
g31
sg32
(lp71
I3
aI5
aI30
aI9
asg34
I6
sg35
g36
(g3
tp72
Rp73
sbsS'IBEA-PEN'
p74
g2
(g3
g4
(lp75
(dp76
g7
(F0.134
F0.789
F0.016
I9
I13
tp77
sg9
F0.6557960510253906
sg10
I100
sg11
I0
sa(dp78
g7
(F0.159
F0.564
F0.016
I47
I69
tp79
sg9
F42.500306129455566
sg10
I100
sg11
I100
sa(dp80
g7
(F0.156
F0.857
F0.02
I41
I70
tp81
sg9
F84.50051617622375
sg10
I100
sg11
I200
sa(dp82
g7
(F0.162
F0.648
F0.016
I40
I50
tp83
sg9
F126.5650839805603
sg10
I100
sg11
I300
sa(dp84
g7
(F0.164
F0.663
F0.017
I46
I67
tp85
sg9
F168.0475471019745
sg10
I100
sg11
I400
sa(dp86
g7
(F0.161
F0.778
F0.018
I39
I62
tp87
sg9
F209.67409110069275
sg10
I100
sg11
I500
satp88
Rp89
(dp90
g25
I01
sg26
g31
sg32
(lp91
I3
aI5
aI30
aI9
asg34
I6
sg35
g36
(g3
tp92
Rp93
sbsS'IBEA'
p94
g2
(g3
g4
(lp95
(dp96
g7
g62
sg9
F0.3253178596496582
sg10
I100
sg11
I0
sa(dp97
g7
g62
sg9
F33.623859882354736
sg10
I100
sg11
I100
sa(dp98
g7
g62
sg9
F67.37562298774719
sg10
I100
sg11
I200
sa(dp99
g7
g62
sg9
F101.24872589111328
sg10
I100
sg11
I300
sa(dp100
g7
g62
sg9
F134.86944699287415
sg10
I100
sg11
I400
sa(dp101
g7
g62
sg9
F168.4387128353119
sg10
I100
sg11
I500
satp102
Rp103
(dp104
g25
I01
sg26
g31
sg32
(lp105
I3
aI5
aI30
aI9
asg34
I6
sg35
g36
(g3
tp106
Rp107
sbsS'NSGA2'
p108
g2
(g3
g4
(lp109
(dp110
g7
g62
sg9
F0.3274359703063965
sg10
I100
sg11
I0
sa(dp111
g7
g62
sg9
F37.31777596473694
sg10
I100
sg11
I100
sa(dp112
g7
g62
sg9
F74.67077994346619
sg10
I100
sg11
I200
sa(dp113
g7
g62
sg9
F112.36304306983948
sg10
I100
sg11
I300
sa(dp114
g7
g62
sg9
F149.78910303115845
sg10
I100
sg11
I400
sa(dp115
g7
g62
sg9
F187.76777696609497
sg10
I100
sg11
I500
satp116
Rp117
(dp118
g25
I01
sg26
g31
sg32
(lp119
I3
aI5
aI30
aI9
asg34
I6
sg35
g36
(g3
tp120
Rp121
sbsS'IBEA-SIP'
p122
g2
(g3
g4
(lp123
(dp124
g7
(F0.078
F0.991
F0.013
I5
I7
tp125
sg9
F0.2351090908050537
sg10
I100
sg11
I0
sa(dp126
g7
(F0.147
F0.78
F0.05
I78
I100
tp127
sg9
F28.95032811164856
sg10
I100
sg11
I100
sa(dp128
g7
(F0.16
F0.776
F0.057
I88
I100
tp129
sg9
F57.69957399368286
sg10
I100
sg11
I200
sa(dp130
g7
(F0.163
F0.726
F0.059
I85
I100
tp131
sg9
F86.65619802474976
sg10
I100
sg11
I300
sa(dp132
g7
(F0.168
F0.739
F0.058
I89
I100
tp133
sg9
F115.63502311706543
sg10
I100
sg11
I400
sa(dp134
g7
(F0.169
F0.691
F0.061
I85
I100
tp135
sg9
F144.59428596496582
sg10
I100
sg11
I500
satp136
Rp137
(dp138
g25
I01
sg26
g31
sg32
(lp139
I3
aI5
aI30
aI9
asg34
I6
sg35
g36
(g3
tp140
Rp141
sbs.