(dp0
S'NSGA2-SIP'
p1
ccopy_reg
_reconstructor
p2
(cdeap.tools.support
Logbook
p3
c__builtin__
list
p4
(lp5
(dp6
S'hv|spread|igd|frontier#|valid#'
p7
(F0.079
F0.95
F0.021
I6
I6
tp8
sS'timestamp'
p9
F0.24977493286132812
sS'evals'
p10
I100
sS'gen'
p11
I0
sa(dp12
g7
(F0.142
F0.798
F0.046
I100
I100
tp13
sg9
F32.74887800216675
sg10
I100
sg11
I100
sa(dp14
g7
(F0.152
F0.591
F0.052
I100
I100
tp15
sg9
F65.61959981918335
sg10
I100
sg11
I200
sa(dp16
g7
(F0.158
F0.626
F0.053
I100
I100
tp17
sg9
F98.60193085670471
sg10
I100
sg11
I300
sa(dp18
g7
(F0.16
F0.568
F0.054
I100
I100
tp19
sg9
F131.63856387138367
sg10
I100
sg11
I400
sa(dp20
g7
(F0.16
F0.681
F0.055
I100
I100
tp21
sg9
F164.28976798057556
sg10
I100
sg11
I500
satp22
Rp23
(dp24
S'log_header'
p25
I01
sS'header'
p26
(S'gen'
p27
S'evals'
p28
S'hv|spread|igd|frontier#|valid#'
p29
S'timestamp'
p30
tp31
sS'columns_len'
p32
(lp33
I3
aI5
aI31
aI9
asS'buffindex'
p34
I6
sS'chapters'
p35
ccollections
defaultdict
p36
(g3
tp37
Rp38
sbsS'SPEA2-SIP'
p39
g2
(g3
g4
(lp40
(dp41
g7
(F0.077
F0.975
F0.024
I4
I5
tp42
sg9
F0.24103498458862305
sg10
I100
sg11
I0
sa(dp43
g7
(F0.146
F0.701
F0.056
I98
I100
tp44
sg9
F74.67833685874939
sg10
I100
sg11
I100
sa(dp45
g7
(F0.157
F0.687
F0.07
I100
I100
tp46
sg9
F153.18312096595764
sg10
I100
sg11
I200
sa(dp47
g7
(F0.16
F0.681
F0.075
I99
I100
tp48
sg9
F231.8004059791565
sg10
I100
sg11
I300
sa(dp49
g7
(F0.162
F0.655
F0.078
I99
I100
tp50
sg9
F309.32687282562256
sg10
I100
sg11
I400
sa(dp51
g7
(F0.162
F0.694
F0.078
I100
I100
tp52
sg9
F387.3890438079834
sg10
I100
sg11
I500
satp53
Rp54
(dp55
g25
I01
sg26
g31
sg32
(lp56
I3
aI5
aI31
aI9
asg34
I6
sg35
g36
(g3
tp57
Rp58
sbsS'SPEA2'
p59
g2
(g3
g4
(lp60
(dp61
g7
(I0
I0
I0
I0
I0
tp62
sg9
F0.3565328121185303
sg10
I100
sg11
I0
sa(dp63
g7
g62
sg9
F80.15531396865845
sg10
I100
sg11
I100
sa(dp64
g7
g62
sg9
F162.5198848247528
sg10
I100
sg11
I200
sa(dp65
g7
g62
sg9
F242.0869698524475
sg10
I100
sg11
I300
sa(dp66
g7
g62
sg9
F321.46795892715454
sg10
I100
sg11
I400
sa(dp67
g7
g62
sg9
F401.68411684036255
sg10
I100
sg11
I500
satp68
Rp69
(dp70
g25
I01
sg26
g31
sg32
(lp71
I3
aI5
aI30
aI9
asg34
I6
sg35
g36
(g3
tp72
Rp73
sbsS'IBEA-PEN'
p74
g2
(g3
g4
(lp75
(dp76
g7
(F0.136
F0.82
F0.019
I16
I18
tp77
sg9
F0.8514680862426758
sg10
I100
sg11
I0
sa(dp78
g7
g62
sg9
F38.0773720741272
sg10
I100
sg11
I100
sa(dp79
g7
(F0.027
F2.536
F0.014
I1
I1
tp80
sg9
F75.17334008216858
sg10
I100
sg11
I200
sa(dp81
g7
(F0.027
F2.536
F0.014
I1
I1
tp82
sg9
F112.4148440361023
sg10
I100
sg11
I300
sa(dp83
g7
g62
sg9
F149.42428493499756
sg10
I100
sg11
I400
sa(dp84
g7
(F0.021
F2.574
F0.017
I1
I1
tp85
sg9
F186.2813549041748
sg10
I100
sg11
I500
satp86
Rp87
(dp88
g25
I01
sg26
g31
sg32
(lp89
I3
aI5
aI30
aI9
asg34
I6
sg35
g36
(g3
tp90
Rp91
sbsS'IBEA'
p92
g2
(g3
g4
(lp93
(dp94
g7
g62
sg9
F0.3543219566345215
sg10
I100
sg11
I0
sa(dp95
g7
g62
sg9
F36.96989393234253
sg10
I100
sg11
I100
sa(dp96
g7
g62
sg9
F73.43282079696655
sg10
I100
sg11
I200
sa(dp97
g7
g62
sg9
F109.96079683303833
sg10
I100
sg11
I300
sa(dp98
g7
g62
sg9
F146.6217269897461
sg10
I100
sg11
I400
sa(dp99
g7
g62
sg9
F183.3932077884674
sg10
I100
sg11
I500
satp100
Rp101
(dp102
g25
I01
sg26
g31
sg32
(lp103
I3
aI5
aI30
aI9
asg34
I6
sg35
g36
(g3
tp104
Rp105
sbsS'NSGA2'
p106
g2
(g3
g4
(lp107
(dp108
g7
g62
sg9
F0.36260199546813965
sg10
I100
sg11
I0
sa(dp109
g7
g62
sg9
F41.38695001602173
sg10
I100
sg11
I100
sa(dp110
g7
g62
sg9
F83.34799718856812
sg10
I100
sg11
I200
sa(dp111
g7
g62
sg9
F125.89149904251099
sg10
I100
sg11
I300
sa(dp112
g7
g62
sg9
F168.94022417068481
sg10
I100
sg11
I400
sa(dp113
g7
g62
sg9
F211.55067706108093
sg10
I100
sg11
I500
satp114
Rp115
(dp116
g25
I01
sg26
g31
sg32
(lp117
I3
aI5
aI30
aI9
asg34
I6
sg35
g36
(g3
tp118
Rp119
sbsS'IBEA-SIP'
p120
g2
(g3
g4
(lp121
(dp122
g7
(F0.081
F0.968
F0.017
I6
I6
tp123
sg9
F0.25106310844421387
sg10
I100
sg11
I0
sa(dp124
g7
(F0.14
F0.831
F0.039
I73
I100
tp125
sg9
F30.508779048919678
sg10
I100
sg11
I100
sa(dp126
g7
(F0.153
F0.681
F0.05
I71
I100
tp127
sg9
F61.33163499832153
sg10
I100
sg11
I200
sa(dp128
g7
(F0.159
F0.823
F0.055
I74
I100
tp129
sg9
F91.87094497680664
sg10
I100
sg11
I300
sa(dp130
g7
(F0.166
F0.762
F0.06
I73
I100
tp131
sg9
F122.7125780582428
sg10
I100
sg11
I400
sa(dp132
g7
(F0.168
F0.715
F0.061
I79
I100
tp133
sg9
F153.4604570865631
sg10
I100
sg11
I500
satp134
Rp135
(dp136
g25
I01
sg26
g31
sg32
(lp137
I3
aI5
aI30
aI9
asg34
I6
sg35
g36
(g3
tp138
Rp139
sbs.