(dp0
S'NSGA2-SIP'
p1
ccopy_reg
_reconstructor
p2
(cdeap.tools.support
Logbook
p3
c__builtin__
list
p4
(lp5
(dp6
S'hv|spread|igd|frontier#|valid#'
p7
(F0.082
F0.967
F0.012
I4
I5
tp8
sS'timestamp'
p9
F0.24295902252197266
sS'evals'
p10
I100
sS'gen'
p11
I0
sa(dp12
g7
(F0.14
F0.838
F0.045
I98
I100
tp13
sg9
F32.58227610588074
sg10
I100
sg11
I100
sa(dp14
g7
(F0.149
F0.856
F0.056
I100
I100
tp15
sg9
F65.68474316596985
sg10
I100
sg11
I200
sa(dp16
g7
(F0.154
F0.792
F0.061
I100
I100
tp17
sg9
F98.8149139881134
sg10
I100
sg11
I300
sa(dp18
g7
(F0.157
F0.738
F0.063
I100
I100
tp19
sg9
F132.1621971130371
sg10
I100
sg11
I400
sa(dp20
g7
(F0.159
F0.76
F0.066
I100
I100
tp21
sg9
F165.42848110198975
sg10
I100
sg11
I500
satp22
Rp23
(dp24
S'log_header'
p25
I01
sS'header'
p26
(S'gen'
p27
S'evals'
p28
S'hv|spread|igd|frontier#|valid#'
p29
S'timestamp'
p30
tp31
sS'columns_len'
p32
(lp33
I3
aI5
aI31
aI9
asS'buffindex'
p34
I6
sS'chapters'
p35
ccollections
defaultdict
p36
(g3
tp37
Rp38
sbsS'SPEA2-SIP'
p39
g2
(g3
g4
(lp40
(dp41
g7
(F0.08
F0.959
F0.018
I6
I8
tp42
sg9
F0.25190186500549316
sg10
I100
sg11
I0
sa(dp43
g7
(F0.145
F0.704
F0.053
I98
I100
tp44
sg9
F75.40308690071106
sg10
I100
sg11
I100
sa(dp45
g7
(F0.157
F0.698
F0.073
I100
I100
tp46
sg9
F153.26605582237244
sg10
I100
sg11
I200
sa(dp47
g7
(F0.159
F0.678
F0.077
I100
I100
tp48
sg9
F230.94545102119446
sg10
I100
sg11
I300
sa(dp49
g7
(F0.162
F0.726
F0.083
I100
I100
tp50
sg9
F307.5146379470825
sg10
I100
sg11
I400
sa(dp51
g7
(F0.162
F0.748
F0.084
I100
I100
tp52
sg9
F385.3482840061188
sg10
I100
sg11
I500
satp53
Rp54
(dp55
g25
I01
sg26
g31
sg32
(lp56
I3
aI5
aI31
aI9
asg34
I6
sg35
g36
(g3
tp57
Rp58
sbsS'SPEA2'
p59
g2
(g3
g4
(lp60
(dp61
g7
(I0
I0
I0
I0
I0
tp62
sg9
F0.3533360958099365
sg10
I100
sg11
I0
sa(dp63
g7
g62
sg9
F84.87715101242065
sg10
I100
sg11
I100
sa(dp64
g7
g62
sg9
F165.05502796173096
sg10
I100
sg11
I200
sa(dp65
g7
g62
sg9
F244.82947492599487
sg10
I100
sg11
I300
sa(dp66
g7
g62
sg9
F324.97745513916016
sg10
I100
sg11
I400
sa(dp67
g7
g62
sg9
F404.4723620414734
sg10
I100
sg11
I500
satp68
Rp69
(dp70
g25
I01
sg26
g31
sg32
(lp71
I3
aI5
aI30
aI9
asg34
I6
sg35
g36
(g3
tp72
Rp73
sbsS'IBEA-PEN'
p74
g2
(g3
g4
(lp75
(dp76
g7
(F0.137
F0.687
F0.018
I13
I16
tp77
sg9
F0.8379619121551514
sg10
I100
sg11
I0
sa(dp78
g7
g62
sg9
F38.216411113739014
sg10
I100
sg11
I100
sa(dp79
g7
g62
sg9
F74.96349596977234
sg10
I100
sg11
I200
sa(dp80
g7
g62
sg9
F111.79887509346008
sg10
I100
sg11
I300
sa(dp81
g7
g62
sg9
F148.49454998970032
sg10
I100
sg11
I400
sa(dp82
g7
g62
sg9
F185.30335903167725
sg10
I100
sg11
I500
satp83
Rp84
(dp85
g25
I01
sg26
g31
sg32
(lp86
I3
aI5
aI30
aI9
asg34
I6
sg35
g36
(g3
tp87
Rp88
sbsS'IBEA'
p89
g2
(g3
g4
(lp90
(dp91
g7
g62
sg9
F0.35507702827453613
sg10
I100
sg11
I0
sa(dp92
g7
g62
sg9
F36.4488570690155
sg10
I100
sg11
I100
sa(dp93
g7
g62
sg9
F72.75964999198914
sg10
I100
sg11
I200
sa(dp94
g7
g62
sg9
F109.07624292373657
sg10
I100
sg11
I300
sa(dp95
g7
g62
sg9
F145.13952493667603
sg10
I100
sg11
I400
sa(dp96
g7
g62
sg9
F181.31201004981995
sg10
I100
sg11
I500
satp97
Rp98
(dp99
g25
I01
sg26
g31
sg32
(lp100
I3
aI5
aI30
aI9
asg34
I6
sg35
g36
(g3
tp101
Rp102
sbsS'NSGA2'
p103
g2
(g3
g4
(lp104
(dp105
g7
g62
sg9
F0.36797189712524414
sg10
I100
sg11
I0
sa(dp106
g7
g62
sg9
F41.33368110656738
sg10
I100
sg11
I100
sa(dp107
g7
g62
sg9
F82.49115800857544
sg10
I100
sg11
I200
sa(dp108
g7
g62
sg9
F123.90656208992004
sg10
I100
sg11
I300
sa(dp109
g7
g62
sg9
F165.65894198417664
sg10
I100
sg11
I400
sa(dp110
g7
g62
sg9
F207.30149507522583
sg10
I100
sg11
I500
satp111
Rp112
(dp113
g25
I01
sg26
g31
sg32
(lp114
I3
aI5
aI30
aI9
asg34
I6
sg35
g36
(g3
tp115
Rp116
sbsS'IBEA-SIP'
p117
g2
(g3
g4
(lp118
(dp119
g7
(F0.068
F0.988
F0.023
I3
I4
tp120
sg9
F0.2401130199432373
sg10
I100
sg11
I0
sa(dp121
g7
(F0.143
F0.788
F0.045
I75
I100
tp122
sg9
F31.18952488899231
sg10
I100
sg11
I100
sa(dp123
g7
(F0.155
F0.72
F0.052
I83
I100
tp124
sg9
F62.64672589302063
sg10
I100
sg11
I200
sa(dp125
g7
(F0.158
F0.699
F0.056
I83
I100
tp126
sg9
F93.64421486854553
sg10
I100
sg11
I300
sa(dp127
g7
(F0.159
F0.722
F0.058
I84
I100
tp128
sg9
F124.58061289787292
sg10
I100
sg11
I400
sa(dp129
g7
(F0.164
F0.67
F0.061
I83
I100
tp130
sg9
F155.47016096115112
sg10
I100
sg11
I500
satp131
Rp132
(dp133
g25
I01
sg26
g31
sg32
(lp134
I3
aI5
aI30
aI9
asg34
I6
sg35
g36
(g3
tp135
Rp136
sbs.