(dp0
S'NSGA2-SIP'
p1
ccopy_reg
_reconstructor
p2
(cdeap.tools.support
Logbook
p3
c__builtin__
list
p4
(lp5
(dp6
S'hv|spread|igd|frontier#|valid#'
p7
(I0
I0
I0
I0
I0
tp8
sS'timestamp'
p9
F0.24511003494262695
sS'evals'
p10
I100
sS'gen'
p11
I0
sa(dp12
g7
(F0.157
F0.704
F0.029
I100
I100
tp13
sg9
F33.5083749294281
sg10
I100
sg11
I100
sa(dp14
g7
(F0.169
F0.656
F0.036
I100
I100
tp15
sg9
F67.18182110786438
sg10
I100
sg11
I200
sa(dp16
g7
(F0.172
F0.607
F0.04
I100
I100
tp17
sg9
F100.77484512329102
sg10
I100
sg11
I300
sa(dp18
g7
(F0.175
F0.62
F0.044
I100
I100
tp19
sg9
F134.21151208877563
sg10
I100
sg11
I400
sa(dp20
g7
(F0.177
F0.587
F0.044
I100
I100
tp21
sg9
F167.67157793045044
sg10
I100
sg11
I500
satp22
Rp23
(dp24
S'log_header'
p25
I01
sS'header'
p26
(S'gen'
p27
S'evals'
p28
g7
S'timestamp'
p29
tp30
sS'columns_len'
p31
(lp32
I3
aI5
aI31
aI9
asS'buffindex'
p33
I6
sS'chapters'
p34
ccollections
defaultdict
p35
(g3
tp36
Rp37
sbsS'SPEA2-SIP'
p38
g2
(g3
g4
(lp39
(dp40
g7
g8
sg9
F0.24511504173278809
sg10
I100
sg11
I0
sa(dp41
g7
(F0.152
F0.645
F0.055
I98
I100
tp42
sg9
F77.39701914787292
sg10
I100
sg11
I100
sa(dp43
g7
(F0.159
F0.63
F0.062
I100
I100
tp44
sg9
F157.9872760772705
sg10
I100
sg11
I200
sa(dp45
g7
(F0.164
F0.635
F0.062
I100
I100
tp46
sg9
F238.63063716888428
sg10
I100
sg11
I300
sa(dp47
g7
(F0.167
F0.68
F0.064
I100
I100
tp48
sg9
F323.1186640262604
sg10
I100
sg11
I400
sa(dp49
g7
(F0.169
F0.603
F0.066
I100
I100
tp50
sg9
F407.6371660232544
sg10
I100
sg11
I500
satp51
Rp52
(dp53
g25
I01
sg26
g30
sg31
(lp54
I3
aI5
aI31
aI9
asg33
I6
sg34
g35
(g3
tp55
Rp56
sbsS'SPEA2'
p57
g2
(g3
g4
(lp58
(dp59
g7
g8
sg9
F0.16305088996887207
sg10
I100
sg11
I0
sa(dp60
g7
g8
sg9
F78.72733783721924
sg10
I100
sg11
I100
sa(dp61
g7
g8
sg9
F178.43193101882935
sg10
I100
sg11
I200
sa(dp62
g7
g8
sg9
F281.44860887527466
sg10
I100
sg11
I300
sa(dp63
g7
g8
sg9
F399.15733790397644
sg10
I100
sg11
I400
sa(dp64
g7
g8
sg9
F525.6212990283966
sg10
I100
sg11
I500
satp65
Rp66
(dp67
g25
I01
sg26
g30
sg31
(lp68
I3
aI5
aI30
aI9
asg33
I6
sg34
g35
(g3
tp69
Rp70
sbsS'IBEA'
p71
g2
(g3
g4
(lp72
(dp73
g7
g8
sg9
F0.16190195083618164
sg10
I100
sg11
I0
sa(dp74
g7
g8
sg9
F18.814908981323242
sg10
I100
sg11
I100
sa(dp75
g7
g8
sg9
F37.52582788467407
sg10
I100
sg11
I200
sa(dp76
g7
g8
sg9
F56.250555992126465
sg10
I100
sg11
I300
sa(dp77
g7
g8
sg9
F74.96507287025452
sg10
I100
sg11
I400
sa(dp78
g7
g8
sg9
F93.72331690788269
sg10
I100
sg11
I500
satp79
Rp80
(dp81
g25
I01
sg26
g30
sg31
(lp82
I3
aI5
aI30
aI9
asg33
I6
sg34
g35
(g3
tp83
Rp84
sbsS'NSGA2'
p85
g2
(g3
g4
(lp86
(dp87
g7
g8
sg9
F0.16344404220581055
sg10
I100
sg11
I0
sa(dp88
g7
g8
sg9
F22.071810960769653
sg10
I100
sg11
I100
sa(dp89
g7
g8
sg9
F43.86620807647705
sg10
I100
sg11
I200
sa(dp90
g7
g8
sg9
F65.71428108215332
sg10
I100
sg11
I300
sa(dp91
g7
g8
sg9
F87.61254000663757
sg10
I100
sg11
I400
sa(dp92
g7
g8
sg9
F109.50391507148743
sg10
I100
sg11
I500
satp93
Rp94
(dp95
g25
I01
sg26
g30
sg31
(lp96
I3
aI5
aI30
aI9
asg33
I6
sg34
g35
(g3
tp97
Rp98
sbsS'IBEA-SIP'
p99
g2
(g3
g4
(lp100
(dp101
g7
g8
sg9
F0.24137187004089355
sg10
I100
sg11
I0
sa(dp102
g7
(F0.159
F0.689
F0.032
I87
I100
tp103
sg9
F30.746564865112305
sg10
I100
sg11
I100
sa(dp104
g7
(F0.168
F0.693
F0.039
I79
I100
tp105
sg9
F60.84662389755249
sg10
I100
sg11
I200
sa(dp106
g7
(F0.171
F0.699
F0.042
I83
I100
tp107
sg9
F90.72878384590149
sg10
I100
sg11
I300
sa(dp108
g7
(F0.175
F0.676
F0.046
I81
I100
tp109
sg9
F120.93961381912231
sg10
I100
sg11
I400
sa(dp110
g7
(F0.176
F0.696
F0.047
I86
I100
tp111
sg9
F151.19342184066772
sg10
I100
sg11
I500
satp112
Rp113
(dp114
g25
I01
sg26
g30
sg31
(lp115
I3
aI5
aI30
aI9
asg33
I6
sg34
g35
(g3
tp116
Rp117
sbs.