(dp0
S'NSGA2-SIP'
p1
ccopy_reg
_reconstructor
p2
(cdeap.tools.support
Logbook
p3
c__builtin__
list
p4
(lp5
(dp6
S'hv|spread|igd|frontier#|valid#'
p7
(F0.046
F2.1
F0.026
I1
I1
tp8
sS'timestamp'
p9
F0.2424628734588623
sS'evals'
p10
I100
sS'gen'
p11
I0
sa(dp12
g7
(F0.153
F0.683
F0.039
I100
I100
tp13
sg9
F32.556386947631836
sg10
I100
sg11
I100
sa(dp14
g7
(F0.166
F0.687
F0.046
I100
I100
tp15
sg9
F64.8962128162384
sg10
I100
sg11
I200
sa(dp16
g7
(F0.172
F0.647
F0.048
I100
I100
tp17
sg9
F97.52534484863281
sg10
I100
sg11
I300
sa(dp18
g7
(F0.174
F0.615
F0.049
I100
I100
tp19
sg9
F130.52837300300598
sg10
I100
sg11
I400
sa(dp20
g7
(F0.178
F0.658
F0.048
I100
I100
tp21
sg9
F163.6535840034485
sg10
I100
sg11
I500
satp22
Rp23
(dp24
S'log_header'
p25
I01
sS'header'
p26
(S'gen'
p27
S'evals'
p28
S'hv|spread|igd|frontier#|valid#'
p29
S'timestamp'
p30
tp31
sS'columns_len'
p32
(lp33
I3
aI5
aI31
aI9
asS'buffindex'
p34
I6
sS'chapters'
p35
ccollections
defaultdict
p36
(g3
tp37
Rp38
sbsS'SPEA2-SIP'
p39
g2
(g3
g4
(lp40
(dp41
g7
(I0
I0
I0
I0
I0
tp42
sg9
F0.24257302284240723
sg10
I100
sg11
I0
sa(dp43
g7
(F0.161
F0.653
F0.054
I100
I100
tp44
sg9
F74.35385608673096
sg10
I100
sg11
I100
sa(dp45
g7
(F0.172
F0.653
F0.066
I100
I100
tp46
sg9
F159.86188507080078
sg10
I100
sg11
I200
sa(dp47
g7
(F0.176
F0.602
F0.069
I100
I100
tp48
sg9
F249.01091194152832
sg10
I100
sg11
I300
sa(dp49
g7
(F0.177
F0.579
F0.068
I100
I100
tp50
sg9
F336.93564891815186
sg10
I100
sg11
I400
sa(dp51
g7
(F0.177
F0.655
F0.069
I100
I100
tp52
sg9
F427.7786109447479
sg10
I100
sg11
I500
satp53
Rp54
(dp55
g25
I01
sg26
g31
sg32
(lp56
I3
aI5
aI31
aI9
asg34
I6
sg35
g36
(g3
tp57
Rp58
sbsS'SPEA2'
p59
g2
(g3
g4
(lp60
(dp61
g7
g42
sg9
F0.16228294372558594
sg10
I100
sg11
I0
sa(dp62
g7
g42
sg9
F72.49147486686707
sg10
I100
sg11
I100
sa(dp63
g7
g42
sg9
F158.58118391036987
sg10
I100
sg11
I200
sa(dp64
g7
g42
sg9
F265.20358300209045
sg10
I100
sg11
I300
sa(dp65
g7
g42
sg9
F380.00200295448303
sg10
I100
sg11
I400
sa(dp66
g7
g42
sg9
F496.76484394073486
sg10
I100
sg11
I500
satp67
Rp68
(dp69
g25
I01
sg26
g31
sg32
(lp70
I3
aI5
aI30
aI9
asg34
I6
sg35
g36
(g3
tp71
Rp72
sbsS'IBEA-PEN'
p73
g2
(g3
g4
(lp74
(dp75
g7
g42
sg9
F0.6839771270751953
sg10
I100
sg11
I0
sa(dp76
g7
(F0.163
F0.642
F0.037
I50
I72
tp77
sg9
F63.217061042785645
sg10
I100
sg11
I100
sa(dp78
g7
(F0.165
F0.674
F0.026
I54
I76
tp79
sg9
F127.17039108276367
sg10
I100
sg11
I200
sa(dp80
g7
(F0.171
F0.62
F0.049
I54
I79
tp81
sg9
F191.26493310928345
sg10
I100
sg11
I300
sa(dp82
g7
(F0.171
F0.783
F0.045
I70
I83
tp83
sg9
F255.99181699752808
sg10
I100
sg11
I400
sa(dp84
g7
(F0.17
F0.713
F0.04
I60
I87
tp85
sg9
F320.0993149280548
sg10
I100
sg11
I500
satp86
Rp87
(dp88
g25
I01
sg26
g31
sg32
(lp89
I3
aI5
aI30
aI9
asg34
I6
sg35
g36
(g3
tp90
Rp91
sbsS'IBEA'
p92
g2
(g3
g4
(lp93
(dp94
g7
g42
sg9
F0.1563868522644043
sg10
I100
sg11
I0
sa(dp95
g7
g42
sg9
F18.22660803794861
sg10
I100
sg11
I100
sa(dp96
g7
g42
sg9
F36.22230386734009
sg10
I100
sg11
I200
sa(dp97
g7
g42
sg9
F54.351621866226196
sg10
I100
sg11
I300
sa(dp98
g7
g42
sg9
F72.43879294395447
sg10
I100
sg11
I400
sa(dp99
g7
g42
sg9
F90.43433690071106
sg10
I100
sg11
I500
satp100
Rp101
(dp102
g25
I01
sg26
g31
sg32
(lp103
I3
aI5
aI30
aI9
asg34
I6
sg35
g36
(g3
tp104
Rp105
sbsS'NSGA2'
p106
g2
(g3
g4
(lp107
(dp108
g7
g42
sg9
F0.15668892860412598
sg10
I100
sg11
I0
sa(dp109
g7
g42
sg9
F21.202462911605835
sg10
I100
sg11
I100
sa(dp110
g7
g42
sg9
F42.31727886199951
sg10
I100
sg11
I200
sa(dp111
g7
g42
sg9
F63.464393854141235
sg10
I100
sg11
I300
sa(dp112
g7
g42
sg9
F84.52259302139282
sg10
I100
sg11
I400
sa(dp113
g7
g42
sg9
F105.55448603630066
sg10
I100
sg11
I500
satp114
Rp115
(dp116
g25
I01
sg26
g31
sg32
(lp117
I3
aI5
aI30
aI9
asg34
I6
sg35
g36
(g3
tp118
Rp119
sbsS'IBEA-SIP'
p120
g2
(g3
g4
(lp121
(dp122
g7
g42
sg9
F0.23856711387634277
sg10
I100
sg11
I0
sa(dp123
g7
(F0.162
F0.621
F0.041
I78
I100
tp124
sg9
F30.89251208305359
sg10
I100
sg11
I100
sa(dp125
g7
(F0.17
F0.729
F0.045
I80
I100
tp126
sg9
F61.95919895172119
sg10
I100
sg11
I200
sa(dp127
g7
(F0.174
F0.711
F0.048
I77
I100
tp128
sg9
F92.99144101142883
sg10
I100
sg11
I300
sa(dp129
g7
(F0.179
F0.716
F0.049
I80
I100
tp130
sg9
F123.59023308753967
sg10
I100
sg11
I400
sa(dp131
g7
(F0.182
F0.723
F0.051
I81
I100
tp132
sg9
F154.08572912216187
sg10
I100
sg11
I500
satp133
Rp134
(dp135
g25
I01
sg26
g31
sg32
(lp136
I3
aI5
aI30
aI9
asg34
I6
sg35
g36
(g3
tp137
Rp138
sbs.