(dp0
S'NSGA2-SIP'
p1
ccopy_reg
_reconstructor
p2
(cdeap.tools.support
Logbook
p3
c__builtin__
list
p4
(lp5
(dp6
S'hv|spread|igd|frontier#|valid#'
p7
(I0
I0
I0
I0
I0
tp8
sS'timestamp'
p9
F0.24257993698120117
sS'evals'
p10
I100
sS'gen'
p11
I0
sa(dp12
g7
(F0.156
F0.688
F0.039
I100
I100
tp13
sg9
F32.32569193840027
sg10
I100
sg11
I100
sa(dp14
g7
(F0.168
F0.647
F0.041
I100
I100
tp15
sg9
F65.20384001731873
sg10
I100
sg11
I200
sa(dp16
g7
(F0.172
F0.608
F0.045
I100
I100
tp17
sg9
F98.08175802230835
sg10
I100
sg11
I300
sa(dp18
g7
(F0.175
F0.613
F0.044
I100
I100
tp19
sg9
F130.82424998283386
sg10
I100
sg11
I400
sa(dp20
g7
(F0.176
F0.666
F0.045
I100
I100
tp21
sg9
F163.30576515197754
sg10
I100
sg11
I500
satp22
Rp23
(dp24
S'log_header'
p25
I01
sS'header'
p26
(S'gen'
p27
S'evals'
p28
S'hv|spread|igd|frontier#|valid#'
p29
S'timestamp'
p30
tp31
sS'columns_len'
p32
(lp33
I3
aI5
aI31
aI9
asS'buffindex'
p34
I6
sS'chapters'
p35
ccollections
defaultdict
p36
(g3
tp37
Rp38
sbsS'SPEA2-SIP'
p39
g2
(g3
g4
(lp40
(dp41
g7
g8
sg9
F0.24495387077331543
sg10
I100
sg11
I0
sa(dp42
g7
(F0.157
F0.725
F0.05
I100
I100
tp43
sg9
F77.79618382453918
sg10
I100
sg11
I100
sa(dp44
g7
(F0.164
F0.601
F0.057
I100
I100
tp45
sg9
F159.10849380493164
sg10
I100
sg11
I200
sa(dp46
g7
(F0.169
F0.661
F0.06
I100
I100
tp47
sg9
F242.14909887313843
sg10
I100
sg11
I300
sa(dp48
g7
(F0.173
F0.646
F0.063
I100
I100
tp49
sg9
F327.35164499282837
sg10
I100
sg11
I400
sa(dp50
g7
(F0.176
F0.719
F0.065
I100
I100
tp51
sg9
F413.68836784362793
sg10
I100
sg11
I500
satp52
Rp53
(dp54
g25
I01
sg26
g31
sg32
(lp55
I3
aI5
aI31
aI9
asg34
I6
sg35
g36
(g3
tp56
Rp57
sbsS'SPEA2'
p58
g2
(g3
g4
(lp59
(dp60
g7
g8
sg9
F0.15716004371643066
sg10
I100
sg11
I0
sa(dp61
g7
g8
sg9
F72.58114886283875
sg10
I100
sg11
I100
sa(dp62
g7
g8
sg9
F171.26352787017822
sg10
I100
sg11
I200
sa(dp63
g7
g8
sg9
F283.6277160644531
sg10
I100
sg11
I300
sa(dp64
g7
g8
sg9
F401.6625759601593
sg10
I100
sg11
I400
sa(dp65
g7
g8
sg9
F529.6880469322205
sg10
I100
sg11
I500
satp66
Rp67
(dp68
g25
I01
sg26
g31
sg32
(lp69
I3
aI5
aI30
aI9
asg34
I6
sg35
g36
(g3
tp70
Rp71
sbsS'IBEA-PEN'
p72
g2
(g3
g4
(lp73
(dp74
g7
g8
sg9
F0.6844830513000488
sg10
I100
sg11
I0
sa(dp75
g7
(F0.164
F0.737
F0.041
I64
I89
tp76
sg9
F63.69635319709778
sg10
I100
sg11
I100
sa(dp77
g7
(F0.166
F0.738
F0.05
I63
I81
tp78
sg9
F127.80264806747437
sg10
I100
sg11
I200
sa(dp79
g7
(F0.166
F0.732
F0.05
I53
I76
tp80
sg9
F191.86326003074646
sg10
I100
sg11
I300
sa(dp81
g7
(F0.174
F0.715
F0.039
I72
I85
tp82
sg9
F255.9491422176361
sg10
I100
sg11
I400
sa(dp83
g7
(F0.172
F0.667
F0.044
I63
I81
tp84
sg9
F319.6806650161743
sg10
I100
sg11
I500
satp85
Rp86
(dp87
g25
I01
sg26
g31
sg32
(lp88
I3
aI5
aI30
aI9
asg34
I6
sg35
g36
(g3
tp89
Rp90
sbsS'IBEA'
p91
g2
(g3
g4
(lp92
(dp93
g7
g8
sg9
F0.15694499015808105
sg10
I100
sg11
I0
sa(dp94
g7
g8
sg9
F18.13056993484497
sg10
I100
sg11
I100
sa(dp95
g7
g8
sg9
F36.26010799407959
sg10
I100
sg11
I200
sa(dp96
g7
g8
sg9
F54.33784890174866
sg10
I100
sg11
I300
sa(dp97
g7
g8
sg9
F72.3831570148468
sg10
I100
sg11
I400
sa(dp98
g7
g8
sg9
F90.4364070892334
sg10
I100
sg11
I500
satp99
Rp100
(dp101
g25
I01
sg26
g31
sg32
(lp102
I3
aI5
aI30
aI9
asg34
I6
sg35
g36
(g3
tp103
Rp104
sbsS'NSGA2'
p105
g2
(g3
g4
(lp106
(dp107
g7
g8
sg9
F0.15784215927124023
sg10
I100
sg11
I0
sa(dp108
g7
g8
sg9
F21.27535104751587
sg10
I100
sg11
I100
sa(dp109
g7
g8
sg9
F42.39512920379639
sg10
I100
sg11
I200
sa(dp110
g7
g8
sg9
F63.484575033187866
sg10
I100
sg11
I300
sa(dp111
g7
g8
sg9
F84.61686110496521
sg10
I100
sg11
I400
sa(dp112
g7
g8
sg9
F105.7942910194397
sg10
I100
sg11
I500
satp113
Rp114
(dp115
g25
I01
sg26
g31
sg32
(lp116
I3
aI5
aI30
aI9
asg34
I6
sg35
g36
(g3
tp117
Rp118
sbsS'IBEA-SIP'
p119
g2
(g3
g4
(lp120
(dp121
g7
(F0.053
F2.14
F0.024
I1
I1
tp122
sg9
F0.2448868751525879
sg10
I100
sg11
I0
sa(dp123
g7
(F0.156
F0.67
F0.04
I81
I100
tp124
sg9
F31.051503896713257
sg10
I100
sg11
I100
sa(dp125
g7
(F0.167
F0.807
F0.045
I85
I100
tp126
sg9
F62.02257704734802
sg10
I100
sg11
I200
sa(dp127
g7
(F0.177
F0.649
F0.046
I78
I100
tp128
sg9
F91.80782508850098
sg10
I100
sg11
I300
sa(dp129
g7
(F0.18
F0.701
F0.047
I83
I100
tp130
sg9
F121.39172387123108
sg10
I100
sg11
I400
sa(dp131
g7
(F0.183
F0.685
F0.048
I89
I100
tp132
sg9
F150.96770310401917
sg10
I100
sg11
I500
satp133
Rp134
(dp135
g25
I01
sg26
g31
sg32
(lp136
I3
aI5
aI30
aI9
asg34
I6
sg35
g36
(g3
tp137
Rp138
sbs.