(dp0
S'NSGA2-SIP'
p1
ccopy_reg
_reconstructor
p2
(cdeap.tools.support
Logbook
p3
c__builtin__
list
p4
(lp5
(dp6
S'hv|spread|igd|frontier#|valid#'
p7
(F0.051
F2.385
F0.017
I1
I1
tp8
sS'timestamp'
p9
F0.21657395362854004
sS'evals'
p10
I100
sS'gen'
p11
I0
sa(dp12
g7
(F0.154
F0.577
F0.035
I100
I100
tp13
sg9
F28.937078952789307
sg10
I100
sg11
I100
sa(dp14
g7
(F0.165
F0.656
F0.042
I100
I100
tp15
sg9
F58.06057000160217
sg10
I100
sg11
I200
sa(dp16
g7
(F0.17
F0.607
F0.043
I100
I100
tp17
sg9
F87.14380693435669
sg10
I100
sg11
I300
sa(dp18
g7
(F0.172
F0.622
F0.045
I100
I100
tp19
sg9
F116.14001607894897
sg10
I100
sg11
I400
sa(dp20
g7
(F0.176
F0.546
F0.046
I100
I100
tp21
sg9
F145.1685700416565
sg10
I100
sg11
I500
satp22
Rp23
(dp24
S'log_header'
p25
I01
sS'header'
p26
(S'gen'
p27
S'evals'
p28
S'hv|spread|igd|frontier#|valid#'
p29
S'timestamp'
p30
tp31
sS'columns_len'
p32
(lp33
I3
aI5
aI31
aI9
asS'buffindex'
p34
I6
sS'chapters'
p35
ccollections
defaultdict
p36
(g3
tp37
Rp38
sbsS'SPEA2-SIP'
p39
g2
(g3
g4
(lp40
(dp41
g7
(F0.044
F2.094
F0.014
I1
I1
tp42
sg9
F0.21600699424743652
sg10
I100
sg11
I0
sa(dp43
g7
(F0.168
F0.591
F0.047
I100
I100
tp44
sg9
F68.191565990448
sg10
I100
sg11
I100
sa(dp45
g7
(F0.176
F0.656
F0.059
I100
I100
tp46
sg9
F142.74531817436218
sg10
I100
sg11
I200
sa(dp47
g7
(F0.18
F0.734
F0.064
I100
I100
tp48
sg9
F215.6681489944458
sg10
I100
sg11
I300
sa(dp49
g7
(F0.182
F0.7
F0.065
I100
I100
tp50
sg9
F290.77758502960205
sg10
I100
sg11
I400
sa(dp51
g7
(F0.182
F0.532
F0.066
I100
I100
tp52
sg9
F367.006325006485
sg10
I100
sg11
I500
satp53
Rp54
(dp55
g25
I01
sg26
g31
sg32
(lp56
I3
aI5
aI31
aI9
asg34
I6
sg35
g36
(g3
tp57
Rp58
sbsS'SPEA2'
p59
g2
(g3
g4
(lp60
(dp61
g7
(I0
I0
I0
I0
I0
tp62
sg9
F0.13868498802185059
sg10
I100
sg11
I0
sa(dp63
g7
g62
sg9
F81.84041500091553
sg10
I100
sg11
I100
sa(dp64
g7
g62
sg9
F176.2922260761261
sg10
I100
sg11
I200
sa(dp65
g7
g62
sg9
F267.8542230129242
sg10
I100
sg11
I300
sa(dp66
g7
g62
sg9
F358.6212830543518
sg10
I100
sg11
I400
sa(dp67
g7
g62
sg9
F453.83116602897644
sg10
I100
sg11
I500
satp68
Rp69
(dp70
g25
I01
sg26
g31
sg32
(lp71
I3
aI5
aI30
aI9
asg34
I6
sg35
g36
(g3
tp72
Rp73
sbsS'IBEA-PEN'
p74
g2
(g3
g4
(lp75
(dp76
g7
g62
sg9
F0.43659090995788574
sg10
I100
sg11
I0
sa(dp77
g7
g62
sg9
F16.881863832473755
sg10
I100
sg11
I100
sa(dp78
g7
g62
sg9
F33.23202180862427
sg10
I100
sg11
I200
sa(dp79
g7
g62
sg9
F49.60727286338806
sg10
I100
sg11
I300
sa(dp80
g7
g62
sg9
F66.0121488571167
sg10
I100
sg11
I400
sa(dp81
g7
g62
sg9
F82.35019493103027
sg10
I100
sg11
I500
satp82
Rp83
(dp84
g25
I01
sg26
g31
sg32
(lp85
I3
aI5
aI30
aI9
asg34
I6
sg35
g36
(g3
tp86
Rp87
sbsS'IBEA'
p88
g2
(g3
g4
(lp89
(dp90
g7
g62
sg9
F0.1392059326171875
sg10
I100
sg11
I0
sa(dp91
g7
g62
sg9
F16.105493783950806
sg10
I100
sg11
I100
sa(dp92
g7
g62
sg9
F32.13770389556885
sg10
I100
sg11
I200
sa(dp93
g7
g62
sg9
F48.2159538269043
sg10
I100
sg11
I300
sa(dp94
g7
g62
sg9
F64.27521800994873
sg10
I100
sg11
I400
sa(dp95
g7
g62
sg9
F80.27012801170349
sg10
I100
sg11
I500
satp96
Rp97
(dp98
g25
I01
sg26
g31
sg32
(lp99
I3
aI5
aI30
aI9
asg34
I6
sg35
g36
(g3
tp100
Rp101
sbsS'NSGA2'
p102
g2
(g3
g4
(lp103
(dp104
g7
g62
sg9
F0.16410017013549805
sg10
I100
sg11
I0
sa(dp105
g7
g62
sg9
F19.052809953689575
sg10
I100
sg11
I100
sa(dp106
g7
g62
sg9
F37.88521695137024
sg10
I100
sg11
I200
sa(dp107
g7
g62
sg9
F56.75566911697388
sg10
I100
sg11
I300
sa(dp108
g7
g62
sg9
F75.59086418151855
sg10
I100
sg11
I400
sa(dp109
g7
g62
sg9
F94.36958694458008
sg10
I100
sg11
I500
satp110
Rp111
(dp112
g25
I01
sg26
g31
sg32
(lp113
I3
aI5
aI30
aI9
asg34
I6
sg35
g36
(g3
tp114
Rp115
sbsS'IBEA-SIP'
p116
g2
(g3
g4
(lp117
(dp118
g7
g62
sg9
F0.2124800682067871
sg10
I100
sg11
I0
sa(dp119
g7
(F0.149
F0.634
F0.031
I82
I100
tp120
sg9
F26.88472604751587
sg10
I100
sg11
I100
sa(dp121
g7
(F0.166
F0.662
F0.039
I79
I100
tp122
sg9
F53.75445508956909
sg10
I100
sg11
I200
sa(dp123
g7
(F0.174
F0.699
F0.043
I82
I100
tp124
sg9
F80.52093291282654
sg10
I100
sg11
I300
sa(dp125
g7
(F0.179
F0.603
F0.046
I85
I100
tp126
sg9
F107.30356502532959
sg10
I100
sg11
I400
sa(dp127
g7
(F0.182
F0.666
F0.047
I90
I100
tp128
sg9
F133.67162203788757
sg10
I100
sg11
I500
satp129
Rp130
(dp131
g25
I01
sg26
g31
sg32
(lp132
I3
aI5
aI30
aI9
asg34
I6
sg35
g36
(g3
tp133
Rp134
sbs.