(dp0
S'NSGA2-SIP'
p1
ccopy_reg
_reconstructor
p2
(cdeap.tools.support
Logbook
p3
c__builtin__
list
p4
(lp5
(dp6
S'hv|spread|igd|frontier#|valid#'
p7
(I0
I0
I0
I0
I0
tp8
sS'timestamp'
p9
F0.22762203216552734
sS'evals'
p10
I100
sS'gen'
p11
I0
sa(dp12
g7
(F0.153
F0.617
F0.034
I100
I100
tp13
sg9
F30.606040000915527
sg10
I100
sg11
I100
sa(dp14
g7
(F0.163
F0.591
F0.04
I100
I100
tp15
sg9
F61.430455923080444
sg10
I100
sg11
I200
sa(dp16
g7
(F0.17
F0.676
F0.043
I100
I100
tp17
sg9
F92.16955709457397
sg10
I100
sg11
I300
sa(dp18
g7
(F0.172
F0.582
F0.044
I100
I100
tp19
sg9
F122.77398800849915
sg10
I100
sg11
I400
sa(dp20
g7
(F0.177
F0.641
F0.046
I100
I100
tp21
sg9
F153.37621307373047
sg10
I100
sg11
I500
satp22
Rp23
(dp24
S'log_header'
p25
I01
sS'header'
p26
(S'gen'
p27
S'evals'
p28
S'hv|spread|igd|frontier#|valid#'
p29
S'timestamp'
p30
tp31
sS'columns_len'
p32
(lp33
I3
aI5
aI31
aI9
asS'buffindex'
p34
I6
sS'chapters'
p35
ccollections
defaultdict
p36
(g3
tp37
Rp38
sbsS'SPEA2-SIP'
p39
g2
(g3
g4
(lp40
(dp41
g7
(F0.053
F2.353
F0.022
I1
I1
tp42
sg9
F0.2361459732055664
sg10
I100
sg11
I0
sa(dp43
g7
(F0.162
F0.637
F0.055
I99
I100
tp44
sg9
F76.79415798187256
sg10
I100
sg11
I100
sa(dp45
g7
(F0.167
F0.64
F0.065
I100
I100
tp46
sg9
F157.40569710731506
sg10
I100
sg11
I200
sa(dp47
g7
(F0.173
F0.539
F0.066
I100
I100
tp48
sg9
F238.40502095222473
sg10
I100
sg11
I300
sa(dp49
g7
(F0.175
F0.567
F0.068
I100
I100
tp50
sg9
F324.07453894615173
sg10
I100
sg11
I400
sa(dp51
g7
(F0.179
F0.663
F0.069
I100
I100
tp52
sg9
F412.2548580169678
sg10
I100
sg11
I500
satp53
Rp54
(dp55
g25
I01
sg26
g31
sg32
(lp56
I3
aI5
aI31
aI9
asg34
I6
sg35
g36
(g3
tp57
Rp58
sbsS'SPEA2'
p59
g2
(g3
g4
(lp60
(dp61
g7
g8
sg9
F0.15063905715942383
sg10
I100
sg11
I0
sa(dp62
g7
g8
sg9
F88.48238801956177
sg10
I100
sg11
I100
sa(dp63
g7
g8
sg9
F187.06249594688416
sg10
I100
sg11
I200
sa(dp64
g7
g8
sg9
F291.01603603363037
sg10
I100
sg11
I300
sa(dp65
g7
g8
sg9
F405.03028988838196
sg10
I100
sg11
I400
sa(dp66
g7
g8
sg9
F526.8794379234314
sg10
I100
sg11
I500
satp67
Rp68
(dp69
g25
I01
sg26
g31
sg32
(lp70
I3
aI5
aI30
aI9
asg34
I6
sg35
g36
(g3
tp71
Rp72
sbsS'IBEA-PEN'
p73
g2
(g3
g4
(lp74
(dp75
g7
(F0.073
F0.927
F0.031
I2
I2
tp76
sg9
F0.6582658290863037
sg10
I100
sg11
I0
sa(dp77
g7
(F0.155
F0.705
F0.028
I57
I70
tp78
sg9
F59.9727098941803
sg10
I100
sg11
I100
sa(dp79
g7
(F0.16
F0.73
F0.03
I41
I60
tp80
sg9
F120.20595097541809
sg10
I100
sg11
I200
sa(dp81
g7
(F0.17
F0.72
F0.051
I68
I81
tp82
sg9
F180.76156997680664
sg10
I100
sg11
I300
sa(dp83
g7
(F0.167
F0.664
F0.049
I55
I82
tp84
sg9
F241.16237592697144
sg10
I100
sg11
I400
sa(dp85
g7
(F0.171
F0.752
F0.044
I62
I81
tp86
sg9
F301.5642158985138
sg10
I100
sg11
I500
satp87
Rp88
(dp89
g25
I01
sg26
g31
sg32
(lp90
I3
aI5
aI30
aI9
asg34
I6
sg35
g36
(g3
tp91
Rp92
sbsS'IBEA'
p93
g2
(g3
g4
(lp94
(dp95
g7
g8
sg9
F0.15060901641845703
sg10
I100
sg11
I0
sa(dp96
g7
g8
sg9
F17.430287837982178
sg10
I100
sg11
I100
sa(dp97
g7
g8
sg9
F34.9295220375061
sg10
I100
sg11
I200
sa(dp98
g7
g8
sg9
F52.43697786331177
sg10
I100
sg11
I300
sa(dp99
g7
g8
sg9
F69.92837691307068
sg10
I100
sg11
I400
sa(dp100
g7
g8
sg9
F87.3512179851532
sg10
I100
sg11
I500
satp101
Rp102
(dp103
g25
I01
sg26
g31
sg32
(lp104
I3
aI5
aI30
aI9
asg34
I6
sg35
g36
(g3
tp105
Rp106
sbsS'NSGA2'
p107
g2
(g3
g4
(lp108
(dp109
g7
g8
sg9
F0.15014004707336426
sg10
I100
sg11
I0
sa(dp110
g7
g8
sg9
F20.384382009506226
sg10
I100
sg11
I100
sa(dp111
g7
g8
sg9
F40.695106983184814
sg10
I100
sg11
I200
sa(dp112
g7
g8
sg9
F60.98795700073242
sg10
I100
sg11
I300
sa(dp113
g7
g8
sg9
F81.36471199989319
sg10
I100
sg11
I400
sa(dp114
g7
g8
sg9
F101.76883101463318
sg10
I100
sg11
I500
satp115
Rp116
(dp117
g25
I01
sg26
g31
sg32
(lp118
I3
aI5
aI30
aI9
asg34
I6
sg35
g36
(g3
tp119
Rp120
sbsS'IBEA-SIP'
p121
g2
(g3
g4
(lp122
(dp123
g7
(F0.058
F1.12
F0.03
I1
I1
tp124
sg9
F0.23066997528076172
sg10
I100
sg11
I0
sa(dp125
g7
(F0.152
F0.719
F0.038
I71
I100
tp126
sg9
F28.908134937286377
sg10
I100
sg11
I100
sa(dp127
g7
(F0.166
F0.638
F0.047
I81
I100
tp128
sg9
F57.64441514015198
sg10
I100
sg11
I200
sa(dp129
g7
(F0.175
F0.656
F0.047
I84
I100
tp130
sg9
F86.45692300796509
sg10
I100
sg11
I300
sa(dp131
g7
(F0.18
F0.684
F0.049
I80
I100
tp132
sg9
F114.66395401954651
sg10
I100
sg11
I400
sa(dp133
g7
(F0.185
F0.654
F0.05
I86
I100
tp134
sg9
F142.96817708015442
sg10
I100
sg11
I500
satp135
Rp136
(dp137
g25
I01
sg26
g31
sg32
(lp138
I3
aI5
aI30
aI9
asg34
I6
sg35
g36
(g3
tp139
Rp140
sbs.