(dp0
S'NSGA2-SIP'
p1
ccopy_reg
_reconstructor
p2
(cdeap.tools.support
Logbook
p3
c__builtin__
list
p4
(lp5
(dp6
S'hv|spread|igd|frontier#|valid#'
p7
(F0.061
F0.96
F0.019
I2
I2
tp8
sS'timestamp'
p9
F0.24466586112976074
sS'evals'
p10
I100
sS'gen'
p11
I0
sa(dp12
g7
(F0.15
F0.663
F0.037
I100
I100
tp13
sg9
F32.952093839645386
sg10
I100
sg11
I100
sa(dp14
g7
(F0.166
F0.586
F0.045
I100
I100
tp15
sg9
F66.00450801849365
sg10
I100
sg11
I200
sa(dp16
g7
(F0.171
F0.611
F0.048
I100
I100
tp17
sg9
F98.98528599739075
sg10
I100
sg11
I300
sa(dp18
g7
(F0.177
F0.635
F0.051
I100
I100
tp19
sg9
F132.27363300323486
sg10
I100
sg11
I400
sa(dp20
g7
(F0.179
F0.591
F0.052
I100
I100
tp21
sg9
F165.58102583885193
sg10
I100
sg11
I500
satp22
Rp23
(dp24
S'log_header'
p25
I01
sS'header'
p26
(S'gen'
p27
S'evals'
p28
S'hv|spread|igd|frontier#|valid#'
p29
S'timestamp'
p30
tp31
sS'columns_len'
p32
(lp33
I3
aI5
aI31
aI9
asS'buffindex'
p34
I6
sS'chapters'
p35
ccollections
defaultdict
p36
(g3
tp37
Rp38
sbsS'SPEA2-SIP'
p39
g2
(g3
g4
(lp40
(dp41
g7
(I0
I0
I0
I0
I0
tp42
sg9
F0.23866701126098633
sg10
I100
sg11
I0
sa(dp43
g7
(F0.159
F0.62
F0.046
I100
I100
tp44
sg9
F78.25084900856018
sg10
I100
sg11
I100
sa(dp45
g7
(F0.165
F0.584
F0.054
I100
I100
tp46
sg9
F160.94980597496033
sg10
I100
sg11
I200
sa(dp47
g7
(F0.172
F0.613
F0.056
I100
I100
tp48
sg9
F243.75574398040771
sg10
I100
sg11
I300
sa(dp49
g7
(F0.175
F0.571
F0.059
I100
I100
tp50
sg9
F328.33937191963196
sg10
I100
sg11
I400
sa(dp51
g7
(F0.176
F0.632
F0.06
I100
I100
tp52
sg9
F414.87543177604675
sg10
I100
sg11
I500
satp53
Rp54
(dp55
g25
I01
sg26
g31
sg32
(lp56
I3
aI5
aI31
aI9
asg34
I6
sg35
g36
(g3
tp57
Rp58
sbsS'SPEA2'
p59
g2
(g3
g4
(lp60
(dp61
g7
g42
sg9
F0.1595759391784668
sg10
I100
sg11
I0
sa(dp62
g7
g42
sg9
F76.13986992835999
sg10
I100
sg11
I100
sa(dp63
g7
g42
sg9
F172.03199291229248
sg10
I100
sg11
I200
sa(dp64
g7
g42
sg9
F274.57662296295166
sg10
I100
sg11
I300
sa(dp65
g7
g42
sg9
F385.0721650123596
sg10
I100
sg11
I400
sa(dp66
g7
g42
sg9
F491.58369994163513
sg10
I100
sg11
I500
satp67
Rp68
(dp69
g25
I01
sg26
g31
sg32
(lp70
I3
aI5
aI30
aI9
asg34
I6
sg35
g36
(g3
tp71
Rp72
sbsS'IBEA-PEN'
p73
g2
(g3
g4
(lp74
(dp75
g7
(F0.05
F2.119
F0.026
I1
I1
tp76
sg9
F0.5069868564605713
sg10
I100
sg11
I0
sa(dp77
g7
g42
sg9
F19.334550857543945
sg10
I100
sg11
I100
sa(dp78
g7
g42
sg9
F38.111177921295166
sg10
I100
sg11
I200
sa(dp79
g7
g42
sg9
F56.868759870529175
sg10
I100
sg11
I300
sa(dp80
g7
g42
sg9
F75.57684683799744
sg10
I100
sg11
I400
sa(dp81
g7
g42
sg9
F94.6406638622284
sg10
I100
sg11
I500
satp82
Rp83
(dp84
g25
I01
sg26
g31
sg32
(lp85
I3
aI5
aI30
aI9
asg34
I6
sg35
g36
(g3
tp86
Rp87
sbsS'IBEA'
p88
g2
(g3
g4
(lp89
(dp90
g7
g42
sg9
F0.15800189971923828
sg10
I100
sg11
I0
sa(dp91
g7
g42
sg9
F18.483821868896484
sg10
I100
sg11
I100
sa(dp92
g7
g42
sg9
F36.92709994316101
sg10
I100
sg11
I200
sa(dp93
g7
g42
sg9
F55.321292877197266
sg10
I100
sg11
I300
sa(dp94
g7
g42
sg9
F73.6381049156189
sg10
I100
sg11
I400
sa(dp95
g7
g42
sg9
F92.01301288604736
sg10
I100
sg11
I500
satp96
Rp97
(dp98
g25
I01
sg26
g31
sg32
(lp99
I3
aI5
aI30
aI9
asg34
I6
sg35
g36
(g3
tp100
Rp101
sbsS'NSGA2'
p102
g2
(g3
g4
(lp103
(dp104
g7
g42
sg9
F0.16791296005249023
sg10
I100
sg11
I0
sa(dp105
g7
g42
sg9
F22.329298973083496
sg10
I100
sg11
I100
sa(dp106
g7
g42
sg9
F44.630542039871216
sg10
I100
sg11
I200
sa(dp107
g7
g42
sg9
F66.96837306022644
sg10
I100
sg11
I300
sa(dp108
g7
g42
sg9
F89.30359506607056
sg10
I100
sg11
I400
sa(dp109
g7
g42
sg9
F111.60033202171326
sg10
I100
sg11
I500
satp110
Rp111
(dp112
g25
I01
sg26
g31
sg32
(lp113
I3
aI5
aI30
aI9
asg34
I6
sg35
g36
(g3
tp114
Rp115
sbsS'IBEA-SIP'
p116
g2
(g3
g4
(lp117
(dp118
g7
(F0.066
F0.947
F0.032
I2
I2
tp119
sg9
F0.2444298267364502
sg10
I100
sg11
I0
sa(dp120
g7
(F0.157
F0.656
F0.039
I80
I100
tp121
sg9
F30.975196838378906
sg10
I100
sg11
I100
sa(dp122
g7
(F0.166
F0.667
F0.042
I84
I100
tp123
sg9
F61.58704495429993
sg10
I100
sg11
I200
sa(dp124
g7
(F0.173
F0.679
F0.046
I92
I100
tp125
sg9
F92.40951299667358
sg10
I100
sg11
I300
sa(dp126
g7
(F0.176
F0.661
F0.048
I85
I100
tp127
sg9
F122.80595993995667
sg10
I100
sg11
I400
sa(dp128
g7
(F0.179
F0.686
F0.05
I84
I100
tp129
sg9
F153.17501997947693
sg10
I100
sg11
I500
satp130
Rp131
(dp132
g25
I01
sg26
g31
sg32
(lp133
I3
aI5
aI30
aI9
asg34
I6
sg35
g36
(g3
tp134
Rp135
sbs.