(dp0
S'NSGA2-SIP'
p1
ccopy_reg
_reconstructor
p2
(cdeap.tools.support
Logbook
p3
c__builtin__
list
p4
(lp5
(dp6
S'hv|spread|igd|frontier#|valid#'
p7
(I0
I0
I0
I0
I0
tp8
sS'timestamp'
p9
F0.2283010482788086
sS'evals'
p10
I100
sS'gen'
p11
I0
sa(dp12
g7
(F0.153
F0.573
F0.038
I100
I100
tp13
sg9
F30.443299055099487
sg10
I100
sg11
I100
sa(dp14
g7
(F0.165
F0.617
F0.041
I100
I100
tp15
sg9
F61.19689607620239
sg10
I100
sg11
I200
sa(dp16
g7
(F0.172
F0.636
F0.044
I100
I100
tp17
sg9
F91.71447706222534
sg10
I100
sg11
I300
sa(dp18
g7
(F0.176
F0.628
F0.046
I100
I100
tp19
sg9
F122.281170129776
sg10
I100
sg11
I400
sa(dp20
g7
(F0.177
F0.569
F0.045
I100
I100
tp21
sg9
F153.00018405914307
sg10
I100
sg11
I500
satp22
Rp23
(dp24
S'log_header'
p25
I01
sS'header'
p26
(S'gen'
p27
S'evals'
p28
S'hv|spread|igd|frontier#|valid#'
p29
S'timestamp'
p30
tp31
sS'columns_len'
p32
(lp33
I3
aI5
aI31
aI9
asS'buffindex'
p34
I6
sS'chapters'
p35
ccollections
defaultdict
p36
(g3
tp37
Rp38
sbsS'SPEA2-SIP'
p39
g2
(g3
g4
(lp40
(dp41
g7
g8
sg9
F0.22841811180114746
sg10
I100
sg11
I0
sa(dp42
g7
(F0.157
F0.595
F0.048
I100
I100
tp43
sg9
F72.0377950668335
sg10
I100
sg11
I100
sa(dp44
g7
(F0.168
F0.686
F0.056
I100
I100
tp45
sg9
F149.2606041431427
sg10
I100
sg11
I200
sa(dp46
g7
(F0.171
F0.601
F0.058
I100
I100
tp47
sg9
F227.40355110168457
sg10
I100
sg11
I300
sa(dp48
g7
(F0.173
F0.615
F0.061
I100
I100
tp49
sg9
F307.3507192134857
sg10
I100
sg11
I400
sa(dp50
g7
(F0.174
F0.631
F0.062
I100
I100
tp51
sg9
F388.58475518226624
sg10
I100
sg11
I500
satp52
Rp53
(dp54
g25
I01
sg26
g31
sg32
(lp55
I3
aI5
aI31
aI9
asg34
I6
sg35
g36
(g3
tp56
Rp57
sbsS'SPEA2'
p58
g2
(g3
g4
(lp59
(dp60
g7
g8
sg9
F0.15174293518066406
sg10
I100
sg11
I0
sa(dp61
g7
g8
sg9
F61.04507493972778
sg10
I100
sg11
I100
sa(dp62
g7
g8
sg9
F140.03759288787842
sg10
I100
sg11
I200
sa(dp63
g7
g8
sg9
F224.54179787635803
sg10
I100
sg11
I300
sa(dp64
g7
g8
sg9
F317.56707096099854
sg10
I100
sg11
I400
sa(dp65
g7
g8
sg9
F411.3465209007263
sg10
I100
sg11
I500
satp66
Rp67
(dp68
g25
I01
sg26
g31
sg32
(lp69
I3
aI5
aI30
aI9
asg34
I6
sg35
g36
(g3
tp70
Rp71
sbsS'IBEA-PEN'
p72
g2
(g3
g4
(lp73
(dp74
g7
(F0.06
F0.983
F0.031
I2
I2
tp75
sg9
F0.6523661613464355
sg10
I100
sg11
I0
sa(dp76
g7
(F0.161
F0.749
F0.027
I64
I84
tp77
sg9
F60.137974977493286
sg10
I100
sg11
I100
sa(dp78
g7
(F0.166
F0.654
F0.033
I59
I72
tp79
sg9
F120.59834504127502
sg10
I100
sg11
I200
sa(dp80
g7
(F0.171
F0.69
F0.034
I67
I81
tp81
sg9
F181.25084900856018
sg10
I100
sg11
I300
sa(dp82
g7
(F0.166
F0.803
F0.053
I54
I76
tp83
sg9
F241.67533612251282
sg10
I100
sg11
I400
sa(dp84
g7
(F0.167
F0.604
F0.037
I60
I79
tp85
sg9
F302.41400599479675
sg10
I100
sg11
I500
satp86
Rp87
(dp88
g25
I01
sg26
g31
sg32
(lp89
I3
aI5
aI30
aI9
asg34
I6
sg35
g36
(g3
tp90
Rp91
sbsS'IBEA'
p92
g2
(g3
g4
(lp93
(dp94
g7
g8
sg9
F0.15198993682861328
sg10
I100
sg11
I0
sa(dp95
g7
g8
sg9
F17.216441869735718
sg10
I100
sg11
I100
sa(dp96
g7
g8
sg9
F34.492602825164795
sg10
I100
sg11
I200
sa(dp97
g7
g8
sg9
F51.73381590843201
sg10
I100
sg11
I300
sa(dp98
g7
g8
sg9
F68.96938896179199
sg10
I100
sg11
I400
sa(dp99
g7
g8
sg9
F86.21457600593567
sg10
I100
sg11
I500
satp100
Rp101
(dp102
g25
I01
sg26
g31
sg32
(lp103
I3
aI5
aI30
aI9
asg34
I6
sg35
g36
(g3
tp104
Rp105
sbsS'NSGA2'
p106
g2
(g3
g4
(lp107
(dp108
g7
g8
sg9
F0.14989995956420898
sg10
I100
sg11
I0
sa(dp109
g7
g8
sg9
F20.117629051208496
sg10
I100
sg11
I100
sa(dp110
g7
g8
sg9
F40.1358380317688
sg10
I100
sg11
I200
sa(dp111
g7
g8
sg9
F60.082072019577026
sg10
I100
sg11
I300
sa(dp112
g7
g8
sg9
F80.08405804634094
sg10
I100
sg11
I400
sa(dp113
g7
g8
sg9
F100.11963415145874
sg10
I100
sg11
I500
satp114
Rp115
(dp116
g25
I01
sg26
g31
sg32
(lp117
I3
aI5
aI30
aI9
asg34
I6
sg35
g36
(g3
tp118
Rp119
sbsS'IBEA-SIP'
p120
g2
(g3
g4
(lp121
(dp122
g7
g8
sg9
F0.22788095474243164
sg10
I100
sg11
I0
sa(dp123
g7
(F0.157
F0.643
F0.04
I86
I100
tp124
sg9
F28.94847297668457
sg10
I100
sg11
I100
sa(dp125
g7
(F0.168
F0.792
F0.044
I92
I100
tp126
sg9
F57.491344928741455
sg10
I100
sg11
I200
sa(dp127
g7
(F0.172
F0.613
F0.045
I83
I100
tp128
sg9
F85.92621779441833
sg10
I100
sg11
I300
sa(dp129
g7
(F0.175
F0.628
F0.048
I87
I100
tp130
sg9
F114.4839448928833
sg10
I100
sg11
I400
sa(dp131
g7
(F0.179
F0.719
F0.051
I88
I100
tp132
sg9
F143.01596093177795
sg10
I100
sg11
I500
satp133
Rp134
(dp135
g25
I01
sg26
g31
sg32
(lp136
I3
aI5
aI30
aI9
asg34
I6
sg35
g36
(g3
tp137
Rp138
sbs.