(dp0
S'NSGA2-SIP'
p1
ccopy_reg
_reconstructor
p2
(cdeap.tools.support
Logbook
p3
c__builtin__
list
p4
(lp5
(dp6
S'hv|spread|igd|frontier#|valid#'
p7
(I0
I0
I0
I0
I0
tp8
sS'timestamp'
p9
F0.24007391929626465
sS'evals'
p10
I100
sS'gen'
p11
I0
sa(dp12
g7
(F0.154
F0.667
F0.033
I100
I100
tp13
sg9
F32.298667907714844
sg10
I100
sg11
I100
sa(dp14
g7
(F0.165
F0.669
F0.04
I100
I100
tp15
sg9
F64.82528901100159
sg10
I100
sg11
I200
sa(dp16
g7
(F0.176
F0.602
F0.044
I100
I100
tp17
sg9
F96.93192481994629
sg10
I100
sg11
I300
sa(dp18
g7
(F0.18
F0.628
F0.047
I100
I100
tp19
sg9
F129.28395986557007
sg10
I100
sg11
I400
sa(dp20
g7
(F0.181
F0.621
F0.048
I100
I100
tp21
sg9
F161.77381300926208
sg10
I100
sg11
I500
satp22
Rp23
(dp24
S'log_header'
p25
I01
sS'header'
p26
(S'gen'
p27
S'evals'
p28
S'hv|spread|igd|frontier#|valid#'
p29
S'timestamp'
p30
tp31
sS'columns_len'
p32
(lp33
I3
aI5
aI31
aI9
asS'buffindex'
p34
I6
sS'chapters'
p35
ccollections
defaultdict
p36
(g3
tp37
Rp38
sbsS'SPEA2-SIP'
p39
g2
(g3
g4
(lp40
(dp41
g7
(F0.057
F1.22
F0.02
I1
I1
tp42
sg9
F0.24291086196899414
sg10
I100
sg11
I0
sa(dp43
g7
(F0.157
F0.67
F0.046
I100
I100
tp44
sg9
F74.01434397697449
sg10
I100
sg11
I100
sa(dp45
g7
(F0.165
F0.555
F0.055
I100
I100
tp46
sg9
F152.86771488189697
sg10
I100
sg11
I200
sa(dp47
g7
(F0.168
F0.661
F0.058
I100
I100
tp48
sg9
F232.49092197418213
sg10
I100
sg11
I300
sa(dp49
g7
(F0.174
F0.655
F0.06
I100
I100
tp50
sg9
F312.35614585876465
sg10
I100
sg11
I400
sa(dp51
g7
(F0.176
F0.642
F0.062
I100
I100
tp52
sg9
F391.4894437789917
sg10
I100
sg11
I500
satp53
Rp54
(dp55
g25
I01
sg26
g31
sg32
(lp56
I3
aI5
aI31
aI9
asg34
I6
sg35
g36
(g3
tp57
Rp58
sbsS'SPEA2'
p59
g2
(g3
g4
(lp60
(dp61
g7
g8
sg9
F0.1560370922088623
sg10
I100
sg11
I0
sa(dp62
g7
g8
sg9
F78.35959911346436
sg10
I100
sg11
I100
sa(dp63
g7
g8
sg9
F169.3245129585266
sg10
I100
sg11
I200
sa(dp64
g7
g8
sg9
F256.0008330345154
sg10
I100
sg11
I300
sa(dp65
g7
g8
sg9
F345.7794671058655
sg10
I100
sg11
I400
sa(dp66
g7
g8
sg9
F438.0869469642639
sg10
I100
sg11
I500
satp67
Rp68
(dp69
g25
I01
sg26
g31
sg32
(lp70
I3
aI5
aI30
aI9
asg34
I6
sg35
g36
(g3
tp71
Rp72
sbsS'IBEA-PEN'
p73
g2
(g3
g4
(lp74
(dp75
g7
g8
sg9
F0.6849000453948975
sg10
I100
sg11
I0
sa(dp76
g7
(F0.16
F0.612
F0.031
I51
I68
tp77
sg9
F62.6629102230072
sg10
I100
sg11
I100
sa(dp78
g7
(F0.166
F0.725
F0.033
I57
I70
tp79
sg9
F125.97247815132141
sg10
I100
sg11
I200
sa(dp80
g7
(F0.169
F0.775
F0.044
I69
I80
tp81
sg9
F189.49120807647705
sg10
I100
sg11
I300
sa(dp82
g7
(F0.17
F0.702
F0.05
I59
I82
tp83
sg9
F253.5078001022339
sg10
I100
sg11
I400
sa(dp84
g7
(F0.171
F0.661
F0.036
I60
I77
tp85
sg9
F317.2421040534973
sg10
I100
sg11
I500
satp86
Rp87
(dp88
g25
I01
sg26
g31
sg32
(lp89
I3
aI5
aI30
aI9
asg34
I6
sg35
g36
(g3
tp90
Rp91
sbsS'IBEA'
p92
g2
(g3
g4
(lp93
(dp94
g7
g8
sg9
F0.15721511840820312
sg10
I100
sg11
I0
sa(dp95
g7
g8
sg9
F18.16918110847473
sg10
I100
sg11
I100
sa(dp96
g7
g8
sg9
F36.35724496841431
sg10
I100
sg11
I200
sa(dp97
g7
g8
sg9
F54.50278615951538
sg10
I100
sg11
I300
sa(dp98
g7
g8
sg9
F72.61611914634705
sg10
I100
sg11
I400
sa(dp99
g7
g8
sg9
F90.70531010627747
sg10
I100
sg11
I500
satp100
Rp101
(dp102
g25
I01
sg26
g31
sg32
(lp103
I3
aI5
aI30
aI9
asg34
I6
sg35
g36
(g3
tp104
Rp105
sbsS'NSGA2'
p106
g2
(g3
g4
(lp107
(dp108
g7
g8
sg9
F0.157073974609375
sg10
I100
sg11
I0
sa(dp109
g7
g8
sg9
F21.214112997055054
sg10
I100
sg11
I100
sa(dp110
g7
g8
sg9
F42.387078046798706
sg10
I100
sg11
I200
sa(dp111
g7
g8
sg9
F63.58819007873535
sg10
I100
sg11
I300
sa(dp112
g7
g8
sg9
F84.81122493743896
sg10
I100
sg11
I400
sa(dp113
g7
g8
sg9
F106.04071998596191
sg10
I100
sg11
I500
satp114
Rp115
(dp116
g25
I01
sg26
g31
sg32
(lp117
I3
aI5
aI30
aI9
asg34
I6
sg35
g36
(g3
tp118
Rp119
sbsS'IBEA-SIP'
p120
g2
(g3
g4
(lp121
(dp122
g7
(F0.075
F0.982
F0.024
I4
I5
tp123
sg9
F0.2528550624847412
sg10
I100
sg11
I0
sa(dp124
g7
(F0.157
F0.684
F0.042
I79
I100
tp125
sg9
F30.69803214073181
sg10
I100
sg11
I100
sa(dp126
g7
(F0.174
F0.63
F0.047
I83
I100
tp127
sg9
F61.17209815979004
sg10
I100
sg11
I200
sa(dp128
g7
(F0.183
F0.679
F0.051
I86
I100
tp129
sg9
F91.03197598457336
sg10
I100
sg11
I300
sa(dp130
g7
(F0.186
F0.57
F0.05
I86
I100
tp131
sg9
F120.86843204498291
sg10
I100
sg11
I400
sa(dp132
g7
(F0.186
F0.607
F0.051
I84
I100
tp133
sg9
F150.7004029750824
sg10
I100
sg11
I500
satp134
Rp135
(dp136
g25
I01
sg26
g31
sg32
(lp137
I3
aI5
aI30
aI9
asg34
I6
sg35
g36
(g3
tp138
Rp139
sbs.