(dp0
S'NSGA2-SIP'
p1
ccopy_reg
_reconstructor
p2
(cdeap.tools.support
Logbook
p3
c__builtin__
list
p4
(lp5
(dp6
S'hv|spread|igd|frontier#|valid#'
p7
(I0
I0
I0
I0
I0
tp8
sS'timestamp'
p9
F0.24802708625793457
sS'evals'
p10
I100
sS'gen'
p11
I0
sa(dp12
g7
(F0.147
F0.751
F0.035
I100
I100
tp13
sg9
F32.18598818778992
sg10
I100
sg11
I100
sa(dp14
g7
(F0.157
F0.669
F0.038
I100
I100
tp15
sg9
F64.73130011558533
sg10
I100
sg11
I200
sa(dp16
g7
(F0.164
F0.593
F0.043
I100
I100
tp17
sg9
F97.20127320289612
sg10
I100
sg11
I300
sa(dp18
g7
(F0.172
F0.644
F0.046
I100
I100
tp19
sg9
F129.58804607391357
sg10
I100
sg11
I400
sa(dp20
g7
(F0.175
F0.616
F0.047
I100
I100
tp21
sg9
F161.556645154953
sg10
I100
sg11
I500
satp22
Rp23
(dp24
S'log_header'
p25
I01
sS'header'
p26
(S'gen'
p27
S'evals'
p28
S'hv|spread|igd|frontier#|valid#'
p29
S'timestamp'
p30
tp31
sS'columns_len'
p32
(lp33
I3
aI5
aI31
aI9
asS'buffindex'
p34
I6
sS'chapters'
p35
ccollections
defaultdict
p36
(g3
tp37
Rp38
sbsS'SPEA2-SIP'
p39
g2
(g3
g4
(lp40
(dp41
g7
g8
sg9
F0.2426609992980957
sg10
I100
sg11
I0
sa(dp42
g7
(F0.158
F0.66
F0.052
I100
I100
tp43
sg9
F74.21931385993958
sg10
I100
sg11
I100
sa(dp44
g7
(F0.165
F0.644
F0.059
I100
I100
tp45
sg9
F153.69800901412964
sg10
I100
sg11
I200
sa(dp46
g7
(F0.169
F0.693
F0.061
I100
I100
tp47
sg9
F232.716717004776
sg10
I100
sg11
I300
sa(dp48
g7
(F0.171
F0.661
F0.063
I100
I100
tp49
sg9
F310.63937878608704
sg10
I100
sg11
I400
sa(dp50
g7
(F0.176
F0.587
F0.065
I100
I100
tp51
sg9
F392.34345984458923
sg10
I100
sg11
I500
satp52
Rp53
(dp54
g25
I01
sg26
g31
sg32
(lp55
I3
aI5
aI31
aI9
asg34
I6
sg35
g36
(g3
tp56
Rp57
sbsS'SPEA2'
p58
g2
(g3
g4
(lp59
(dp60
g7
g8
sg9
F0.17079591751098633
sg10
I100
sg11
I0
sa(dp61
g7
g8
sg9
F77.36861109733582
sg10
I100
sg11
I100
sa(dp62
g7
g8
sg9
F173.75395107269287
sg10
I100
sg11
I200
sa(dp63
g7
g8
sg9
F277.1726360321045
sg10
I100
sg11
I300
sa(dp64
g7
g8
sg9
F381.6900670528412
sg10
I100
sg11
I400
sa(dp65
g7
g8
sg9
F495.4066150188446
sg10
I100
sg11
I500
satp66
Rp67
(dp68
g25
I01
sg26
g31
sg32
(lp69
I3
aI5
aI30
aI9
asg34
I6
sg35
g36
(g3
tp70
Rp71
sbsS'IBEA-PEN'
p72
g2
(g3
g4
(lp73
(dp74
g7
g8
sg9
F0.48738598823547363
sg10
I100
sg11
I0
sa(dp75
g7
g8
sg9
F19.164110898971558
sg10
I100
sg11
I100
sa(dp76
g7
g8
sg9
F37.859203815460205
sg10
I100
sg11
I200
sa(dp77
g7
g8
sg9
F56.508116006851196
sg10
I100
sg11
I300
sa(dp78
g7
g8
sg9
F75.151526927948
sg10
I100
sg11
I400
sa(dp79
g7
g8
sg9
F93.7969298362732
sg10
I100
sg11
I500
satp80
Rp81
(dp82
g25
I01
sg26
g31
sg32
(lp83
I3
aI5
aI30
aI9
asg34
I6
sg35
g36
(g3
tp84
Rp85
sbsS'IBEA'
p86
g2
(g3
g4
(lp87
(dp88
g7
g8
sg9
F0.1594069004058838
sg10
I100
sg11
I0
sa(dp89
g7
g8
sg9
F18.216025829315186
sg10
I100
sg11
I100
sa(dp90
g7
g8
sg9
F36.39653491973877
sg10
I100
sg11
I200
sa(dp91
g7
g8
sg9
F54.572299003601074
sg10
I100
sg11
I300
sa(dp92
g7
g8
sg9
F72.72484302520752
sg10
I100
sg11
I400
sa(dp93
g7
g8
sg9
F90.86566281318665
sg10
I100
sg11
I500
satp94
Rp95
(dp96
g25
I01
sg26
g31
sg32
(lp97
I3
aI5
aI30
aI9
asg34
I6
sg35
g36
(g3
tp98
Rp99
sbsS'NSGA2'
p100
g2
(g3
g4
(lp101
(dp102
g7
g8
sg9
F0.15942001342773438
sg10
I100
sg11
I0
sa(dp103
g7
g8
sg9
F21.520644903182983
sg10
I100
sg11
I100
sa(dp104
g7
g8
sg9
F42.891494035720825
sg10
I100
sg11
I200
sa(dp105
g7
g8
sg9
F64.27335286140442
sg10
I100
sg11
I300
sa(dp106
g7
g8
sg9
F85.6041738986969
sg10
I100
sg11
I400
sa(dp107
g7
g8
sg9
F106.92139387130737
sg10
I100
sg11
I500
satp108
Rp109
(dp110
g25
I01
sg26
g31
sg32
(lp111
I3
aI5
aI30
aI9
asg34
I6
sg35
g36
(g3
tp112
Rp113
sbsS'IBEA-SIP'
p114
g2
(g3
g4
(lp115
(dp116
g7
g8
sg9
F0.23944902420043945
sg10
I100
sg11
I0
sa(dp117
g7
(F0.153
F0.678
F0.034
I79
I100
tp118
sg9
F30.357572078704834
sg10
I100
sg11
I100
sa(dp119
g7
(F0.168
F0.641
F0.044
I82
I100
tp120
sg9
F61.0703399181366
sg10
I100
sg11
I200
sa(dp121
g7
(F0.174
F0.658
F0.048
I92
I100
tp122
sg9
F91.38089299201965
sg10
I100
sg11
I300
sa(dp123
g7
(F0.178
F0.642
F0.052
I92
I100
tp124
sg9
F121.38079595565796
sg10
I100
sg11
I400
sa(dp125
g7
(F0.181
F0.659
F0.054
I88
I100
tp126
sg9
F151.20140194892883
sg10
I100
sg11
I500
satp127
Rp128
(dp129
g25
I01
sg26
g31
sg32
(lp130
I3
aI5
aI30
aI9
asg34
I6
sg35
g36
(g3
tp131
Rp132
sbs.