(dp0
S'NSGA2-SIP'
p1
ccopy_reg
_reconstructor
p2
(cdeap.tools.support
Logbook
p3
c__builtin__
list
p4
(lp5
(dp6
S'hv|spread|igd|frontier#|valid#'
p7
(I0
I0
I0
I0
I0
tp8
sS'timestamp'
p9
F0.22868084907531738
sS'evals'
p10
I100
sS'gen'
p11
I0
sa(dp12
g7
(F0.151
F0.634
F0.032
I100
I100
tp13
sg9
F31.142117023468018
sg10
I100
sg11
I100
sa(dp14
g7
(F0.164
F0.613
F0.038
I100
I100
tp15
sg9
F62.30048203468323
sg10
I100
sg11
I200
sa(dp16
g7
(F0.175
F0.631
F0.049
I100
I100
tp17
sg9
F93.32364201545715
sg10
I100
sg11
I300
sa(dp18
g7
(F0.176
F0.654
F0.049
I100
I100
tp19
sg9
F124.14535284042358
sg10
I100
sg11
I400
sa(dp20
g7
(F0.177
F0.573
F0.051
I100
I100
tp21
sg9
F154.85502004623413
sg10
I100
sg11
I500
satp22
Rp23
(dp24
S'log_header'
p25
I01
sS'header'
p26
(S'gen'
p27
S'evals'
p28
g7
S'timestamp'
p29
tp30
sS'columns_len'
p31
(lp32
I3
aI5
aI31
aI9
asS'buffindex'
p33
I6
sS'chapters'
p34
ccollections
defaultdict
p35
(g3
tp36
Rp37
sbsS'SPEA2-SIP'
p38
g2
(g3
g4
(lp39
(dp40
g7
g8
sg9
F0.22887301445007324
sg10
I100
sg11
I0
sa(dp41
g7
(F0.165
F0.63
F0.048
I100
I100
tp42
sg9
F72.10388207435608
sg10
I100
sg11
I100
sa(dp43
g7
(F0.173
F0.658
F0.06
I100
I100
tp44
sg9
F151.46998000144958
sg10
I100
sg11
I200
sa(dp45
g7
(F0.176
F0.633
F0.064
I100
I100
tp46
sg9
F229.32979607582092
sg10
I100
sg11
I300
sa(dp47
g7
(F0.18
F0.686
F0.065
I100
I100
tp48
sg9
F310.60952591896057
sg10
I100
sg11
I400
sa(dp49
g7
(F0.181
F0.633
F0.066
I100
I100
tp50
sg9
F392.8108730316162
sg10
I100
sg11
I500
satp51
Rp52
(dp53
g25
I01
sg26
g30
sg31
(lp54
I3
aI5
aI31
aI9
asg33
I6
sg34
g35
(g3
tp55
Rp56
sbsS'SPEA2'
p57
g2
(g3
g4
(lp58
(dp59
g7
g8
sg9
F0.1522979736328125
sg10
I100
sg11
I0
sa(dp60
g7
g8
sg9
F67.21919989585876
sg10
I100
sg11
I100
sa(dp61
g7
g8
sg9
F136.9197609424591
sg10
I100
sg11
I200
sa(dp62
g7
g8
sg9
F208.2185139656067
sg10
I100
sg11
I300
sa(dp63
g7
g8
sg9
F281.80559182167053
sg10
I100
sg11
I400
sa(dp64
g7
g8
sg9
F356.51953387260437
sg10
I100
sg11
I500
satp65
Rp66
(dp67
g25
I01
sg26
g30
sg31
(lp68
I3
aI5
aI30
aI9
asg33
I6
sg34
g35
(g3
tp69
Rp70
sbsS'IBEA-PEN'
p71
g2
(g3
g4
(lp72
(dp73
g7
(F0.09
F0.984
F0.019
I3
I3
tp74
sg9
F0.6652240753173828
sg10
I100
sg11
I0
sa(dp75
g7
(F0.154
F0.714
F0.027
I47
I60
tp76
sg9
F60.44495415687561
sg10
I100
sg11
I100
sa(dp77
g7
(F0.167
F0.678
F0.037
I48
I68
tp78
sg9
F121.63688802719116
sg10
I100
sg11
I200
sa(dp79
g7
(F0.171
F0.717
F0.038
I57
I78
tp80
sg9
F182.79350113868713
sg10
I100
sg11
I300
sa(dp81
g7
(F0.17
F0.608
F0.031
I59
I79
tp82
sg9
F244.51196122169495
sg10
I100
sg11
I400
sa(dp83
g7
(F0.174
F0.613
F0.047
I52
I83
tp84
sg9
F305.88471603393555
sg10
I100
sg11
I500
satp85
Rp86
(dp87
g25
I01
sg26
g30
sg31
(lp88
I3
aI5
aI30
aI9
asg33
I6
sg34
g35
(g3
tp89
Rp90
sbsS'IBEA'
p91
g2
(g3
g4
(lp92
(dp93
g7
g8
sg9
F0.15260982513427734
sg10
I100
sg11
I0
sa(dp94
g7
g8
sg9
F17.522469997406006
sg10
I100
sg11
I100
sa(dp95
g7
g8
sg9
F35.043168783187866
sg10
I100
sg11
I200
sa(dp96
g7
g8
sg9
F52.49682593345642
sg10
I100
sg11
I300
sa(dp97
g7
g8
sg9
F69.94491982460022
sg10
I100
sg11
I400
sa(dp98
g7
g8
sg9
F87.41410899162292
sg10
I100
sg11
I500
satp99
Rp100
(dp101
g25
I01
sg26
g30
sg31
(lp102
I3
aI5
aI30
aI9
asg33
I6
sg34
g35
(g3
tp103
Rp104
sbsS'NSGA2'
p105
g2
(g3
g4
(lp106
(dp107
g7
g8
sg9
F0.15223407745361328
sg10
I100
sg11
I0
sa(dp108
g7
g8
sg9
F20.584414958953857
sg10
I100
sg11
I100
sa(dp109
g7
g8
sg9
F41.02659010887146
sg10
I100
sg11
I200
sa(dp110
g7
g8
sg9
F61.449061155319214
sg10
I100
sg11
I300
sa(dp111
g7
g8
sg9
F81.8943259716034
sg10
I100
sg11
I400
sa(dp112
g7
g8
sg9
F102.34203910827637
sg10
I100
sg11
I500
satp113
Rp114
(dp115
g25
I01
sg26
g30
sg31
(lp116
I3
aI5
aI30
aI9
asg33
I6
sg34
g35
(g3
tp117
Rp118
sbsS'IBEA-SIP'
p119
g2
(g3
g4
(lp120
(dp121
g7
(F0.055
F0.72
F0.014
I1
I1
tp122
sg9
F0.23309707641601562
sg10
I100
sg11
I0
sa(dp123
g7
(F0.159
F0.665
F0.036
I85
I100
tp124
sg9
F29.397073984146118
sg10
I100
sg11
I100
sa(dp125
g7
(F0.171
F0.664
F0.041
I80
I100
tp126
sg9
F58.43025803565979
sg10
I100
sg11
I200
sa(dp127
g7
(F0.178
F0.659
F0.045
I91
I100
tp128
sg9
F87.51441502571106
sg10
I100
sg11
I300
sa(dp129
g7
(F0.179
F0.672
F0.046
I82
I100
tp130
sg9
F116.68589997291565
sg10
I100
sg11
I400
sa(dp131
g7
(F0.182
F0.697
F0.048
I84
I100
tp132
sg9
F145.5103189945221
sg10
I100
sg11
I500
satp133
Rp134
(dp135
g25
I01
sg26
g30
sg31
(lp136
I3
aI5
aI30
aI9
asg33
I6
sg34
g35
(g3
tp137
Rp138
sbs.