(dp0
S'NSGA2-SIP'
p1
ccopy_reg
_reconstructor
p2
(cdeap.tools.support
Logbook
p3
c__builtin__
list
p4
(lp5
(dp6
S'hv|spread|igd|frontier#|valid#'
p7
(I0
I0
I0
I0
I0
tp8
sS'timestamp'
p9
F0.22606205940246582
sS'evals'
p10
I100
sS'gen'
p11
I0
sa(dp12
g7
(F0.154
F0.676
F0.035
I100
I100
tp13
sg9
F27.65745711326599
sg10
I100
sg11
I100
sa(dp14
g7
(F0.164
F0.641
F0.041
I100
I100
tp15
sg9
F55.145946979522705
sg10
I100
sg11
I200
sa(dp16
g7
(F0.171
F0.586
F0.044
I100
I100
tp17
sg9
F82.83432102203369
sg10
I100
sg11
I300
sa(dp18
g7
(F0.173
F0.652
F0.046
I100
I100
tp19
sg9
F110.67858910560608
sg10
I100
sg11
I400
sa(dp20
g7
(F0.174
F0.665
F0.048
I100
I100
tp21
sg9
F138.554829120636
sg10
I100
sg11
I500
satp22
Rp23
(dp24
S'log_header'
p25
I01
sS'header'
p26
(S'gen'
p27
S'evals'
p28
S'hv|spread|igd|frontier#|valid#'
p29
S'timestamp'
p30
tp31
sS'columns_len'
p32
(lp33
I3
aI5
aI31
aI9
asS'buffindex'
p34
I6
sS'chapters'
p35
ccollections
defaultdict
p36
(g3
tp37
Rp38
sbsS'SPEA2-SIP'
p39
g2
(g3
g4
(lp40
(dp41
g7
g8
sg9
F0.22940897941589355
sg10
I100
sg11
I0
sa(dp42
g7
(F0.164
F0.636
F0.05
I100
I100
tp43
sg9
F66.9242889881134
sg10
I100
sg11
I100
sa(dp44
g7
(F0.173
F0.664
F0.059
I100
I100
tp45
sg9
F141.1466190814972
sg10
I100
sg11
I200
sa(dp46
g7
(F0.177
F0.672
F0.063
I100
I100
tp47
sg9
F219.1953740119934
sg10
I100
sg11
I300
sa(dp48
g7
(F0.178
F0.619
F0.066
I100
I100
tp49
sg9
F297.50299310684204
sg10
I100
sg11
I400
sa(dp50
g7
(F0.179
F0.581
F0.067
I100
I100
tp51
sg9
F376.71688199043274
sg10
I100
sg11
I500
satp52
Rp53
(dp54
g25
I01
sg26
g31
sg32
(lp55
I3
aI5
aI31
aI9
asg34
I6
sg35
g36
(g3
tp56
Rp57
sbsS'SPEA2'
p58
g2
(g3
g4
(lp59
(dp60
g7
g8
sg9
F0.16376900672912598
sg10
I100
sg11
I0
sa(dp61
g7
g8
sg9
F66.37465715408325
sg10
I100
sg11
I100
sa(dp62
g7
g8
sg9
F145.81290316581726
sg10
I100
sg11
I200
sa(dp63
g7
g8
sg9
F230.71419310569763
sg10
I100
sg11
I300
sa(dp64
g7
g8
sg9
F317.3775441646576
sg10
I100
sg11
I400
sa(dp65
g7
g8
sg9
F409.98547101020813
sg10
I100
sg11
I500
satp66
Rp67
(dp68
g25
I01
sg26
g31
sg32
(lp69
I3
aI5
aI30
aI9
asg34
I6
sg35
g36
(g3
tp70
Rp71
sbsS'IBEA-PEN'
p72
g2
(g3
g4
(lp73
(dp74
g7
(F0.055
F2.302
F0.035
I1
I1
tp75
sg9
F0.46355414390563965
sg10
I100
sg11
I0
sa(dp76
g7
g8
sg9
F16.456011056900024
sg10
I100
sg11
I100
sa(dp77
g7
g8
sg9
F32.09126400947571
sg10
I100
sg11
I200
sa(dp78
g7
g8
sg9
F47.64680600166321
sg10
I100
sg11
I300
sa(dp79
g7
g8
sg9
F63.38427710533142
sg10
I100
sg11
I400
sa(dp80
g7
g8
sg9
F78.98012709617615
sg10
I100
sg11
I500
satp81
Rp82
(dp83
g25
I01
sg26
g31
sg32
(lp84
I3
aI5
aI30
aI9
asg34
I6
sg35
g36
(g3
tp85
Rp86
sbsS'IBEA'
p87
g2
(g3
g4
(lp88
(dp89
g7
g8
sg9
F0.16341710090637207
sg10
I100
sg11
I0
sa(dp90
g7
g8
sg9
F15.471420049667358
sg10
I100
sg11
I100
sa(dp91
g7
g8
sg9
F30.698604106903076
sg10
I100
sg11
I200
sa(dp92
g7
g8
sg9
F45.945919036865234
sg10
I100
sg11
I300
sa(dp93
g7
g8
sg9
F61.19245910644531
sg10
I100
sg11
I400
sa(dp94
g7
g8
sg9
F76.43090796470642
sg10
I100
sg11
I500
satp95
Rp96
(dp97
g25
I01
sg26
g31
sg32
(lp98
I3
aI5
aI30
aI9
asg34
I6
sg35
g36
(g3
tp99
Rp100
sbsS'NSGA2'
p101
g2
(g3
g4
(lp102
(dp103
g7
g8
sg9
F0.15091586112976074
sg10
I100
sg11
I0
sa(dp104
g7
g8
sg9
F18.14880394935608
sg10
I100
sg11
I100
sa(dp105
g7
g8
sg9
F36.03706693649292
sg10
I100
sg11
I200
sa(dp106
g7
g8
sg9
F53.896185874938965
sg10
I100
sg11
I300
sa(dp107
g7
g8
sg9
F71.7547550201416
sg10
I100
sg11
I400
sa(dp108
g7
g8
sg9
F89.58071899414062
sg10
I100
sg11
I500
satp109
Rp110
(dp111
g25
I01
sg26
g31
sg32
(lp112
I3
aI5
aI30
aI9
asg34
I6
sg35
g36
(g3
tp113
Rp114
sbsS'IBEA-SIP'
p115
g2
(g3
g4
(lp116
(dp117
g7
(F0.048
F2.385
F0.024
I1
I1
tp118
sg9
F0.22870707511901855
sg10
I100
sg11
I0
sa(dp119
g7
(F0.154
F0.67
F0.036
I85
I100
tp120
sg9
F26.572368144989014
sg10
I100
sg11
I100
sa(dp121
g7
(F0.169
F0.64
F0.043
I85
I100
tp122
sg9
F52.65525507926941
sg10
I100
sg11
I200
sa(dp123
g7
(F0.176
F0.622
F0.05
I73
I100
tp124
sg9
F78.39794707298279
sg10
I100
sg11
I300
sa(dp125
g7
(F0.179
F0.734
F0.049
I79
I100
tp126
sg9
F104.18114614486694
sg10
I100
sg11
I400
sa(dp127
g7
(F0.181
F0.608
F0.05
I80
I100
tp128
sg9
F129.84407210350037
sg10
I100
sg11
I500
satp129
Rp130
(dp131
g25
I01
sg26
g31
sg32
(lp132
I3
aI5
aI30
aI9
asg34
I6
sg35
g36
(g3
tp133
Rp134
sbs.