(dp0
S'NSGA2-SIP'
p1
ccopy_reg
_reconstructor
p2
(cdeap.tools.support
Logbook
p3
c__builtin__
list
p4
(lp5
(dp6
S'hv|spread|igd|frontier#|valid#'
p7
(F0.055
F1.24
F0.014
I1
I1
tp8
sS'timestamp'
p9
F0.20771193504333496
sS'evals'
p10
I100
sS'gen'
p11
I0
sa(dp12
g7
(F0.15
F0.647
F0.036
I100
I100
tp13
sg9
F28.015082120895386
sg10
I100
sg11
I100
sa(dp14
g7
(F0.166
F0.68
F0.042
I100
I100
tp15
sg9
F56.16688895225525
sg10
I100
sg11
I200
sa(dp16
g7
(F0.171
F0.647
F0.044
I100
I100
tp17
sg9
F84.29441404342651
sg10
I100
sg11
I300
sa(dp18
g7
(F0.174
F0.658
F0.047
I100
I100
tp19
sg9
F112.30551505088806
sg10
I100
sg11
I400
sa(dp20
g7
(F0.176
F0.627
F0.048
I100
I100
tp21
sg9
F140.15103697776794
sg10
I100
sg11
I500
satp22
Rp23
(dp24
S'log_header'
p25
I01
sS'header'
p26
(S'gen'
p27
S'evals'
p28
g7
S'timestamp'
p29
tp30
sS'columns_len'
p31
(lp32
I3
aI5
aI31
aI9
asS'buffindex'
p33
I6
sS'chapters'
p34
ccollections
defaultdict
p35
(g3
tp36
Rp37
sbsS'SPEA2-SIP'
p38
g2
(g3
g4
(lp39
(dp40
g7
(F0.052
F2.119
F0.017
I1
I1
tp41
sg9
F0.20705509185791016
sg10
I100
sg11
I0
sa(dp42
g7
(F0.15
F0.671
F0.044
I98
I100
tp43
sg9
F62.52871298789978
sg10
I100
sg11
I100
sa(dp44
g7
(F0.158
F0.633
F0.052
I100
I100
tp45
sg9
F127.5184440612793
sg10
I100
sg11
I200
sa(dp46
g7
(F0.164
F0.671
F0.06
I100
I100
tp47
sg9
F193.80258512496948
sg10
I100
sg11
I300
sa(dp48
g7
(F0.172
F0.639
F0.064
I100
I100
tp49
sg9
F264.3239929676056
sg10
I100
sg11
I400
sa(dp50
g7
(F0.176
F0.617
F0.067
I100
I100
tp51
sg9
F336.79110407829285
sg10
I100
sg11
I500
satp52
Rp53
(dp54
g25
I01
sg26
g30
sg31
(lp55
I3
aI5
aI31
aI9
asg33
I6
sg34
g35
(g3
tp56
Rp57
sbsS'SPEA2'
p58
g2
(g3
g4
(lp59
(dp60
g7
(I0
I0
I0
I0
I0
tp61
sg9
F0.1352999210357666
sg10
I100
sg11
I0
sa(dp62
g7
g61
sg9
F78.23710298538208
sg10
I100
sg11
I100
sa(dp63
g7
g61
sg9
F167.61247086524963
sg10
I100
sg11
I200
sa(dp64
g7
g61
sg9
F267.2229609489441
sg10
I100
sg11
I300
sa(dp65
g7
g61
sg9
F372.9655258655548
sg10
I100
sg11
I400
sa(dp66
g7
g61
sg9
F478.7537579536438
sg10
I100
sg11
I500
satp67
Rp68
(dp69
g25
I01
sg26
g30
sg31
(lp70
I3
aI5
aI30
aI9
asg33
I6
sg34
g35
(g3
tp71
Rp72
sbsS'IBEA'
p73
g2
(g3
g4
(lp74
(dp75
g7
g61
sg9
F0.13473081588745117
sg10
I100
sg11
I0
sa(dp76
g7
g61
sg9
F15.58622694015503
sg10
I100
sg11
I100
sa(dp77
g7
g61
sg9
F31.13030695915222
sg10
I100
sg11
I200
sa(dp78
g7
g61
sg9
F46.663670778274536
sg10
I100
sg11
I300
sa(dp79
g7
g61
sg9
F62.159143924713135
sg10
I100
sg11
I400
sa(dp80
g7
g61
sg9
F77.68546390533447
sg10
I100
sg11
I500
satp81
Rp82
(dp83
g25
I01
sg26
g30
sg31
(lp84
I3
aI5
aI30
aI9
asg33
I6
sg34
g35
(g3
tp85
Rp86
sbsS'NSGA2'
p87
g2
(g3
g4
(lp88
(dp89
g7
g61
sg9
F0.13436579704284668
sg10
I100
sg11
I0
sa(dp90
g7
g61
sg9
F18.272671937942505
sg10
I100
sg11
I100
sa(dp91
g7
g61
sg9
F36.43027901649475
sg10
I100
sg11
I200
sa(dp92
g7
g61
sg9
F54.62308382987976
sg10
I100
sg11
I300
sa(dp93
g7
g61
sg9
F72.86814379692078
sg10
I100
sg11
I400
sa(dp94
g7
g61
sg9
F91.13805198669434
sg10
I100
sg11
I500
satp95
Rp96
(dp97
g25
I01
sg26
g30
sg31
(lp98
I3
aI5
aI30
aI9
asg33
I6
sg34
g35
(g3
tp99
Rp100
sbsS'IBEA-SIP'
p101
g2
(g3
g4
(lp102
(dp103
g7
(F0.053
F0.8
F0.03
I1
I1
tp104
sg9
F0.20711493492126465
sg10
I100
sg11
I0
sa(dp105
g7
(F0.152
F0.665
F0.035
I72
I100
tp106
sg9
F26.273250818252563
sg10
I100
sg11
I100
sa(dp107
g7
(F0.168
F0.761
F0.04
I84
I100
tp108
sg9
F52.22060680389404
sg10
I100
sg11
I200
sa(dp109
g7
(F0.172
F0.668
F0.042
I89
I100
tp110
sg9
F77.8417809009552
sg10
I100
sg11
I300
sa(dp111
g7
(F0.174
F0.692
F0.046
I84
I100
tp112
sg9
F103.23903489112854
sg10
I100
sg11
I400
sa(dp113
g7
(F0.181
F0.681
F0.05
I81
I100
tp114
sg9
F128.43247294425964
sg10
I100
sg11
I500
satp115
Rp116
(dp117
g25
I01
sg26
g30
sg31
(lp118
I3
aI5
aI30
aI9
asg33
I6
sg34
g35
(g3
tp119
Rp120
sbs.