(dp0
S'NSGA2-SIP'
p1
ccopy_reg
_reconstructor
p2
(cdeap.tools.support
Logbook
p3
c__builtin__
list
p4
(lp5
(dp6
S'hv|spread|igd|frontier#|valid#'
p7
(F0.056
F0.991
F0.014
I2
I2
tp8
sS'timestamp'
p9
F0.234328031539917
sS'evals'
p10
I100
sS'gen'
p11
I0
sa(dp12
g7
(F0.156
F0.627
F0.037
I100
I100
tp13
sg9
F30.697461128234863
sg10
I100
sg11
I100
sa(dp14
g7
(F0.168
F0.628
F0.042
I100
I100
tp15
sg9
F61.878962993621826
sg10
I100
sg11
I200
sa(dp16
g7
(F0.175
F0.578
F0.041
I100
I100
tp17
sg9
F92.46798014640808
sg10
I100
sg11
I300
sa(dp18
g7
(F0.177
F0.614
F0.042
I100
I100
tp19
sg9
F122.74258995056152
sg10
I100
sg11
I400
sa(dp20
g7
(F0.179
F0.584
F0.045
I100
I100
tp21
sg9
F153.0962851047516
sg10
I100
sg11
I500
satp22
Rp23
(dp24
S'log_header'
p25
I01
sS'header'
p26
(S'gen'
p27
S'evals'
p28
S'hv|spread|igd|frontier#|valid#'
p29
S'timestamp'
p30
tp31
sS'columns_len'
p32
(lp33
I3
aI5
aI31
aI9
asS'buffindex'
p34
I6
sS'chapters'
p35
ccollections
defaultdict
p36
(g3
tp37
Rp38
sbsS'SPEA2-SIP'
p39
g2
(g3
g4
(lp40
(dp41
g7
(I0
I0
I0
I0
I0
tp42
sg9
F0.2270200252532959
sg10
I100
sg11
I0
sa(dp43
g7
(F0.155
F0.584
F0.046
I100
I100
tp44
sg9
F71.86678004264832
sg10
I100
sg11
I100
sa(dp45
g7
(F0.16
F0.662
F0.056
I100
I100
tp46
sg9
F149.75276803970337
sg10
I100
sg11
I200
sa(dp47
g7
(F0.162
F0.634
F0.059
I100
I100
tp48
sg9
F228.69317317008972
sg10
I100
sg11
I300
sa(dp49
g7
(F0.163
F0.614
F0.06
I100
I100
tp50
sg9
F308.26562213897705
sg10
I100
sg11
I400
sa(dp51
g7
(F0.168
F0.643
F0.062
I100
I100
tp52
sg9
F384.3091480731964
sg10
I100
sg11
I500
satp53
Rp54
(dp55
g25
I01
sg26
g31
sg32
(lp56
I3
aI5
aI31
aI9
asg34
I6
sg35
g36
(g3
tp57
Rp58
sbsS'SPEA2'
p59
g2
(g3
g4
(lp60
(dp61
g7
g42
sg9
F0.15164494514465332
sg10
I100
sg11
I0
sa(dp62
g7
g42
sg9
F92.34563398361206
sg10
I100
sg11
I100
sa(dp63
g7
g42
sg9
F199.69447994232178
sg10
I100
sg11
I200
sa(dp64
g7
g42
sg9
F312.5108759403229
sg10
I100
sg11
I300
sa(dp65
g7
g42
sg9
F425.7118148803711
sg10
I100
sg11
I400
sa(dp66
g7
g42
sg9
F537.9019730091095
sg10
I100
sg11
I500
satp67
Rp68
(dp69
g25
I01
sg26
g31
sg32
(lp70
I3
aI5
aI30
aI9
asg34
I6
sg35
g36
(g3
tp71
Rp72
sbsS'IBEA'
p73
g2
(g3
g4
(lp74
(dp75
g7
g42
sg9
F0.1517930030822754
sg10
I100
sg11
I0
sa(dp76
g7
g42
sg9
F17.508586168289185
sg10
I100
sg11
I100
sa(dp77
g7
g42
sg9
F34.95783615112305
sg10
I100
sg11
I200
sa(dp78
g7
g42
sg9
F52.40236020088196
sg10
I100
sg11
I300
sa(dp79
g7
g42
sg9
F69.84928703308105
sg10
I100
sg11
I400
sa(dp80
g7
g42
sg9
F87.29353904724121
sg10
I100
sg11
I500
satp81
Rp82
(dp83
g25
I01
sg26
g31
sg32
(lp84
I3
aI5
aI30
aI9
asg34
I6
sg35
g36
(g3
tp85
Rp86
sbsS'NSGA2'
p87
g2
(g3
g4
(lp88
(dp89
g7
g42
sg9
F0.15129494667053223
sg10
I100
sg11
I0
sa(dp90
g7
g42
sg9
F20.32741689682007
sg10
I100
sg11
I100
sa(dp91
g7
g42
sg9
F40.59717297554016
sg10
I100
sg11
I200
sa(dp92
g7
g42
sg9
F60.873944997787476
sg10
I100
sg11
I300
sa(dp93
g7
g42
sg9
F81.04492497444153
sg10
I100
sg11
I400
sa(dp94
g7
g42
sg9
F101.28684091567993
sg10
I100
sg11
I500
satp95
Rp96
(dp97
g25
I01
sg26
g31
sg32
(lp98
I3
aI5
aI30
aI9
asg34
I6
sg35
g36
(g3
tp99
Rp100
sbsS'IBEA-SIP'
p101
g2
(g3
g4
(lp102
(dp103
g7
g42
sg9
F0.2281031608581543
sg10
I100
sg11
I0
sa(dp104
g7
(F0.157
F0.686
F0.037
I88
I100
tp105
sg9
F29.266808032989502
sg10
I100
sg11
I100
sa(dp106
g7
(F0.168
F0.628
F0.045
I85
I100
tp107
sg9
F58.566864013671875
sg10
I100
sg11
I200
sa(dp108
g7
(F0.177
F0.586
F0.048
I81
I100
tp109
sg9
F87.45330214500427
sg10
I100
sg11
I300
sa(dp110
g7
(F0.177
F0.681
F0.049
I80
I100
tp111
sg9
F116.41384100914001
sg10
I100
sg11
I400
sa(dp112
g7
(F0.185
F0.702
F0.052
I87
I100
tp113
sg9
F145.21660709381104
sg10
I100
sg11
I500
satp114
Rp115
(dp116
g25
I01
sg26
g31
sg32
(lp117
I3
aI5
aI30
aI9
asg34
I6
sg35
g36
(g3
tp118
Rp119
sbs.