(dp0
S'NSGA2-SIP'
p1
ccopy_reg
_reconstructor
p2
(cdeap.tools.support
Logbook
p3
c__builtin__
list
p4
(lp5
(dp6
S'hv|spread|igd|frontier#|valid#'
p7
(I0
I0
I0
I0
I0
tp8
sS'timestamp'
p9
F0.20545101165771484
sS'evals'
p10
I100
sS'gen'
p11
I0
sa(dp12
g7
(F0.155
F0.735
F0.034
I100
I100
tp13
sg9
F27.815441131591797
sg10
I100
sg11
I100
sa(dp14
g7
(F0.164
F0.742
F0.04
I100
I100
tp15
sg9
F56.12026810646057
sg10
I100
sg11
I200
sa(dp16
g7
(F0.17
F0.679
F0.045
I100
I100
tp17
sg9
F84.35258913040161
sg10
I100
sg11
I300
sa(dp18
g7
(F0.174
F0.623
F0.045
I100
I100
tp19
sg9
F112.29248690605164
sg10
I100
sg11
I400
sa(dp20
g7
(F0.178
F0.666
F0.048
I100
I100
tp21
sg9
F139.85806012153625
sg10
I100
sg11
I500
satp22
Rp23
(dp24
S'log_header'
p25
I01
sS'header'
p26
(S'gen'
p27
S'evals'
p28
S'hv|spread|igd|frontier#|valid#'
p29
S'timestamp'
p30
tp31
sS'columns_len'
p32
(lp33
I3
aI5
aI31
aI9
asS'buffindex'
p34
I6
sS'chapters'
p35
ccollections
defaultdict
p36
(g3
tp37
Rp38
sbsS'SPEA2-SIP'
p39
g2
(g3
g4
(lp40
(dp41
g7
g8
sg9
F0.206679105758667
sg10
I100
sg11
I0
sa(dp42
g7
(F0.166
F0.597
F0.056
I100
I100
tp43
sg9
F65.815847158432
sg10
I100
sg11
I100
sa(dp44
g7
(F0.175
F0.614
F0.061
I100
I100
tp45
sg9
F140.51031017303467
sg10
I100
sg11
I200
sa(dp46
g7
(F0.178
F0.638
F0.064
I100
I100
tp47
sg9
F215.24891209602356
sg10
I100
sg11
I300
sa(dp48
g7
(F0.18
F0.662
F0.065
I100
I100
tp49
sg9
F293.3618540763855
sg10
I100
sg11
I400
sa(dp50
g7
(F0.181
F0.609
F0.065
I100
I100
tp51
sg9
F372.551961183548
sg10
I100
sg11
I500
satp52
Rp53
(dp54
g25
I01
sg26
g31
sg32
(lp55
I3
aI5
aI31
aI9
asg34
I6
sg35
g36
(g3
tp56
Rp57
sbsS'SPEA2'
p58
g2
(g3
g4
(lp59
(dp60
g7
g8
sg9
F0.1358339786529541
sg10
I100
sg11
I0
sa(dp61
g7
g8
sg9
F64.73395609855652
sg10
I100
sg11
I100
sa(dp62
g7
g8
sg9
F145.03554701805115
sg10
I100
sg11
I200
sa(dp63
g7
g8
sg9
F234.99167704582214
sg10
I100
sg11
I300
sa(dp64
g7
g8
sg9
F324.8392159938812
sg10
I100
sg11
I400
sa(dp65
g7
g8
sg9
F416.2688100337982
sg10
I100
sg11
I500
satp66
Rp67
(dp68
g25
I01
sg26
g31
sg32
(lp69
I3
aI5
aI30
aI9
asg34
I6
sg35
g36
(g3
tp70
Rp71
sbsS'IBEA'
p72
g2
(g3
g4
(lp73
(dp74
g7
g8
sg9
F0.13544893264770508
sg10
I100
sg11
I0
sa(dp75
g7
g8
sg9
F15.876780033111572
sg10
I100
sg11
I100
sa(dp76
g7
g8
sg9
F31.671689987182617
sg10
I100
sg11
I200
sa(dp77
g7
g8
sg9
F47.49411106109619
sg10
I100
sg11
I300
sa(dp78
g7
g8
sg9
F63.33683395385742
sg10
I100
sg11
I400
sa(dp79
g7
g8
sg9
F79.16902709007263
sg10
I100
sg11
I500
satp80
Rp81
(dp82
g25
I01
sg26
g31
sg32
(lp83
I3
aI5
aI30
aI9
asg34
I6
sg35
g36
(g3
tp84
Rp85
sbsS'NSGA2'
p86
g2
(g3
g4
(lp87
(dp88
g7
g8
sg9
F0.13540291786193848
sg10
I100
sg11
I0
sa(dp89
g7
g8
sg9
F18.467357873916626
sg10
I100
sg11
I100
sa(dp90
g7
g8
sg9
F36.841161012649536
sg10
I100
sg11
I200
sa(dp91
g7
g8
sg9
F55.2471878528595
sg10
I100
sg11
I300
sa(dp92
g7
g8
sg9
F73.62284088134766
sg10
I100
sg11
I400
sa(dp93
g7
g8
sg9
F92.00708985328674
sg10
I100
sg11
I500
satp94
Rp95
(dp96
g25
I01
sg26
g31
sg32
(lp97
I3
aI5
aI30
aI9
asg34
I6
sg35
g36
(g3
tp98
Rp99
sbsS'IBEA-SIP'
p100
g2
(g3
g4
(lp101
(dp102
g7
g8
sg9
F0.20789480209350586
sg10
I100
sg11
I0
sa(dp103
g7
(F0.161
F0.666
F0.034
I76
I100
tp104
sg9
F26.477521896362305
sg10
I100
sg11
I100
sa(dp105
g7
(F0.168
F0.71
F0.043
I81
I100
tp106
sg9
F53.134742975234985
sg10
I100
sg11
I200
sa(dp107
g7
(F0.176
F0.607
F0.046
I87
I100
tp108
sg9
F79.67160487174988
sg10
I100
sg11
I300
sa(dp109
g7
(F0.179
F0.662
F0.047
I84
I100
tp110
sg9
F106.10397696495056
sg10
I100
sg11
I400
sa(dp111
g7
(F0.181
F0.703
F0.049
I83
I100
tp112
sg9
F132.50787496566772
sg10
I100
sg11
I500
satp113
Rp114
(dp115
g25
I01
sg26
g31
sg32
(lp116
I3
aI5
aI30
aI9
asg34
I6
sg35
g36
(g3
tp117
Rp118
sbs.