(dp0
S'NSGA2-SIP'
p1
ccopy_reg
_reconstructor
p2
(cdeap.tools.support
Logbook
p3
c__builtin__
list
p4
(lp5
(dp6
S'hv|spread|igd|frontier#|valid#'
p7
(F0.049
F0.76
F0.03
I1
I1
tp8
sS'timestamp'
p9
F0.22803187370300293
sS'evals'
p10
I100
sS'gen'
p11
I0
sa(dp12
g7
(F0.148
F0.735
F0.036
I100
I100
tp13
sg9
F30.5813148021698
sg10
I100
sg11
I100
sa(dp14
g7
(F0.159
F0.645
F0.043
I100
I100
tp15
sg9
F61.32720184326172
sg10
I100
sg11
I200
sa(dp16
g7
(F0.17
F0.685
F0.046
I100
I100
tp17
sg9
F92.16807985305786
sg10
I100
sg11
I300
sa(dp18
g7
(F0.173
F0.657
F0.045
I100
I100
tp19
sg9
F122.71952700614929
sg10
I100
sg11
I400
sa(dp20
g7
(F0.178
F0.633
F0.047
I100
I100
tp21
sg9
F153.47115778923035
sg10
I100
sg11
I500
satp22
Rp23
(dp24
S'log_header'
p25
I01
sS'header'
p26
(S'gen'
p27
S'evals'
p28
S'hv|spread|igd|frontier#|valid#'
p29
S'timestamp'
p30
tp31
sS'columns_len'
p32
(lp33
I3
aI5
aI31
aI9
asS'buffindex'
p34
I6
sS'chapters'
p35
ccollections
defaultdict
p36
(g3
tp37
Rp38
sbsS'SPEA2-SIP'
p39
g2
(g3
g4
(lp40
(dp41
g7
(I0
I0
I0
I0
I0
tp42
sg9
F0.22394204139709473
sg10
I100
sg11
I0
sa(dp43
g7
(F0.152
F0.659
F0.051
I100
I100
tp44
sg9
F73.3539309501648
sg10
I100
sg11
I100
sa(dp45
g7
(F0.162
F0.657
F0.057
I100
I100
tp46
sg9
F150.51925206184387
sg10
I100
sg11
I200
sa(dp47
g7
(F0.167
F0.705
F0.061
I100
I100
tp48
sg9
F229.99430203437805
sg10
I100
sg11
I300
sa(dp49
g7
(F0.17
F0.646
F0.065
I100
I100
tp50
sg9
F310.4454870223999
sg10
I100
sg11
I400
sa(dp51
g7
(F0.171
F0.647
F0.066
I100
I100
tp52
sg9
F389.08796310424805
sg10
I100
sg11
I500
satp53
Rp54
(dp55
g25
I01
sg26
g31
sg32
(lp56
I3
aI5
aI31
aI9
asg34
I6
sg35
g36
(g3
tp57
Rp58
sbsS'SPEA2'
p59
g2
(g3
g4
(lp60
(dp61
g7
g42
sg9
F0.14408206939697266
sg10
I100
sg11
I0
sa(dp62
g7
g42
sg9
F87.64748811721802
sg10
I100
sg11
I100
sa(dp63
g7
g42
sg9
F185.83688306808472
sg10
I100
sg11
I200
sa(dp64
g7
g42
sg9
F284.23161005973816
sg10
I100
sg11
I300
sa(dp65
g7
g42
sg9
F375.2974021434784
sg10
I100
sg11
I400
sa(dp66
g7
g42
sg9
F471.3219881057739
sg10
I100
sg11
I500
satp67
Rp68
(dp69
g25
I01
sg26
g31
sg32
(lp70
I3
aI5
aI30
aI9
asg34
I6
sg35
g36
(g3
tp71
Rp72
sbsS'IBEA-PEN'
p73
g2
(g3
g4
(lp74
(dp75
g7
g42
sg9
F0.6482179164886475
sg10
I100
sg11
I0
sa(dp76
g7
(F0.16
F0.663
F0.027
I65
I82
tp77
sg9
F59.80213379859924
sg10
I100
sg11
I100
sa(dp78
g7
(F0.165
F0.611
F0.04
I61
I76
tp79
sg9
F120.38131093978882
sg10
I100
sg11
I200
sa(dp80
g7
(F0.173
F0.674
F0.042
I65
I80
tp81
sg9
F181.43117594718933
sg10
I100
sg11
I300
sa(dp82
g7
(F0.169
F0.729
F0.048
I54
I76
tp83
sg9
F242.32824897766113
sg10
I100
sg11
I400
sa(dp84
g7
(F0.175
F0.675
F0.053
I66
I79
tp85
sg9
F303.22417092323303
sg10
I100
sg11
I500
satp86
Rp87
(dp88
g25
I01
sg26
g31
sg32
(lp89
I3
aI5
aI30
aI9
asg34
I6
sg35
g36
(g3
tp90
Rp91
sbsS'IBEA'
p92
g2
(g3
g4
(lp93
(dp94
g7
g42
sg9
F0.14403605461120605
sg10
I100
sg11
I0
sa(dp95
g7
g42
sg9
F17.085058212280273
sg10
I100
sg11
I100
sa(dp96
g7
g42
sg9
F34.19485807418823
sg10
I100
sg11
I200
sa(dp97
g7
g42
sg9
F51.28174901008606
sg10
I100
sg11
I300
sa(dp98
g7
g42
sg9
F68.35342121124268
sg10
I100
sg11
I400
sa(dp99
g7
g42
sg9
F85.44876503944397
sg10
I100
sg11
I500
satp100
Rp101
(dp102
g25
I01
sg26
g31
sg32
(lp103
I3
aI5
aI30
aI9
asg34
I6
sg35
g36
(g3
tp104
Rp105
sbsS'NSGA2'
p106
g2
(g3
g4
(lp107
(dp108
g7
g42
sg9
F0.14391708374023438
sg10
I100
sg11
I0
sa(dp109
g7
g42
sg9
F19.88107204437256
sg10
I100
sg11
I100
sa(dp110
g7
g42
sg9
F39.69024205207825
sg10
I100
sg11
I200
sa(dp111
g7
g42
sg9
F59.35558199882507
sg10
I100
sg11
I300
sa(dp112
g7
g42
sg9
F79.072683095932
sg10
I100
sg11
I400
sa(dp113
g7
g42
sg9
F98.88660717010498
sg10
I100
sg11
I500
satp114
Rp115
(dp116
g25
I01
sg26
g31
sg32
(lp117
I3
aI5
aI30
aI9
asg34
I6
sg35
g36
(g3
tp118
Rp119
sbsS'IBEA-SIP'
p120
g2
(g3
g4
(lp121
(dp122
g7
(F0.058
F1.22
F0.01
I1
I1
tp123
sg9
F0.22682690620422363
sg10
I100
sg11
I0
sa(dp124
g7
(F0.159
F0.664
F0.036
I76
I100
tp125
sg9
F28.950714111328125
sg10
I100
sg11
I100
sa(dp126
g7
(F0.172
F0.627
F0.046
I85
I100
tp127
sg9
F57.275840044021606
sg10
I100
sg11
I200
sa(dp128
g7
(F0.178
F0.673
F0.048
I76
I100
tp129
sg9
F85.8684229850769
sg10
I100
sg11
I300
sa(dp130
g7
(F0.18
F0.691
F0.051
I87
I100
tp131
sg9
F114.65845203399658
sg10
I100
sg11
I400
sa(dp132
g7
(F0.182
F0.666
F0.053
I82
I100
tp133
sg9
F143.28965497016907
sg10
I100
sg11
I500
satp134
Rp135
(dp136
g25
I01
sg26
g31
sg32
(lp137
I3
aI5
aI30
aI9
asg34
I6
sg35
g36
(g3
tp138
Rp139
sbs.