(dp0
S'NSGA2-SIP'
p1
ccopy_reg
_reconstructor
p2
(cdeap.tools.support
Logbook
p3
c__builtin__
list
p4
(lp5
(dp6
S'hv|spread|igd|frontier#|valid#'
p7
(I0
I0
I0
I0
I0
tp8
sS'timestamp'
p9
F0.22671794891357422
sS'evals'
p10
I100
sS'gen'
p11
I0
sa(dp12
g7
(F0.152
F0.691
F0.035
I100
I100
tp13
sg9
F28.25813317298889
sg10
I100
sg11
I100
sa(dp14
g7
(F0.169
F0.618
F0.042
I100
I100
tp15
sg9
F56.49956202507019
sg10
I100
sg11
I200
sa(dp16
g7
(F0.175
F0.534
F0.045
I100
I100
tp17
sg9
F84.38125610351562
sg10
I100
sg11
I300
sa(dp18
g7
(F0.177
F0.605
F0.045
I100
I100
tp19
sg9
F112.00498604774475
sg10
I100
sg11
I400
sa(dp20
g7
(F0.18
F0.638
F0.049
I100
I100
tp21
sg9
F139.61494302749634
sg10
I100
sg11
I500
satp22
Rp23
(dp24
S'log_header'
p25
I01
sS'header'
p26
(S'gen'
p27
S'evals'
p28
S'hv|spread|igd|frontier#|valid#'
p29
S'timestamp'
p30
tp31
sS'columns_len'
p32
(lp33
I3
aI5
aI31
aI9
asS'buffindex'
p34
I6
sS'chapters'
p35
ccollections
defaultdict
p36
(g3
tp37
Rp38
sbsS'SPEA2-SIP'
p39
g2
(g3
g4
(lp40
(dp41
g7
g8
sg9
F0.22645998001098633
sg10
I100
sg11
I0
sa(dp42
g7
(F0.161
F0.646
F0.047
I100
I100
tp43
sg9
F67.0308198928833
sg10
I100
sg11
I100
sa(dp44
g7
(F0.168
F0.711
F0.056
I100
I100
tp45
sg9
F141.16905784606934
sg10
I100
sg11
I200
sa(dp46
g7
(F0.177
F0.587
F0.061
I100
I100
tp47
sg9
F215.44675588607788
sg10
I100
sg11
I300
sa(dp48
g7
(F0.183
F0.593
F0.065
I100
I100
tp49
sg9
F290.63126492500305
sg10
I100
sg11
I400
sa(dp50
g7
(F0.184
F0.639
F0.066
I100
I100
tp51
sg9
F366.1583619117737
sg10
I100
sg11
I500
satp52
Rp53
(dp54
g25
I01
sg26
g31
sg32
(lp55
I3
aI5
aI31
aI9
asg34
I6
sg35
g36
(g3
tp56
Rp57
sbsS'SPEA2'
p58
g2
(g3
g4
(lp59
(dp60
g7
g8
sg9
F0.14787888526916504
sg10
I100
sg11
I0
sa(dp61
g7
g8
sg9
F55.73091101646423
sg10
I100
sg11
I100
sa(dp62
g7
g8
sg9
F117.51178097724915
sg10
I100
sg11
I200
sa(dp63
g7
g8
sg9
F187.93676900863647
sg10
I100
sg11
I300
sa(dp64
g7
g8
sg9
F263.43768787384033
sg10
I100
sg11
I400
sa(dp65
g7
g8
sg9
F348.05378699302673
sg10
I100
sg11
I500
satp66
Rp67
(dp68
g25
I01
sg26
g31
sg32
(lp69
I3
aI5
aI30
aI9
asg34
I6
sg35
g36
(g3
tp70
Rp71
sbsS'IBEA-PEN'
p72
g2
(g3
g4
(lp73
(dp74
g7
g8
sg9
F0.4623091220855713
sg10
I100
sg11
I0
sa(dp75
g7
g8
sg9
F16.570329189300537
sg10
I100
sg11
I100
sa(dp76
g7
g8
sg9
F32.48298096656799
sg10
I100
sg11
I200
sa(dp77
g7
g8
sg9
F48.39770317077637
sg10
I100
sg11
I300
sa(dp78
g7
g8
sg9
F64.35546112060547
sg10
I100
sg11
I400
sa(dp79
g7
g8
sg9
F80.60270714759827
sg10
I100
sg11
I500
satp80
Rp81
(dp82
g25
I01
sg26
g31
sg32
(lp83
I3
aI5
aI30
aI9
asg34
I6
sg35
g36
(g3
tp84
Rp85
sbsS'IBEA'
p86
g2
(g3
g4
(lp87
(dp88
g7
g8
sg9
F0.1488511562347412
sg10
I100
sg11
I0
sa(dp89
g7
g8
sg9
F15.732360124588013
sg10
I100
sg11
I100
sa(dp90
g7
g8
sg9
F31.242277145385742
sg10
I100
sg11
I200
sa(dp91
g7
g8
sg9
F46.76080298423767
sg10
I100
sg11
I300
sa(dp92
g7
g8
sg9
F62.278027057647705
sg10
I100
sg11
I400
sa(dp93
g7
g8
sg9
F77.83787393569946
sg10
I100
sg11
I500
satp94
Rp95
(dp96
g25
I01
sg26
g31
sg32
(lp97
I3
aI5
aI30
aI9
asg34
I6
sg35
g36
(g3
tp98
Rp99
sbsS'NSGA2'
p100
g2
(g3
g4
(lp101
(dp102
g7
g8
sg9
F0.1480109691619873
sg10
I100
sg11
I0
sa(dp103
g7
g8
sg9
F18.38528299331665
sg10
I100
sg11
I100
sa(dp104
g7
g8
sg9
F36.48635292053223
sg10
I100
sg11
I200
sa(dp105
g7
g8
sg9
F54.60734486579895
sg10
I100
sg11
I300
sa(dp106
g7
g8
sg9
F72.74298691749573
sg10
I100
sg11
I400
sa(dp107
g7
g8
sg9
F90.83757495880127
sg10
I100
sg11
I500
satp108
Rp109
(dp110
g25
I01
sg26
g31
sg32
(lp111
I3
aI5
aI30
aI9
asg34
I6
sg35
g36
(g3
tp112
Rp113
sbsS'IBEA-SIP'
p114
g2
(g3
g4
(lp115
(dp116
g7
(F0.049
F2.396
F0.026
I1
I1
tp117
sg9
F0.22874093055725098
sg10
I100
sg11
I0
sa(dp118
g7
(F0.157
F0.68
F0.038
I73
I100
tp119
sg9
F26.084557056427002
sg10
I100
sg11
I100
sa(dp120
g7
(F0.169
F0.726
F0.046
I81
I100
tp121
sg9
F51.806325912475586
sg10
I100
sg11
I200
sa(dp122
g7
(F0.175
F0.682
F0.05
I82
I100
tp123
sg9
F77.6060209274292
sg10
I100
sg11
I300
sa(dp124
g7
(F0.179
F0.648
F0.053
I83
I100
tp125
sg9
F103.57275199890137
sg10
I100
sg11
I400
sa(dp126
g7
(F0.183
F0.717
F0.052
I90
I100
tp127
sg9
F129.62685298919678
sg10
I100
sg11
I500
satp128
Rp129
(dp130
g25
I01
sg26
g31
sg32
(lp131
I3
aI5
aI30
aI9
asg34
I6
sg35
g36
(g3
tp132
Rp133
sbs.