(dp0
S'NSGA2-SIP'
p1
ccopy_reg
_reconstructor
p2
(cdeap.tools.support
Logbook
p3
c__builtin__
list
p4
(lp5
(dp6
S'hv|spread|igd|frontier#|valid#'
p7
(F0.052
F0.76
F0.024
I1
I1
tp8
sS'timestamp'
p9
F0.24134612083435059
sS'evals'
p10
I100
sS'gen'
p11
I0
sa(dp12
g7
(F0.155
F0.563
F0.036
I100
I100
tp13
sg9
F32.616535902023315
sg10
I100
sg11
I100
sa(dp14
g7
(F0.166
F0.656
F0.043
I100
I100
tp15
sg9
F66.10927700996399
sg10
I100
sg11
I200
sa(dp16
g7
(F0.174
F0.684
F0.043
I100
I100
tp17
sg9
F99.44590306282043
sg10
I100
sg11
I300
sa(dp18
g7
(F0.175
F0.596
F0.048
I100
I100
tp19
sg9
F133.0019509792328
sg10
I100
sg11
I400
sa(dp20
g7
(F0.178
F0.585
F0.047
I100
I100
tp21
sg9
F166.41159391403198
sg10
I100
sg11
I500
satp22
Rp23
(dp24
S'log_header'
p25
I01
sS'header'
p26
(S'gen'
p27
S'evals'
p28
S'hv|spread|igd|frontier#|valid#'
p29
S'timestamp'
p30
tp31
sS'columns_len'
p32
(lp33
I3
aI5
aI31
aI9
asS'buffindex'
p34
I6
sS'chapters'
p35
ccollections
defaultdict
p36
(g3
tp37
Rp38
sbsS'SPEA2-SIP'
p39
g2
(g3
g4
(lp40
(dp41
g7
(F0.071
F0.96
F0.012
I2
I2
tp42
sg9
F0.2459559440612793
sg10
I100
sg11
I0
sa(dp43
g7
(F0.157
F0.596
F0.05
I100
I100
tp44
sg9
F80.35485792160034
sg10
I100
sg11
I100
sa(dp45
g7
(F0.167
F0.67
F0.06
I100
I100
tp46
sg9
F171.5135838985443
sg10
I100
sg11
I200
sa(dp47
g7
(F0.17
F0.683
F0.061
I100
I100
tp48
sg9
F262.61206889152527
sg10
I100
sg11
I300
sa(dp49
g7
(F0.172
F0.659
F0.061
I100
I100
tp50
sg9
F354.0729110240936
sg10
I100
sg11
I400
sa(dp51
g7
(F0.175
F0.614
F0.061
I100
I100
tp52
sg9
F450.44770789146423
sg10
I100
sg11
I500
satp53
Rp54
(dp55
g25
I01
sg26
g31
sg32
(lp56
I3
aI5
aI31
aI9
asg34
I6
sg35
g36
(g3
tp57
Rp58
sbsS'SPEA2'
p59
g2
(g3
g4
(lp60
(dp61
g7
(I0
I0
I0
I0
I0
tp62
sg9
F0.16051316261291504
sg10
I100
sg11
I0
sa(dp63
g7
g62
sg9
F79.17520022392273
sg10
I100
sg11
I100
sa(dp64
g7
g62
sg9
F177.19632506370544
sg10
I100
sg11
I200
sa(dp65
g7
g62
sg9
F280.98841404914856
sg10
I100
sg11
I300
sa(dp66
g7
g62
sg9
F387.51741099357605
sg10
I100
sg11
I400
sa(dp67
g7
g62
sg9
F502.4466381072998
sg10
I100
sg11
I500
satp68
Rp69
(dp70
g25
I01
sg26
g31
sg32
(lp71
I3
aI5
aI30
aI9
asg34
I6
sg35
g36
(g3
tp72
Rp73
sbsS'IBEA-PEN'
p74
g2
(g3
g4
(lp75
(dp76
g7
(F0.058
F2.218
F0.036
I1
I1
tp77
sg9
F0.5105330944061279
sg10
I100
sg11
I0
sa(dp78
g7
g62
sg9
F19.51352310180664
sg10
I100
sg11
I100
sa(dp79
g7
g62
sg9
F38.34117817878723
sg10
I100
sg11
I200
sa(dp80
g7
g62
sg9
F57.14936804771423
sg10
I100
sg11
I300
sa(dp81
g7
g62
sg9
F75.94213604927063
sg10
I100
sg11
I400
sa(dp82
g7
g62
sg9
F94.87081503868103
sg10
I100
sg11
I500
satp83
Rp84
(dp85
g25
I01
sg26
g31
sg32
(lp86
I3
aI5
aI30
aI9
asg34
I6
sg35
g36
(g3
tp87
Rp88
sbsS'IBEA'
p89
g2
(g3
g4
(lp90
(dp91
g7
g62
sg9
F0.1616508960723877
sg10
I100
sg11
I0
sa(dp92
g7
g62
sg9
F18.643009901046753
sg10
I100
sg11
I100
sa(dp93
g7
g62
sg9
F37.20889186859131
sg10
I100
sg11
I200
sa(dp94
g7
g62
sg9
F55.67334198951721
sg10
I100
sg11
I300
sa(dp95
g7
g62
sg9
F74.12559199333191
sg10
I100
sg11
I400
sa(dp96
g7
g62
sg9
F92.60312294960022
sg10
I100
sg11
I500
satp97
Rp98
(dp99
g25
I01
sg26
g31
sg32
(lp100
I3
aI5
aI30
aI9
asg34
I6
sg35
g36
(g3
tp101
Rp102
sbsS'NSGA2'
p103
g2
(g3
g4
(lp104
(dp105
g7
g62
sg9
F0.16037702560424805
sg10
I100
sg11
I0
sa(dp106
g7
g62
sg9
F22.63834500312805
sg10
I100
sg11
I100
sa(dp107
g7
g62
sg9
F45.12869119644165
sg10
I100
sg11
I200
sa(dp108
g7
g62
sg9
F67.59787797927856
sg10
I100
sg11
I300
sa(dp109
g7
g62
sg9
F90.06476902961731
sg10
I100
sg11
I400
sa(dp110
g7
g62
sg9
F112.49158716201782
sg10
I100
sg11
I500
satp111
Rp112
(dp113
g25
I01
sg26
g31
sg32
(lp114
I3
aI5
aI30
aI9
asg34
I6
sg35
g36
(g3
tp115
Rp116
sbsS'IBEA-SIP'
p117
g2
(g3
g4
(lp118
(dp119
g7
g62
sg9
F0.23809099197387695
sg10
I100
sg11
I0
sa(dp120
g7
(F0.161
F0.655
F0.034
I83
I100
tp121
sg9
F30.867176055908203
sg10
I100
sg11
I100
sa(dp122
g7
(F0.17
F0.611
F0.044
I80
I100
tp123
sg9
F61.0426139831543
sg10
I100
sg11
I200
sa(dp124
g7
(F0.174
F0.641
F0.046
I83
I100
tp125
sg9
F90.70605301856995
sg10
I100
sg11
I300
sa(dp126
g7
(F0.18
F0.685
F0.047
I85
I100
tp127
sg9
F120.31508898735046
sg10
I100
sg11
I400
sa(dp128
g7
(F0.181
F0.692
F0.05
I83
I100
tp129
sg9
F149.817223072052
sg10
I100
sg11
I500
satp130
Rp131
(dp132
g25
I01
sg26
g31
sg32
(lp133
I3
aI5
aI30
aI9
asg34
I6
sg35
g36
(g3
tp134
Rp135
sbs.