(dp0
S'NSGA2-SIP'
p1
ccopy_reg
_reconstructor
p2
(cdeap.tools.support
Logbook
p3
c__builtin__
list
p4
(lp5
(dp6
S'hv|spread|igd|frontier#|valid#'
p7
(I0
I0
I0
I0
I0
tp8
sS'timestamp'
p9
F0.20429396629333496
sS'evals'
p10
I100
sS'gen'
p11
I0
sa(dp12
g7
(F0.149
F0.681
F0.034
I100
I100
tp13
sg9
F27.464980125427246
sg10
I100
sg11
I100
sa(dp14
g7
(F0.159
F0.661
F0.043
I100
I100
tp15
sg9
F54.843069076538086
sg10
I100
sg11
I200
sa(dp16
g7
(F0.172
F0.611
F0.044
I100
I100
tp17
sg9
F82.23473715782166
sg10
I100
sg11
I300
sa(dp18
g7
(F0.174
F0.566
F0.046
I100
I100
tp19
sg9
F109.32191205024719
sg10
I100
sg11
I400
sa(dp20
g7
(F0.177
F0.624
F0.046
I100
I100
tp21
sg9
F136.31141304969788
sg10
I100
sg11
I500
satp22
Rp23
(dp24
S'log_header'
p25
I01
sS'header'
p26
(S'gen'
p27
S'evals'
p28
S'hv|spread|igd|frontier#|valid#'
p29
S'timestamp'
p30
tp31
sS'columns_len'
p32
(lp33
I3
aI5
aI31
aI9
asS'buffindex'
p34
I6
sS'chapters'
p35
ccollections
defaultdict
p36
(g3
tp37
Rp38
sbsS'SPEA2-SIP'
p39
g2
(g3
g4
(lp40
(dp41
g7
(F0.064
F0.993
F0.016
I2
I2
tp42
sg9
F0.20999407768249512
sg10
I100
sg11
I0
sa(dp43
g7
(F0.165
F0.617
F0.043
I100
I100
tp44
sg9
F65.25490999221802
sg10
I100
sg11
I100
sa(dp45
g7
(F0.171
F0.589
F0.053
I100
I100
tp46
sg9
F136.30652713775635
sg10
I100
sg11
I200
sa(dp47
g7
(F0.173
F0.64
F0.056
I100
I100
tp48
sg9
F206.34467315673828
sg10
I100
sg11
I300
sa(dp49
g7
(F0.174
F0.649
F0.058
I100
I100
tp50
sg9
F277.0122480392456
sg10
I100
sg11
I400
sa(dp51
g7
(F0.176
F0.594
F0.059
I100
I100
tp52
sg9
F350.98969411849976
sg10
I100
sg11
I500
satp53
Rp54
(dp55
g25
I01
sg26
g31
sg32
(lp56
I3
aI5
aI31
aI9
asg34
I6
sg35
g36
(g3
tp57
Rp58
sbsS'SPEA2'
p59
g2
(g3
g4
(lp60
(dp61
g7
g8
sg9
F0.13204312324523926
sg10
I100
sg11
I0
sa(dp62
g7
g8
sg9
F74.56715607643127
sg10
I100
sg11
I100
sa(dp63
g7
g8
sg9
F154.05668210983276
sg10
I100
sg11
I200
sa(dp64
g7
g8
sg9
F242.19384098052979
sg10
I100
sg11
I300
sa(dp65
g7
g8
sg9
F338.2199079990387
sg10
I100
sg11
I400
sa(dp66
g7
g8
sg9
F435.12687611579895
sg10
I100
sg11
I500
satp67
Rp68
(dp69
g25
I01
sg26
g31
sg32
(lp70
I3
aI5
aI30
aI9
asg34
I6
sg35
g36
(g3
tp71
Rp72
sbsS'IBEA'
p73
g2
(g3
g4
(lp74
(dp75
g7
g8
sg9
F0.13244009017944336
sg10
I100
sg11
I0
sa(dp76
g7
g8
sg9
F15.387243032455444
sg10
I100
sg11
I100
sa(dp77
g7
g8
sg9
F30.754164934158325
sg10
I100
sg11
I200
sa(dp78
g7
g8
sg9
F46.115761041641235
sg10
I100
sg11
I300
sa(dp79
g7
g8
sg9
F61.46204614639282
sg10
I100
sg11
I400
sa(dp80
g7
g8
sg9
F76.81383299827576
sg10
I100
sg11
I500
satp81
Rp82
(dp83
g25
I01
sg26
g31
sg32
(lp84
I3
aI5
aI30
aI9
asg34
I6
sg35
g36
(g3
tp85
Rp86
sbsS'NSGA2'
p87
g2
(g3
g4
(lp88
(dp89
g7
g8
sg9
F0.1320040225982666
sg10
I100
sg11
I0
sa(dp90
g7
g8
sg9
F18.02954912185669
sg10
I100
sg11
I100
sa(dp91
g7
g8
sg9
F36.04258704185486
sg10
I100
sg11
I200
sa(dp92
g7
g8
sg9
F53.97936010360718
sg10
I100
sg11
I300
sa(dp93
g7
g8
sg9
F71.90183401107788
sg10
I100
sg11
I400
sa(dp94
g7
g8
sg9
F89.77845597267151
sg10
I100
sg11
I500
satp95
Rp96
(dp97
g25
I01
sg26
g31
sg32
(lp98
I3
aI5
aI30
aI9
asg34
I6
sg35
g36
(g3
tp99
Rp100
sbsS'IBEA-SIP'
p101
g2
(g3
g4
(lp102
(dp103
g7
g8
sg9
F0.20235991477966309
sg10
I100
sg11
I0
sa(dp104
g7
(F0.154
F0.666
F0.037
I72
I100
tp105
sg9
F25.530778884887695
sg10
I100
sg11
I100
sa(dp106
g7
(F0.173
F0.751
F0.046
I82
I100
tp107
sg9
F51.39797782897949
sg10
I100
sg11
I200
sa(dp108
g7
(F0.179
F0.593
F0.05
I85
I100
tp109
sg9
F77.08185601234436
sg10
I100
sg11
I300
sa(dp110
g7
(F0.178
F0.71
F0.048
I81
I100
tp111
sg9
F102.51464486122131
sg10
I100
sg11
I400
sa(dp112
g7
(F0.183
F0.665
F0.049
I86
I100
tp113
sg9
F127.8896119594574
sg10
I100
sg11
I500
satp114
Rp115
(dp116
g25
I01
sg26
g31
sg32
(lp117
I3
aI5
aI30
aI9
asg34
I6
sg35
g36
(g3
tp118
Rp119
sbs.