(dp0
S'NSGA2-SIP'
p1
ccopy_reg
_reconstructor
p2
(cdeap.tools.support
Logbook
p3
c__builtin__
list
p4
(lp5
(dp6
S'hv|spread|igd|frontier#|valid#'
p7
(I0
I0
I0
I0
I0
tp8
sS'timestamp'
p9
F0.24414801597595215
sS'evals'
p10
I100
sS'gen'
p11
I0
sa(dp12
g7
(F0.152
F0.604
F0.038
I100
I100
tp13
sg9
F32.72354793548584
sg10
I100
sg11
I100
sa(dp14
g7
(F0.166
F0.582
F0.045
I100
I100
tp15
sg9
F65.74352407455444
sg10
I100
sg11
I200
sa(dp16
g7
(F0.17
F0.608
F0.047
I100
I100
tp17
sg9
F98.38670110702515
sg10
I100
sg11
I300
sa(dp18
g7
(F0.177
F0.605
F0.05
I100
I100
tp19
sg9
F131.1957869529724
sg10
I100
sg11
I400
sa(dp20
g7
(F0.178
F0.628
F0.05
I100
I100
tp21
sg9
F163.881343126297
sg10
I100
sg11
I500
satp22
Rp23
(dp24
S'log_header'
p25
I01
sS'header'
p26
(S'gen'
p27
S'evals'
p28
S'hv|spread|igd|frontier#|valid#'
p29
S'timestamp'
p30
tp31
sS'columns_len'
p32
(lp33
I3
aI5
aI31
aI9
asS'buffindex'
p34
I6
sS'chapters'
p35
ccollections
defaultdict
p36
(g3
tp37
Rp38
sbsS'SPEA2-SIP'
p39
g2
(g3
g4
(lp40
(dp41
g7
g8
sg9
F0.24220681190490723
sg10
I100
sg11
I0
sa(dp42
g7
(F0.155
F0.614
F0.04
I100
I100
tp43
sg9
F74.5940089225769
sg10
I100
sg11
I100
sa(dp44
g7
(F0.165
F0.601
F0.048
I100
I100
tp45
sg9
F155.20015501976013
sg10
I100
sg11
I200
sa(dp46
g7
(F0.17
F0.653
F0.057
I100
I100
tp47
sg9
F235.73313784599304
sg10
I100
sg11
I300
sa(dp48
g7
(F0.177
F0.645
F0.059
I100
I100
tp49
sg9
F320.7999219894409
sg10
I100
sg11
I400
sa(dp50
g7
(F0.179
F0.557
F0.062
I100
I100
tp51
sg9
F409.91598296165466
sg10
I100
sg11
I500
satp52
Rp53
(dp54
g25
I01
sg26
g31
sg32
(lp55
I3
aI5
aI31
aI9
asg34
I6
sg35
g36
(g3
tp56
Rp57
sbsS'SPEA2'
p58
g2
(g3
g4
(lp59
(dp60
g7
g8
sg9
F0.16036391258239746
sg10
I100
sg11
I0
sa(dp61
g7
g8
sg9
F92.60758590698242
sg10
I100
sg11
I100
sa(dp62
g7
g8
sg9
F207.73792695999146
sg10
I100
sg11
I200
sa(dp63
g7
g8
sg9
F330.083899974823
sg10
I100
sg11
I300
sa(dp64
g7
g8
sg9
F453.62007904052734
sg10
I100
sg11
I400
sa(dp65
g7
g8
sg9
F576.9466938972473
sg10
I100
sg11
I500
satp66
Rp67
(dp68
g25
I01
sg26
g31
sg32
(lp69
I3
aI5
aI30
aI9
asg34
I6
sg35
g36
(g3
tp70
Rp71
sbsS'IBEA-PEN'
p72
g2
(g3
g4
(lp73
(dp74
g7
g8
sg9
F0.6852171421051025
sg10
I100
sg11
I0
sa(dp75
g7
(F0.154
F0.745
F0.03
I50
I68
tp76
sg9
F63.262449979782104
sg10
I100
sg11
I100
sa(dp77
g7
(F0.166
F0.798
F0.036
I59
I85
tp78
sg9
F127.25643801689148
sg10
I100
sg11
I200
sa(dp79
g7
(F0.175
F0.653
F0.051
I72
I96
tp80
sg9
F193.03857898712158
sg10
I100
sg11
I300
sa(dp81
g7
(F0.17
F0.785
F0.036
I60
I84
tp82
sg9
F257.6681561470032
sg10
I100
sg11
I400
sa(dp83
g7
(F0.17
F0.701
F0.042
I61
I76
tp84
sg9
F321.6474621295929
sg10
I100
sg11
I500
satp85
Rp86
(dp87
g25
I01
sg26
g31
sg32
(lp88
I3
aI5
aI30
aI9
asg34
I6
sg35
g36
(g3
tp89
Rp90
sbsS'IBEA'
p91
g2
(g3
g4
(lp92
(dp93
g7
g8
sg9
F0.15882492065429688
sg10
I100
sg11
I0
sa(dp94
g7
g8
sg9
F18.226181983947754
sg10
I100
sg11
I100
sa(dp95
g7
g8
sg9
F36.456236839294434
sg10
I100
sg11
I200
sa(dp96
g7
g8
sg9
F54.66593599319458
sg10
I100
sg11
I300
sa(dp97
g7
g8
sg9
F72.87564897537231
sg10
I100
sg11
I400
sa(dp98
g7
g8
sg9
F91.2288589477539
sg10
I100
sg11
I500
satp99
Rp100
(dp101
g25
I01
sg26
g31
sg32
(lp102
I3
aI5
aI30
aI9
asg34
I6
sg35
g36
(g3
tp103
Rp104
sbsS'NSGA2'
p105
g2
(g3
g4
(lp106
(dp107
g7
g8
sg9
F0.16063714027404785
sg10
I100
sg11
I0
sa(dp108
g7
g8
sg9
F21.500851154327393
sg10
I100
sg11
I100
sa(dp109
g7
g8
sg9
F42.879311084747314
sg10
I100
sg11
I200
sa(dp110
g7
g8
sg9
F64.24225115776062
sg10
I100
sg11
I300
sa(dp111
g7
g8
sg9
F85.66621804237366
sg10
I100
sg11
I400
sa(dp112
g7
g8
sg9
F107.40229916572571
sg10
I100
sg11
I500
satp113
Rp114
(dp115
g25
I01
sg26
g31
sg32
(lp116
I3
aI5
aI30
aI9
asg34
I6
sg35
g36
(g3
tp117
Rp118
sbsS'IBEA-SIP'
p119
g2
(g3
g4
(lp120
(dp121
g7
g8
sg9
F0.2411818504333496
sg10
I100
sg11
I0
sa(dp122
g7
(F0.159
F0.638
F0.035
I76
I100
tp123
sg9
F30.44255781173706
sg10
I100
sg11
I100
sa(dp124
g7
(F0.171
F0.709
F0.044
I81
I100
tp125
sg9
F60.8497679233551
sg10
I100
sg11
I200
sa(dp126
g7
(F0.175
F0.591
F0.046
I84
I100
tp127
sg9
F90.89632296562195
sg10
I100
sg11
I300
sa(dp128
g7
(F0.181
F0.661
F0.048
I91
I100
tp129
sg9
F121.23044896125793
sg10
I100
sg11
I400
sa(dp130
g7
(F0.181
F0.649
F0.049
I89
I100
tp131
sg9
F151.36439681053162
sg10
I100
sg11
I500
satp132
Rp133
(dp134
g25
I01
sg26
g31
sg32
(lp135
I3
aI5
aI30
aI9
asg34
I6
sg35
g36
(g3
tp136
Rp137
sbs.