(dp0
S'NSGA2-SIP'
p1
ccopy_reg
_reconstructor
p2
(cdeap.tools.support
Logbook
p3
c__builtin__
list
p4
(lp5
(dp6
S'hv|spread|igd|frontier#|valid#'
p7
(I0
I0
I0
I0
I0
tp8
sS'timestamp'
p9
F0.23868298530578613
sS'evals'
p10
I100
sS'gen'
p11
I0
sa(dp12
g7
(F0.154
F0.667
F0.039
I100
I100
tp13
sg9
F33.481698989868164
sg10
I100
sg11
I100
sa(dp14
g7
(F0.162
F0.666
F0.042
I100
I100
tp15
sg9
F67.03905701637268
sg10
I100
sg11
I200
sa(dp16
g7
(F0.172
F0.61
F0.044
I100
I100
tp17
sg9
F100.53127813339233
sg10
I100
sg11
I300
sa(dp18
g7
(F0.174
F0.687
F0.048
I100
I100
tp19
sg9
F134.2430341243744
sg10
I100
sg11
I400
sa(dp20
g7
(F0.18
F0.59
F0.049
I100
I100
tp21
sg9
F167.68895316123962
sg10
I100
sg11
I500
satp22
Rp23
(dp24
S'log_header'
p25
I01
sS'header'
p26
(S'gen'
p27
S'evals'
p28
S'hv|spread|igd|frontier#|valid#'
p29
S'timestamp'
p30
tp31
sS'columns_len'
p32
(lp33
I3
aI5
aI31
aI9
asS'buffindex'
p34
I6
sS'chapters'
p35
ccollections
defaultdict
p36
(g3
tp37
Rp38
sbsS'SPEA2-SIP'
p39
g2
(g3
g4
(lp40
(dp41
g7
g8
sg9
F0.23797011375427246
sg10
I100
sg11
I0
sa(dp42
g7
(F0.162
F0.691
F0.052
I100
I100
tp43
sg9
F73.11226296424866
sg10
I100
sg11
I100
sa(dp44
g7
(F0.175
F0.633
F0.056
I100
I100
tp45
sg9
F150.71790409088135
sg10
I100
sg11
I200
sa(dp46
g7
(F0.179
F0.63
F0.059
I100
I100
tp47
sg9
F229.1367380619049
sg10
I100
sg11
I300
sa(dp48
g7
(F0.181
F0.626
F0.061
I100
I100
tp49
sg9
F311.20454812049866
sg10
I100
sg11
I400
sa(dp50
g7
(F0.182
F0.554
F0.06
I100
I100
tp51
sg9
F393.88730907440186
sg10
I100
sg11
I500
satp52
Rp53
(dp54
g25
I01
sg26
g31
sg32
(lp55
I3
aI5
aI31
aI9
asg34
I6
sg35
g36
(g3
tp56
Rp57
sbsS'SPEA2'
p58
g2
(g3
g4
(lp59
(dp60
g7
g8
sg9
F0.16065096855163574
sg10
I100
sg11
I0
sa(dp61
g7
g8
sg9
F71.85936212539673
sg10
I100
sg11
I100
sa(dp62
g7
g8
sg9
F161.9239740371704
sg10
I100
sg11
I200
sa(dp63
g7
g8
sg9
F260.2081971168518
sg10
I100
sg11
I300
sa(dp64
g7
g8
sg9
F361.12624406814575
sg10
I100
sg11
I400
sa(dp65
g7
g8
sg9
F462.0383770465851
sg10
I100
sg11
I500
satp66
Rp67
(dp68
g25
I01
sg26
g31
sg32
(lp69
I3
aI5
aI30
aI9
asg34
I6
sg35
g36
(g3
tp70
Rp71
sbsS'IBEA-PEN'
p72
g2
(g3
g4
(lp73
(dp74
g7
g8
sg9
F0.5071589946746826
sg10
I100
sg11
I0
sa(dp75
g7
g8
sg9
F19.57935404777527
sg10
I100
sg11
I100
sa(dp76
g7
g8
sg9
F38.505990982055664
sg10
I100
sg11
I200
sa(dp77
g7
g8
sg9
F57.31967902183533
sg10
I100
sg11
I300
sa(dp78
g7
g8
sg9
F76.32268500328064
sg10
I100
sg11
I400
sa(dp79
g7
g8
sg9
F95.35844206809998
sg10
I100
sg11
I500
satp80
Rp81
(dp82
g25
I01
sg26
g31
sg32
(lp83
I3
aI5
aI30
aI9
asg34
I6
sg35
g36
(g3
tp84
Rp85
sbsS'IBEA'
p86
g2
(g3
g4
(lp87
(dp88
g7
g8
sg9
F0.16139888763427734
sg10
I100
sg11
I0
sa(dp89
g7
g8
sg9
F18.46732497215271
sg10
I100
sg11
I100
sa(dp90
g7
g8
sg9
F37.05212879180908
sg10
I100
sg11
I200
sa(dp91
g7
g8
sg9
F55.478697776794434
sg10
I100
sg11
I300
sa(dp92
g7
g8
sg9
F73.86859798431396
sg10
I100
sg11
I400
sa(dp93
g7
g8
sg9
F92.2557578086853
sg10
I100
sg11
I500
satp94
Rp95
(dp96
g25
I01
sg26
g31
sg32
(lp97
I3
aI5
aI30
aI9
asg34
I6
sg35
g36
(g3
tp98
Rp99
sbsS'NSGA2'
p100
g2
(g3
g4
(lp101
(dp102
g7
g8
sg9
F0.16030406951904297
sg10
I100
sg11
I0
sa(dp103
g7
g8
sg9
F22.74643611907959
sg10
I100
sg11
I100
sa(dp104
g7
g8
sg9
F45.36819005012512
sg10
I100
sg11
I200
sa(dp105
g7
g8
sg9
F67.90591406822205
sg10
I100
sg11
I300
sa(dp106
g7
g8
sg9
F90.37934708595276
sg10
I100
sg11
I400
sa(dp107
g7
g8
sg9
F112.8434431552887
sg10
I100
sg11
I500
satp108
Rp109
(dp110
g25
I01
sg26
g31
sg32
(lp111
I3
aI5
aI30
aI9
asg34
I6
sg35
g36
(g3
tp112
Rp113
sbsS'IBEA-SIP'
p114
g2
(g3
g4
(lp115
(dp116
g7
g8
sg9
F0.23813915252685547
sg10
I100
sg11
I0
sa(dp117
g7
(F0.159
F0.711
F0.035
I80
I100
tp118
sg9
F30.575129985809326
sg10
I100
sg11
I100
sa(dp119
g7
(F0.173
F0.697
F0.043
I83
I100
tp120
sg9
F61.326359033584595
sg10
I100
sg11
I200
sa(dp121
g7
(F0.178
F0.625
F0.046
I73
I100
tp122
sg9
F92.08056211471558
sg10
I100
sg11
I300
sa(dp123
g7
(F0.182
F0.669
F0.049
I83
I100
tp124
sg9
F122.9603910446167
sg10
I100
sg11
I400
sa(dp125
g7
(F0.184
F0.659
F0.052
I76
I100
tp126
sg9
F153.86762499809265
sg10
I100
sg11
I500
satp127
Rp128
(dp129
g25
I01
sg26
g31
sg32
(lp130
I3
aI5
aI30
aI9
asg34
I6
sg35
g36
(g3
tp131
Rp132
sbs.