(dp0
S'NSGA2-SIP'
p1
ccopy_reg
_reconstructor
p2
(cdeap.tools.support
Logbook
p3
c__builtin__
list
p4
(lp5
(dp6
S'hv|spread|igd|frontier#|valid#'
p7
(I0
I0
I0
I0
I0
tp8
sS'timestamp'
p9
F0.2385389804840088
sS'evals'
p10
I100
sS'gen'
p11
I0
sa(dp12
g7
(F0.149
F0.665
F0.035
I100
I100
tp13
sg9
F33.1138699054718
sg10
I100
sg11
I100
sa(dp14
g7
(F0.162
F0.592
F0.042
I100
I100
tp15
sg9
F66.7143759727478
sg10
I100
sg11
I200
sa(dp16
g7
(F0.168
F0.612
F0.045
I100
I100
tp17
sg9
F99.9514708518982
sg10
I100
sg11
I300
sa(dp18
g7
(F0.173
F0.672
F0.048
I100
I100
tp19
sg9
F133.08867502212524
sg10
I100
sg11
I400
sa(dp20
g7
(F0.176
F0.666
F0.048
I100
I100
tp21
sg9
F166.09272980690002
sg10
I100
sg11
I500
satp22
Rp23
(dp24
S'log_header'
p25
I01
sS'header'
p26
(S'gen'
p27
S'evals'
p28
S'hv|spread|igd|frontier#|valid#'
p29
S'timestamp'
p30
tp31
sS'columns_len'
p32
(lp33
I3
aI5
aI31
aI9
asS'buffindex'
p34
I6
sS'chapters'
p35
ccollections
defaultdict
p36
(g3
tp37
Rp38
sbsS'SPEA2-SIP'
p39
g2
(g3
g4
(lp40
(dp41
g7
(F0.056
F2.147
F0.014
I1
I1
tp42
sg9
F0.24137401580810547
sg10
I100
sg11
I0
sa(dp43
g7
(F0.158
F0.602
F0.049
I98
I100
tp44
sg9
F73.60297298431396
sg10
I100
sg11
I100
sa(dp45
g7
(F0.166
F0.65
F0.057
I100
I100
tp46
sg9
F156.1644320487976
sg10
I100
sg11
I200
sa(dp47
g7
(F0.17
F0.598
F0.061
I100
I100
tp48
sg9
F237.29042506217957
sg10
I100
sg11
I300
sa(dp49
g7
(F0.173
F0.658
F0.062
I100
I100
tp50
sg9
F320.37289595603943
sg10
I100
sg11
I400
sa(dp51
g7
(F0.174
F0.595
F0.064
I100
I100
tp52
sg9
F404.0113809108734
sg10
I100
sg11
I500
satp53
Rp54
(dp55
g25
I01
sg26
g31
sg32
(lp56
I3
aI5
aI31
aI9
asg34
I6
sg35
g36
(g3
tp57
Rp58
sbsS'SPEA2'
p59
g2
(g3
g4
(lp60
(dp61
g7
g8
sg9
F0.1575148105621338
sg10
I100
sg11
I0
sa(dp62
g7
g8
sg9
F78.57711601257324
sg10
I100
sg11
I100
sa(dp63
g7
g8
sg9
F181.5396499633789
sg10
I100
sg11
I200
sa(dp64
g7
g8
sg9
F291.3487238883972
sg10
I100
sg11
I300
sa(dp65
g7
g8
sg9
F402.47937083244324
sg10
I100
sg11
I400
sa(dp66
g7
g8
sg9
F520.4158759117126
sg10
I100
sg11
I500
satp67
Rp68
(dp69
g25
I01
sg26
g31
sg32
(lp70
I3
aI5
aI30
aI9
asg34
I6
sg35
g36
(g3
tp71
Rp72
sbsS'IBEA-PEN'
p73
g2
(g3
g4
(lp74
(dp75
g7
(F0.057
F2.353
F0.017
I1
I1
tp76
sg9
F0.5073580741882324
sg10
I100
sg11
I0
sa(dp77
g7
g8
sg9
F19.131864070892334
sg10
I100
sg11
I100
sa(dp78
g7
g8
sg9
F37.718827962875366
sg10
I100
sg11
I200
sa(dp79
g7
g8
sg9
F56.25506901741028
sg10
I100
sg11
I300
sa(dp80
g7
g8
sg9
F74.74408602714539
sg10
I100
sg11
I400
sa(dp81
g7
g8
sg9
F93.2227041721344
sg10
I100
sg11
I500
satp82
Rp83
(dp84
g25
I01
sg26
g31
sg32
(lp85
I3
aI5
aI30
aI9
asg34
I6
sg35
g36
(g3
tp86
Rp87
sbsS'IBEA'
p88
g2
(g3
g4
(lp89
(dp90
g7
g8
sg9
F0.15854406356811523
sg10
I100
sg11
I0
sa(dp91
g7
g8
sg9
F18.480502128601074
sg10
I100
sg11
I100
sa(dp92
g7
g8
sg9
F36.97697901725769
sg10
I100
sg11
I200
sa(dp93
g7
g8
sg9
F55.44289708137512
sg10
I100
sg11
I300
sa(dp94
g7
g8
sg9
F73.84807395935059
sg10
I100
sg11
I400
sa(dp95
g7
g8
sg9
F92.21681904792786
sg10
I100
sg11
I500
satp96
Rp97
(dp98
g25
I01
sg26
g31
sg32
(lp99
I3
aI5
aI30
aI9
asg34
I6
sg35
g36
(g3
tp100
Rp101
sbsS'NSGA2'
p102
g2
(g3
g4
(lp103
(dp104
g7
g8
sg9
F0.15925097465515137
sg10
I100
sg11
I0
sa(dp105
g7
g8
sg9
F22.508481979370117
sg10
I100
sg11
I100
sa(dp106
g7
g8
sg9
F44.66371512413025
sg10
I100
sg11
I200
sa(dp107
g7
g8
sg9
F66.79404497146606
sg10
I100
sg11
I300
sa(dp108
g7
g8
sg9
F88.93384408950806
sg10
I100
sg11
I400
sa(dp109
g7
g8
sg9
F111.17595601081848
sg10
I100
sg11
I500
satp110
Rp111
(dp112
g25
I01
sg26
g31
sg32
(lp113
I3
aI5
aI30
aI9
asg34
I6
sg35
g36
(g3
tp114
Rp115
sbsS'IBEA-SIP'
p116
g2
(g3
g4
(lp117
(dp118
g7
(F0.051
F1.24
F0.024
I1
I1
tp119
sg9
F0.24298715591430664
sg10
I100
sg11
I0
sa(dp120
g7
(F0.153
F0.747
F0.037
I76
I100
tp121
sg9
F31.371615171432495
sg10
I100
sg11
I100
sa(dp122
g7
(F0.171
F0.698
F0.046
I93
I100
tp123
sg9
F62.54436802864075
sg10
I100
sg11
I200
sa(dp124
g7
(F0.174
F0.613
F0.046
I85
I100
tp125
sg9
F93.27967405319214
sg10
I100
sg11
I300
sa(dp126
g7
(F0.176
F0.713
F0.049
I88
I100
tp127
sg9
F123.73579001426697
sg10
I100
sg11
I400
sa(dp128
g7
(F0.176
F0.664
F0.05
I82
I100
tp129
sg9
F154.01168417930603
sg10
I100
sg11
I500
satp130
Rp131
(dp132
g25
I01
sg26
g31
sg32
(lp133
I3
aI5
aI30
aI9
asg34
I6
sg35
g36
(g3
tp134
Rp135
sbs.