(dp0
S'NSGA2-SIP'
p1
ccopy_reg
_reconstructor
p2
(cdeap.tools.support
Logbook
p3
c__builtin__
list
p4
(lp5
(dp6
S'hv|spread|igd|frontier#|valid#'
p7
(I0
I0
I0
I0
I0
tp8
sS'timestamp'
p9
F0.2305588722229004
sS'evals'
p10
I100
sS'gen'
p11
I0
sa(dp12
g7
(F0.15
F0.644
F0.033
I100
I100
tp13
sg9
F31.37058401107788
sg10
I100
sg11
I100
sa(dp14
g7
(F0.162
F0.677
F0.038
I100
I100
tp15
sg9
F63.304566860198975
sg10
I100
sg11
I200
sa(dp16
g7
(F0.167
F0.588
F0.045
I100
I100
tp17
sg9
F94.62946701049805
sg10
I100
sg11
I300
sa(dp18
g7
(F0.173
F0.697
F0.045
I100
I100
tp19
sg9
F125.3711998462677
sg10
I100
sg11
I400
sa(dp20
g7
(F0.175
F0.596
F0.047
I100
I100
tp21
sg9
F155.96319389343262
sg10
I100
sg11
I500
satp22
Rp23
(dp24
S'log_header'
p25
I01
sS'header'
p26
(S'gen'
p27
S'evals'
p28
g7
S'timestamp'
p29
tp30
sS'columns_len'
p31
(lp32
I3
aI5
aI31
aI9
asS'buffindex'
p33
I6
sS'chapters'
p34
ccollections
defaultdict
p35
(g3
tp36
Rp37
sbsS'SPEA2-SIP'
p38
g2
(g3
g4
(lp39
(dp40
g7
(F0.065
F0.971
F0.02
I2
I2
tp41
sg9
F0.2364211082458496
sg10
I100
sg11
I0
sa(dp42
g7
(F0.163
F0.572
F0.049
I100
I100
tp43
sg9
F75.19678115844727
sg10
I100
sg11
I100
sa(dp44
g7
(F0.171
F0.62
F0.06
I100
I100
tp45
sg9
F156.89999318122864
sg10
I100
sg11
I200
sa(dp46
g7
(F0.177
F0.636
F0.063
I100
I100
tp47
sg9
F242.54860997200012
sg10
I100
sg11
I300
sa(dp48
g7
(F0.178
F0.58
F0.065
I100
I100
tp49
sg9
F326.4029221534729
sg10
I100
sg11
I400
sa(dp50
g7
(F0.179
F0.651
F0.067
I100
I100
tp51
sg9
F408.16076397895813
sg10
I100
sg11
I500
satp52
Rp53
(dp54
g25
I01
sg26
g30
sg31
(lp55
I3
aI5
aI31
aI9
asg33
I6
sg34
g35
(g3
tp56
Rp57
sbsS'SPEA2'
p58
g2
(g3
g4
(lp59
(dp60
g7
g8
sg9
F0.15308904647827148
sg10
I100
sg11
I0
sa(dp61
g7
g8
sg9
F70.164067029953
sg10
I100
sg11
I100
sa(dp62
g7
g8
sg9
F158.29061102867126
sg10
I100
sg11
I200
sa(dp63
g7
g8
sg9
F250.7225000858307
sg10
I100
sg11
I300
sa(dp64
g7
g8
sg9
F348.41450905799866
sg10
I100
sg11
I400
sa(dp65
g7
g8
sg9
F447.53407192230225
sg10
I100
sg11
I500
satp66
Rp67
(dp68
g25
I01
sg26
g30
sg31
(lp69
I3
aI5
aI30
aI9
asg33
I6
sg34
g35
(g3
tp70
Rp71
sbsS'IBEA'
p72
g2
(g3
g4
(lp73
(dp74
g7
g8
sg9
F0.15204501152038574
sg10
I100
sg11
I0
sa(dp75
g7
g8
sg9
F17.568994998931885
sg10
I100
sg11
I100
sa(dp76
g7
g8
sg9
F35.11582708358765
sg10
I100
sg11
I200
sa(dp77
g7
g8
sg9
F52.63953113555908
sg10
I100
sg11
I300
sa(dp78
g7
g8
sg9
F70.11714506149292
sg10
I100
sg11
I400
sa(dp79
g7
g8
sg9
F87.63918018341064
sg10
I100
sg11
I500
satp80
Rp81
(dp82
g25
I01
sg26
g30
sg31
(lp83
I3
aI5
aI30
aI9
asg33
I6
sg34
g35
(g3
tp84
Rp85
sbsS'NSGA2'
p86
g2
(g3
g4
(lp87
(dp88
g7
g8
sg9
F0.14982199668884277
sg10
I100
sg11
I0
sa(dp89
g7
g8
sg9
F20.66278100013733
sg10
I100
sg11
I100
sa(dp90
g7
g8
sg9
F41.02249312400818
sg10
I100
sg11
I200
sa(dp91
g7
g8
sg9
F61.4250271320343
sg10
I100
sg11
I300
sa(dp92
g7
g8
sg9
F81.83155012130737
sg10
I100
sg11
I400
sa(dp93
g7
g8
sg9
F102.28303503990173
sg10
I100
sg11
I500
satp94
Rp95
(dp96
g25
I01
sg26
g30
sg31
(lp97
I3
aI5
aI30
aI9
asg33
I6
sg34
g35
(g3
tp98
Rp99
sbsS'IBEA-SIP'
p100
g2
(g3
g4
(lp101
(dp102
g7
g8
sg9
F0.2286231517791748
sg10
I100
sg11
I0
sa(dp103
g7
(F0.154
F0.728
F0.035
I80
I100
tp104
sg9
F29.79245615005493
sg10
I100
sg11
I100
sa(dp105
g7
(F0.168
F0.708
F0.042
I74
I100
tp106
sg9
F59.193281173706055
sg10
I100
sg11
I200
sa(dp107
g7
(F0.177
F0.692
F0.045
I87
I100
tp108
sg9
F88.23056221008301
sg10
I100
sg11
I300
sa(dp109
g7
(F0.179
F0.555
F0.049
I85
I100
tp110
sg9
F117.22663521766663
sg10
I100
sg11
I400
sa(dp111
g7
(F0.18
F0.713
F0.05
I81
I100
tp112
sg9
F146.10136914253235
sg10
I100
sg11
I500
satp113
Rp114
(dp115
g25
I01
sg26
g30
sg31
(lp116
I3
aI5
aI30
aI9
asg33
I6
sg34
g35
(g3
tp117
Rp118
sbs.