(dp0
S'NSGA2-SIP'
p1
ccopy_reg
_reconstructor
p2
(cdeap.tools.support
Logbook
p3
c__builtin__
list
p4
(lp5
(dp6
S'hv|spread|igd|frontier#|valid#'
p7
(F0.061
F0.8
F0.0
I1
I1
tp8
sS'timestamp'
p9
F0.22804522514343262
sS'evals'
p10
I100
sS'gen'
p11
I0
sa(dp12
g7
(F0.156
F0.678
F0.04
I100
I100
tp13
sg9
F30.13132405281067
sg10
I100
sg11
I100
sa(dp14
g7
(F0.164
F0.641
F0.046
I100
I100
tp15
sg9
F60.2235631942749
sg10
I100
sg11
I200
sa(dp16
g7
(F0.171
F0.648
F0.049
I100
I100
tp17
sg9
F90.68650603294373
sg10
I100
sg11
I300
sa(dp18
g7
(F0.175
F0.624
F0.051
I100
I100
tp19
sg9
F121.2060821056366
sg10
I100
sg11
I400
sa(dp20
g7
(F0.178
F0.702
F0.051
I100
I100
tp21
sg9
F151.67293906211853
sg10
I100
sg11
I500
satp22
Rp23
(dp24
S'log_header'
p25
I01
sS'header'
p26
(S'gen'
p27
S'evals'
p28
S'hv|spread|igd|frontier#|valid#'
p29
S'timestamp'
p30
tp31
sS'columns_len'
p32
(lp33
I3
aI5
aI31
aI9
asS'buffindex'
p34
I6
sS'chapters'
p35
ccollections
defaultdict
p36
(g3
tp37
Rp38
sbsS'SPEA2-SIP'
p39
g2
(g3
g4
(lp40
(dp41
g7
(I0
I0
I0
I0
I0
tp42
sg9
F0.22495698928833008
sg10
I100
sg11
I0
sa(dp43
g7
(F0.158
F0.673
F0.041
I100
I100
tp44
sg9
F69.95363807678223
sg10
I100
sg11
I100
sa(dp45
g7
(F0.172
F0.647
F0.05
I100
I100
tp46
sg9
F152.87411403656006
sg10
I100
sg11
I200
sa(dp47
g7
(F0.173
F0.618
F0.054
I100
I100
tp48
sg9
F235.62726092338562
sg10
I100
sg11
I300
sa(dp49
g7
(F0.175
F0.604
F0.055
I100
I100
tp50
sg9
F316.5534360408783
sg10
I100
sg11
I400
sa(dp51
g7
(F0.176
F0.635
F0.057
I100
I100
tp52
sg9
F402.0453751087189
sg10
I100
sg11
I500
satp53
Rp54
(dp55
g25
I01
sg26
g31
sg32
(lp56
I3
aI5
aI31
aI9
asg34
I6
sg35
g36
(g3
tp57
Rp58
sbsS'SPEA2'
p59
g2
(g3
g4
(lp60
(dp61
g7
g42
sg9
F0.14685392379760742
sg10
I100
sg11
I0
sa(dp62
g7
g42
sg9
F74.1010410785675
sg10
I100
sg11
I100
sa(dp63
g7
g42
sg9
F166.91460514068604
sg10
I100
sg11
I200
sa(dp64
g7
g42
sg9
F257.74480414390564
sg10
I100
sg11
I300
sa(dp65
g7
g42
sg9
F355.71233797073364
sg10
I100
sg11
I400
sa(dp66
g7
g42
sg9
F461.13893604278564
sg10
I100
sg11
I500
satp67
Rp68
(dp69
g25
I01
sg26
g31
sg32
(lp70
I3
aI5
aI30
aI9
asg34
I6
sg35
g36
(g3
tp71
Rp72
sbsS'IBEA-PEN'
p73
g2
(g3
g4
(lp74
(dp75
g7
g42
sg9
F0.6430649757385254
sg10
I100
sg11
I0
sa(dp76
g7
(F0.159
F0.708
F0.019
I56
I73
tp77
sg9
F59.59223008155823
sg10
I100
sg11
I100
sa(dp78
g7
(F0.169
F0.656
F0.034
I62
I84
tp79
sg9
F119.83651995658875
sg10
I100
sg11
I200
sa(dp80
g7
(F0.173
F0.763
F0.041
I53
I80
tp81
sg9
F180.29443311691284
sg10
I100
sg11
I300
sa(dp82
g7
(F0.175
F0.714
F0.056
I55
I77
tp83
sg9
F240.67115998268127
sg10
I100
sg11
I400
sa(dp84
g7
(F0.173
F0.637
F0.046
I55
I80
tp85
sg9
F300.964684009552
sg10
I100
sg11
I500
satp86
Rp87
(dp88
g25
I01
sg26
g31
sg32
(lp89
I3
aI5
aI30
aI9
asg34
I6
sg35
g36
(g3
tp90
Rp91
sbsS'IBEA'
p92
g2
(g3
g4
(lp93
(dp94
g7
g42
sg9
F0.14588093757629395
sg10
I100
sg11
I0
sa(dp95
g7
g42
sg9
F17.01828908920288
sg10
I100
sg11
I100
sa(dp96
g7
g42
sg9
F34.02042007446289
sg10
I100
sg11
I200
sa(dp97
g7
g42
sg9
F50.993499994277954
sg10
I100
sg11
I300
sa(dp98
g7
g42
sg9
F67.95793199539185
sg10
I100
sg11
I400
sa(dp99
g7
g42
sg9
F84.90705895423889
sg10
I100
sg11
I500
satp100
Rp101
(dp102
g25
I01
sg26
g31
sg32
(lp103
I3
aI5
aI30
aI9
asg34
I6
sg35
g36
(g3
tp104
Rp105
sbsS'NSGA2'
p106
g2
(g3
g4
(lp107
(dp108
g7
g42
sg9
F0.14631295204162598
sg10
I100
sg11
I0
sa(dp109
g7
g42
sg9
F20.026367902755737
sg10
I100
sg11
I100
sa(dp110
g7
g42
sg9
F39.898082971572876
sg10
I100
sg11
I200
sa(dp111
g7
g42
sg9
F59.69870901107788
sg10
I100
sg11
I300
sa(dp112
g7
g42
sg9
F79.63451290130615
sg10
I100
sg11
I400
sa(dp113
g7
g42
sg9
F99.60135102272034
sg10
I100
sg11
I500
satp114
Rp115
(dp116
g25
I01
sg26
g31
sg32
(lp117
I3
aI5
aI30
aI9
asg34
I6
sg35
g36
(g3
tp118
Rp119
sbsS'IBEA-SIP'
p120
g2
(g3
g4
(lp121
(dp122
g7
(F0.058
F1.16
F0.022
I1
I1
tp123
sg9
F0.22780609130859375
sg10
I100
sg11
I0
sa(dp124
g7
(F0.157
F0.695
F0.035
I76
I100
tp125
sg9
F28.28702998161316
sg10
I100
sg11
I100
sa(dp126
g7
(F0.17
F0.786
F0.043
I81
I100
tp127
sg9
F56.02440595626831
sg10
I100
sg11
I200
sa(dp128
g7
(F0.175
F0.669
F0.046
I77
I100
tp129
sg9
F84.3487138748169
sg10
I100
sg11
I300
sa(dp130
g7
(F0.179
F0.648
F0.047
I85
I100
tp131
sg9
F112.6215980052948
sg10
I100
sg11
I400
sa(dp132
g7
(F0.181
F0.616
F0.047
I89
I100
tp133
sg9
F140.7932059764862
sg10
I100
sg11
I500
satp134
Rp135
(dp136
g25
I01
sg26
g31
sg32
(lp137
I3
aI5
aI30
aI9
asg34
I6
sg35
g36
(g3
tp138
Rp139
sbs.