(dp0
S'NSGA2-SIP'
p1
ccopy_reg
_reconstructor
p2
(cdeap.tools.support
Logbook
p3
c__builtin__
list
p4
(lp5
(dp6
S'hv|spread|igd|frontier#|valid#'
p7
(I0
I0
I0
I0
I0
tp8
sS'timestamp'
p9
F0.22647905349731445
sS'evals'
p10
I100
sS'gen'
p11
I0
sa(dp12
g7
(F0.146
F0.644
F0.039
I100
I100
tp13
sg9
F30.648601055145264
sg10
I100
sg11
I100
sa(dp14
g7
(F0.157
F0.565
F0.044
I100
I100
tp15
sg9
F61.04112887382507
sg10
I100
sg11
I200
sa(dp16
g7
(F0.164
F0.664
F0.046
I100
I100
tp17
sg9
F91.30960392951965
sg10
I100
sg11
I300
sa(dp18
g7
(F0.17
F0.664
F0.048
I100
I100
tp19
sg9
F121.64362788200378
sg10
I100
sg11
I400
sa(dp20
g7
(F0.173
F0.687
F0.05
I100
I100
tp21
sg9
F152.15495991706848
sg10
I100
sg11
I500
satp22
Rp23
(dp24
S'log_header'
p25
I01
sS'header'
p26
(S'gen'
p27
S'evals'
p28
S'hv|spread|igd|frontier#|valid#'
p29
S'timestamp'
p30
tp31
sS'columns_len'
p32
(lp33
I3
aI5
aI31
aI9
asS'buffindex'
p34
I6
sS'chapters'
p35
ccollections
defaultdict
p36
(g3
tp37
Rp38
sbsS'SPEA2-SIP'
p39
g2
(g3
g4
(lp40
(dp41
g7
(F0.073
F0.915
F0.024
I4
I4
tp42
sg9
F0.23977899551391602
sg10
I100
sg11
I0
sa(dp43
g7
(F0.154
F0.683
F0.046
I100
I100
tp44
sg9
F72.02927613258362
sg10
I100
sg11
I100
sa(dp45
g7
(F0.17
F0.61
F0.055
I100
I100
tp46
sg9
F152.59608101844788
sg10
I100
sg11
I200
sa(dp47
g7
(F0.173
F0.617
F0.057
I100
I100
tp48
sg9
F238.82648515701294
sg10
I100
sg11
I300
sa(dp49
g7
(F0.175
F0.686
F0.059
I100
I100
tp50
sg9
F328.39595198631287
sg10
I100
sg11
I400
sa(dp51
g7
(F0.176
F0.593
F0.06
I100
I100
tp52
sg9
F419.03866815567017
sg10
I100
sg11
I500
satp53
Rp54
(dp55
g25
I01
sg26
g31
sg32
(lp56
I3
aI5
aI31
aI9
asg34
I6
sg35
g36
(g3
tp57
Rp58
sbsS'SPEA2'
p59
g2
(g3
g4
(lp60
(dp61
g7
g8
sg9
F0.14777493476867676
sg10
I100
sg11
I0
sa(dp62
g7
g8
sg9
F66.95562601089478
sg10
I100
sg11
I100
sa(dp63
g7
g8
sg9
F140.0556719303131
sg10
I100
sg11
I200
sa(dp64
g7
g8
sg9
F210.14966893196106
sg10
I100
sg11
I300
sa(dp65
g7
g8
sg9
F288.55697083473206
sg10
I100
sg11
I400
sa(dp66
g7
g8
sg9
F373.7486939430237
sg10
I100
sg11
I500
satp67
Rp68
(dp69
g25
I01
sg26
g31
sg32
(lp70
I3
aI5
aI30
aI9
asg34
I6
sg35
g36
(g3
tp71
Rp72
sbsS'IBEA-PEN'
p73
g2
(g3
g4
(lp74
(dp75
g7
g8
sg9
F0.644150972366333
sg10
I100
sg11
I0
sa(dp76
g7
(F0.157
F0.631
F0.032
I52
I76
tp77
sg9
F60.07524585723877
sg10
I100
sg11
I100
sa(dp78
g7
(F0.166
F0.814
F0.048
I69
I82
tp79
sg9
F121.21136283874512
sg10
I100
sg11
I200
sa(dp80
g7
(F0.172
F0.545
F0.047
I64
I88
tp81
sg9
F182.25094604492188
sg10
I100
sg11
I300
sa(dp82
g7
(F0.166
F0.678
F0.065
I58
I78
tp83
sg9
F242.84913802146912
sg10
I100
sg11
I400
sa(dp84
g7
(F0.171
F0.61
F0.076
I57
I75
tp85
sg9
F303.28217792510986
sg10
I100
sg11
I500
satp86
Rp87
(dp88
g25
I01
sg26
g31
sg32
(lp89
I3
aI5
aI30
aI9
asg34
I6
sg35
g36
(g3
tp90
Rp91
sbsS'IBEA'
p92
g2
(g3
g4
(lp93
(dp94
g7
g8
sg9
F0.14764904975891113
sg10
I100
sg11
I0
sa(dp95
g7
g8
sg9
F17.185361862182617
sg10
I100
sg11
I100
sa(dp96
g7
g8
sg9
F34.39250707626343
sg10
I100
sg11
I200
sa(dp97
g7
g8
sg9
F51.527588844299316
sg10
I100
sg11
I300
sa(dp98
g7
g8
sg9
F68.75740504264832
sg10
I100
sg11
I400
sa(dp99
g7
g8
sg9
F85.94088387489319
sg10
I100
sg11
I500
satp100
Rp101
(dp102
g25
I01
sg26
g31
sg32
(lp103
I3
aI5
aI30
aI9
asg34
I6
sg35
g36
(g3
tp104
Rp105
sbsS'NSGA2'
p106
g2
(g3
g4
(lp107
(dp108
g7
g8
sg9
F0.1473531723022461
sg10
I100
sg11
I0
sa(dp109
g7
g8
sg9
F20.014842987060547
sg10
I100
sg11
I100
sa(dp110
g7
g8
sg9
F40.02351999282837
sg10
I100
sg11
I200
sa(dp111
g7
g8
sg9
F60.016051054000854
sg10
I100
sg11
I300
sa(dp112
g7
g8
sg9
F80.03763198852539
sg10
I100
sg11
I400
sa(dp113
g7
g8
sg9
F100.0256781578064
sg10
I100
sg11
I500
satp114
Rp115
(dp116
g25
I01
sg26
g31
sg32
(lp117
I3
aI5
aI30
aI9
asg34
I6
sg35
g36
(g3
tp118
Rp119
sbsS'IBEA-SIP'
p120
g2
(g3
g4
(lp121
(dp122
g7
g8
sg9
F0.2283639907836914
sg10
I100
sg11
I0
sa(dp123
g7
(F0.162
F0.655
F0.039
I81
I100
tp124
sg9
F29.51058793067932
sg10
I100
sg11
I100
sa(dp125
g7
(F0.17
F0.628
F0.043
I90
I100
tp126
sg9
F58.65534996986389
sg10
I100
sg11
I200
sa(dp127
g7
(F0.175
F0.583
F0.047
I93
I100
tp128
sg9
F87.89548707008362
sg10
I100
sg11
I300
sa(dp129
g7
(F0.179
F0.619
F0.049
I84
I100
tp130
sg9
F116.57522392272949
sg10
I100
sg11
I400
sa(dp131
g7
(F0.18
F0.648
F0.049
I88
I100
tp132
sg9
F145.10368990898132
sg10
I100
sg11
I500
satp133
Rp134
(dp135
g25
I01
sg26
g31
sg32
(lp136
I3
aI5
aI30
aI9
asg34
I6
sg35
g36
(g3
tp137
Rp138
sbs.