(dp0
S'NSGA2-SIP'
p1
ccopy_reg
_reconstructor
p2
(cdeap.tools.support
Logbook
p3
c__builtin__
list
p4
(lp5
(dp6
S'hv|spread|igd|frontier#|valid#'
p7
(F0.04
F2.441
F0.022
I1
I1
tp8
sS'timestamp'
p9
F0.24373722076416016
sS'evals'
p10
I100
sS'gen'
p11
I0
sa(dp12
g7
(F0.162
F0.649
F0.034
I100
I100
tp13
sg9
F32.40408802032471
sg10
I100
sg11
I100
sa(dp14
g7
(F0.171
F0.637
F0.043
I100
I100
tp15
sg9
F64.64593815803528
sg10
I100
sg11
I200
sa(dp16
g7
(F0.174
F0.558
F0.044
I100
I100
tp17
sg9
F96.82806420326233
sg10
I100
sg11
I300
sa(dp18
g7
(F0.176
F0.654
F0.044
I100
I100
tp19
sg9
F129.12385201454163
sg10
I100
sg11
I400
sa(dp20
g7
(F0.178
F0.658
F0.047
I100
I100
tp21
sg9
F161.4440050125122
sg10
I100
sg11
I500
satp22
Rp23
(dp24
S'log_header'
p25
I01
sS'header'
p26
(S'gen'
p27
S'evals'
p28
S'hv|spread|igd|frontier#|valid#'
p29
S'timestamp'
p30
tp31
sS'columns_len'
p32
(lp33
I3
aI5
aI31
aI9
asS'buffindex'
p34
I6
sS'chapters'
p35
ccollections
defaultdict
p36
(g3
tp37
Rp38
sbsS'SPEA2-SIP'
p39
g2
(g3
g4
(lp40
(dp41
g7
(F0.054
F0.8
F0.032
I1
I1
tp42
sg9
F0.24486279487609863
sg10
I100
sg11
I0
sa(dp43
g7
(F0.151
F0.657
F0.051
I98
I100
tp44
sg9
F75.50652194023132
sg10
I100
sg11
I100
sa(dp45
g7
(F0.156
F0.672
F0.059
I100
I100
tp46
sg9
F155.35361194610596
sg10
I100
sg11
I200
sa(dp47
g7
(F0.162
F0.605
F0.059
I100
I100
tp48
sg9
F236.9406177997589
sg10
I100
sg11
I300
sa(dp49
g7
(F0.167
F0.655
F0.063
I100
I100
tp50
sg9
F320.27299189567566
sg10
I100
sg11
I400
sa(dp51
g7
(F0.168
F0.622
F0.065
I100
I100
tp52
sg9
F405.7790060043335
sg10
I100
sg11
I500
satp53
Rp54
(dp55
g25
I01
sg26
g31
sg32
(lp56
I3
aI5
aI31
aI9
asg34
I6
sg35
g36
(g3
tp57
Rp58
sbsS'SPEA2'
p59
g2
(g3
g4
(lp60
(dp61
g7
(I0
I0
I0
I0
I0
tp62
sg9
F0.15616106986999512
sg10
I100
sg11
I0
sa(dp63
g7
g62
sg9
F67.6290910243988
sg10
I100
sg11
I100
sa(dp64
g7
g62
sg9
F149.30713200569153
sg10
I100
sg11
I200
sa(dp65
g7
g62
sg9
F238.86999702453613
sg10
I100
sg11
I300
sa(dp66
g7
g62
sg9
F331.1654899120331
sg10
I100
sg11
I400
sa(dp67
g7
g62
sg9
F425.43009400367737
sg10
I100
sg11
I500
satp68
Rp69
(dp70
g25
I01
sg26
g31
sg32
(lp71
I3
aI5
aI30
aI9
asg34
I6
sg35
g36
(g3
tp72
Rp73
sbsS'IBEA-PEN'
p74
g2
(g3
g4
(lp75
(dp76
g7
g62
sg9
F0.6802959442138672
sg10
I100
sg11
I0
sa(dp77
g7
(F0.163
F0.794
F0.041
I59
I76
tp78
sg9
F63.34631395339966
sg10
I100
sg11
I100
sa(dp79
g7
(F0.167
F0.696
F0.042
I59
I78
tp80
sg9
F126.60173392295837
sg10
I100
sg11
I200
sa(dp81
g7
(F0.17
F0.698
F0.048
I56
I74
tp82
sg9
F190.24686098098755
sg10
I100
sg11
I300
sa(dp83
g7
(F0.174
F0.695
F0.05
I71
I86
tp84
sg9
F253.7023320198059
sg10
I100
sg11
I400
sa(dp85
g7
(F0.17
F0.713
F0.061
I54
I77
tp86
sg9
F317.9343509674072
sg10
I100
sg11
I500
satp87
Rp88
(dp89
g25
I01
sg26
g31
sg32
(lp90
I3
aI5
aI30
aI9
asg34
I6
sg35
g36
(g3
tp91
Rp92
sbsS'IBEA'
p93
g2
(g3
g4
(lp94
(dp95
g7
g62
sg9
F0.1573948860168457
sg10
I100
sg11
I0
sa(dp96
g7
g62
sg9
F18.02781391143799
sg10
I100
sg11
I100
sa(dp97
g7
g62
sg9
F35.99431490898132
sg10
I100
sg11
I200
sa(dp98
g7
g62
sg9
F53.96533799171448
sg10
I100
sg11
I300
sa(dp99
g7
g62
sg9
F71.97190189361572
sg10
I100
sg11
I400
sa(dp100
g7
g62
sg9
F89.97895789146423
sg10
I100
sg11
I500
satp101
Rp102
(dp103
g25
I01
sg26
g31
sg32
(lp104
I3
aI5
aI30
aI9
asg34
I6
sg35
g36
(g3
tp105
Rp106
sbsS'NSGA2'
p107
g2
(g3
g4
(lp108
(dp109
g7
g62
sg9
F0.1567668914794922
sg10
I100
sg11
I0
sa(dp110
g7
g62
sg9
F21.14101004600525
sg10
I100
sg11
I100
sa(dp111
g7
g62
sg9
F42.17162489891052
sg10
I100
sg11
I200
sa(dp112
g7
g62
sg9
F63.16913604736328
sg10
I100
sg11
I300
sa(dp113
g7
g62
sg9
F84.20964288711548
sg10
I100
sg11
I400
sa(dp114
g7
g62
sg9
F105.24032998085022
sg10
I100
sg11
I500
satp115
Rp116
(dp117
g25
I01
sg26
g31
sg32
(lp118
I3
aI5
aI30
aI9
asg34
I6
sg35
g36
(g3
tp119
Rp120
sbsS'IBEA-SIP'
p121
g2
(g3
g4
(lp122
(dp123
g7
g62
sg9
F0.240189790725708
sg10
I100
sg11
I0
sa(dp124
g7
(F0.152
F0.637
F0.037
I77
I100
tp125
sg9
F30.726013898849487
sg10
I100
sg11
I100
sa(dp126
g7
(F0.17
F0.628
F0.044
I79
I100
tp127
sg9
F61.02483582496643
sg10
I100
sg11
I200
sa(dp128
g7
(F0.176
F0.705
F0.043
I80
I100
tp129
sg9
F90.7090117931366
sg10
I100
sg11
I300
sa(dp130
g7
(F0.178
F0.741
F0.046
I90
I100
tp131
sg9
F120.27650284767151
sg10
I100
sg11
I400
sa(dp132
g7
(F0.182
F0.667
F0.048
I86
I100
tp133
sg9
F150.1054708957672
sg10
I100
sg11
I500
satp134
Rp135
(dp136
g25
I01
sg26
g31
sg32
(lp137
I3
aI5
aI30
aI9
asg34
I6
sg35
g36
(g3
tp138
Rp139
sbs.