(dp0
S'NSGA2-SIP'
p1
ccopy_reg
_reconstructor
p2
(cdeap.tools.support
Logbook
p3
c__builtin__
list
p4
(lp5
(dp6
S'hv|spread|igd|frontier#|valid#'
p7
(F0.062
F0.84
F0.01
I1
I1
tp8
sS'timestamp'
p9
F0.23384499549865723
sS'evals'
p10
I100
sS'gen'
p11
I0
sa(dp12
g7
(F0.149
F0.59
F0.034
I100
I100
tp13
sg9
F30.732245922088623
sg10
I100
sg11
I100
sa(dp14
g7
(F0.16
F0.647
F0.04
I100
I100
tp15
sg9
F61.93378782272339
sg10
I100
sg11
I200
sa(dp16
g7
(F0.165
F0.655
F0.043
I100
I100
tp17
sg9
F93.42975187301636
sg10
I100
sg11
I300
sa(dp18
g7
(F0.17
F0.649
F0.043
I100
I100
tp19
sg9
F124.74641180038452
sg10
I100
sg11
I400
sa(dp20
g7
(F0.173
F0.587
F0.045
I100
I100
tp21
sg9
F156.0280978679657
sg10
I100
sg11
I500
satp22
Rp23
(dp24
S'log_header'
p25
I01
sS'header'
p26
(S'gen'
p27
S'evals'
p28
S'hv|spread|igd|frontier#|valid#'
p29
S'timestamp'
p30
tp31
sS'columns_len'
p32
(lp33
I3
aI5
aI31
aI9
asS'buffindex'
p34
I6
sS'chapters'
p35
ccollections
defaultdict
p36
(g3
tp37
Rp38
sbsS'SPEA2-SIP'
p39
g2
(g3
g4
(lp40
(dp41
g7
(F0.046
F0.68
F0.03
I1
I1
tp42
sg9
F0.23442888259887695
sg10
I100
sg11
I0
sa(dp43
g7
(F0.158
F0.605
F0.048
I100
I100
tp44
sg9
F70.849191904068
sg10
I100
sg11
I100
sa(dp45
g7
(F0.167
F0.625
F0.06
I100
I100
tp46
sg9
F150.03473496437073
sg10
I100
sg11
I200
sa(dp47
g7
(F0.174
F0.664
F0.063
I100
I100
tp48
sg9
F228.02146983146667
sg10
I100
sg11
I300
sa(dp49
g7
(F0.176
F0.525
F0.065
I100
I100
tp50
sg9
F312.2532298564911
sg10
I100
sg11
I400
sa(dp51
g7
(F0.179
F0.604
F0.065
I100
I100
tp52
sg9
F400.0039930343628
sg10
I100
sg11
I500
satp53
Rp54
(dp55
g25
I01
sg26
g31
sg32
(lp56
I3
aI5
aI31
aI9
asg34
I6
sg35
g36
(g3
tp57
Rp58
sbsS'SPEA2'
p59
g2
(g3
g4
(lp60
(dp61
g7
(I0
I0
I0
I0
I0
tp62
sg9
F0.15172314643859863
sg10
I100
sg11
I0
sa(dp63
g7
g62
sg9
F73.14715194702148
sg10
I100
sg11
I100
sa(dp64
g7
g62
sg9
F151.67194509506226
sg10
I100
sg11
I200
sa(dp65
g7
g62
sg9
F236.0386700630188
sg10
I100
sg11
I300
sa(dp66
g7
g62
sg9
F326.63643312454224
sg10
I100
sg11
I400
sa(dp67
g7
g62
sg9
F429.7799000740051
sg10
I100
sg11
I500
satp68
Rp69
(dp70
g25
I01
sg26
g31
sg32
(lp71
I3
aI5
aI30
aI9
asg34
I6
sg35
g36
(g3
tp72
Rp73
sbsS'IBEA-PEN'
p74
g2
(g3
g4
(lp75
(dp76
g7
g62
sg9
F0.6537761688232422
sg10
I100
sg11
I0
sa(dp77
g7
(F0.161
F0.729
F0.031
I54
I75
tp78
sg9
F60.79737615585327
sg10
I100
sg11
I100
sa(dp79
g7
(F0.163
F0.731
F0.038
I61
I73
tp80
sg9
F121.25538611412048
sg10
I100
sg11
I200
sa(dp81
g7
(F0.165
F0.674
F0.025
I59
I72
tp82
sg9
F181.65515995025635
sg10
I100
sg11
I300
sa(dp83
g7
(F0.171
F0.592
F0.038
I65
I85
tp84
sg9
F242.1317970752716
sg10
I100
sg11
I400
sa(dp85
g7
(F0.174
F0.688
F0.043
I63
I80
tp86
sg9
F303.2245719432831
sg10
I100
sg11
I500
satp87
Rp88
(dp89
g25
I01
sg26
g31
sg32
(lp90
I3
aI5
aI30
aI9
asg34
I6
sg35
g36
(g3
tp91
Rp92
sbsS'IBEA'
p93
g2
(g3
g4
(lp94
(dp95
g7
g62
sg9
F0.15186500549316406
sg10
I100
sg11
I0
sa(dp96
g7
g62
sg9
F17.47615098953247
sg10
I100
sg11
I100
sa(dp97
g7
g62
sg9
F34.97673201560974
sg10
I100
sg11
I200
sa(dp98
g7
g62
sg9
F52.479618072509766
sg10
I100
sg11
I300
sa(dp99
g7
g62
sg9
F69.95522809028625
sg10
I100
sg11
I400
sa(dp100
g7
g62
sg9
F87.38658308982849
sg10
I100
sg11
I500
satp101
Rp102
(dp103
g25
I01
sg26
g31
sg32
(lp104
I3
aI5
aI30
aI9
asg34
I6
sg35
g36
(g3
tp105
Rp106
sbsS'NSGA2'
p107
g2
(g3
g4
(lp108
(dp109
g7
g62
sg9
F0.15274405479431152
sg10
I100
sg11
I0
sa(dp110
g7
g62
sg9
F20.49990701675415
sg10
I100
sg11
I100
sa(dp111
g7
g62
sg9
F40.845993995666504
sg10
I100
sg11
I200
sa(dp112
g7
g62
sg9
F61.19148397445679
sg10
I100
sg11
I300
sa(dp113
g7
g62
sg9
F81.54019117355347
sg10
I100
sg11
I400
sa(dp114
g7
g62
sg9
F101.96852707862854
sg10
I100
sg11
I500
satp115
Rp116
(dp117
g25
I01
sg26
g31
sg32
(lp118
I3
aI5
aI30
aI9
asg34
I6
sg35
g36
(g3
tp119
Rp120
sbsS'IBEA-SIP'
p121
g2
(g3
g4
(lp122
(dp123
g7
g62
sg9
F0.2319190502166748
sg10
I100
sg11
I0
sa(dp124
g7
(F0.159
F0.632
F0.039
I77
I100
tp125
sg9
F29.405377864837646
sg10
I100
sg11
I100
sa(dp126
g7
(F0.172
F0.628
F0.044
I78
I100
tp127
sg9
F58.3028450012207
sg10
I100
sg11
I200
sa(dp128
g7
(F0.178
F0.679
F0.047
I77
I100
tp129
sg9
F87.13590693473816
sg10
I100
sg11
I300
sa(dp130
g7
(F0.182
F0.724
F0.052
I88
I100
tp131
sg9
F116.13634490966797
sg10
I100
sg11
I400
sa(dp132
g7
(F0.183
F0.6
F0.053
I83
I100
tp133
sg9
F145.26513600349426
sg10
I100
sg11
I500
satp134
Rp135
(dp136
g25
I01
sg26
g31
sg32
(lp137
I3
aI5
aI30
aI9
asg34
I6
sg35
g36
(g3
tp138
Rp139
sbs.