(dp0
S'NSGA2-SIP'
p1
ccopy_reg
_reconstructor
p2
(cdeap.tools.support
Logbook
p3
c__builtin__
list
p4
(lp5
(dp6
S'hv|spread|igd|frontier#|valid#'
p7
(I0
I0
I0
I0
I0
tp8
sS'timestamp'
p9
F0.23799991607666016
sS'evals'
p10
I100
sS'gen'
p11
I0
sa(dp12
g7
(F0.149
F0.698
F0.037
I100
I100
tp13
sg9
F31.879887104034424
sg10
I100
sg11
I100
sa(dp14
g7
(F0.166
F0.613
F0.044
I100
I100
tp15
sg9
F64.13332295417786
sg10
I100
sg11
I200
sa(dp16
g7
(F0.172
F0.643
F0.045
I100
I100
tp17
sg9
F96.6713650226593
sg10
I100
sg11
I300
sa(dp18
g7
(F0.175
F0.563
F0.046
I100
I100
tp19
sg9
F128.79661512374878
sg10
I100
sg11
I400
sa(dp20
g7
(F0.177
F0.588
F0.044
I100
I100
tp21
sg9
F160.74224591255188
sg10
I100
sg11
I500
satp22
Rp23
(dp24
S'log_header'
p25
I01
sS'header'
p26
(S'gen'
p27
S'evals'
p28
S'hv|spread|igd|frontier#|valid#'
p29
S'timestamp'
p30
tp31
sS'columns_len'
p32
(lp33
I3
aI5
aI31
aI9
asS'buffindex'
p34
I6
sS'chapters'
p35
ccollections
defaultdict
p36
(g3
tp37
Rp38
sbsS'SPEA2-SIP'
p39
g2
(g3
g4
(lp40
(dp41
g7
(F0.062
F0.977
F0.017
I2
I2
tp42
sg9
F0.24355792999267578
sg10
I100
sg11
I0
sa(dp43
g7
(F0.16
F0.686
F0.049
I100
I100
tp44
sg9
F74.87201309204102
sg10
I100
sg11
I100
sa(dp45
g7
(F0.165
F0.618
F0.059
I100
I100
tp46
sg9
F156.0722939968109
sg10
I100
sg11
I200
sa(dp47
g7
(F0.17
F0.596
F0.063
I100
I100
tp48
sg9
F241.8217589855194
sg10
I100
sg11
I300
sa(dp49
g7
(F0.174
F0.651
F0.065
I100
I100
tp50
sg9
F331.1838629245758
sg10
I100
sg11
I400
sa(dp51
g7
(F0.179
F0.657
F0.067
I100
I100
tp52
sg9
F423.62860894203186
sg10
I100
sg11
I500
satp53
Rp54
(dp55
g25
I01
sg26
g31
sg32
(lp56
I3
aI5
aI31
aI9
asg34
I6
sg35
g36
(g3
tp57
Rp58
sbsS'SPEA2'
p59
g2
(g3
g4
(lp60
(dp61
g7
g8
sg9
F0.15278100967407227
sg10
I100
sg11
I0
sa(dp62
g7
g8
sg9
F82.28249907493591
sg10
I100
sg11
I100
sa(dp63
g7
g8
sg9
F180.05736804008484
sg10
I100
sg11
I200
sa(dp64
g7
g8
sg9
F292.6605579853058
sg10
I100
sg11
I300
sa(dp65
g7
g8
sg9
F411.5355339050293
sg10
I100
sg11
I400
sa(dp66
g7
g8
sg9
F530.882777929306
sg10
I100
sg11
I500
satp67
Rp68
(dp69
g25
I01
sg26
g31
sg32
(lp70
I3
aI5
aI30
aI9
asg34
I6
sg35
g36
(g3
tp71
Rp72
sbsS'IBEA-PEN'
p73
g2
(g3
g4
(lp74
(dp75
g7
g8
sg9
F0.67899489402771
sg10
I100
sg11
I0
sa(dp76
g7
(F0.159
F0.635
F0.026
I46
I60
tp77
sg9
F62.643784046173096
sg10
I100
sg11
I100
sa(dp78
g7
(F0.169
F0.682
F0.032
I51
I62
tp79
sg9
F125.76764702796936
sg10
I100
sg11
I200
sa(dp80
g7
(F0.168
F0.749
F0.039
I50
I70
tp81
sg9
F189.1444799900055
sg10
I100
sg11
I300
sa(dp82
g7
(F0.174
F0.642
F0.038
I57
I80
tp83
sg9
F252.3655560016632
sg10
I100
sg11
I400
sa(dp84
g7
(F0.173
F0.716
F0.042
I51
I71
tp85
sg9
F315.8968210220337
sg10
I100
sg11
I500
satp86
Rp87
(dp88
g25
I01
sg26
g31
sg32
(lp89
I3
aI5
aI30
aI9
asg34
I6
sg35
g36
(g3
tp90
Rp91
sbsS'IBEA'
p92
g2
(g3
g4
(lp93
(dp94
g7
g8
sg9
F0.15146207809448242
sg10
I100
sg11
I0
sa(dp95
g7
g8
sg9
F17.713072061538696
sg10
I100
sg11
I100
sa(dp96
g7
g8
sg9
F35.43984317779541
sg10
I100
sg11
I200
sa(dp97
g7
g8
sg9
F53.14708399772644
sg10
I100
sg11
I300
sa(dp98
g7
g8
sg9
F70.83865714073181
sg10
I100
sg11
I400
sa(dp99
g7
g8
sg9
F88.56301307678223
sg10
I100
sg11
I500
satp100
Rp101
(dp102
g25
I01
sg26
g31
sg32
(lp103
I3
aI5
aI30
aI9
asg34
I6
sg35
g36
(g3
tp104
Rp105
sbsS'NSGA2'
p106
g2
(g3
g4
(lp107
(dp108
g7
g8
sg9
F0.15276217460632324
sg10
I100
sg11
I0
sa(dp109
g7
g8
sg9
F20.944411993026733
sg10
I100
sg11
I100
sa(dp110
g7
g8
sg9
F41.68928813934326
sg10
I100
sg11
I200
sa(dp111
g7
g8
sg9
F62.46201300621033
sg10
I100
sg11
I300
sa(dp112
g7
g8
sg9
F83.37645602226257
sg10
I100
sg11
I400
sa(dp113
g7
g8
sg9
F104.2846200466156
sg10
I100
sg11
I500
satp114
Rp115
(dp116
g25
I01
sg26
g31
sg32
(lp117
I3
aI5
aI30
aI9
asg34
I6
sg35
g36
(g3
tp118
Rp119
sbsS'IBEA-SIP'
p120
g2
(g3
g4
(lp121
(dp122
g7
(F0.058
F0.994
F0.021
I2
I2
tp123
sg9
F0.24372005462646484
sg10
I100
sg11
I0
sa(dp124
g7
(F0.155
F0.715
F0.036
I78
I100
tp125
sg9
F30.585664987564087
sg10
I100
sg11
I100
sa(dp126
g7
(F0.169
F0.6
F0.042
I82
I100
tp127
sg9
F61.02836203575134
sg10
I100
sg11
I200
sa(dp128
g7
(F0.174
F0.625
F0.046
I84
I100
tp129
sg9
F91.00587201118469
sg10
I100
sg11
I300
sa(dp130
g7
(F0.182
F0.635
F0.047
I86
I100
tp131
sg9
F120.83795595169067
sg10
I100
sg11
I400
sa(dp132
g7
(F0.183
F0.601
F0.046
I82
I100
tp133
sg9
F150.39690899848938
sg10
I100
sg11
I500
satp134
Rp135
(dp136
g25
I01
sg26
g31
sg32
(lp137
I3
aI5
aI30
aI9
asg34
I6
sg35
g36
(g3
tp138
Rp139
sbs.