(dp0
S'NSGA2-SIP'
p1
ccopy_reg
_reconstructor
p2
(cdeap.tools.support
Logbook
p3
c__builtin__
list
p4
(lp5
(dp6
S'hv|spread|igd|frontier#|valid#'
p7
(F0.047
F2.407
F0.024
I1
I1
tp8
sS'timestamp'
p9
F0.23200607299804688
sS'evals'
p10
I100
sS'gen'
p11
I0
sa(dp12
g7
(F0.154
F0.724
F0.033
I100
I100
tp13
sg9
F31.420711040496826
sg10
I100
sg11
I100
sa(dp14
g7
(F0.162
F0.681
F0.039
I100
I100
tp15
sg9
F62.65650296211243
sg10
I100
sg11
I200
sa(dp16
g7
(F0.173
F0.632
F0.043
I100
I100
tp17
sg9
F93.87083005905151
sg10
I100
sg11
I300
sa(dp18
g7
(F0.176
F0.674
F0.042
I100
I100
tp19
sg9
F124.80470299720764
sg10
I100
sg11
I400
sa(dp20
g7
(F0.177
F0.656
F0.044
I100
I100
tp21
sg9
F155.7292139530182
sg10
I100
sg11
I500
satp22
Rp23
(dp24
S'log_header'
p25
I01
sS'header'
p26
(S'gen'
p27
S'evals'
p28
S'hv|spread|igd|frontier#|valid#'
p29
S'timestamp'
p30
tp31
sS'columns_len'
p32
(lp33
I3
aI5
aI31
aI9
asS'buffindex'
p34
I6
sS'chapters'
p35
ccollections
defaultdict
p36
(g3
tp37
Rp38
sbsS'SPEA2-SIP'
p39
g2
(g3
g4
(lp40
(dp41
g7
(I0
I0
I0
I0
I0
tp42
sg9
F0.22850394248962402
sg10
I100
sg11
I0
sa(dp43
g7
(F0.154
F0.678
F0.047
I100
I100
tp44
sg9
F73.76041603088379
sg10
I100
sg11
I100
sa(dp45
g7
(F0.17
F0.658
F0.056
I100
I100
tp46
sg9
F150.21749806404114
sg10
I100
sg11
I200
sa(dp47
g7
(F0.171
F0.656
F0.057
I100
I100
tp48
sg9
F226.22915196418762
sg10
I100
sg11
I300
sa(dp49
g7
(F0.172
F0.618
F0.06
I100
I100
tp50
sg9
F300.60209703445435
sg10
I100
sg11
I400
sa(dp51
g7
(F0.174
F0.611
F0.062
I100
I100
tp52
sg9
F375.7031309604645
sg10
I100
sg11
I500
satp53
Rp54
(dp55
g25
I01
sg26
g31
sg32
(lp56
I3
aI5
aI31
aI9
asg34
I6
sg35
g36
(g3
tp57
Rp58
sbsS'SPEA2'
p59
g2
(g3
g4
(lp60
(dp61
g7
g42
sg9
F0.14837408065795898
sg10
I100
sg11
I0
sa(dp62
g7
g42
sg9
F87.05261015892029
sg10
I100
sg11
I100
sa(dp63
g7
g42
sg9
F187.51564812660217
sg10
I100
sg11
I200
sa(dp64
g7
g42
sg9
F290.1442210674286
sg10
I100
sg11
I300
sa(dp65
g7
g42
sg9
F396.0551121234894
sg10
I100
sg11
I400
sa(dp66
g7
g42
sg9
F500.0668570995331
sg10
I100
sg11
I500
satp67
Rp68
(dp69
g25
I01
sg26
g31
sg32
(lp70
I3
aI5
aI30
aI9
asg34
I6
sg35
g36
(g3
tp71
Rp72
sbsS'IBEA-PEN'
p73
g2
(g3
g4
(lp74
(dp75
g7
(F0.06
F0.96
F0.026
I1
I1
tp76
sg9
F0.6514201164245605
sg10
I100
sg11
I0
sa(dp77
g7
(F0.159
F0.628
F0.032
I51
I66
tp78
sg9
F60.163416147232056
sg10
I100
sg11
I100
sa(dp79
g7
(F0.166
F0.795
F0.04
I69
I85
tp80
sg9
F121.12784099578857
sg10
I100
sg11
I200
sa(dp81
g7
(F0.172
F0.695
F0.043
I67
I94
tp82
sg9
F182.1113440990448
sg10
I100
sg11
I300
sa(dp83
g7
(F0.172
F0.744
F0.035
I66
I90
tp84
sg9
F243.51732516288757
sg10
I100
sg11
I400
sa(dp85
g7
(F0.174
F0.746
F0.069
I63
I89
tp86
sg9
F304.52441215515137
sg10
I100
sg11
I500
satp87
Rp88
(dp89
g25
I01
sg26
g31
sg32
(lp90
I3
aI5
aI30
aI9
asg34
I6
sg35
g36
(g3
tp91
Rp92
sbsS'IBEA'
p93
g2
(g3
g4
(lp94
(dp95
g7
g42
sg9
F0.14785003662109375
sg10
I100
sg11
I0
sa(dp96
g7
g42
sg9
F17.268367052078247
sg10
I100
sg11
I100
sa(dp97
g7
g42
sg9
F34.49152112007141
sg10
I100
sg11
I200
sa(dp98
g7
g42
sg9
F51.71272397041321
sg10
I100
sg11
I300
sa(dp99
g7
g42
sg9
F68.98915600776672
sg10
I100
sg11
I400
sa(dp100
g7
g42
sg9
F86.30142498016357
sg10
I100
sg11
I500
satp101
Rp102
(dp103
g25
I01
sg26
g31
sg32
(lp104
I3
aI5
aI30
aI9
asg34
I6
sg35
g36
(g3
tp105
Rp106
sbsS'NSGA2'
p107
g2
(g3
g4
(lp108
(dp109
g7
g42
sg9
F0.14932489395141602
sg10
I100
sg11
I0
sa(dp110
g7
g42
sg9
F20.408259868621826
sg10
I100
sg11
I100
sa(dp111
g7
g42
sg9
F40.79755902290344
sg10
I100
sg11
I200
sa(dp112
g7
g42
sg9
F61.132790088653564
sg10
I100
sg11
I300
sa(dp113
g7
g42
sg9
F81.44539499282837
sg10
I100
sg11
I400
sa(dp114
g7
g42
sg9
F101.78415393829346
sg10
I100
sg11
I500
satp115
Rp116
(dp117
g25
I01
sg26
g31
sg32
(lp118
I3
aI5
aI30
aI9
asg34
I6
sg35
g36
(g3
tp119
Rp120
sbsS'IBEA-SIP'
p121
g2
(g3
g4
(lp122
(dp123
g7
(F0.057
F0.977
F0.021
I2
I2
tp124
sg9
F0.23494386672973633
sg10
I100
sg11
I0
sa(dp125
g7
(F0.158
F0.62
F0.04
I81
I100
tp126
sg9
F29.39990782737732
sg10
I100
sg11
I100
sa(dp127
g7
(F0.172
F0.654
F0.045
I85
I100
tp128
sg9
F58.374536991119385
sg10
I100
sg11
I200
sa(dp129
g7
(F0.174
F0.615
F0.046
I85
I100
tp130
sg9
F87.1180899143219
sg10
I100
sg11
I300
sa(dp131
g7
(F0.179
F0.753
F0.048
I80
I100
tp132
sg9
F115.66395092010498
sg10
I100
sg11
I400
sa(dp133
g7
(F0.182
F0.707
F0.05
I87
I100
tp134
sg9
F144.3130168914795
sg10
I100
sg11
I500
satp135
Rp136
(dp137
g25
I01
sg26
g31
sg32
(lp138
I3
aI5
aI30
aI9
asg34
I6
sg35
g36
(g3
tp139
Rp140
sbs.