(dp0
S'NSGA2-SIP'
p1
ccopy_reg
_reconstructor
p2
(cdeap.tools.support
Logbook
p3
c__builtin__
list
p4
(lp5
(dp6
S'hv|spread|igd|frontier#|valid#'
p7
(F0.049
F1.3
F0.026
I1
I1
tp8
sS'timestamp'
p9
F0.23032808303833008
sS'evals'
p10
I100
sS'gen'
p11
I0
sa(dp12
g7
(F0.15
F0.698
F0.036
I100
I100
tp13
sg9
F30.530899047851562
sg10
I100
sg11
I100
sa(dp14
g7
(F0.165
F0.702
F0.044
I100
I100
tp15
sg9
F61.252761125564575
sg10
I100
sg11
I200
sa(dp16
g7
(F0.171
F0.612
F0.046
I100
I100
tp17
sg9
F91.83072209358215
sg10
I100
sg11
I300
sa(dp18
g7
(F0.174
F0.58
F0.049
I100
I100
tp19
sg9
F122.33792805671692
sg10
I100
sg11
I400
sa(dp20
g7
(F0.176
F0.637
F0.048
I100
I100
tp21
sg9
F152.9888961315155
sg10
I100
sg11
I500
satp22
Rp23
(dp24
S'log_header'
p25
I01
sS'header'
p26
(S'gen'
p27
S'evals'
p28
S'hv|spread|igd|frontier#|valid#'
p29
S'timestamp'
p30
tp31
sS'columns_len'
p32
(lp33
I3
aI5
aI31
aI9
asS'buffindex'
p34
I6
sS'chapters'
p35
ccollections
defaultdict
p36
(g3
tp37
Rp38
sbsS'SPEA2-SIP'
p39
g2
(g3
g4
(lp40
(dp41
g7
(I0
I0
I0
I0
I0
tp42
sg9
F0.22900795936584473
sg10
I100
sg11
I0
sa(dp43
g7
(F0.155
F0.708
F0.047
I100
I100
tp44
sg9
F71.59003806114197
sg10
I100
sg11
I100
sa(dp45
g7
(F0.162
F0.692
F0.055
I100
I100
tp46
sg9
F151.94911813735962
sg10
I100
sg11
I200
sa(dp47
g7
(F0.167
F0.665
F0.058
I100
I100
tp48
sg9
F231.89289498329163
sg10
I100
sg11
I300
sa(dp49
g7
(F0.169
F0.538
F0.06
I100
I100
tp50
sg9
F310.8296411037445
sg10
I100
sg11
I400
sa(dp51
g7
(F0.172
F0.672
F0.062
I100
I100
tp52
sg9
F388.2002840042114
sg10
I100
sg11
I500
satp53
Rp54
(dp55
g25
I01
sg26
g31
sg32
(lp56
I3
aI5
aI31
aI9
asg34
I6
sg35
g36
(g3
tp57
Rp58
sbsS'SPEA2'
p59
g2
(g3
g4
(lp60
(dp61
g7
g42
sg9
F0.14957714080810547
sg10
I100
sg11
I0
sa(dp62
g7
g42
sg9
F77.13162016868591
sg10
I100
sg11
I100
sa(dp63
g7
g42
sg9
F168.71467113494873
sg10
I100
sg11
I200
sa(dp64
g7
g42
sg9
F262.43674302101135
sg10
I100
sg11
I300
sa(dp65
g7
g42
sg9
F359.85638093948364
sg10
I100
sg11
I400
sa(dp66
g7
g42
sg9
F457.0450870990753
sg10
I100
sg11
I500
satp67
Rp68
(dp69
g25
I01
sg26
g31
sg32
(lp70
I3
aI5
aI30
aI9
asg34
I6
sg35
g36
(g3
tp71
Rp72
sbsS'IBEA-PEN'
p73
g2
(g3
g4
(lp74
(dp75
g7
(F0.074
F0.95
F0.033
I2
I2
tp76
sg9
F0.6508848667144775
sg10
I100
sg11
I0
sa(dp77
g7
(F0.163
F0.693
F0.032
I66
I82
tp78
sg9
F60.254538774490356
sg10
I100
sg11
I100
sa(dp79
g7
(F0.166
F0.654
F0.041
I65
I88
tp80
sg9
F121.57834792137146
sg10
I100
sg11
I200
sa(dp81
g7
(F0.169
F0.737
F0.046
I53
I71
tp82
sg9
F183.3352918624878
sg10
I100
sg11
I300
sa(dp83
g7
(F0.168
F0.769
F0.034
I40
I62
tp84
sg9
F244.55316185951233
sg10
I100
sg11
I400
sa(dp85
g7
(F0.168
F0.709
F0.056
I58
I74
tp86
sg9
F305.16488885879517
sg10
I100
sg11
I500
satp87
Rp88
(dp89
g25
I01
sg26
g31
sg32
(lp90
I3
aI5
aI30
aI9
asg34
I6
sg35
g36
(g3
tp91
Rp92
sbsS'IBEA'
p93
g2
(g3
g4
(lp94
(dp95
g7
g42
sg9
F0.15003299713134766
sg10
I100
sg11
I0
sa(dp96
g7
g42
sg9
F17.32083296775818
sg10
I100
sg11
I100
sa(dp97
g7
g42
sg9
F34.553991079330444
sg10
I100
sg11
I200
sa(dp98
g7
g42
sg9
F51.742177963256836
sg10
I100
sg11
I300
sa(dp99
g7
g42
sg9
F68.98834300041199
sg10
I100
sg11
I400
sa(dp100
g7
g42
sg9
F86.26006317138672
sg10
I100
sg11
I500
satp101
Rp102
(dp103
g25
I01
sg26
g31
sg32
(lp104
I3
aI5
aI30
aI9
asg34
I6
sg35
g36
(g3
tp105
Rp106
sbsS'NSGA2'
p107
g2
(g3
g4
(lp108
(dp109
g7
g42
sg9
F0.14947199821472168
sg10
I100
sg11
I0
sa(dp110
g7
g42
sg9
F20.17017698287964
sg10
I100
sg11
I100
sa(dp111
g7
g42
sg9
F40.21527981758118
sg10
I100
sg11
I200
sa(dp112
g7
g42
sg9
F60.314873933792114
sg10
I100
sg11
I300
sa(dp113
g7
g42
sg9
F80.4675920009613
sg10
I100
sg11
I400
sa(dp114
g7
g42
sg9
F100.59124493598938
sg10
I100
sg11
I500
satp115
Rp116
(dp117
g25
I01
sg26
g31
sg32
(lp118
I3
aI5
aI30
aI9
asg34
I6
sg35
g36
(g3
tp119
Rp120
sbsS'IBEA-SIP'
p121
g2
(g3
g4
(lp122
(dp123
g7
g42
sg9
F0.2268049716949463
sg10
I100
sg11
I0
sa(dp124
g7
(F0.157
F0.694
F0.035
I81
I100
tp125
sg9
F28.81268286705017
sg10
I100
sg11
I100
sa(dp126
g7
(F0.168
F0.632
F0.044
I85
I100
tp127
sg9
F57.7644989490509
sg10
I100
sg11
I200
sa(dp128
g7
(F0.174
F0.741
F0.046
I89
I100
tp129
sg9
F86.78329181671143
sg10
I100
sg11
I300
sa(dp130
g7
(F0.18
F0.664
F0.051
I90
I100
tp131
sg9
F115.54711389541626
sg10
I100
sg11
I400
sa(dp132
g7
(F0.184
F0.782
F0.051
I84
I100
tp133
sg9
F144.35983896255493
sg10
I100
sg11
I500
satp134
Rp135
(dp136
g25
I01
sg26
g31
sg32
(lp137
I3
aI5
aI30
aI9
asg34
I6
sg35
g36
(g3
tp138
Rp139
sbs.