(dp0
S'NSGA2-SIP'
p1
ccopy_reg
_reconstructor
p2
(cdeap.tools.support
Logbook
p3
c__builtin__
list
p4
(lp5
(dp6
S'hv|spread|igd|frontier#|valid#'
p7
(I0
I0
I0
I0
I0
tp8
sS'timestamp'
p9
F0.22726988792419434
sS'evals'
p10
I100
sS'gen'
p11
I0
sa(dp12
g7
(F0.149
F0.692
F0.036
I100
I100
tp13
sg9
F30.999661922454834
sg10
I100
sg11
I100
sa(dp14
g7
(F0.158
F0.669
F0.04
I100
I100
tp15
sg9
F62.315934896469116
sg10
I100
sg11
I200
sa(dp16
g7
(F0.163
F0.626
F0.044
I100
I100
tp17
sg9
F93.5923080444336
sg10
I100
sg11
I300
sa(dp18
g7
(F0.168
F0.649
F0.047
I100
I100
tp19
sg9
F124.66523504257202
sg10
I100
sg11
I400
sa(dp20
g7
(F0.17
F0.623
F0.047
I100
I100
tp21
sg9
F155.25398182868958
sg10
I100
sg11
I500
satp22
Rp23
(dp24
S'log_header'
p25
I01
sS'header'
p26
(S'gen'
p27
S'evals'
p28
S'hv|spread|igd|frontier#|valid#'
p29
S'timestamp'
p30
tp31
sS'columns_len'
p32
(lp33
I3
aI5
aI31
aI9
asS'buffindex'
p34
I6
sS'chapters'
p35
ccollections
defaultdict
p36
(g3
tp37
Rp38
sbsS'SPEA2-SIP'
p39
g2
(g3
g4
(lp40
(dp41
g7
g8
sg9
F0.2271728515625
sg10
I100
sg11
I0
sa(dp42
g7
(F0.155
F0.613
F0.056
I100
I100
tp43
sg9
F74.15440797805786
sg10
I100
sg11
I100
sa(dp44
g7
(F0.163
F0.601
F0.063
I100
I100
tp45
sg9
F152.97656083106995
sg10
I100
sg11
I200
sa(dp46
g7
(F0.166
F0.606
F0.066
I100
I100
tp47
sg9
F229.74585485458374
sg10
I100
sg11
I300
sa(dp48
g7
(F0.168
F0.601
F0.067
I100
I100
tp49
sg9
F307.26216888427734
sg10
I100
sg11
I400
sa(dp50
g7
(F0.169
F0.612
F0.068
I100
I100
tp51
sg9
F385.6805109977722
sg10
I100
sg11
I500
satp52
Rp53
(dp54
g25
I01
sg26
g31
sg32
(lp55
I3
aI5
aI31
aI9
asg34
I6
sg35
g36
(g3
tp56
Rp57
sbsS'SPEA2'
p58
g2
(g3
g4
(lp59
(dp60
g7
g8
sg9
F0.14917993545532227
sg10
I100
sg11
I0
sa(dp61
g7
g8
sg9
F82.4323959350586
sg10
I100
sg11
I100
sa(dp62
g7
g8
sg9
F180.70151495933533
sg10
I100
sg11
I200
sa(dp63
g7
g8
sg9
F271.3299341201782
sg10
I100
sg11
I300
sa(dp64
g7
g8
sg9
F368.97732400894165
sg10
I100
sg11
I400
sa(dp65
g7
g8
sg9
F468.6249461174011
sg10
I100
sg11
I500
satp66
Rp67
(dp68
g25
I01
sg26
g31
sg32
(lp69
I3
aI5
aI30
aI9
asg34
I6
sg35
g36
(g3
tp70
Rp71
sbsS'IBEA'
p72
g2
(g3
g4
(lp73
(dp74
g7
g8
sg9
F0.14859604835510254
sg10
I100
sg11
I0
sa(dp75
g7
g8
sg9
F17.401973009109497
sg10
I100
sg11
I100
sa(dp76
g7
g8
sg9
F34.739479064941406
sg10
I100
sg11
I200
sa(dp77
g7
g8
sg9
F52.076070070266724
sg10
I100
sg11
I300
sa(dp78
g7
g8
sg9
F69.45242500305176
sg10
I100
sg11
I400
sa(dp79
g7
g8
sg9
F86.78924012184143
sg10
I100
sg11
I500
satp80
Rp81
(dp82
g25
I01
sg26
g31
sg32
(lp83
I3
aI5
aI30
aI9
asg34
I6
sg35
g36
(g3
tp84
Rp85
sbsS'NSGA2'
p86
g2
(g3
g4
(lp87
(dp88
g7
g8
sg9
F0.14803600311279297
sg10
I100
sg11
I0
sa(dp89
g7
g8
sg9
F20.03805112838745
sg10
I100
sg11
I100
sa(dp90
g7
g8
sg9
F40.04805016517639
sg10
I100
sg11
I200
sa(dp91
g7
g8
sg9
F60.11121416091919
sg10
I100
sg11
I300
sa(dp92
g7
g8
sg9
F80.17797112464905
sg10
I100
sg11
I400
sa(dp93
g7
g8
sg9
F100.19675016403198
sg10
I100
sg11
I500
satp94
Rp95
(dp96
g25
I01
sg26
g31
sg32
(lp97
I3
aI5
aI30
aI9
asg34
I6
sg35
g36
(g3
tp98
Rp99
sbsS'IBEA-SIP'
p100
g2
(g3
g4
(lp101
(dp102
g7
(F0.054
F1.24
F0.017
I1
I1
tp103
sg9
F0.22931599617004395
sg10
I100
sg11
I0
sa(dp104
g7
(F0.153
F0.662
F0.036
I82
I100
tp105
sg9
F28.651288986206055
sg10
I100
sg11
I100
sa(dp106
g7
(F0.169
F0.713
F0.044
I89
I100
tp107
sg9
F57.344871044158936
sg10
I100
sg11
I200
sa(dp108
g7
(F0.174
F0.691
F0.047
I88
I100
tp109
sg9
F86.12208294868469
sg10
I100
sg11
I300
sa(dp110
g7
(F0.177
F0.667
F0.049
I82
I100
tp111
sg9
F114.94125413894653
sg10
I100
sg11
I400
sa(dp112
g7
(F0.18
F0.577
F0.051
I81
I100
tp113
sg9
F143.59588313102722
sg10
I100
sg11
I500
satp114
Rp115
(dp116
g25
I01
sg26
g31
sg32
(lp117
I3
aI5
aI30
aI9
asg34
I6
sg35
g36
(g3
tp118
Rp119
sbs.