(dp0
S'NSGA2-SIP'
p1
ccopy_reg
_reconstructor
p2
(cdeap.tools.support
Logbook
p3
c__builtin__
list
p4
(lp5
(dp6
S'hv|spread|igd|frontier#|valid#'
p7
(I0
I0
I0
I0
I0
tp8
sS'timestamp'
p9
F0.22687602043151855
sS'evals'
p10
I100
sS'gen'
p11
I0
sa(dp12
g7
(F0.152
F0.745
F0.034
I100
I100
tp13
sg9
F30.305681943893433
sg10
I100
sg11
I100
sa(dp14
g7
(F0.162
F0.691
F0.039
I100
I100
tp15
sg9
F61.08483099937439
sg10
I100
sg11
I200
sa(dp16
g7
(F0.166
F0.726
F0.042
I100
I100
tp17
sg9
F91.7792580127716
sg10
I100
sg11
I300
sa(dp18
g7
(F0.17
F0.595
F0.045
I100
I100
tp19
sg9
F122.42483305931091
sg10
I100
sg11
I400
sa(dp20
g7
(F0.174
F0.601
F0.048
I100
I100
tp21
sg9
F152.74856400489807
sg10
I100
sg11
I500
satp22
Rp23
(dp24
S'log_header'
p25
I01
sS'header'
p26
(S'gen'
p27
S'evals'
p28
S'hv|spread|igd|frontier#|valid#'
p29
S'timestamp'
p30
tp31
sS'columns_len'
p32
(lp33
I3
aI5
aI31
aI9
asS'buffindex'
p34
I6
sS'chapters'
p35
ccollections
defaultdict
p36
(g3
tp37
Rp38
sbsS'SPEA2-SIP'
p39
g2
(g3
g4
(lp40
(dp41
g7
(F0.059
F1.14
F0.02
I1
I1
tp42
sg9
F0.22969698905944824
sg10
I100
sg11
I0
sa(dp43
g7
(F0.162
F0.642
F0.048
I100
I100
tp44
sg9
F72.6195969581604
sg10
I100
sg11
I100
sa(dp45
g7
(F0.17
F0.564
F0.06
I100
I100
tp46
sg9
F147.31351494789124
sg10
I100
sg11
I200
sa(dp47
g7
(F0.174
F0.674
F0.063
I100
I100
tp48
sg9
F226.9571099281311
sg10
I100
sg11
I300
sa(dp49
g7
(F0.178
F0.635
F0.066
I100
I100
tp50
sg9
F305.45805382728577
sg10
I100
sg11
I400
sa(dp51
g7
(F0.179
F0.669
F0.068
I100
I100
tp52
sg9
F386.79707980155945
sg10
I100
sg11
I500
satp53
Rp54
(dp55
g25
I01
sg26
g31
sg32
(lp56
I3
aI5
aI31
aI9
asg34
I6
sg35
g36
(g3
tp57
Rp58
sbsS'SPEA2'
p59
g2
(g3
g4
(lp60
(dp61
g7
g8
sg9
F0.14814281463623047
sg10
I100
sg11
I0
sa(dp62
g7
g8
sg9
F66.8997130393982
sg10
I100
sg11
I100
sa(dp63
g7
g8
sg9
F152.91396594047546
sg10
I100
sg11
I200
sa(dp64
g7
g8
sg9
F250.352844953537
sg10
I100
sg11
I300
sa(dp65
g7
g8
sg9
F346.0913178920746
sg10
I100
sg11
I400
sa(dp66
g7
g8
sg9
F445.63793182373047
sg10
I100
sg11
I500
satp67
Rp68
(dp69
g25
I01
sg26
g31
sg32
(lp70
I3
aI5
aI30
aI9
asg34
I6
sg35
g36
(g3
tp71
Rp72
sbsS'IBEA-PEN'
p73
g2
(g3
g4
(lp74
(dp75
g7
(F0.058
F1.2
F0.022
I1
I1
tp76
sg9
F0.6481161117553711
sg10
I100
sg11
I0
sa(dp77
g7
(F0.146
F0.612
F0.019
I50
I58
tp78
sg9
F60.181167125701904
sg10
I100
sg11
I100
sa(dp79
g7
(F0.162
F0.663
F0.039
I63
I80
tp80
sg9
F120.63283109664917
sg10
I100
sg11
I200
sa(dp81
g7
(F0.171
F0.628
F0.039
I59
I81
tp82
sg9
F181.38619208335876
sg10
I100
sg11
I300
sa(dp83
g7
(F0.171
F0.741
F0.03
I65
I86
tp84
sg9
F242.2167890071869
sg10
I100
sg11
I400
sa(dp85
g7
(F0.167
F0.66
F0.048
I53
I81
tp86
sg9
F302.7705030441284
sg10
I100
sg11
I500
satp87
Rp88
(dp89
g25
I01
sg26
g31
sg32
(lp90
I3
aI5
aI30
aI9
asg34
I6
sg35
g36
(g3
tp91
Rp92
sbsS'IBEA'
p93
g2
(g3
g4
(lp94
(dp95
g7
g8
sg9
F0.14990901947021484
sg10
I100
sg11
I0
sa(dp96
g7
g8
sg9
F17.379768133163452
sg10
I100
sg11
I100
sa(dp97
g7
g8
sg9
F34.81942105293274
sg10
I100
sg11
I200
sa(dp98
g7
g8
sg9
F52.28642916679382
sg10
I100
sg11
I300
sa(dp99
g7
g8
sg9
F69.75988793373108
sg10
I100
sg11
I400
sa(dp100
g7
g8
sg9
F87.2600769996643
sg10
I100
sg11
I500
satp101
Rp102
(dp103
g25
I01
sg26
g31
sg32
(lp104
I3
aI5
aI30
aI9
asg34
I6
sg35
g36
(g3
tp105
Rp106
sbsS'NSGA2'
p107
g2
(g3
g4
(lp108
(dp109
g7
g8
sg9
F0.14836478233337402
sg10
I100
sg11
I0
sa(dp110
g7
g8
sg9
F20.198364973068237
sg10
I100
sg11
I100
sa(dp111
g7
g8
sg9
F40.29699778556824
sg10
I100
sg11
I200
sa(dp112
g7
g8
sg9
F60.39696979522705
sg10
I100
sg11
I300
sa(dp113
g7
g8
sg9
F80.52682399749756
sg10
I100
sg11
I400
sa(dp114
g7
g8
sg9
F100.64012598991394
sg10
I100
sg11
I500
satp115
Rp116
(dp117
g25
I01
sg26
g31
sg32
(lp118
I3
aI5
aI30
aI9
asg34
I6
sg35
g36
(g3
tp119
Rp120
sbsS'IBEA-SIP'
p121
g2
(g3
g4
(lp122
(dp123
g7
g8
sg9
F0.22621679306030273
sg10
I100
sg11
I0
sa(dp124
g7
(F0.155
F0.705
F0.034
I74
I100
tp125
sg9
F28.890878915786743
sg10
I100
sg11
I100
sa(dp126
g7
(F0.164
F0.714
F0.042
I83
I100
tp127
sg9
F57.45782995223999
sg10
I100
sg11
I200
sa(dp128
g7
(F0.172
F0.686
F0.047
I84
I100
tp129
sg9
F85.93311500549316
sg10
I100
sg11
I300
sa(dp130
g7
(F0.174
F0.694
F0.051
I84
I100
tp131
sg9
F114.27327680587769
sg10
I100
sg11
I400
sa(dp132
g7
(F0.183
F0.551
F0.05
I90
I100
tp133
sg9
F142.41410183906555
sg10
I100
sg11
I500
satp134
Rp135
(dp136
g25
I01
sg26
g31
sg32
(lp137
I3
aI5
aI30
aI9
asg34
I6
sg35
g36
(g3
tp138
Rp139
sbs.