(dp0
S'NSGA2-SIP'
p1
ccopy_reg
_reconstructor
p2
(cdeap.tools.support
Logbook
p3
c__builtin__
list
p4
(lp5
(dp6
S'hv|spread|igd|frontier#|valid#'
p7
(F0.06
F1.14
F0.017
I1
I1
tp8
sS'timestamp'
p9
F0.22993803024291992
sS'evals'
p10
I100
sS'gen'
p11
I0
sa(dp12
g7
(F0.147
F0.649
F0.038
I100
I100
tp13
sg9
F30.045361042022705
sg10
I100
sg11
I100
sa(dp14
g7
(F0.158
F0.631
F0.044
I100
I100
tp15
sg9
F60.622045040130615
sg10
I100
sg11
I200
sa(dp16
g7
(F0.164
F0.613
F0.046
I100
I100
tp17
sg9
F91.06368708610535
sg10
I100
sg11
I300
sa(dp18
g7
(F0.167
F0.659
F0.049
I100
I100
tp19
sg9
F121.60884714126587
sg10
I100
sg11
I400
sa(dp20
g7
(F0.17
F0.671
F0.05
I100
I100
tp21
sg9
F152.24523305892944
sg10
I100
sg11
I500
satp22
Rp23
(dp24
S'log_header'
p25
I01
sS'header'
p26
(S'gen'
p27
S'evals'
p28
S'hv|spread|igd|frontier#|valid#'
p29
S'timestamp'
p30
tp31
sS'columns_len'
p32
(lp33
I3
aI5
aI31
aI9
asS'buffindex'
p34
I6
sS'chapters'
p35
ccollections
defaultdict
p36
(g3
tp37
Rp38
sbsS'SPEA2-SIP'
p39
g2
(g3
g4
(lp40
(dp41
g7
(I0
I0
I0
I0
I0
tp42
sg9
F0.2264420986175537
sg10
I100
sg11
I0
sa(dp43
g7
(F0.168
F0.665
F0.049
I100
I100
tp44
sg9
F69.50519800186157
sg10
I100
sg11
I100
sa(dp45
g7
(F0.175
F0.672
F0.058
I100
I100
tp46
sg9
F148.27371215820312
sg10
I100
sg11
I200
sa(dp47
g7
(F0.177
F0.724
F0.062
I100
I100
tp48
sg9
F230.40580701828003
sg10
I100
sg11
I300
sa(dp49
g7
(F0.18
F0.621
F0.065
I100
I100
tp50
sg9
F315.52707505226135
sg10
I100
sg11
I400
sa(dp51
g7
(F0.183
F0.561
F0.067
I100
I100
tp52
sg9
F401.32896900177
sg10
I100
sg11
I500
satp53
Rp54
(dp55
g25
I01
sg26
g31
sg32
(lp56
I3
aI5
aI31
aI9
asg34
I6
sg35
g36
(g3
tp57
Rp58
sbsS'SPEA2'
p59
g2
(g3
g4
(lp60
(dp61
g7
g42
sg9
F0.14704203605651855
sg10
I100
sg11
I0
sa(dp62
g7
g42
sg9
F72.10343599319458
sg10
I100
sg11
I100
sa(dp63
g7
g42
sg9
F162.9476728439331
sg10
I100
sg11
I200
sa(dp64
g7
g42
sg9
F259.2747440338135
sg10
I100
sg11
I300
sa(dp65
g7
g42
sg9
F358.26577591896057
sg10
I100
sg11
I400
sa(dp66
g7
g42
sg9
F464.43469500541687
sg10
I100
sg11
I500
satp67
Rp68
(dp69
g25
I01
sg26
g31
sg32
(lp70
I3
aI5
aI30
aI9
asg34
I6
sg35
g36
(g3
tp71
Rp72
sbsS'IBEA-PEN'
p73
g2
(g3
g4
(lp74
(dp75
g7
(F0.047
F1.34
F0.02
I1
I1
tp76
sg9
F0.6498031616210938
sg10
I100
sg11
I0
sa(dp77
g7
(F0.159
F0.723
F0.031
I54
I72
tp78
sg9
F60.47246217727661
sg10
I100
sg11
I100
sa(dp79
g7
(F0.166
F0.717
F0.04
I52
I75
tp80
sg9
F121.1920599937439
sg10
I100
sg11
I200
sa(dp81
g7
(F0.17
F0.722
F0.047
I68
I85
tp82
sg9
F182.24406504631042
sg10
I100
sg11
I300
sa(dp83
g7
(F0.169
F0.683
F0.046
I51
I77
tp84
sg9
F242.57067918777466
sg10
I100
sg11
I400
sa(dp85
g7
(F0.17
F0.645
F0.066
I54
I77
tp86
sg9
F303.0970871448517
sg10
I100
sg11
I500
satp87
Rp88
(dp89
g25
I01
sg26
g31
sg32
(lp90
I3
aI5
aI30
aI9
asg34
I6
sg35
g36
(g3
tp91
Rp92
sbsS'IBEA'
p93
g2
(g3
g4
(lp94
(dp95
g7
g42
sg9
F0.14567089080810547
sg10
I100
sg11
I0
sa(dp96
g7
g42
sg9
F16.968019008636475
sg10
I100
sg11
I100
sa(dp97
g7
g42
sg9
F33.892109870910645
sg10
I100
sg11
I200
sa(dp98
g7
g42
sg9
F50.79768490791321
sg10
I100
sg11
I300
sa(dp99
g7
g42
sg9
F67.69387602806091
sg10
I100
sg11
I400
sa(dp100
g7
g42
sg9
F84.59000301361084
sg10
I100
sg11
I500
satp101
Rp102
(dp103
g25
I01
sg26
g31
sg32
(lp104
I3
aI5
aI30
aI9
asg34
I6
sg35
g36
(g3
tp105
Rp106
sbsS'NSGA2'
p107
g2
(g3
g4
(lp108
(dp109
g7
g42
sg9
F0.14688706398010254
sg10
I100
sg11
I0
sa(dp110
g7
g42
sg9
F19.90708589553833
sg10
I100
sg11
I100
sa(dp111
g7
g42
sg9
F39.72276592254639
sg10
I100
sg11
I200
sa(dp112
g7
g42
sg9
F59.53317093849182
sg10
I100
sg11
I300
sa(dp113
g7
g42
sg9
F79.36270594596863
sg10
I100
sg11
I400
sa(dp114
g7
g42
sg9
F99.18940305709839
sg10
I100
sg11
I500
satp115
Rp116
(dp117
g25
I01
sg26
g31
sg32
(lp118
I3
aI5
aI30
aI9
asg34
I6
sg35
g36
(g3
tp119
Rp120
sbsS'IBEA-SIP'
p121
g2
(g3
g4
(lp122
(dp123
g7
(F0.052
F0.7
F0.014
I1
I1
tp124
sg9
F0.22907590866088867
sg10
I100
sg11
I0
sa(dp125
g7
(F0.156
F0.638
F0.034
I79
I100
tp126
sg9
F29.06767201423645
sg10
I100
sg11
I100
sa(dp127
g7
(F0.168
F0.733
F0.044
I78
I100
tp128
sg9
F57.869279861450195
sg10
I100
sg11
I200
sa(dp129
g7
(F0.173
F0.642
F0.047
I80
I100
tp130
sg9
F86.4468560218811
sg10
I100
sg11
I300
sa(dp131
g7
(F0.175
F0.701
F0.048
I78
I100
tp132
sg9
F115.08046889305115
sg10
I100
sg11
I400
sa(dp133
g7
(F0.178
F0.755
F0.05
I83
I100
tp134
sg9
F143.75967693328857
sg10
I100
sg11
I500
satp135
Rp136
(dp137
g25
I01
sg26
g31
sg32
(lp138
I3
aI5
aI30
aI9
asg34
I6
sg35
g36
(g3
tp139
Rp140
sbs.