(dp0
S'NSGA2-SIP'
p1
ccopy_reg
_reconstructor
p2
(cdeap.tools.support
Logbook
p3
c__builtin__
list
p4
(lp5
(dp6
S'hv|spread|igd|frontier#|valid#'
p7
(I0
I0
I0
I0
I0
tp8
sS'timestamp'
p9
F0.23636603355407715
sS'evals'
p10
I100
sS'gen'
p11
I0
sa(dp12
g7
(F0.15
F0.665
F0.036
I100
I100
tp13
sg9
F32.89272117614746
sg10
I100
sg11
I100
sa(dp14
g7
(F0.162
F0.648
F0.042
I100
I100
tp15
sg9
F65.92913603782654
sg10
I100
sg11
I200
sa(dp16
g7
(F0.169
F0.641
F0.043
I100
I100
tp17
sg9
F98.95128202438354
sg10
I100
sg11
I300
sa(dp18
g7
(F0.172
F0.615
F0.046
I100
I100
tp19
sg9
F132.40832114219666
sg10
I100
sg11
I400
sa(dp20
g7
(F0.176
F0.683
F0.048
I100
I100
tp21
sg9
F165.89322304725647
sg10
I100
sg11
I500
satp22
Rp23
(dp24
S'log_header'
p25
I01
sS'header'
p26
(S'gen'
p27
S'evals'
p28
S'hv|spread|igd|frontier#|valid#'
p29
S'timestamp'
p30
tp31
sS'columns_len'
p32
(lp33
I3
aI5
aI31
aI9
asS'buffindex'
p34
I6
sS'chapters'
p35
ccollections
defaultdict
p36
(g3
tp37
Rp38
sbsS'SPEA2-SIP'
p39
g2
(g3
g4
(lp40
(dp41
g7
g8
sg9
F0.23835396766662598
sg10
I100
sg11
I0
sa(dp42
g7
(F0.153
F0.657
F0.045
I100
I100
tp43
sg9
F77.11343097686768
sg10
I100
sg11
I100
sa(dp44
g7
(F0.159
F0.645
F0.055
I100
I100
tp45
sg9
F160.2791678905487
sg10
I100
sg11
I200
sa(dp46
g7
(F0.16
F0.668
F0.058
I100
I100
tp47
sg9
F243.72039580345154
sg10
I100
sg11
I300
sa(dp48
g7
(F0.162
F0.693
F0.059
I100
I100
tp49
sg9
F328.59550499916077
sg10
I100
sg11
I400
sa(dp50
g7
(F0.166
F0.693
F0.061
I100
I100
tp51
sg9
F415.76859283447266
sg10
I100
sg11
I500
satp52
Rp53
(dp54
g25
I01
sg26
g31
sg32
(lp55
I3
aI5
aI31
aI9
asg34
I6
sg35
g36
(g3
tp56
Rp57
sbsS'SPEA2'
p58
g2
(g3
g4
(lp59
(dp60
g7
g8
sg9
F0.16057300567626953
sg10
I100
sg11
I0
sa(dp61
g7
g8
sg9
F83.23157501220703
sg10
I100
sg11
I100
sa(dp62
g7
g8
sg9
F177.81881093978882
sg10
I100
sg11
I200
sa(dp63
g7
g8
sg9
F274.32677698135376
sg10
I100
sg11
I300
sa(dp64
g7
g8
sg9
F383.32361578941345
sg10
I100
sg11
I400
sa(dp65
g7
g8
sg9
F493.1650948524475
sg10
I100
sg11
I500
satp66
Rp67
(dp68
g25
I01
sg26
g31
sg32
(lp69
I3
aI5
aI30
aI9
asg34
I6
sg35
g36
(g3
tp70
Rp71
sbsS'IBEA-PEN'
p72
g2
(g3
g4
(lp73
(dp74
g7
(F0.06
F2.193
F0.017
I1
I1
tp75
sg9
F0.5137708187103271
sg10
I100
sg11
I0
sa(dp76
g7
g8
sg9
F19.391411781311035
sg10
I100
sg11
I100
sa(dp77
g7
g8
sg9
F38.20648980140686
sg10
I100
sg11
I200
sa(dp78
g7
g8
sg9
F57.00550580024719
sg10
I100
sg11
I300
sa(dp79
g7
g8
sg9
F75.81555390357971
sg10
I100
sg11
I400
sa(dp80
g7
g8
sg9
F94.69937181472778
sg10
I100
sg11
I500
satp81
Rp82
(dp83
g25
I01
sg26
g31
sg32
(lp84
I3
aI5
aI30
aI9
asg34
I6
sg35
g36
(g3
tp85
Rp86
sbsS'IBEA'
p87
g2
(g3
g4
(lp88
(dp89
g7
g8
sg9
F0.15916204452514648
sg10
I100
sg11
I0
sa(dp90
g7
g8
sg9
F18.488467931747437
sg10
I100
sg11
I100
sa(dp91
g7
g8
sg9
F36.950161933898926
sg10
I100
sg11
I200
sa(dp92
g7
g8
sg9
F55.399117946624756
sg10
I100
sg11
I300
sa(dp93
g7
g8
sg9
F73.85841703414917
sg10
I100
sg11
I400
sa(dp94
g7
g8
sg9
F92.31063199043274
sg10
I100
sg11
I500
satp95
Rp96
(dp97
g25
I01
sg26
g31
sg32
(lp98
I3
aI5
aI30
aI9
asg34
I6
sg35
g36
(g3
tp99
Rp100
sbsS'NSGA2'
p101
g2
(g3
g4
(lp102
(dp103
g7
g8
sg9
F0.15950989723205566
sg10
I100
sg11
I0
sa(dp104
g7
g8
sg9
F22.537970066070557
sg10
I100
sg11
I100
sa(dp105
g7
g8
sg9
F45.00272798538208
sg10
I100
sg11
I200
sa(dp106
g7
g8
sg9
F67.44871401786804
sg10
I100
sg11
I300
sa(dp107
g7
g8
sg9
F89.88940691947937
sg10
I100
sg11
I400
sa(dp108
g7
g8
sg9
F112.30813503265381
sg10
I100
sg11
I500
satp109
Rp110
(dp111
g25
I01
sg26
g31
sg32
(lp112
I3
aI5
aI30
aI9
asg34
I6
sg35
g36
(g3
tp113
Rp114
sbsS'IBEA-SIP'
p115
g2
(g3
g4
(lp116
(dp117
g7
g8
sg9
F0.2366781234741211
sg10
I100
sg11
I0
sa(dp118
g7
(F0.159
F0.669
F0.038
I79
I100
tp119
sg9
F30.427048206329346
sg10
I100
sg11
I100
sa(dp120
g7
(F0.168
F0.755
F0.044
I83
I100
tp121
sg9
F60.666261196136475
sg10
I100
sg11
I200
sa(dp122
g7
(F0.174
F0.647
F0.048
I82
I100
tp123
sg9
F91.0342230796814
sg10
I100
sg11
I300
sa(dp124
g7
(F0.177
F0.697
F0.051
I89
I100
tp125
sg9
F121.37443208694458
sg10
I100
sg11
I400
sa(dp126
g7
(F0.178
F0.663
F0.051
I79
I100
tp127
sg9
F151.56649518013
sg10
I100
sg11
I500
satp128
Rp129
(dp130
g25
I01
sg26
g31
sg32
(lp131
I3
aI5
aI30
aI9
asg34
I6
sg35
g36
(g3
tp132
Rp133
sbs.