(dp0
S'NSGA2-SIP'
p1
ccopy_reg
_reconstructor
p2
(cdeap.tools.support
Logbook
p3
c__builtin__
list
p4
(lp5
(dp6
S'hv|spread|igd|frontier#|valid#'
p7
(F0.061
F0.954
F0.028
I2
I2
tp8
sS'timestamp'
p9
F0.23120689392089844
sS'evals'
p10
I100
sS'gen'
p11
I0
sa(dp12
g7
(F0.153
F0.718
F0.029
I100
I100
tp13
sg9
F30.76778483390808
sg10
I100
sg11
I100
sa(dp14
g7
(F0.166
F0.579
F0.037
I100
I100
tp15
sg9
F61.21944284439087
sg10
I100
sg11
I200
sa(dp16
g7
(F0.17
F0.647
F0.041
I100
I100
tp17
sg9
F91.28138899803162
sg10
I100
sg11
I300
sa(dp18
g7
(F0.175
F0.627
F0.042
I100
I100
tp19
sg9
F121.4529869556427
sg10
I100
sg11
I400
sa(dp20
g7
(F0.176
F0.641
F0.043
I100
I100
tp21
sg9
F151.45506501197815
sg10
I100
sg11
I500
satp22
Rp23
(dp24
S'log_header'
p25
I01
sS'header'
p26
(S'gen'
p27
S'evals'
p28
S'hv|spread|igd|frontier#|valid#'
p29
S'timestamp'
p30
tp31
sS'columns_len'
p32
(lp33
I3
aI5
aI31
aI9
asS'buffindex'
p34
I6
sS'chapters'
p35
ccollections
defaultdict
p36
(g3
tp37
Rp38
sbsS'SPEA2-SIP'
p39
g2
(g3
g4
(lp40
(dp41
g7
(I0
I0
I0
I0
I0
tp42
sg9
F0.2258000373840332
sg10
I100
sg11
I0
sa(dp43
g7
(F0.157
F0.714
F0.051
I100
I100
tp44
sg9
F70.09932708740234
sg10
I100
sg11
I100
sa(dp45
g7
(F0.166
F0.643
F0.059
I100
I100
tp46
sg9
F148.1837661266327
sg10
I100
sg11
I200
sa(dp47
g7
(F0.168
F0.653
F0.059
I100
I100
tp48
sg9
F227.73221611976624
sg10
I100
sg11
I300
sa(dp49
g7
(F0.17
F0.584
F0.061
I100
I100
tp50
sg9
F311.3715980052948
sg10
I100
sg11
I400
sa(dp51
g7
(F0.175
F0.605
F0.061
I100
I100
tp52
sg9
F397.4033920764923
sg10
I100
sg11
I500
satp53
Rp54
(dp55
g25
I01
sg26
g31
sg32
(lp56
I3
aI5
aI31
aI9
asg34
I6
sg35
g36
(g3
tp57
Rp58
sbsS'SPEA2'
p59
g2
(g3
g4
(lp60
(dp61
g7
g42
sg9
F0.1464369297027588
sg10
I100
sg11
I0
sa(dp62
g7
g42
sg9
F84.46609997749329
sg10
I100
sg11
I100
sa(dp63
g7
g42
sg9
F182.94307494163513
sg10
I100
sg11
I200
sa(dp64
g7
g42
sg9
F281.5836911201477
sg10
I100
sg11
I300
sa(dp65
g7
g42
sg9
F390.8652889728546
sg10
I100
sg11
I400
sa(dp66
g7
g42
sg9
F499.4416811466217
sg10
I100
sg11
I500
satp67
Rp68
(dp69
g25
I01
sg26
g31
sg32
(lp70
I3
aI5
aI30
aI9
asg34
I6
sg35
g36
(g3
tp71
Rp72
sbsS'IBEA-PEN'
p73
g2
(g3
g4
(lp74
(dp75
g7
g42
sg9
F0.6432621479034424
sg10
I100
sg11
I0
sa(dp76
g7
(F0.158
F0.652
F0.023
I49
I65
tp77
sg9
F59.43371605873108
sg10
I100
sg11
I100
sa(dp78
g7
(F0.166
F0.738
F0.037
I57
I75
tp79
sg9
F119.31202912330627
sg10
I100
sg11
I200
sa(dp80
g7
(F0.169
F0.649
F0.055
I70
I84
tp81
sg9
F179.50689101219177
sg10
I100
sg11
I300
sa(dp82
g7
(F0.168
F0.666
F0.055
I58
I79
tp83
sg9
F239.76059699058533
sg10
I100
sg11
I400
sa(dp84
g7
(F0.175
F0.773
F0.048
I67
I82
tp85
sg9
F300.23639011383057
sg10
I100
sg11
I500
satp86
Rp87
(dp88
g25
I01
sg26
g31
sg32
(lp89
I3
aI5
aI30
aI9
asg34
I6
sg35
g36
(g3
tp90
Rp91
sbsS'IBEA'
p92
g2
(g3
g4
(lp93
(dp94
g7
g42
sg9
F0.14708995819091797
sg10
I100
sg11
I0
sa(dp95
g7
g42
sg9
F16.899681091308594
sg10
I100
sg11
I100
sa(dp96
g7
g42
sg9
F33.83983898162842
sg10
I100
sg11
I200
sa(dp97
g7
g42
sg9
F50.82683801651001
sg10
I100
sg11
I300
sa(dp98
g7
g42
sg9
F67.80911493301392
sg10
I100
sg11
I400
sa(dp99
g7
g42
sg9
F84.80793309211731
sg10
I100
sg11
I500
satp100
Rp101
(dp102
g25
I01
sg26
g31
sg32
(lp103
I3
aI5
aI30
aI9
asg34
I6
sg35
g36
(g3
tp104
Rp105
sbsS'NSGA2'
p106
g2
(g3
g4
(lp107
(dp108
g7
g42
sg9
F0.14769816398620605
sg10
I100
sg11
I0
sa(dp109
g7
g42
sg9
F19.959925174713135
sg10
I100
sg11
I100
sa(dp110
g7
g42
sg9
F39.822591066360474
sg10
I100
sg11
I200
sa(dp111
g7
g42
sg9
F59.705411195755005
sg10
I100
sg11
I300
sa(dp112
g7
g42
sg9
F79.54666209220886
sg10
I100
sg11
I400
sa(dp113
g7
g42
sg9
F99.38079309463501
sg10
I100
sg11
I500
satp114
Rp115
(dp116
g25
I01
sg26
g31
sg32
(lp117
I3
aI5
aI30
aI9
asg34
I6
sg35
g36
(g3
tp118
Rp119
sbsS'IBEA-SIP'
p120
g2
(g3
g4
(lp121
(dp122
g7
(F0.069
F0.93
F0.022
I2
I2
tp123
sg9
F0.23076295852661133
sg10
I100
sg11
I0
sa(dp124
g7
(F0.155
F0.695
F0.037
I72
I100
tp125
sg9
F28.4854838848114
sg10
I100
sg11
I100
sa(dp126
g7
(F0.167
F0.667
F0.043
I80
I100
tp127
sg9
F57.11966395378113
sg10
I100
sg11
I200
sa(dp128
g7
(F0.173
F0.569
F0.048
I85
I100
tp129
sg9
F85.45793890953064
sg10
I100
sg11
I300
sa(dp130
g7
(F0.178
F0.63
F0.048
I91
I100
tp131
sg9
F113.70462703704834
sg10
I100
sg11
I400
sa(dp132
g7
(F0.182
F0.696
F0.049
I91
I100
tp133
sg9
F141.91612887382507
sg10
I100
sg11
I500
satp134
Rp135
(dp136
g25
I01
sg26
g31
sg32
(lp137
I3
aI5
aI30
aI9
asg34
I6
sg35
g36
(g3
tp138
Rp139
sbs.