(dp0
S'NSGA2-SIP'
p1
ccopy_reg
_reconstructor
p2
(cdeap.tools.support
Logbook
p3
c__builtin__
list
p4
(lp5
(dp6
S'hv|spread|igd|frontier#|valid#'
p7
(I0
I0
I0
I0
I0
tp8
sS'timestamp'
p9
F0.22588682174682617
sS'evals'
p10
I100
sS'gen'
p11
I0
sa(dp12
g7
(F0.155
F0.672
F0.036
I100
I100
tp13
sg9
F30.934095859527588
sg10
I100
sg11
I100
sa(dp14
g7
(F0.164
F0.656
F0.042
I100
I100
tp15
sg9
F61.27814197540283
sg10
I100
sg11
I200
sa(dp16
g7
(F0.167
F0.657
F0.046
I100
I100
tp17
sg9
F91.57043194770813
sg10
I100
sg11
I300
sa(dp18
g7
(F0.173
F0.652
F0.048
I100
I100
tp19
sg9
F121.66625785827637
sg10
I100
sg11
I400
sa(dp20
g7
(F0.176
F0.615
F0.05
I100
I100
tp21
sg9
F151.93947291374207
sg10
I100
sg11
I500
satp22
Rp23
(dp24
S'log_header'
p25
I01
sS'header'
p26
(S'gen'
p27
S'evals'
p28
S'hv|spread|igd|frontier#|valid#'
p29
S'timestamp'
p30
tp31
sS'columns_len'
p32
(lp33
I3
aI5
aI31
aI9
asS'buffindex'
p34
I6
sS'chapters'
p35
ccollections
defaultdict
p36
(g3
tp37
Rp38
sbsS'SPEA2-SIP'
p39
g2
(g3
g4
(lp40
(dp41
g7
(F0.056
F0.993
F0.02
I2
I2
tp42
sg9
F0.23433589935302734
sg10
I100
sg11
I0
sa(dp43
g7
(F0.157
F0.6
F0.051
I100
I100
tp44
sg9
F68.2310299873352
sg10
I100
sg11
I100
sa(dp45
g7
(F0.167
F0.636
F0.062
I100
I100
tp46
sg9
F144.9983367919922
sg10
I100
sg11
I200
sa(dp47
g7
(F0.177
F0.607
F0.062
I100
I100
tp48
sg9
F225.7845528125763
sg10
I100
sg11
I300
sa(dp49
g7
(F0.18
F0.622
F0.065
I100
I100
tp50
sg9
F311.47116899490356
sg10
I100
sg11
I400
sa(dp51
g7
(F0.181
F0.669
F0.067
I100
I100
tp52
sg9
F394.7947700023651
sg10
I100
sg11
I500
satp53
Rp54
(dp55
g25
I01
sg26
g31
sg32
(lp56
I3
aI5
aI31
aI9
asg34
I6
sg35
g36
(g3
tp57
Rp58
sbsS'SPEA2'
p59
g2
(g3
g4
(lp60
(dp61
g7
g8
sg9
F0.14594197273254395
sg10
I100
sg11
I0
sa(dp62
g7
g8
sg9
F77.18092083930969
sg10
I100
sg11
I100
sa(dp63
g7
g8
sg9
F166.37364387512207
sg10
I100
sg11
I200
sa(dp64
g7
g8
sg9
F263.66279697418213
sg10
I100
sg11
I300
sa(dp65
g7
g8
sg9
F359.9630398750305
sg10
I100
sg11
I400
sa(dp66
g7
g8
sg9
F462.8761169910431
sg10
I100
sg11
I500
satp67
Rp68
(dp69
g25
I01
sg26
g31
sg32
(lp70
I3
aI5
aI30
aI9
asg34
I6
sg35
g36
(g3
tp71
Rp72
sbsS'IBEA-PEN'
p73
g2
(g3
g4
(lp74
(dp75
g7
(F0.064
F0.977
F0.025
I2
I2
tp76
sg9
F0.47063398361206055
sg10
I100
sg11
I0
sa(dp77
g7
g8
sg9
F18.074156999588013
sg10
I100
sg11
I100
sa(dp78
g7
g8
sg9
F35.58814597129822
sg10
I100
sg11
I200
sa(dp79
g7
g8
sg9
F53.08274698257446
sg10
I100
sg11
I300
sa(dp80
g7
g8
sg9
F70.54437589645386
sg10
I100
sg11
I400
sa(dp81
g7
g8
sg9
F88.04277777671814
sg10
I100
sg11
I500
satp82
Rp83
(dp84
g25
I01
sg26
g31
sg32
(lp85
I3
aI5
aI30
aI9
asg34
I6
sg35
g36
(g3
tp86
Rp87
sbsS'IBEA'
p88
g2
(g3
g4
(lp89
(dp90
g7
g8
sg9
F0.14733099937438965
sg10
I100
sg11
I0
sa(dp91
g7
g8
sg9
F16.991114139556885
sg10
I100
sg11
I100
sa(dp92
g7
g8
sg9
F33.947957038879395
sg10
I100
sg11
I200
sa(dp93
g7
g8
sg9
F50.99506402015686
sg10
I100
sg11
I300
sa(dp94
g7
g8
sg9
F68.0080840587616
sg10
I100
sg11
I400
sa(dp95
g7
g8
sg9
F84.9834680557251
sg10
I100
sg11
I500
satp96
Rp97
(dp98
g25
I01
sg26
g31
sg32
(lp99
I3
aI5
aI30
aI9
asg34
I6
sg35
g36
(g3
tp100
Rp101
sbsS'NSGA2'
p102
g2
(g3
g4
(lp103
(dp104
g7
g8
sg9
F0.14592814445495605
sg10
I100
sg11
I0
sa(dp105
g7
g8
sg9
F19.97889518737793
sg10
I100
sg11
I100
sa(dp106
g7
g8
sg9
F39.8149950504303
sg10
I100
sg11
I200
sa(dp107
g7
g8
sg9
F59.68289804458618
sg10
I100
sg11
I300
sa(dp108
g7
g8
sg9
F79.51991319656372
sg10
I100
sg11
I400
sa(dp109
g7
g8
sg9
F99.34033703804016
sg10
I100
sg11
I500
satp110
Rp111
(dp112
g25
I01
sg26
g31
sg32
(lp113
I3
aI5
aI30
aI9
asg34
I6
sg35
g36
(g3
tp114
Rp115
sbsS'IBEA-SIP'
p116
g2
(g3
g4
(lp117
(dp118
g7
(F0.061
F0.78
F0.01
I1
I1
tp119
sg9
F0.22775816917419434
sg10
I100
sg11
I0
sa(dp120
g7
(F0.161
F0.71
F0.037
I80
I100
tp121
sg9
F28.984354972839355
sg10
I100
sg11
I100
sa(dp122
g7
(F0.173
F0.626
F0.043
I92
I100
tp123
sg9
F57.56885313987732
sg10
I100
sg11
I200
sa(dp124
g7
(F0.177
F0.674
F0.045
I86
I100
tp125
sg9
F86.05135703086853
sg10
I100
sg11
I300
sa(dp126
g7
(F0.18
F0.703
F0.048
I93
I100
tp127
sg9
F114.40055298805237
sg10
I100
sg11
I400
sa(dp128
g7
(F0.179
F0.625
F0.047
I88
I100
tp129
sg9
F142.71807718276978
sg10
I100
sg11
I500
satp130
Rp131
(dp132
g25
I01
sg26
g31
sg32
(lp133
I3
aI5
aI30
aI9
asg34
I6
sg35
g36
(g3
tp134
Rp135
sbs.