(dp0
S'NSGA2-SIP'
p1
ccopy_reg
_reconstructor
p2
(cdeap.tools.support
Logbook
p3
c__builtin__
list
p4
(lp5
(dp6
S'hv|spread|igd|frontier#|valid#'
p7
(I0
I0
I0
I0
I0
tp8
sS'timestamp'
p9
F0.23679590225219727
sS'evals'
p10
I100
sS'gen'
p11
I0
sa(dp12
g7
(F0.15
F0.702
F0.041
I100
I100
tp13
sg9
F32.80160689353943
sg10
I100
sg11
I100
sa(dp14
g7
(F0.162
F0.618
F0.044
I100
I100
tp15
sg9
F66.35990500450134
sg10
I100
sg11
I200
sa(dp16
g7
(F0.167
F0.658
F0.046
I100
I100
tp17
sg9
F99.81817889213562
sg10
I100
sg11
I300
sa(dp18
g7
(F0.17
F0.651
F0.048
I100
I100
tp19
sg9
F133.15058398246765
sg10
I100
sg11
I400
sa(dp20
g7
(F0.174
F0.615
F0.05
I100
I100
tp21
sg9
F166.4522910118103
sg10
I100
sg11
I500
satp22
Rp23
(dp24
S'log_header'
p25
I01
sS'header'
p26
(S'gen'
p27
S'evals'
p28
S'hv|spread|igd|frontier#|valid#'
p29
S'timestamp'
p30
tp31
sS'columns_len'
p32
(lp33
I3
aI5
aI31
aI9
asS'buffindex'
p34
I6
sS'chapters'
p35
ccollections
defaultdict
p36
(g3
tp37
Rp38
sbsS'SPEA2-SIP'
p39
g2
(g3
g4
(lp40
(dp41
g7
(F0.051
F2.133
F0.02
I1
I1
tp42
sg9
F0.24126100540161133
sg10
I100
sg11
I0
sa(dp43
g7
(F0.161
F0.649
F0.052
I100
I100
tp44
sg9
F74.03508305549622
sg10
I100
sg11
I100
sa(dp45
g7
(F0.173
F0.629
F0.058
I100
I100
tp46
sg9
F155.10310196876526
sg10
I100
sg11
I200
sa(dp47
g7
(F0.176
F0.669
F0.06
I100
I100
tp48
sg9
F240.24988913536072
sg10
I100
sg11
I300
sa(dp49
g7
(F0.181
F0.649
F0.063
I100
I100
tp50
sg9
F322.248172044754
sg10
I100
sg11
I400
sa(dp51
g7
(F0.185
F0.658
F0.067
I100
I100
tp52
sg9
F410.0852150917053
sg10
I100
sg11
I500
satp53
Rp54
(dp55
g25
I01
sg26
g31
sg32
(lp56
I3
aI5
aI31
aI9
asg34
I6
sg35
g36
(g3
tp57
Rp58
sbsS'SPEA2'
p59
g2
(g3
g4
(lp60
(dp61
g7
g8
sg9
F0.1637580394744873
sg10
I100
sg11
I0
sa(dp62
g7
g8
sg9
F85.92058610916138
sg10
I100
sg11
I100
sa(dp63
g7
g8
sg9
F192.5316870212555
sg10
I100
sg11
I200
sa(dp64
g7
g8
sg9
F304.4848279953003
sg10
I100
sg11
I300
sa(dp65
g7
g8
sg9
F423.9745900630951
sg10
I100
sg11
I400
sa(dp66
g7
g8
sg9
F548.8581371307373
sg10
I100
sg11
I500
satp67
Rp68
(dp69
g25
I01
sg26
g31
sg32
(lp70
I3
aI5
aI30
aI9
asg34
I6
sg35
g36
(g3
tp71
Rp72
sbsS'IBEA-PEN'
p73
g2
(g3
g4
(lp74
(dp75
g7
(F0.056
F2.154
F0.03
I1
I1
tp76
sg9
F0.5114779472351074
sg10
I100
sg11
I0
sa(dp77
g7
g8
sg9
F19.570812940597534
sg10
I100
sg11
I100
sa(dp78
g7
g8
sg9
F38.604259967803955
sg10
I100
sg11
I200
sa(dp79
g7
g8
sg9
F57.529524087905884
sg10
I100
sg11
I300
sa(dp80
g7
g8
sg9
F76.51469206809998
sg10
I100
sg11
I400
sa(dp81
g7
g8
sg9
F95.50984597206116
sg10
I100
sg11
I500
satp82
Rp83
(dp84
g25
I01
sg26
g31
sg32
(lp85
I3
aI5
aI30
aI9
asg34
I6
sg35
g36
(g3
tp86
Rp87
sbsS'IBEA'
p88
g2
(g3
g4
(lp89
(dp90
g7
g8
sg9
F0.16155695915222168
sg10
I100
sg11
I0
sa(dp91
g7
g8
sg9
F18.49227285385132
sg10
I100
sg11
I100
sa(dp92
g7
g8
sg9
F36.94254183769226
sg10
I100
sg11
I200
sa(dp93
g7
g8
sg9
F55.41564702987671
sg10
I100
sg11
I300
sa(dp94
g7
g8
sg9
F73.89884996414185
sg10
I100
sg11
I400
sa(dp95
g7
g8
sg9
F92.44326305389404
sg10
I100
sg11
I500
satp96
Rp97
(dp98
g25
I01
sg26
g31
sg32
(lp99
I3
aI5
aI30
aI9
asg34
I6
sg35
g36
(g3
tp100
Rp101
sbsS'NSGA2'
p102
g2
(g3
g4
(lp103
(dp104
g7
g8
sg9
F0.1620638370513916
sg10
I100
sg11
I0
sa(dp105
g7
g8
sg9
F22.268029928207397
sg10
I100
sg11
I100
sa(dp106
g7
g8
sg9
F44.49937295913696
sg10
I100
sg11
I200
sa(dp107
g7
g8
sg9
F66.77653884887695
sg10
I100
sg11
I300
sa(dp108
g7
g8
sg9
F89.08253693580627
sg10
I100
sg11
I400
sa(dp109
g7
g8
sg9
F111.36366200447083
sg10
I100
sg11
I500
satp110
Rp111
(dp112
g25
I01
sg26
g31
sg32
(lp113
I3
aI5
aI30
aI9
asg34
I6
sg35
g36
(g3
tp114
Rp115
sbsS'IBEA-SIP'
p116
g2
(g3
g4
(lp117
(dp118
g7
g8
sg9
F0.23720002174377441
sg10
I100
sg11
I0
sa(dp119
g7
(F0.16
F0.629
F0.035
I72
I100
tp120
sg9
F30.694594860076904
sg10
I100
sg11
I100
sa(dp121
g7
(F0.173
F0.677
F0.043
I78
I100
tp122
sg9
F61.06163787841797
sg10
I100
sg11
I200
sa(dp123
g7
(F0.174
F0.7
F0.044
I82
I100
tp124
sg9
F90.96991801261902
sg10
I100
sg11
I300
sa(dp125
g7
(F0.177
F0.684
F0.048
I79
I100
tp126
sg9
F120.94400691986084
sg10
I100
sg11
I400
sa(dp127
g7
(F0.184
F0.73
F0.05
I79
I100
tp128
sg9
F150.91160798072815
sg10
I100
sg11
I500
satp129
Rp130
(dp131
g25
I01
sg26
g31
sg32
(lp132
I3
aI5
aI30
aI9
asg34
I6
sg35
g36
(g3
tp133
Rp134
sbs.