(dp0
S'NSGA2-SIP'
p1
ccopy_reg
_reconstructor
p2
(cdeap.tools.support
Logbook
p3
c__builtin__
list
p4
(lp5
(dp6
S'hv|spread|igd|frontier#|valid#'
p7
(I0
I0
I0
I0
I0
tp8
sS'timestamp'
p9
F0.2371349334716797
sS'evals'
p10
I100
sS'gen'
p11
I0
sa(dp12
g7
(F0.155
F0.685
F0.036
I100
I100
tp13
sg9
F32.82928395271301
sg10
I100
sg11
I100
sa(dp14
g7
(F0.165
F0.673
F0.041
I100
I100
tp15
sg9
F65.67819499969482
sg10
I100
sg11
I200
sa(dp16
g7
(F0.173
F0.676
F0.045
I100
I100
tp17
sg9
F98.5524160861969
sg10
I100
sg11
I300
sa(dp18
g7
(F0.177
F0.663
F0.046
I100
I100
tp19
sg9
F131.56943202018738
sg10
I100
sg11
I400
sa(dp20
g7
(F0.18
F0.551
F0.049
I100
I100
tp21
sg9
F164.41580510139465
sg10
I100
sg11
I500
satp22
Rp23
(dp24
S'log_header'
p25
I01
sS'header'
p26
(S'gen'
p27
S'evals'
p28
S'hv|spread|igd|frontier#|valid#'
p29
S'timestamp'
p30
tp31
sS'columns_len'
p32
(lp33
I3
aI5
aI31
aI9
asS'buffindex'
p34
I6
sS'chapters'
p35
ccollections
defaultdict
p36
(g3
tp37
Rp38
sbsS'SPEA2-SIP'
p39
g2
(g3
g4
(lp40
(dp41
g7
(F0.054
F2.126
F0.014
I1
I2
tp42
sg9
F0.2431650161743164
sg10
I100
sg11
I0
sa(dp43
g7
(F0.156
F0.656
F0.044
I100
I100
tp44
sg9
F76.04661583900452
sg10
I100
sg11
I100
sa(dp45
g7
(F0.163
F0.722
F0.052
I100
I100
tp46
sg9
F159.65245699882507
sg10
I100
sg11
I200
sa(dp47
g7
(F0.175
F0.614
F0.058
I100
I100
tp48
sg9
F245.31279683113098
sg10
I100
sg11
I300
sa(dp49
g7
(F0.176
F0.624
F0.058
I100
I100
tp50
sg9
F333.67627596855164
sg10
I100
sg11
I400
sa(dp51
g7
(F0.177
F0.662
F0.058
I100
I100
tp52
sg9
F422.10817098617554
sg10
I100
sg11
I500
satp53
Rp54
(dp55
g25
I01
sg26
g31
sg32
(lp56
I3
aI5
aI31
aI9
asg34
I6
sg35
g36
(g3
tp57
Rp58
sbsS'SPEA2'
p59
g2
(g3
g4
(lp60
(dp61
g7
g8
sg9
F0.1609809398651123
sg10
I100
sg11
I0
sa(dp62
g7
g8
sg9
F72.78765106201172
sg10
I100
sg11
I100
sa(dp63
g7
g8
sg9
F165.39727401733398
sg10
I100
sg11
I200
sa(dp64
g7
g8
sg9
F263.22386503219604
sg10
I100
sg11
I300
sa(dp65
g7
g8
sg9
F369.9033329486847
sg10
I100
sg11
I400
sa(dp66
g7
g8
sg9
F479.60908102989197
sg10
I100
sg11
I500
satp67
Rp68
(dp69
g25
I01
sg26
g31
sg32
(lp70
I3
aI5
aI30
aI9
asg34
I6
sg35
g36
(g3
tp71
Rp72
sbsS'IBEA-PEN'
p73
g2
(g3
g4
(lp74
(dp75
g7
(F0.059
F2.292
F0.024
I1
I1
tp76
sg9
F0.506476879119873
sg10
I100
sg11
I0
sa(dp77
g7
g8
sg9
F19.266763925552368
sg10
I100
sg11
I100
sa(dp78
g7
g8
sg9
F37.9653000831604
sg10
I100
sg11
I200
sa(dp79
g7
g8
sg9
F56.673590898513794
sg10
I100
sg11
I300
sa(dp80
g7
g8
sg9
F75.35578489303589
sg10
I100
sg11
I400
sa(dp81
g7
g8
sg9
F94.04195499420166
sg10
I100
sg11
I500
satp82
Rp83
(dp84
g25
I01
sg26
g31
sg32
(lp85
I3
aI5
aI30
aI9
asg34
I6
sg35
g36
(g3
tp86
Rp87
sbsS'IBEA'
p88
g2
(g3
g4
(lp89
(dp90
g7
g8
sg9
F0.16123104095458984
sg10
I100
sg11
I0
sa(dp91
g7
g8
sg9
F18.5352201461792
sg10
I100
sg11
I100
sa(dp92
g7
g8
sg9
F37.10992217063904
sg10
I100
sg11
I200
sa(dp93
g7
g8
sg9
F55.56147313117981
sg10
I100
sg11
I300
sa(dp94
g7
g8
sg9
F74.01516795158386
sg10
I100
sg11
I400
sa(dp95
g7
g8
sg9
F92.45071697235107
sg10
I100
sg11
I500
satp96
Rp97
(dp98
g25
I01
sg26
g31
sg32
(lp99
I3
aI5
aI30
aI9
asg34
I6
sg35
g36
(g3
tp100
Rp101
sbsS'NSGA2'
p102
g2
(g3
g4
(lp103
(dp104
g7
g8
sg9
F0.16396594047546387
sg10
I100
sg11
I0
sa(dp105
g7
g8
sg9
F22.6912100315094
sg10
I100
sg11
I100
sa(dp106
g7
g8
sg9
F45.330288887023926
sg10
I100
sg11
I200
sa(dp107
g7
g8
sg9
F68.00266098976135
sg10
I100
sg11
I300
sa(dp108
g7
g8
sg9
F90.57185983657837
sg10
I100
sg11
I400
sa(dp109
g7
g8
sg9
F113.17048287391663
sg10
I100
sg11
I500
satp110
Rp111
(dp112
g25
I01
sg26
g31
sg32
(lp113
I3
aI5
aI30
aI9
asg34
I6
sg35
g36
(g3
tp114
Rp115
sbsS'IBEA-SIP'
p116
g2
(g3
g4
(lp117
(dp118
g7
(F0.058
F0.984
F0.023
I2
I2
tp119
sg9
F0.24460601806640625
sg10
I100
sg11
I0
sa(dp120
g7
(F0.156
F0.698
F0.032
I81
I100
tp121
sg9
F30.54145908355713
sg10
I100
sg11
I100
sa(dp122
g7
(F0.169
F0.71
F0.04
I74
I100
tp123
sg9
F60.94868516921997
sg10
I100
sg11
I200
sa(dp124
g7
(F0.177
F0.643
F0.046
I85
I100
tp125
sg9
F91.04960107803345
sg10
I100
sg11
I300
sa(dp126
g7
(F0.179
F0.616
F0.046
I87
I100
tp127
sg9
F120.91993308067322
sg10
I100
sg11
I400
sa(dp128
g7
(F0.181
F0.661
F0.048
I90
I100
tp129
sg9
F150.98704600334167
sg10
I100
sg11
I500
satp130
Rp131
(dp132
g25
I01
sg26
g31
sg32
(lp133
I3
aI5
aI30
aI9
asg34
I6
sg35
g36
(g3
tp134
Rp135
sbs.