(dp0
S'NSGA2-SIP'
p1
ccopy_reg
_reconstructor
p2
(cdeap.tools.support
Logbook
p3
c__builtin__
list
p4
(lp5
(dp6
S'hv|spread|igd|frontier#|valid#'
p7
(I0
I0
I0
I0
I0
tp8
sS'timestamp'
p9
F0.20444107055664062
sS'evals'
p10
I100
sS'gen'
p11
I0
sa(dp12
g7
(F0.153
F0.59
F0.036
I100
I100
tp13
sg9
F27.897705078125
sg10
I100
sg11
I100
sa(dp14
g7
(F0.168
F0.629
F0.042
I100
I100
tp15
sg9
F55.69877314567566
sg10
I100
sg11
I200
sa(dp16
g7
(F0.174
F0.616
F0.047
I100
I100
tp17
sg9
F83.37118911743164
sg10
I100
sg11
I300
sa(dp18
g7
(F0.177
F0.611
F0.047
I100
I100
tp19
sg9
F111.0230622291565
sg10
I100
sg11
I400
sa(dp20
g7
(F0.178
F0.663
F0.049
I100
I100
tp21
sg9
F138.76427817344666
sg10
I100
sg11
I500
satp22
Rp23
(dp24
S'log_header'
p25
I01
sS'header'
p26
(S'gen'
p27
S'evals'
p28
S'hv|spread|igd|frontier#|valid#'
p29
S'timestamp'
p30
tp31
sS'columns_len'
p32
(lp33
I3
aI5
aI31
aI9
asS'buffindex'
p34
I6
sS'chapters'
p35
ccollections
defaultdict
p36
(g3
tp37
Rp38
sbsS'SPEA2-SIP'
p39
g2
(g3
g4
(lp40
(dp41
g7
(F0.04
F2.453
F0.024
I1
I1
tp42
sg9
F0.2077782154083252
sg10
I100
sg11
I0
sa(dp43
g7
(F0.161
F0.664
F0.049
I100
I100
tp44
sg9
F61.63493609428406
sg10
I100
sg11
I100
sa(dp45
g7
(F0.168
F0.539
F0.053
I100
I100
tp46
sg9
F130.69231009483337
sg10
I100
sg11
I200
sa(dp47
g7
(F0.172
F0.581
F0.057
I100
I100
tp48
sg9
F199.44804310798645
sg10
I100
sg11
I300
sa(dp49
g7
(F0.174
F0.622
F0.059
I100
I100
tp50
sg9
F269.1807870864868
sg10
I100
sg11
I400
sa(dp51
g7
(F0.175
F0.627
F0.059
I100
I100
tp52
sg9
F338.00164008140564
sg10
I100
sg11
I500
satp53
Rp54
(dp55
g25
I01
sg26
g31
sg32
(lp56
I3
aI5
aI31
aI9
asg34
I6
sg35
g36
(g3
tp57
Rp58
sbsS'SPEA2'
p59
g2
(g3
g4
(lp60
(dp61
g7
g8
sg9
F0.13455510139465332
sg10
I100
sg11
I0
sa(dp62
g7
g8
sg9
F71.2414300441742
sg10
I100
sg11
I100
sa(dp63
g7
g8
sg9
F158.9947190284729
sg10
I100
sg11
I200
sa(dp64
g7
g8
sg9
F241.73511004447937
sg10
I100
sg11
I300
sa(dp65
g7
g8
sg9
F331.0726590156555
sg10
I100
sg11
I400
sa(dp66
g7
g8
sg9
F428.5677819252014
sg10
I100
sg11
I500
satp67
Rp68
(dp69
g25
I01
sg26
g31
sg32
(lp70
I3
aI5
aI30
aI9
asg34
I6
sg35
g36
(g3
tp71
Rp72
sbsS'IBEA'
p73
g2
(g3
g4
(lp74
(dp75
g7
g8
sg9
F0.134490966796875
sg10
I100
sg11
I0
sa(dp76
g7
g8
sg9
F15.707422971725464
sg10
I100
sg11
I100
sa(dp77
g7
g8
sg9
F31.420073986053467
sg10
I100
sg11
I200
sa(dp78
g7
g8
sg9
F47.09834003448486
sg10
I100
sg11
I300
sa(dp79
g7
g8
sg9
F62.81285095214844
sg10
I100
sg11
I400
sa(dp80
g7
g8
sg9
F78.52494096755981
sg10
I100
sg11
I500
satp81
Rp82
(dp83
g25
I01
sg26
g31
sg32
(lp84
I3
aI5
aI30
aI9
asg34
I6
sg35
g36
(g3
tp85
Rp86
sbsS'NSGA2'
p87
g2
(g3
g4
(lp88
(dp89
g7
g8
sg9
F0.13481712341308594
sg10
I100
sg11
I0
sa(dp90
g7
g8
sg9
F18.28228211402893
sg10
I100
sg11
I100
sa(dp91
g7
g8
sg9
F36.42919921875
sg10
I100
sg11
I200
sa(dp92
g7
g8
sg9
F54.61648106575012
sg10
I100
sg11
I300
sa(dp93
g7
g8
sg9
F72.8105001449585
sg10
I100
sg11
I400
sa(dp94
g7
g8
sg9
F91.01766300201416
sg10
I100
sg11
I500
satp95
Rp96
(dp97
g25
I01
sg26
g31
sg32
(lp98
I3
aI5
aI30
aI9
asg34
I6
sg35
g36
(g3
tp99
Rp100
sbsS'IBEA-SIP'
p101
g2
(g3
g4
(lp102
(dp103
g7
g8
sg9
F0.20378589630126953
sg10
I100
sg11
I0
sa(dp104
g7
(F0.159
F0.704
F0.038
I73
I100
tp105
sg9
F25.956934928894043
sg10
I100
sg11
I100
sa(dp106
g7
(F0.169
F0.76
F0.047
I80
I100
tp107
sg9
F52.30284881591797
sg10
I100
sg11
I200
sa(dp108
g7
(F0.173
F0.615
F0.049
I87
I100
tp109
sg9
F78.64434480667114
sg10
I100
sg11
I300
sa(dp110
g7
(F0.176
F0.715
F0.05
I83
I100
tp111
sg9
F104.84284090995789
sg10
I100
sg11
I400
sa(dp112
g7
(F0.18
F0.649
F0.052
I80
I100
tp113
sg9
F130.80095100402832
sg10
I100
sg11
I500
satp114
Rp115
(dp116
g25
I01
sg26
g31
sg32
(lp117
I3
aI5
aI30
aI9
asg34
I6
sg35
g36
(g3
tp118
Rp119
sbs.