(dp0
S'NSGA2-SIP'
p1
ccopy_reg
_reconstructor
p2
(cdeap.tools.support
Logbook
p3
c__builtin__
list
p4
(lp5
(dp6
S'hv|spread|igd|frontier#|valid#'
p7
(I0
I0
I0
I0
I0
tp8
sS'timestamp'
p9
F0.22771692276000977
sS'evals'
p10
I100
sS'gen'
p11
I0
sa(dp12
g7
(F0.151
F0.7
F0.037
I100
I100
tp13
sg9
F30.865595817565918
sg10
I100
sg11
I100
sa(dp14
g7
(F0.164
F0.567
F0.041
I100
I100
tp15
sg9
F61.73254990577698
sg10
I100
sg11
I200
sa(dp16
g7
(F0.167
F0.594
F0.045
I100
I100
tp17
sg9
F92.59599184989929
sg10
I100
sg11
I300
sa(dp18
g7
(F0.169
F0.707
F0.047
I100
I100
tp19
sg9
F122.9704749584198
sg10
I100
sg11
I400
sa(dp20
g7
(F0.173
F0.61
F0.047
I100
I100
tp21
sg9
F153.0737099647522
sg10
I100
sg11
I500
satp22
Rp23
(dp24
S'log_header'
p25
I01
sS'header'
p26
(S'gen'
p27
S'evals'
p28
S'hv|spread|igd|frontier#|valid#'
p29
S'timestamp'
p30
tp31
sS'columns_len'
p32
(lp33
I3
aI5
aI31
aI9
asS'buffindex'
p34
I6
sS'chapters'
p35
ccollections
defaultdict
p36
(g3
tp37
Rp38
sbsS'SPEA2-SIP'
p39
g2
(g3
g4
(lp40
(dp41
g7
g8
sg9
F0.2277970314025879
sg10
I100
sg11
I0
sa(dp42
g7
(F0.157
F0.635
F0.048
I100
I100
tp43
sg9
F71.70591402053833
sg10
I100
sg11
I100
sa(dp44
g7
(F0.168
F0.647
F0.057
I100
I100
tp45
sg9
F151.26443815231323
sg10
I100
sg11
I200
sa(dp46
g7
(F0.171
F0.663
F0.06
I100
I100
tp47
sg9
F231.29356908798218
sg10
I100
sg11
I300
sa(dp48
g7
(F0.173
F0.577
F0.063
I100
I100
tp49
sg9
F309.965744972229
sg10
I100
sg11
I400
sa(dp50
g7
(F0.176
F0.56
F0.063
I100
I100
tp51
sg9
F389.2893440723419
sg10
I100
sg11
I500
satp52
Rp53
(dp54
g25
I01
sg26
g31
sg32
(lp55
I3
aI5
aI31
aI9
asg34
I6
sg35
g36
(g3
tp56
Rp57
sbsS'SPEA2'
p58
g2
(g3
g4
(lp59
(dp60
g7
g8
sg9
F0.14713597297668457
sg10
I100
sg11
I0
sa(dp61
g7
g8
sg9
F81.53864097595215
sg10
I100
sg11
I100
sa(dp62
g7
g8
sg9
F179.12491297721863
sg10
I100
sg11
I200
sa(dp63
g7
g8
sg9
F280.76762890815735
sg10
I100
sg11
I300
sa(dp64
g7
g8
sg9
F391.85800790786743
sg10
I100
sg11
I400
sa(dp65
g7
g8
sg9
F501.246789932251
sg10
I100
sg11
I500
satp66
Rp67
(dp68
g25
I01
sg26
g31
sg32
(lp69
I3
aI5
aI30
aI9
asg34
I6
sg35
g36
(g3
tp70
Rp71
sbsS'IBEA'
p72
g2
(g3
g4
(lp73
(dp74
g7
g8
sg9
F0.1486818790435791
sg10
I100
sg11
I0
sa(dp75
g7
g8
sg9
F17.309881925582886
sg10
I100
sg11
I100
sa(dp76
g7
g8
sg9
F34.57504200935364
sg10
I100
sg11
I200
sa(dp77
g7
g8
sg9
F51.87145805358887
sg10
I100
sg11
I300
sa(dp78
g7
g8
sg9
F69.21013498306274
sg10
I100
sg11
I400
sa(dp79
g7
g8
sg9
F86.5446879863739
sg10
I100
sg11
I500
satp80
Rp81
(dp82
g25
I01
sg26
g31
sg32
(lp83
I3
aI5
aI30
aI9
asg34
I6
sg35
g36
(g3
tp84
Rp85
sbsS'NSGA2'
p86
g2
(g3
g4
(lp87
(dp88
g7
g8
sg9
F0.14943408966064453
sg10
I100
sg11
I0
sa(dp89
g7
g8
sg9
F20.198053121566772
sg10
I100
sg11
I100
sa(dp90
g7
g8
sg9
F40.363691091537476
sg10
I100
sg11
I200
sa(dp91
g7
g8
sg9
F60.47488808631897
sg10
I100
sg11
I300
sa(dp92
g7
g8
sg9
F80.54422211647034
sg10
I100
sg11
I400
sa(dp93
g7
g8
sg9
F100.6481420993805
sg10
I100
sg11
I500
satp94
Rp95
(dp96
g25
I01
sg26
g31
sg32
(lp97
I3
aI5
aI30
aI9
asg34
I6
sg35
g36
(g3
tp98
Rp99
sbsS'IBEA-SIP'
p100
g2
(g3
g4
(lp101
(dp102
g7
(F0.066
F0.978
F0.022
I2
I2
tp103
sg9
F0.2359471321105957
sg10
I100
sg11
I0
sa(dp104
g7
(F0.155
F0.677
F0.034
I85
I100
tp105
sg9
F29.598701000213623
sg10
I100
sg11
I100
sa(dp106
g7
(F0.169
F0.673
F0.039
I81
I100
tp107
sg9
F58.18598198890686
sg10
I100
sg11
I200
sa(dp108
g7
(F0.177
F0.681
F0.045
I82
I100
tp109
sg9
F86.73281216621399
sg10
I100
sg11
I300
sa(dp110
g7
(F0.179
F0.724
F0.048
I81
I100
tp111
sg9
F115.31604313850403
sg10
I100
sg11
I400
sa(dp112
g7
(F0.179
F0.688
F0.047
I82
I100
tp113
sg9
F143.6552231311798
sg10
I100
sg11
I500
satp114
Rp115
(dp116
g25
I01
sg26
g31
sg32
(lp117
I3
aI5
aI30
aI9
asg34
I6
sg35
g36
(g3
tp118
Rp119
sbs.