(dp0
S'NSGA2-SIP'
p1
ccopy_reg
_reconstructor
p2
(cdeap.tools.support
Logbook
p3
c__builtin__
list
p4
(lp5
(dp6
S'hv|spread|igd|frontier#|valid#'
p7
(I0
I0
I0
I0
I0
tp8
sS'timestamp'
p9
F0.2048959732055664
sS'evals'
p10
I100
sS'gen'
p11
I0
sa(dp12
g7
(F0.159
F0.704
F0.035
I100
I100
tp13
sg9
F27.921492099761963
sg10
I100
sg11
I100
sa(dp14
g7
(F0.167
F0.62
F0.044
I100
I100
tp15
sg9
F55.887853145599365
sg10
I100
sg11
I200
sa(dp16
g7
(F0.172
F0.628
F0.047
I100
I100
tp17
sg9
F83.7311999797821
sg10
I100
sg11
I300
sa(dp18
g7
(F0.173
F0.663
F0.047
I100
I100
tp19
sg9
F111.52545499801636
sg10
I100
sg11
I400
sa(dp20
g7
(F0.177
F0.671
F0.048
I100
I100
tp21
sg9
F139.25620412826538
sg10
I100
sg11
I500
satp22
Rp23
(dp24
S'log_header'
p25
I01
sS'header'
p26
(S'gen'
p27
S'evals'
p28
S'hv|spread|igd|frontier#|valid#'
p29
S'timestamp'
p30
tp31
sS'columns_len'
p32
(lp33
I3
aI5
aI31
aI9
asS'buffindex'
p34
I6
sS'chapters'
p35
ccollections
defaultdict
p36
(g3
tp37
Rp38
sbsS'SPEA2-SIP'
p39
g2
(g3
g4
(lp40
(dp41
g7
(F0.052
F1.28
F0.014
I1
I1
tp42
sg9
F0.20781207084655762
sg10
I100
sg11
I0
sa(dp43
g7
(F0.163
F0.615
F0.051
I100
I100
tp44
sg9
F64.76709318161011
sg10
I100
sg11
I100
sa(dp45
g7
(F0.17
F0.629
F0.059
I100
I100
tp46
sg9
F135.11138916015625
sg10
I100
sg11
I200
sa(dp47
g7
(F0.171
F0.658
F0.061
I100
I100
tp48
sg9
F206.38972115516663
sg10
I100
sg11
I300
sa(dp49
g7
(F0.178
F0.595
F0.065
I100
I100
tp50
sg9
F277.9754421710968
sg10
I100
sg11
I400
sa(dp51
g7
(F0.179
F0.675
F0.067
I100
I100
tp52
sg9
F350.31808614730835
sg10
I100
sg11
I500
satp53
Rp54
(dp55
g25
I01
sg26
g31
sg32
(lp56
I3
aI5
aI31
aI9
asg34
I6
sg35
g36
(g3
tp57
Rp58
sbsS'SPEA2'
p59
g2
(g3
g4
(lp60
(dp61
g7
g8
sg9
F0.13534784317016602
sg10
I100
sg11
I0
sa(dp62
g7
g8
sg9
F75.2855978012085
sg10
I100
sg11
I100
sa(dp63
g7
g8
sg9
F164.04209685325623
sg10
I100
sg11
I200
sa(dp64
g7
g8
sg9
F258.35766983032227
sg10
I100
sg11
I300
sa(dp65
g7
g8
sg9
F353.5304708480835
sg10
I100
sg11
I400
sa(dp66
g7
g8
sg9
F449.9749948978424
sg10
I100
sg11
I500
satp67
Rp68
(dp69
g25
I01
sg26
g31
sg32
(lp70
I3
aI5
aI30
aI9
asg34
I6
sg35
g36
(g3
tp71
Rp72
sbsS'IBEA'
p73
g2
(g3
g4
(lp74
(dp75
g7
g8
sg9
F0.1352229118347168
sg10
I100
sg11
I0
sa(dp76
g7
g8
sg9
F15.625524997711182
sg10
I100
sg11
I100
sa(dp77
g7
g8
sg9
F31.248178958892822
sg10
I100
sg11
I200
sa(dp78
g7
g8
sg9
F46.84278607368469
sg10
I100
sg11
I300
sa(dp79
g7
g8
sg9
F62.422045946121216
sg10
I100
sg11
I400
sa(dp80
g7
g8
sg9
F77.99416494369507
sg10
I100
sg11
I500
satp81
Rp82
(dp83
g25
I01
sg26
g31
sg32
(lp84
I3
aI5
aI30
aI9
asg34
I6
sg35
g36
(g3
tp85
Rp86
sbsS'NSGA2'
p87
g2
(g3
g4
(lp88
(dp89
g7
g8
sg9
F0.13476991653442383
sg10
I100
sg11
I0
sa(dp90
g7
g8
sg9
F18.212724924087524
sg10
I100
sg11
I100
sa(dp91
g7
g8
sg9
F36.29855704307556
sg10
I100
sg11
I200
sa(dp92
g7
g8
sg9
F54.34054899215698
sg10
I100
sg11
I300
sa(dp93
g7
g8
sg9
F72.31660294532776
sg10
I100
sg11
I400
sa(dp94
g7
g8
sg9
F90.32564091682434
sg10
I100
sg11
I500
satp95
Rp96
(dp97
g25
I01
sg26
g31
sg32
(lp98
I3
aI5
aI30
aI9
asg34
I6
sg35
g36
(g3
tp99
Rp100
sbsS'IBEA-SIP'
p101
g2
(g3
g4
(lp102
(dp103
g7
g8
sg9
F0.20438385009765625
sg10
I100
sg11
I0
sa(dp104
g7
(F0.161
F0.684
F0.034
I82
I100
tp105
sg9
F26.15508794784546
sg10
I100
sg11
I100
sa(dp106
g7
(F0.172
F0.619
F0.042
I81
I100
tp107
sg9
F52.259546995162964
sg10
I100
sg11
I200
sa(dp108
g7
(F0.175
F0.683
F0.043
I81
I100
tp109
sg9
F77.91878986358643
sg10
I100
sg11
I300
sa(dp110
g7
(F0.179
F0.712
F0.048
I80
I100
tp111
sg9
F103.58076286315918
sg10
I100
sg11
I400
sa(dp112
g7
(F0.183
F0.749
F0.052
I84
I100
tp113
sg9
F129.37748289108276
sg10
I100
sg11
I500
satp114
Rp115
(dp116
g25
I01
sg26
g31
sg32
(lp117
I3
aI5
aI30
aI9
asg34
I6
sg35
g36
(g3
tp118
Rp119
sbs.