(dp0
S'NSGA2-SIP'
p1
ccopy_reg
_reconstructor
p2
(cdeap.tools.support
Logbook
p3
c__builtin__
list
p4
(lp5
(dp6
S'hv|spread|igd|frontier#|valid#'
p7
(F0.044
F0.64
F0.02
I1
I1
tp8
sS'timestamp'
p9
F0.2308330535888672
sS'evals'
p10
I100
sS'gen'
p11
I0
sa(dp12
g7
(F0.154
F0.612
F0.033
I100
I100
tp13
sg9
F28.042167901992798
sg10
I100
sg11
I100
sa(dp14
g7
(F0.165
F0.611
F0.038
I100
I100
tp15
sg9
F56.162667989730835
sg10
I100
sg11
I200
sa(dp16
g7
(F0.17
F0.613
F0.043
I100
I100
tp17
sg9
F84.15509295463562
sg10
I100
sg11
I300
sa(dp18
g7
(F0.174
F0.628
F0.046
I100
I100
tp19
sg9
F112.2607319355011
sg10
I100
sg11
I400
sa(dp20
g7
(F0.175
F0.603
F0.046
I100
I100
tp21
sg9
F140.01556301116943
sg10
I100
sg11
I500
satp22
Rp23
(dp24
S'log_header'
p25
I01
sS'header'
p26
(S'gen'
p27
S'evals'
p28
S'hv|spread|igd|frontier#|valid#'
p29
S'timestamp'
p30
tp31
sS'columns_len'
p32
(lp33
I3
aI5
aI31
aI9
asS'buffindex'
p34
I6
sS'chapters'
p35
ccollections
defaultdict
p36
(g3
tp37
Rp38
sbsS'SPEA2-SIP'
p39
g2
(g3
g4
(lp40
(dp41
g7
(F0.056
F2.218
F0.042
I1
I1
tp42
sg9
F0.2307910919189453
sg10
I100
sg11
I0
sa(dp43
g7
(F0.155
F0.668
F0.049
I99
I100
tp44
sg9
F63.11749792098999
sg10
I100
sg11
I100
sa(dp45
g7
(F0.162
F0.609
F0.059
I99
I100
tp46
sg9
F127.75517296791077
sg10
I100
sg11
I200
sa(dp47
g7
(F0.167
F0.622
F0.062
I100
I100
tp48
sg9
F192.99268507957458
sg10
I100
sg11
I300
sa(dp49
g7
(F0.17
F0.674
F0.063
I100
I100
tp50
sg9
F258.12355399131775
sg10
I100
sg11
I400
sa(dp51
g7
(F0.171
F0.669
F0.065
I100
I100
tp52
sg9
F325.7856800556183
sg10
I100
sg11
I500
satp53
Rp54
(dp55
g25
I01
sg26
g31
sg32
(lp56
I3
aI5
aI31
aI9
asg34
I6
sg35
g36
(g3
tp57
Rp58
sbsS'SPEA2'
p59
g2
(g3
g4
(lp60
(dp61
g7
(I0
I0
I0
I0
I0
tp62
sg9
F0.14901304244995117
sg10
I100
sg11
I0
sa(dp63
g7
g62
sg9
F79.26224398612976
sg10
I100
sg11
I100
sa(dp64
g7
g62
sg9
F163.11383414268494
sg10
I100
sg11
I200
sa(dp65
g7
g62
sg9
F250.48843097686768
sg10
I100
sg11
I300
sa(dp66
g7
g62
sg9
F338.5488541126251
sg10
I100
sg11
I400
sa(dp67
g7
g62
sg9
F434.3293800354004
sg10
I100
sg11
I500
satp68
Rp69
(dp70
g25
I01
sg26
g31
sg32
(lp71
I3
aI5
aI30
aI9
asg34
I6
sg35
g36
(g3
tp72
Rp73
sbsS'IBEA-PEN'
p74
g2
(g3
g4
(lp75
(dp76
g7
(F0.064
F0.991
F0.022
I2
I2
tp77
sg9
F0.46663808822631836
sg10
I100
sg11
I0
sa(dp78
g7
g62
sg9
F16.46619200706482
sg10
I100
sg11
I100
sa(dp79
g7
g62
sg9
F32.32176613807678
sg10
I100
sg11
I200
sa(dp80
g7
g62
sg9
F48.190295934677124
sg10
I100
sg11
I300
sa(dp81
g7
g62
sg9
F64.0750379562378
sg10
I100
sg11
I400
sa(dp82
g7
g62
sg9
F79.93761110305786
sg10
I100
sg11
I500
satp83
Rp84
(dp85
g25
I01
sg26
g31
sg32
(lp86
I3
aI5
aI30
aI9
asg34
I6
sg35
g36
(g3
tp87
Rp88
sbsS'IBEA'
p89
g2
(g3
g4
(lp90
(dp91
g7
g62
sg9
F0.16552400588989258
sg10
I100
sg11
I0
sa(dp92
g7
g62
sg9
F15.816744089126587
sg10
I100
sg11
I100
sa(dp93
g7
g62
sg9
F31.323853969573975
sg10
I100
sg11
I200
sa(dp94
g7
g62
sg9
F46.835357904434204
sg10
I100
sg11
I300
sa(dp95
g7
g62
sg9
F62.379091024398804
sg10
I100
sg11
I400
sa(dp96
g7
g62
sg9
F77.94130802154541
sg10
I100
sg11
I500
satp97
Rp98
(dp99
g25
I01
sg26
g31
sg32
(lp100
I3
aI5
aI30
aI9
asg34
I6
sg35
g36
(g3
tp101
Rp102
sbsS'NSGA2'
p103
g2
(g3
g4
(lp104
(dp105
g7
g62
sg9
F0.14857888221740723
sg10
I100
sg11
I0
sa(dp106
g7
g62
sg9
F18.207988023757935
sg10
I100
sg11
I100
sa(dp107
g7
g62
sg9
F36.176116943359375
sg10
I100
sg11
I200
sa(dp108
g7
g62
sg9
F54.17068386077881
sg10
I100
sg11
I300
sa(dp109
g7
g62
sg9
F72.12045693397522
sg10
I100
sg11
I400
sa(dp110
g7
g62
sg9
F90.08412599563599
sg10
I100
sg11
I500
satp111
Rp112
(dp113
g25
I01
sg26
g31
sg32
(lp114
I3
aI5
aI30
aI9
asg34
I6
sg35
g36
(g3
tp115
Rp116
sbsS'IBEA-SIP'
p117
g2
(g3
g4
(lp118
(dp119
g7
g62
sg9
F0.2257552146911621
sg10
I100
sg11
I0
sa(dp120
g7
(F0.16
F0.637
F0.035
I76
I100
tp121
sg9
F26.18414306640625
sg10
I100
sg11
I100
sa(dp122
g7
(F0.168
F0.647
F0.043
I75
I100
tp123
sg9
F51.973950147628784
sg10
I100
sg11
I200
sa(dp124
g7
(F0.175
F0.576
F0.049
I83
I100
tp125
sg9
F77.45180106163025
sg10
I100
sg11
I300
sa(dp126
g7
(F0.179
F0.626
F0.048
I83
I100
tp127
sg9
F103.35519599914551
sg10
I100
sg11
I400
sa(dp128
g7
(F0.18
F0.633
F0.05
I82
I100
tp129
sg9
F129.12925004959106
sg10
I100
sg11
I500
satp130
Rp131
(dp132
g25
I01
sg26
g31
sg32
(lp133
I3
aI5
aI30
aI9
asg34
I6
sg35
g36
(g3
tp134
Rp135
sbs.