(dp0
S'NSGA2-SIP'
p1
ccopy_reg
_reconstructor
p2
(cdeap.tools.support
Logbook
p3
c__builtin__
list
p4
(lp5
(dp6
S'hv|spread|igd|frontier#|valid#'
p7
(I0
I0
I0
I0
I0
tp8
sS'timestamp'
p9
F0.21253204345703125
sS'evals'
p10
I100
sS'gen'
p11
I0
sa(dp12
g7
(F0.154
F0.637
F0.038
I100
I100
tp13
sg9
F28.918789863586426
sg10
I100
sg11
I100
sa(dp14
g7
(F0.163
F0.617
F0.042
I100
I100
tp15
sg9
F58.08486890792847
sg10
I100
sg11
I200
sa(dp16
g7
(F0.17
F0.716
F0.046
I100
I100
tp17
sg9
F87.01326394081116
sg10
I100
sg11
I300
sa(dp18
g7
(F0.174
F0.623
F0.048
I100
I100
tp19
sg9
F115.9548089504242
sg10
I100
sg11
I400
sa(dp20
g7
(F0.178
F0.566
F0.049
I100
I100
tp21
sg9
F144.9518599510193
sg10
I100
sg11
I500
satp22
Rp23
(dp24
S'log_header'
p25
I01
sS'header'
p26
(S'gen'
p27
S'evals'
p28
S'hv|spread|igd|frontier#|valid#'
p29
S'timestamp'
p30
tp31
sS'columns_len'
p32
(lp33
I3
aI5
aI31
aI9
asS'buffindex'
p34
I6
sS'chapters'
p35
ccollections
defaultdict
p36
(g3
tp37
Rp38
sbsS'SPEA2-SIP'
p39
g2
(g3
g4
(lp40
(dp41
g7
(F0.055
F0.7
F0.0
I1
I2
tp42
sg9
F0.24397706985473633
sg10
I100
sg11
I0
sa(dp43
g7
(F0.157
F0.654
F0.049
I100
I100
tp44
sg9
F67.24636697769165
sg10
I100
sg11
I100
sa(dp45
g7
(F0.164
F0.621
F0.06
I100
I100
tp46
sg9
F143.34948992729187
sg10
I100
sg11
I200
sa(dp47
g7
(F0.167
F0.614
F0.062
I100
I100
tp48
sg9
F222.84468007087708
sg10
I100
sg11
I300
sa(dp49
g7
(F0.168
F0.646
F0.063
I100
I100
tp50
sg9
F300.9372580051422
sg10
I100
sg11
I400
sa(dp51
g7
(F0.171
F0.613
F0.064
I100
I100
tp52
sg9
F380.6917510032654
sg10
I100
sg11
I500
satp53
Rp54
(dp55
g25
I01
sg26
g31
sg32
(lp56
I3
aI5
aI31
aI9
asg34
I6
sg35
g36
(g3
tp57
Rp58
sbsS'SPEA2'
p59
g2
(g3
g4
(lp60
(dp61
g7
g8
sg9
F0.14257383346557617
sg10
I100
sg11
I0
sa(dp62
g7
g8
sg9
F70.09137892723083
sg10
I100
sg11
I100
sa(dp63
g7
g8
sg9
F156.0776867866516
sg10
I100
sg11
I200
sa(dp64
g7
g8
sg9
F255.4443929195404
sg10
I100
sg11
I300
sa(dp65
g7
g8
sg9
F364.505331993103
sg10
I100
sg11
I400
sa(dp66
g7
g8
sg9
F470.7309379577637
sg10
I100
sg11
I500
satp67
Rp68
(dp69
g25
I01
sg26
g31
sg32
(lp70
I3
aI5
aI30
aI9
asg34
I6
sg35
g36
(g3
tp71
Rp72
sbsS'IBEA-PEN'
p73
g2
(g3
g4
(lp74
(dp75
g7
g8
sg9
F0.43504810333251953
sg10
I100
sg11
I0
sa(dp76
g7
g8
sg9
F16.71469497680664
sg10
I100
sg11
I100
sa(dp77
g7
g8
sg9
F32.937549114227295
sg10
I100
sg11
I200
sa(dp78
g7
g8
sg9
F49.19294214248657
sg10
I100
sg11
I300
sa(dp79
g7
g8
sg9
F65.45807814598083
sg10
I100
sg11
I400
sa(dp80
g7
g8
sg9
F81.71982407569885
sg10
I100
sg11
I500
satp81
Rp82
(dp83
g25
I01
sg26
g31
sg32
(lp84
I3
aI5
aI30
aI9
asg34
I6
sg35
g36
(g3
tp85
Rp86
sbsS'IBEA'
p87
g2
(g3
g4
(lp88
(dp89
g7
g8
sg9
F0.1447160243988037
sg10
I100
sg11
I0
sa(dp90
g7
g8
sg9
F16.00968098640442
sg10
I100
sg11
I100
sa(dp91
g7
g8
sg9
F32.00215816497803
sg10
I100
sg11
I200
sa(dp92
g7
g8
sg9
F47.992555141448975
sg10
I100
sg11
I300
sa(dp93
g7
g8
sg9
F63.97661209106445
sg10
I100
sg11
I400
sa(dp94
g7
g8
sg9
F79.97202205657959
sg10
I100
sg11
I500
satp95
Rp96
(dp97
g25
I01
sg26
g31
sg32
(lp98
I3
aI5
aI30
aI9
asg34
I6
sg35
g36
(g3
tp99
Rp100
sbsS'NSGA2'
p101
g2
(g3
g4
(lp102
(dp103
g7
g8
sg9
F0.1432788372039795
sg10
I100
sg11
I0
sa(dp104
g7
g8
sg9
F18.728558778762817
sg10
I100
sg11
I100
sa(dp105
g7
g8
sg9
F37.36933493614197
sg10
I100
sg11
I200
sa(dp106
g7
g8
sg9
F56.019463777542114
sg10
I100
sg11
I300
sa(dp107
g7
g8
sg9
F74.6859347820282
sg10
I100
sg11
I400
sa(dp108
g7
g8
sg9
F93.36118197441101
sg10
I100
sg11
I500
satp109
Rp110
(dp111
g25
I01
sg26
g31
sg32
(lp112
I3
aI5
aI30
aI9
asg34
I6
sg35
g36
(g3
tp113
Rp114
sbsS'IBEA-SIP'
p115
g2
(g3
g4
(lp116
(dp117
g7
(F0.066
F0.983
F0.012
I2
I2
tp118
sg9
F0.21778392791748047
sg10
I100
sg11
I0
sa(dp119
g7
(F0.156
F0.697
F0.036
I78
I100
tp120
sg9
F27.20240807533264
sg10
I100
sg11
I100
sa(dp121
g7
(F0.168
F0.638
F0.044
I89
I100
tp122
sg9
F54.03522992134094
sg10
I100
sg11
I200
sa(dp123
g7
(F0.176
F0.731
F0.044
I80
I100
tp124
sg9
F80.39262795448303
sg10
I100
sg11
I300
sa(dp125
g7
(F0.179
F0.656
F0.048
I79
I100
tp126
sg9
F106.84145593643188
sg10
I100
sg11
I400
sa(dp127
g7
(F0.181
F0.634
F0.048
I79
I100
tp128
sg9
F133.240581035614
sg10
I100
sg11
I500
satp129
Rp130
(dp131
g25
I01
sg26
g31
sg32
(lp132
I3
aI5
aI30
aI9
asg34
I6
sg35
g36
(g3
tp133
Rp134
sbs.