(dp0
S'NSGA2-SIP'
p1
ccopy_reg
_reconstructor
p2
(cdeap.tools.support
Logbook
p3
c__builtin__
list
p4
(lp5
(dp6
S'hv|spread|igd|frontier#|valid#'
p7
(I0
I0
I0
I0
I0
tp8
sS'timestamp'
p9
F0.23731493949890137
sS'evals'
p10
I100
sS'gen'
p11
I0
sa(dp12
g7
(F0.148
F0.727
F0.038
I100
I100
tp13
sg9
F32.32970404624939
sg10
I100
sg11
I100
sa(dp14
g7
(F0.161
F0.635
F0.043
I100
I100
tp15
sg9
F65.00480198860168
sg10
I100
sg11
I200
sa(dp16
g7
(F0.173
F0.674
F0.048
I100
I100
tp17
sg9
F97.97309803962708
sg10
I100
sg11
I300
sa(dp18
g7
(F0.176
F0.613
F0.049
I100
I100
tp19
sg9
F130.7471148967743
sg10
I100
sg11
I400
sa(dp20
g7
(F0.178
F0.649
F0.049
I100
I100
tp21
sg9
F163.51725888252258
sg10
I100
sg11
I500
satp22
Rp23
(dp24
S'log_header'
p25
I01
sS'header'
p26
(S'gen'
p27
S'evals'
p28
S'hv|spread|igd|frontier#|valid#'
p29
S'timestamp'
p30
tp31
sS'columns_len'
p32
(lp33
I3
aI5
aI31
aI9
asS'buffindex'
p34
I6
sS'chapters'
p35
ccollections
defaultdict
p36
(g3
tp37
Rp38
sbsS'SPEA2-SIP'
p39
g2
(g3
g4
(lp40
(dp41
g7
g8
sg9
F0.23848700523376465
sg10
I100
sg11
I0
sa(dp42
g7
(F0.155
F0.642
F0.056
I100
I100
tp43
sg9
F74.78961491584778
sg10
I100
sg11
I100
sa(dp44
g7
(F0.163
F0.642
F0.064
I100
I100
tp45
sg9
F155.1113748550415
sg10
I100
sg11
I200
sa(dp46
g7
(F0.164
F0.628
F0.067
I100
I100
tp47
sg9
F235.79091501235962
sg10
I100
sg11
I300
sa(dp48
g7
(F0.168
F0.605
F0.067
I100
I100
tp49
sg9
F317.485209941864
sg10
I100
sg11
I400
sa(dp50
g7
(F0.173
F0.651
F0.067
I100
I100
tp51
sg9
F400.2146530151367
sg10
I100
sg11
I500
satp52
Rp53
(dp54
g25
I01
sg26
g31
sg32
(lp55
I3
aI5
aI31
aI9
asg34
I6
sg35
g36
(g3
tp56
Rp57
sbsS'SPEA2'
p58
g2
(g3
g4
(lp59
(dp60
g7
g8
sg9
F0.15900087356567383
sg10
I100
sg11
I0
sa(dp61
g7
g8
sg9
F85.36891889572144
sg10
I100
sg11
I100
sa(dp62
g7
g8
sg9
F188.76576399803162
sg10
I100
sg11
I200
sa(dp63
g7
g8
sg9
F299.8994040489197
sg10
I100
sg11
I300
sa(dp64
g7
g8
sg9
F404.65345191955566
sg10
I100
sg11
I400
sa(dp65
g7
g8
sg9
F516.8738799095154
sg10
I100
sg11
I500
satp66
Rp67
(dp68
g25
I01
sg26
g31
sg32
(lp69
I3
aI5
aI30
aI9
asg34
I6
sg35
g36
(g3
tp70
Rp71
sbsS'IBEA'
p72
g2
(g3
g4
(lp73
(dp74
g7
g8
sg9
F0.15439391136169434
sg10
I100
sg11
I0
sa(dp75
g7
g8
sg9
F18.082947969436646
sg10
I100
sg11
I100
sa(dp76
g7
g8
sg9
F36.08835005760193
sg10
I100
sg11
I200
sa(dp77
g7
g8
sg9
F54.18214201927185
sg10
I100
sg11
I300
sa(dp78
g7
g8
sg9
F72.18822908401489
sg10
I100
sg11
I400
sa(dp79
g7
g8
sg9
F90.2089319229126
sg10
I100
sg11
I500
satp80
Rp81
(dp82
g25
I01
sg26
g31
sg32
(lp83
I3
aI5
aI30
aI9
asg34
I6
sg35
g36
(g3
tp84
Rp85
sbsS'NSGA2'
p86
g2
(g3
g4
(lp87
(dp88
g7
g8
sg9
F0.15436697006225586
sg10
I100
sg11
I0
sa(dp89
g7
g8
sg9
F20.99726104736328
sg10
I100
sg11
I100
sa(dp90
g7
g8
sg9
F41.908270835876465
sg10
I100
sg11
I200
sa(dp91
g7
g8
sg9
F62.79984188079834
sg10
I100
sg11
I300
sa(dp92
g7
g8
sg9
F83.70320796966553
sg10
I100
sg11
I400
sa(dp93
g7
g8
sg9
F104.60700297355652
sg10
I100
sg11
I500
satp94
Rp95
(dp96
g25
I01
sg26
g31
sg32
(lp97
I3
aI5
aI30
aI9
asg34
I6
sg35
g36
(g3
tp98
Rp99
sbsS'IBEA-SIP'
p100
g2
(g3
g4
(lp101
(dp102
g7
(F0.054
F0.987
F0.022
I2
I2
tp103
sg9
F0.24469709396362305
sg10
I100
sg11
I0
sa(dp104
g7
(F0.156
F0.664
F0.038
I80
I100
tp105
sg9
F30.811050176620483
sg10
I100
sg11
I100
sa(dp106
g7
(F0.168
F0.682
F0.045
I88
I100
tp107
sg9
F61.61154818534851
sg10
I100
sg11
I200
sa(dp108
g7
(F0.177
F0.609
F0.048
I83
I100
tp109
sg9
F92.20071506500244
sg10
I100
sg11
I300
sa(dp110
g7
(F0.18
F0.616
F0.049
I79
I100
tp111
sg9
F122.27493715286255
sg10
I100
sg11
I400
sa(dp112
g7
(F0.183
F0.692
F0.051
I92
I100
tp113
sg9
F152.36534810066223
sg10
I100
sg11
I500
satp114
Rp115
(dp116
g25
I01
sg26
g31
sg32
(lp117
I3
aI5
aI30
aI9
asg34
I6
sg35
g36
(g3
tp118
Rp119
sbs.