(dp0
S'NSGA2-SIP'
p1
ccopy_reg
_reconstructor
p2
(cdeap.tools.support
Logbook
p3
c__builtin__
list
p4
(lp5
(dp6
S'hv|spread|igd|frontier#|valid#'
p7
(I0
I0
I0
I0
I0
tp8
sS'timestamp'
p9
F0.21696019172668457
sS'evals'
p10
I100
sS'gen'
p11
I0
sa(dp12
g7
(F0.152
F0.605
F0.033
I100
I100
tp13
sg9
F29.09308695793152
sg10
I100
sg11
I100
sa(dp14
g7
(F0.163
F0.671
F0.037
I100
I100
tp15
sg9
F57.58199214935303
sg10
I100
sg11
I200
sa(dp16
g7
(F0.168
F0.606
F0.039
I100
I100
tp17
sg9
F85.5560519695282
sg10
I100
sg11
I300
sa(dp18
g7
(F0.171
F0.569
F0.043
I100
I100
tp19
sg9
F113.68667602539062
sg10
I100
sg11
I400
sa(dp20
g7
(F0.174
F0.569
F0.043
I100
I100
tp21
sg9
F141.74970316886902
sg10
I100
sg11
I500
satp22
Rp23
(dp24
S'log_header'
p25
I01
sS'header'
p26
(S'gen'
p27
S'evals'
p28
S'hv|spread|igd|frontier#|valid#'
p29
S'timestamp'
p30
tp31
sS'columns_len'
p32
(lp33
I3
aI5
aI31
aI9
asS'buffindex'
p34
I6
sS'chapters'
p35
ccollections
defaultdict
p36
(g3
tp37
Rp38
sbsS'SPEA2-SIP'
p39
g2
(g3
g4
(lp40
(dp41
g7
(F0.05
F2.353
F0.03
I1
I1
tp42
sg9
F0.21924710273742676
sg10
I100
sg11
I0
sa(dp43
g7
(F0.156
F0.642
F0.049
I100
I100
tp44
sg9
F63.632611989974976
sg10
I100
sg11
I100
sa(dp45
g7
(F0.165
F0.649
F0.058
I100
I100
tp46
sg9
F136.70203018188477
sg10
I100
sg11
I200
sa(dp47
g7
(F0.17
F0.618
F0.063
I100
I100
tp48
sg9
F208.84624814987183
sg10
I100
sg11
I300
sa(dp49
g7
(F0.172
F0.61
F0.066
I100
I100
tp50
sg9
F281.3737041950226
sg10
I100
sg11
I400
sa(dp51
g7
(F0.172
F0.673
F0.067
I100
I100
tp52
sg9
F353.49148416519165
sg10
I100
sg11
I500
satp53
Rp54
(dp55
g25
I01
sg26
g31
sg32
(lp56
I3
aI5
aI31
aI9
asg34
I6
sg35
g36
(g3
tp57
Rp58
sbsS'SPEA2'
p59
g2
(g3
g4
(lp60
(dp61
g7
g8
sg9
F0.14858508110046387
sg10
I100
sg11
I0
sa(dp62
g7
g8
sg9
F70.51219010353088
sg10
I100
sg11
I100
sa(dp63
g7
g8
sg9
F160.92992401123047
sg10
I100
sg11
I200
sa(dp64
g7
g8
sg9
F250.23735094070435
sg10
I100
sg11
I300
sa(dp65
g7
g8
sg9
F343.80561208724976
sg10
I100
sg11
I400
sa(dp66
g7
g8
sg9
F441.4521360397339
sg10
I100
sg11
I500
satp67
Rp68
(dp69
g25
I01
sg26
g31
sg32
(lp70
I3
aI5
aI30
aI9
asg34
I6
sg35
g36
(g3
tp71
Rp72
sbsS'IBEA-PEN'
p73
g2
(g3
g4
(lp74
(dp75
g7
g8
sg9
F0.6151270866394043
sg10
I100
sg11
I0
sa(dp76
g7
(F0.157
F0.744
F0.026
I62
I70
tp77
sg9
F56.734036922454834
sg10
I100
sg11
I100
sa(dp78
g7
(F0.165
F0.595
F0.035
I63
I83
tp79
sg9
F114.35341787338257
sg10
I100
sg11
I200
sa(dp80
g7
(F0.167
F0.708
F0.036
I54
I72
tp81
sg9
F171.75689792633057
sg10
I100
sg11
I300
sa(dp82
g7
(F0.172
F0.707
F0.045
I56
I82
tp83
sg9
F229.23087692260742
sg10
I100
sg11
I400
sa(dp84
g7
(F0.171
F0.607
F0.043
I60
I75
tp85
sg9
F286.5973570346832
sg10
I100
sg11
I500
satp86
Rp87
(dp88
g25
I01
sg26
g31
sg32
(lp89
I3
aI5
aI30
aI9
asg34
I6
sg35
g36
(g3
tp90
Rp91
sbsS'IBEA'
p92
g2
(g3
g4
(lp93
(dp94
g7
g8
sg9
F0.14197301864624023
sg10
I100
sg11
I0
sa(dp95
g7
g8
sg9
F16.365222930908203
sg10
I100
sg11
I100
sa(dp96
g7
g8
sg9
F32.665217876434326
sg10
I100
sg11
I200
sa(dp97
g7
g8
sg9
F48.96342206001282
sg10
I100
sg11
I300
sa(dp98
g7
g8
sg9
F65.32706999778748
sg10
I100
sg11
I400
sa(dp99
g7
g8
sg9
F81.46507787704468
sg10
I100
sg11
I500
satp100
Rp101
(dp102
g25
I01
sg26
g31
sg32
(lp103
I3
aI5
aI30
aI9
asg34
I6
sg35
g36
(g3
tp104
Rp105
sbsS'NSGA2'
p106
g2
(g3
g4
(lp107
(dp108
g7
g8
sg9
F0.1437699794769287
sg10
I100
sg11
I0
sa(dp109
g7
g8
sg9
F19.29773211479187
sg10
I100
sg11
I100
sa(dp110
g7
g8
sg9
F38.44385004043579
sg10
I100
sg11
I200
sa(dp111
g7
g8
sg9
F57.62040090560913
sg10
I100
sg11
I300
sa(dp112
g7
g8
sg9
F76.82419300079346
sg10
I100
sg11
I400
sa(dp113
g7
g8
sg9
F96.06272912025452
sg10
I100
sg11
I500
satp114
Rp115
(dp116
g25
I01
sg26
g31
sg32
(lp117
I3
aI5
aI30
aI9
asg34
I6
sg35
g36
(g3
tp118
Rp119
sbsS'IBEA-SIP'
p120
g2
(g3
g4
(lp121
(dp122
g7
g8
sg9
F0.21579909324645996
sg10
I100
sg11
I0
sa(dp123
g7
(F0.154
F0.712
F0.032
I73
I100
tp124
sg9
F27.692543029785156
sg10
I100
sg11
I100
sa(dp125
g7
(F0.169
F0.699
F0.042
I79
I100
tp126
sg9
F55.30559587478638
sg10
I100
sg11
I200
sa(dp127
g7
(F0.175
F0.667
F0.045
I85
I100
tp128
sg9
F82.85726690292358
sg10
I100
sg11
I300
sa(dp129
g7
(F0.18
F0.74
F0.047
I84
I100
tp130
sg9
F109.9981369972229
sg10
I100
sg11
I400
sa(dp131
g7
(F0.18
F0.649
F0.047
I83
I100
tp132
sg9
F136.3671419620514
sg10
I100
sg11
I500
satp133
Rp134
(dp135
g25
I01
sg26
g31
sg32
(lp136
I3
aI5
aI30
aI9
asg34
I6
sg35
g36
(g3
tp137
Rp138
sbs.