(dp0
S'NSGA2-SIP'
p1
ccopy_reg
_reconstructor
p2
(cdeap.tools.support
Logbook
p3
c__builtin__
list
p4
(lp5
(dp6
S'hv|spread|igd|frontier#|valid#'
p7
(F0.05
F2.419
F0.014
I1
I1
tp8
sS'timestamp'
p9
F0.2319190502166748
sS'evals'
p10
I100
sS'gen'
p11
I0
sa(dp12
g7
(F0.15
F0.699
F0.036
I100
I100
tp13
sg9
F30.797621965408325
sg10
I100
sg11
I100
sa(dp14
g7
(F0.166
F0.581
F0.047
I100
I100
tp15
sg9
F61.88399887084961
sg10
I100
sg11
I200
sa(dp16
g7
(F0.17
F0.608
F0.049
I100
I100
tp17
sg9
F92.83372497558594
sg10
I100
sg11
I300
sa(dp18
g7
(F0.175
F0.619
F0.049
I100
I100
tp19
sg9
F123.75462102890015
sg10
I100
sg11
I400
sa(dp20
g7
(F0.176
F0.661
F0.05
I100
I100
tp21
sg9
F154.9772388935089
sg10
I100
sg11
I500
satp22
Rp23
(dp24
S'log_header'
p25
I01
sS'header'
p26
(S'gen'
p27
S'evals'
p28
S'hv|spread|igd|frontier#|valid#'
p29
S'timestamp'
p30
tp31
sS'columns_len'
p32
(lp33
I3
aI5
aI31
aI9
asS'buffindex'
p34
I6
sS'chapters'
p35
ccollections
defaultdict
p36
(g3
tp37
Rp38
sbsS'SPEA2-SIP'
p39
g2
(g3
g4
(lp40
(dp41
g7
(I0
I0
I0
I0
I0
tp42
sg9
F0.22786903381347656
sg10
I100
sg11
I0
sa(dp43
g7
(F0.16
F0.668
F0.045
I100
I100
tp44
sg9
F70.07991003990173
sg10
I100
sg11
I100
sa(dp45
g7
(F0.164
F0.638
F0.051
I100
I100
tp46
sg9
F149.6402142047882
sg10
I100
sg11
I200
sa(dp47
g7
(F0.17
F0.717
F0.056
I100
I100
tp48
sg9
F229.91996717453003
sg10
I100
sg11
I300
sa(dp49
g7
(F0.173
F0.595
F0.059
I100
I100
tp50
sg9
F310.1809570789337
sg10
I100
sg11
I400
sa(dp51
g7
(F0.177
F0.592
F0.06
I100
I100
tp52
sg9
F393.2687690258026
sg10
I100
sg11
I500
satp53
Rp54
(dp55
g25
I01
sg26
g31
sg32
(lp56
I3
aI5
aI31
aI9
asg34
I6
sg35
g36
(g3
tp57
Rp58
sbsS'SPEA2'
p59
g2
(g3
g4
(lp60
(dp61
g7
g42
sg9
F0.14945101737976074
sg10
I100
sg11
I0
sa(dp62
g7
g42
sg9
F71.5723671913147
sg10
I100
sg11
I100
sa(dp63
g7
g42
sg9
F157.83817315101624
sg10
I100
sg11
I200
sa(dp64
g7
g42
sg9
F252.5728530883789
sg10
I100
sg11
I300
sa(dp65
g7
g42
sg9
F353.53489208221436
sg10
I100
sg11
I400
sa(dp66
g7
g42
sg9
F454.8248460292816
sg10
I100
sg11
I500
satp67
Rp68
(dp69
g25
I01
sg26
g31
sg32
(lp70
I3
aI5
aI30
aI9
asg34
I6
sg35
g36
(g3
tp71
Rp72
sbsS'IBEA-PEN'
p73
g2
(g3
g4
(lp74
(dp75
g7
g42
sg9
F0.6462340354919434
sg10
I100
sg11
I0
sa(dp76
g7
(F0.159
F0.707
F0.025
I57
I74
tp77
sg9
F59.70047402381897
sg10
I100
sg11
I100
sa(dp78
g7
(F0.162
F0.674
F0.032
I72
I86
tp79
sg9
F120.34638810157776
sg10
I100
sg11
I200
sa(dp80
g7
(F0.166
F0.587
F0.039
I57
I83
tp81
sg9
F180.82036900520325
sg10
I100
sg11
I300
sa(dp82
g7
(F0.165
F0.689
F0.03
I61
I78
tp83
sg9
F241.75890803337097
sg10
I100
sg11
I400
sa(dp84
g7
(F0.173
F0.659
F0.039
I58
I88
tp85
sg9
F302.0905930995941
sg10
I100
sg11
I500
satp86
Rp87
(dp88
g25
I01
sg26
g31
sg32
(lp89
I3
aI5
aI30
aI9
asg34
I6
sg35
g36
(g3
tp90
Rp91
sbsS'IBEA'
p92
g2
(g3
g4
(lp93
(dp94
g7
g42
sg9
F0.15149807929992676
sg10
I100
sg11
I0
sa(dp95
g7
g42
sg9
F17.471399068832397
sg10
I100
sg11
I100
sa(dp96
g7
g42
sg9
F34.945106983184814
sg10
I100
sg11
I200
sa(dp97
g7
g42
sg9
F52.40504813194275
sg10
I100
sg11
I300
sa(dp98
g7
g42
sg9
F69.78787207603455
sg10
I100
sg11
I400
sa(dp99
g7
g42
sg9
F87.16013097763062
sg10
I100
sg11
I500
satp100
Rp101
(dp102
g25
I01
sg26
g31
sg32
(lp103
I3
aI5
aI30
aI9
asg34
I6
sg35
g36
(g3
tp104
Rp105
sbsS'NSGA2'
p106
g2
(g3
g4
(lp107
(dp108
g7
g42
sg9
F0.15072417259216309
sg10
I100
sg11
I0
sa(dp109
g7
g42
sg9
F20.260348081588745
sg10
I100
sg11
I100
sa(dp110
g7
g42
sg9
F40.412660121917725
sg10
I100
sg11
I200
sa(dp111
g7
g42
sg9
F60.589893102645874
sg10
I100
sg11
I300
sa(dp112
g7
g42
sg9
F80.81675314903259
sg10
I100
sg11
I400
sa(dp113
g7
g42
sg9
F100.96662616729736
sg10
I100
sg11
I500
satp114
Rp115
(dp116
g25
I01
sg26
g31
sg32
(lp117
I3
aI5
aI30
aI9
asg34
I6
sg35
g36
(g3
tp118
Rp119
sbsS'IBEA-SIP'
p120
g2
(g3
g4
(lp121
(dp122
g7
g42
sg9
F0.2283620834350586
sg10
I100
sg11
I0
sa(dp123
g7
(F0.152
F0.653
F0.033
I76
I100
tp124
sg9
F29.258975982666016
sg10
I100
sg11
I100
sa(dp125
g7
(F0.168
F0.631
F0.042
I86
I100
tp126
sg9
F58.329384088516235
sg10
I100
sg11
I200
sa(dp127
g7
(F0.177
F0.677
F0.046
I80
I100
tp128
sg9
F87.24267888069153
sg10
I100
sg11
I300
sa(dp129
g7
(F0.183
F0.633
F0.049
I81
I100
tp130
sg9
F115.92048287391663
sg10
I100
sg11
I400
sa(dp131
g7
(F0.185
F0.727
F0.051
I86
I100
tp132
sg9
F144.63429498672485
sg10
I100
sg11
I500
satp133
Rp134
(dp135
g25
I01
sg26
g31
sg32
(lp136
I3
aI5
aI30
aI9
asg34
I6
sg35
g36
(g3
tp137
Rp138
sbs.