(dp0
S'NSGA2-SIP'
p1
ccopy_reg
_reconstructor
p2
(cdeap.tools.support
Logbook
p3
c__builtin__
list
p4
(lp5
(dp6
S'hv|spread|igd|frontier#|valid#'
p7
(I0
I0
I0
I0
I0
tp8
sS'timestamp'
p9
F0.23981904983520508
sS'evals'
p10
I100
sS'gen'
p11
I0
sa(dp12
g7
(F0.151
F0.667
F0.034
I100
I100
tp13
sg9
F32.162681102752686
sg10
I100
sg11
I100
sa(dp14
g7
(F0.163
F0.688
F0.041
I100
I100
tp15
sg9
F64.79118704795837
sg10
I100
sg11
I200
sa(dp16
g7
(F0.169
F0.555
F0.044
I100
I100
tp17
sg9
F97.03317999839783
sg10
I100
sg11
I300
sa(dp18
g7
(F0.176
F0.598
F0.046
I100
I100
tp19
sg9
F129.3505139350891
sg10
I100
sg11
I400
sa(dp20
g7
(F0.178
F0.597
F0.042
I100
I100
tp21
sg9
F161.88908910751343
sg10
I100
sg11
I500
satp22
Rp23
(dp24
S'log_header'
p25
I01
sS'header'
p26
(S'gen'
p27
S'evals'
p28
S'hv|spread|igd|frontier#|valid#'
p29
S'timestamp'
p30
tp31
sS'columns_len'
p32
(lp33
I3
aI5
aI31
aI9
asS'buffindex'
p34
I6
sS'chapters'
p35
ccollections
defaultdict
p36
(g3
tp37
Rp38
sbsS'SPEA2-SIP'
p39
g2
(g3
g4
(lp40
(dp41
g7
g8
sg9
F0.24011898040771484
sg10
I100
sg11
I0
sa(dp42
g7
(F0.158
F0.62
F0.051
I100
I100
tp43
sg9
F77.45025491714478
sg10
I100
sg11
I100
sa(dp44
g7
(F0.166
F0.707
F0.061
I100
I100
tp45
sg9
F161.49093079566956
sg10
I100
sg11
I200
sa(dp46
g7
(F0.17
F0.626
F0.065
I100
I100
tp47
sg9
F246.09159898757935
sg10
I100
sg11
I300
sa(dp48
g7
(F0.173
F0.665
F0.067
I100
I100
tp49
sg9
F333.16240978240967
sg10
I100
sg11
I400
sa(dp50
g7
(F0.175
F0.587
F0.067
I100
I100
tp51
sg9
F423.46807384490967
sg10
I100
sg11
I500
satp52
Rp53
(dp54
g25
I01
sg26
g31
sg32
(lp55
I3
aI5
aI31
aI9
asg34
I6
sg35
g36
(g3
tp56
Rp57
sbsS'SPEA2'
p58
g2
(g3
g4
(lp59
(dp60
g7
g8
sg9
F0.1567399501800537
sg10
I100
sg11
I0
sa(dp61
g7
g8
sg9
F81.24358010292053
sg10
I100
sg11
I100
sa(dp62
g7
g8
sg9
F183.69397902488708
sg10
I100
sg11
I200
sa(dp63
g7
g8
sg9
F293.51285910606384
sg10
I100
sg11
I300
sa(dp64
g7
g8
sg9
F407.9116380214691
sg10
I100
sg11
I400
sa(dp65
g7
g8
sg9
F534.3990089893341
sg10
I100
sg11
I500
satp66
Rp67
(dp68
g25
I01
sg26
g31
sg32
(lp69
I3
aI5
aI30
aI9
asg34
I6
sg35
g36
(g3
tp70
Rp71
sbsS'IBEA'
p72
g2
(g3
g4
(lp73
(dp74
g7
g8
sg9
F0.15697193145751953
sg10
I100
sg11
I0
sa(dp75
g7
g8
sg9
F18.15037703514099
sg10
I100
sg11
I100
sa(dp76
g7
g8
sg9
F36.16078495979309
sg10
I100
sg11
I200
sa(dp77
g7
g8
sg9
F54.15434288978577
sg10
I100
sg11
I300
sa(dp78
g7
g8
sg9
F72.20155692100525
sg10
I100
sg11
I400
sa(dp79
g7
g8
sg9
F90.35592293739319
sg10
I100
sg11
I500
satp80
Rp81
(dp82
g25
I01
sg26
g31
sg32
(lp83
I3
aI5
aI30
aI9
asg34
I6
sg35
g36
(g3
tp84
Rp85
sbsS'NSGA2'
p86
g2
(g3
g4
(lp87
(dp88
g7
g8
sg9
F0.15696501731872559
sg10
I100
sg11
I0
sa(dp89
g7
g8
sg9
F21.21042490005493
sg10
I100
sg11
I100
sa(dp90
g7
g8
sg9
F42.34127497673035
sg10
I100
sg11
I200
sa(dp91
g7
g8
sg9
F63.4786651134491
sg10
I100
sg11
I300
sa(dp92
g7
g8
sg9
F84.56788206100464
sg10
I100
sg11
I400
sa(dp93
g7
g8
sg9
F105.63923406600952
sg10
I100
sg11
I500
satp94
Rp95
(dp96
g25
I01
sg26
g31
sg32
(lp97
I3
aI5
aI30
aI9
asg34
I6
sg35
g36
(g3
tp98
Rp99
sbsS'IBEA-SIP'
p100
g2
(g3
g4
(lp101
(dp102
g7
g8
sg9
F0.23876595497131348
sg10
I100
sg11
I0
sa(dp103
g7
(F0.156
F0.705
F0.04
I75
I100
tp104
sg9
F30.113547801971436
sg10
I100
sg11
I100
sa(dp105
g7
(F0.167
F0.682
F0.044
I89
I100
tp106
sg9
F60.49862098693848
sg10
I100
sg11
I200
sa(dp107
g7
(F0.172
F0.607
F0.049
I88
I100
tp108
sg9
F90.84897089004517
sg10
I100
sg11
I300
sa(dp109
g7
(F0.176
F0.704
F0.048
I86
I100
tp110
sg9
F120.98709177970886
sg10
I100
sg11
I400
sa(dp111
g7
(F0.178
F0.604
F0.05
I79
I100
tp112
sg9
F151.0154309272766
sg10
I100
sg11
I500
satp113
Rp114
(dp115
g25
I01
sg26
g31
sg32
(lp116
I3
aI5
aI30
aI9
asg34
I6
sg35
g36
(g3
tp117
Rp118
sbs.