(dp0
S'NSGA2-SIP'
p1
ccopy_reg
_reconstructor
p2
(cdeap.tools.support
Logbook
p3
c__builtin__
list
p4
(lp5
(dp6
S'hv|spread|igd|frontier#|valid#'
p7
(F0.079
F0.985
F0.043
I3
I3
tp8
sS'timestamp'
p9
F0.10093307495117188
sS'evals'
p10
I100
sS'gen'
p11
I0
sa(dp12
g7
(F0.159
F0.679
F0.052
I100
I100
tp13
sg9
F14.632503986358643
sg10
I100
sg11
I100
sa(dp14
g7
(F0.169
F0.629
F0.064
I100
I100
tp15
sg9
F29.460134983062744
sg10
I100
sg11
I200
sa(dp16
g7
(F0.172
F0.616
F0.064
I100
I100
tp17
sg9
F44.03228807449341
sg10
I100
sg11
I300
sa(dp18
g7
(F0.178
F0.573
F0.065
I100
I100
tp19
sg9
F58.50847506523132
sg10
I100
sg11
I400
sa(dp20
g7
(F0.179
F0.622
F0.065
I100
I100
tp21
sg9
F72.99567890167236
sg10
I100
sg11
I500
satp22
Rp23
(dp24
S'log_header'
p25
I01
sS'header'
p26
(S'gen'
p27
S'evals'
p28
S'hv|spread|igd|frontier#|valid#'
p29
S'timestamp'
p30
tp31
sS'columns_len'
p32
(lp33
I3
aI5
aI31
aI9
asS'buffindex'
p34
I6
sS'chapters'
p35
ccollections
defaultdict
p36
(g3
tp37
Rp38
sbsS'SPEA2-SIP'
p39
g2
(g3
g4
(lp40
(dp41
g7
(I0
I0
I0
I0
I0
tp42
sg9
F0.09197783470153809
sg10
I100
sg11
I0
sa(dp43
g7
(F0.158
F0.644
F0.076
I100
I100
tp44
sg9
F58.648836851119995
sg10
I100
sg11
I100
sa(dp45
g7
(F0.167
F0.673
F0.09
I100
I100
tp46
sg9
F129.63034892082214
sg10
I100
sg11
I200
sa(dp47
g7
(F0.172
F0.647
F0.09
I100
I100
tp48
sg9
F200.89608502388
sg10
I100
sg11
I300
sa(dp49
g7
(F0.174
F0.654
F0.094
I100
I100
tp50
sg9
F274.455374956131
sg10
I100
sg11
I400
sa(dp51
g7
(F0.174
F0.664
F0.093
I100
I100
tp52
sg9
F349.7219908237457
sg10
I100
sg11
I500
satp53
Rp54
(dp55
g25
I01
sg26
g31
sg32
(lp56
I3
aI5
aI31
aI9
asg34
I6
sg35
g36
(g3
tp57
Rp58
sbsS'SPEA2'
p59
g2
(g3
g4
(lp60
(dp61
g7
g42
sg9
F0.11482906341552734
sg10
I100
sg11
I0
sa(dp62
g7
g42
sg9
F91.32288694381714
sg10
I100
sg11
I100
sa(dp63
g7
g42
sg9
F209.4881250858307
sg10
I100
sg11
I200
sa(dp64
g7
g42
sg9
F340.653470993042
sg10
I100
sg11
I300
sa(dp65
g7
g42
sg9
F469.2099599838257
sg10
I100
sg11
I400
sa(dp66
g7
g42
sg9
F605.2259931564331
sg10
I100
sg11
I500
satp67
Rp68
(dp69
g25
I01
sg26
g31
sg32
(lp70
I3
aI5
aI30
aI9
asg34
I6
sg35
g36
(g3
tp71
Rp72
sbsS'IBEA-PEN'
p73
g2
(g3
g4
(lp74
(dp75
g7
(F0.017
F2.025
F0.03
I1
I1
tp76
sg9
F0.22801613807678223
sg10
I100
sg11
I0
sa(dp77
g7
(F0.17
F0.589
F0.034
I59
I70
tp78
sg9
F21.31519603729248
sg10
I100
sg11
I100
sa(dp79
g7
(F0.172
F0.736
F0.034
I55
I67
tp80
sg9
F42.572046995162964
sg10
I100
sg11
I200
sa(dp81
g7
(F0.175
F0.673
F0.035
I49
I67
tp82
sg9
F63.84014010429382
sg10
I100
sg11
I300
sa(dp83
g7
(F0.182
F0.646
F0.041
I76
I89
tp84
sg9
F85.35292506217957
sg10
I100
sg11
I400
sa(dp85
g7
(F0.183
F0.611
F0.058
I65
I83
tp86
sg9
F106.96057105064392
sg10
I100
sg11
I500
satp87
Rp88
(dp89
g25
I01
sg26
g31
sg32
(lp90
I3
aI5
aI30
aI9
asg34
I6
sg35
g36
(g3
tp91
Rp92
sbsS'IBEA'
p93
g2
(g3
g4
(lp94
(dp95
g7
g42
sg9
F0.11218094825744629
sg10
I100
sg11
I0
sa(dp96
g7
g42
sg9
F14.499531030654907
sg10
I100
sg11
I100
sa(dp97
g7
g42
sg9
F28.986615896224976
sg10
I100
sg11
I200
sa(dp98
g7
g42
sg9
F43.448288917541504
sg10
I100
sg11
I300
sa(dp99
g7
g42
sg9
F57.88995385169983
sg10
I100
sg11
I400
sa(dp100
g7
g42
sg9
F72.34935188293457
sg10
I100
sg11
I500
satp101
Rp102
(dp103
g25
I01
sg26
g31
sg32
(lp104
I3
aI5
aI30
aI9
asg34
I6
sg35
g36
(g3
tp105
Rp106
sbsS'NSGA2'
p107
g2
(g3
g4
(lp108
(dp109
g7
g42
sg9
F0.11296510696411133
sg10
I100
sg11
I0
sa(dp110
g7
g42
sg9
F17.570954084396362
sg10
I100
sg11
I100
sa(dp111
g7
g42
sg9
F35.11342906951904
sg10
I100
sg11
I200
sa(dp112
g7
g42
sg9
F52.74066615104675
sg10
I100
sg11
I300
sa(dp113
g7
g42
sg9
F70.32968306541443
sg10
I100
sg11
I400
sa(dp114
g7
g42
sg9
F87.96390295028687
sg10
I100
sg11
I500
satp115
Rp116
(dp117
g25
I01
sg26
g31
sg32
(lp118
I3
aI5
aI30
aI9
asg34
I6
sg35
g36
(g3
tp119
Rp120
sbsS'IBEA-SIP'
p121
g2
(g3
g4
(lp122
(dp123
g7
g42
sg9
F0.09320783615112305
sg10
I100
sg11
I0
sa(dp124
g7
(F0.154
F0.597
F0.061
I88
I100
tp125
sg9
F12.80846881866455
sg10
I100
sg11
I100
sa(dp126
g7
(F0.166
F0.596
F0.071
I82
I100
tp127
sg9
F25.41285991668701
sg10
I100
sg11
I200
sa(dp128
g7
(F0.174
F0.609
F0.071
I91
I100
tp129
sg9
F38.01145601272583
sg10
I100
sg11
I300
sa(dp130
g7
(F0.178
F0.688
F0.072
I90
I100
tp131
sg9
F50.67475390434265
sg10
I100
sg11
I400
sa(dp132
g7
(F0.179
F0.661
F0.066
I88
I100
tp133
sg9
F63.342604875564575
sg10
I100
sg11
I500
satp134
Rp135
(dp136
g25
I01
sg26
g31
sg32
(lp137
I3
aI5
aI30
aI9
asg34
I6
sg35
g36
(g3
tp138
Rp139
sbs.