(dp0
S'NSGA2-SIP'
p1
ccopy_reg
_reconstructor
p2
(cdeap.tools.support
Logbook
p3
c__builtin__
list
p4
(lp5
(dp6
S'hv|spread|igd|frontier#|valid#'
p7
(F0.055
F1.08
F0.05
I1
I1
tp8
sS'timestamp'
p9
F0.10274505615234375
sS'evals'
p10
I100
sS'gen'
p11
I0
sa(dp12
g7
(F0.147
F0.671
F0.058
I100
I100
tp13
sg9
F16.263100147247314
sg10
I100
sg11
I100
sa(dp14
g7
(F0.161
F0.601
F0.06
I100
I100
tp15
sg9
F32.70785117149353
sg10
I100
sg11
I200
sa(dp16
g7
(F0.166
F0.695
F0.063
I100
I100
tp17
sg9
F49.059556007385254
sg10
I100
sg11
I300
sa(dp18
g7
(F0.166
F0.605
F0.06
I100
I100
tp19
sg9
F65.27817797660828
sg10
I100
sg11
I400
sa(dp20
g7
(F0.175
F0.671
F0.06
I100
I100
tp21
sg9
F81.4444990158081
sg10
I100
sg11
I500
satp22
Rp23
(dp24
S'log_header'
p25
I01
sS'header'
p26
(S'gen'
p27
S'evals'
p28
S'hv|spread|igd|frontier#|valid#'
p29
S'timestamp'
p30
tp31
sS'columns_len'
p32
(lp33
I3
aI5
aI31
aI9
asS'buffindex'
p34
I6
sS'chapters'
p35
ccollections
defaultdict
p36
(g3
tp37
Rp38
sbsS'SPEA2-SIP'
p39
g2
(g3
g4
(lp40
(dp41
g7
(I0
I0
I0
I0
I0
tp42
sg9
F0.0999290943145752
sg10
I100
sg11
I0
sa(dp43
g7
(F0.142
F0.682
F0.086
I100
I100
tp44
sg9
F61.52309989929199
sg10
I100
sg11
I100
sa(dp45
g7
(F0.15
F0.617
F0.094
I100
I100
tp46
sg9
F130.41593503952026
sg10
I100
sg11
I200
sa(dp47
g7
(F0.164
F0.637
F0.097
I100
I100
tp48
sg9
F200.385812997818
sg10
I100
sg11
I300
sa(dp49
g7
(F0.166
F0.673
F0.098
I100
I100
tp50
sg9
F276.29482102394104
sg10
I100
sg11
I400
sa(dp51
g7
(F0.168
F0.636
F0.097
I100
I100
tp52
sg9
F354.8099648952484
sg10
I100
sg11
I500
satp53
Rp54
(dp55
g25
I01
sg26
g31
sg32
(lp56
I3
aI5
aI31
aI9
asg34
I6
sg35
g36
(g3
tp57
Rp58
sbsS'SPEA2'
p59
g2
(g3
g4
(lp60
(dp61
g7
g42
sg9
F0.1349189281463623
sg10
I100
sg11
I0
sa(dp62
g7
g42
sg9
F102.21001696586609
sg10
I100
sg11
I100
sa(dp63
g7
g42
sg9
F218.04111981391907
sg10
I100
sg11
I200
sa(dp64
g7
g42
sg9
F336.59261989593506
sg10
I100
sg11
I300
sa(dp65
g7
g42
sg9
F473.96383595466614
sg10
I100
sg11
I400
sa(dp66
g7
g42
sg9
F607.1806228160858
sg10
I100
sg11
I500
satp67
Rp68
(dp69
g25
I01
sg26
g31
sg32
(lp70
I3
aI5
aI30
aI9
asg34
I6
sg35
g36
(g3
tp71
Rp72
sbsS'IBEA-PEN'
p73
g2
(g3
g4
(lp74
(dp75
g7
(F0.078
F0.857
F0.028
I2
I2
tp76
sg9
F0.27985715866088867
sg10
I100
sg11
I0
sa(dp77
g7
(F0.026
F0.99
F0.007
I2
I2
tp78
sg9
F16.53366708755493
sg10
I100
sg11
I100
sa(dp79
g7
(F0.025
F2.036
F0.0
I1
I1
tp80
sg9
F32.749059200286865
sg10
I100
sg11
I200
sa(dp81
g7
g42
sg9
F48.99583315849304
sg10
I100
sg11
I300
sa(dp82
g7
g42
sg9
F65.26646018028259
sg10
I100
sg11
I400
sa(dp83
g7
g42
sg9
F81.53628420829773
sg10
I100
sg11
I500
satp84
Rp85
(dp86
g25
I01
sg26
g31
sg32
(lp87
I3
aI5
aI30
aI9
asg34
I6
sg35
g36
(g3
tp88
Rp89
sbsS'IBEA'
p90
g2
(g3
g4
(lp91
(dp92
g7
g42
sg9
F0.12714385986328125
sg10
I100
sg11
I0
sa(dp93
g7
g42
sg9
F15.941495895385742
sg10
I100
sg11
I100
sa(dp94
g7
g42
sg9
F31.788673877716064
sg10
I100
sg11
I200
sa(dp95
g7
g42
sg9
F47.558395862579346
sg10
I100
sg11
I300
sa(dp96
g7
g42
sg9
F63.41638493537903
sg10
I100
sg11
I400
sa(dp97
g7
g42
sg9
F79.24562883377075
sg10
I100
sg11
I500
satp98
Rp99
(dp100
g25
I01
sg26
g31
sg32
(lp101
I3
aI5
aI30
aI9
asg34
I6
sg35
g36
(g3
tp102
Rp103
sbsS'NSGA2'
p104
g2
(g3
g4
(lp105
(dp106
g7
g42
sg9
F0.12396621704101562
sg10
I100
sg11
I0
sa(dp107
g7
g42
sg9
F20.283420085906982
sg10
I100
sg11
I100
sa(dp108
g7
g42
sg9
F40.587666034698486
sg10
I100
sg11
I200
sa(dp109
g7
g42
sg9
F61.01826214790344
sg10
I100
sg11
I300
sa(dp110
g7
g42
sg9
F81.4995231628418
sg10
I100
sg11
I400
sa(dp111
g7
g42
sg9
F102.03015899658203
sg10
I100
sg11
I500
satp112
Rp113
(dp114
g25
I01
sg26
g31
sg32
(lp115
I3
aI5
aI30
aI9
asg34
I6
sg35
g36
(g3
tp116
Rp117
sbsS'IBEA-SIP'
p118
g2
(g3
g4
(lp119
(dp120
g7
(F0.06
F1.0
F0.03
I1
I1
tp121
sg9
F0.10307693481445312
sg10
I100
sg11
I0
sa(dp122
g7
(F0.161
F0.706
F0.062
I87
I100
tp123
sg9
F13.883262872695923
sg10
I100
sg11
I100
sa(dp124
g7
(F0.168
F0.647
F0.067
I88
I100
tp125
sg9
F27.367461919784546
sg10
I100
sg11
I200
sa(dp126
g7
(F0.175
F0.608
F0.074
I91
I100
tp127
sg9
F40.88349008560181
sg10
I100
sg11
I300
sa(dp128
g7
(F0.177
F0.726
F0.075
I92
I100
tp129
sg9
F54.54785895347595
sg10
I100
sg11
I400
sa(dp130
g7
(F0.181
F0.61
F0.071
I94
I100
tp131
sg9
F68.28776907920837
sg10
I100
sg11
I500
satp132
Rp133
(dp134
g25
I01
sg26
g31
sg32
(lp135
I3
aI5
aI30
aI9
asg34
I6
sg35
g36
(g3
tp136
Rp137
sbs.