(dp0
S'NSGA2-SIP'
p1
ccopy_reg
_reconstructor
p2
(cdeap.tools.support
Logbook
p3
c__builtin__
list
p4
(lp5
(dp6
S'hv|spread|igd|frontier#|valid#'
p7
(F0.066
F0.995
F0.026
I2
I2
tp8
sS'timestamp'
p9
F0.09539103507995605
sS'evals'
p10
I100
sS'gen'
p11
I0
sa(dp12
g7
(F0.148
F0.692
F0.061
I100
I100
tp13
sg9
F13.923805952072144
sg10
I100
sg11
I100
sa(dp14
g7
(F0.164
F0.644
F0.07
I100
I100
tp15
sg9
F28.23206400871277
sg10
I100
sg11
I200
sa(dp16
g7
(F0.17
F0.654
F0.064
I100
I100
tp17
sg9
F42.325186014175415
sg10
I100
sg11
I300
sa(dp18
g7
(F0.171
F0.657
F0.064
I100
I100
tp19
sg9
F56.429627895355225
sg10
I100
sg11
I400
sa(dp20
g7
(F0.176
F0.611
F0.064
I100
I100
tp21
sg9
F70.33855605125427
sg10
I100
sg11
I500
satp22
Rp23
(dp24
S'log_header'
p25
I01
sS'header'
p26
(S'gen'
p27
S'evals'
p28
S'hv|spread|igd|frontier#|valid#'
p29
S'timestamp'
p30
tp31
sS'columns_len'
p32
(lp33
I3
aI5
aI31
aI9
asS'buffindex'
p34
I6
sS'chapters'
p35
ccollections
defaultdict
p36
(g3
tp37
Rp38
sbsS'SPEA2-SIP'
p39
g2
(g3
g4
(lp40
(dp41
g7
(F0.059
F2.254
F0.039
I1
I1
tp42
sg9
F0.09179306030273438
sg10
I100
sg11
I0
sa(dp43
g7
(F0.149
F0.643
F0.091
I100
I100
tp44
sg9
F49.11854004859924
sg10
I100
sg11
I100
sa(dp45
g7
(F0.157
F0.684
F0.095
I100
I100
tp46
sg9
F107.26148509979248
sg10
I100
sg11
I200
sa(dp47
g7
(F0.158
F0.633
F0.093
I100
I100
tp48
sg9
F166.45280194282532
sg10
I100
sg11
I300
sa(dp49
g7
(F0.167
F0.636
F0.098
I100
I100
tp50
sg9
F228.64900493621826
sg10
I100
sg11
I400
sa(dp51
g7
(F0.169
F0.615
F0.094
I100
I100
tp52
sg9
F292.05142402648926
sg10
I100
sg11
I500
satp53
Rp54
(dp55
g25
I01
sg26
g31
sg32
(lp56
I3
aI5
aI31
aI9
asg34
I6
sg35
g36
(g3
tp57
Rp58
sbsS'SPEA2'
p59
g2
(g3
g4
(lp60
(dp61
g7
(I0
I0
I0
I0
I0
tp62
sg9
F0.10865616798400879
sg10
I100
sg11
I0
sa(dp63
g7
g62
sg9
F91.32626509666443
sg10
I100
sg11
I100
sa(dp64
g7
g62
sg9
F203.83635306358337
sg10
I100
sg11
I200
sa(dp65
g7
g62
sg9
F321.28380012512207
sg10
I100
sg11
I300
sa(dp66
g7
g62
sg9
F446.35139894485474
sg10
I100
sg11
I400
sa(dp67
g7
g62
sg9
F570.8331439495087
sg10
I100
sg11
I500
satp68
Rp69
(dp70
g25
I01
sg26
g31
sg32
(lp71
I3
aI5
aI30
aI9
asg34
I6
sg35
g36
(g3
tp72
Rp73
sbsS'IBEA-PEN'
p74
g2
(g3
g4
(lp75
(dp76
g7
(F0.081
F0.917
F0.027
I3
I3
tp77
sg9
F0.22400712966918945
sg10
I100
sg11
I0
sa(dp78
g7
(F0.166
F0.619
F0.038
I50
I63
tp79
sg9
F20.15511202812195
sg10
I100
sg11
I100
sa(dp80
g7
(F0.165
F0.796
F0.038
I56
I74
tp81
sg9
F40.36434316635132
sg10
I100
sg11
I200
sa(dp82
g7
(F0.178
F0.7
F0.035
I57
I73
tp83
sg9
F60.62835097312927
sg10
I100
sg11
I300
sa(dp84
g7
(F0.178
F0.606
F0.043
I51
I72
tp85
sg9
F80.48670697212219
sg10
I100
sg11
I400
sa(dp86
g7
(F0.179
F0.712
F0.043
I57
I73
tp87
sg9
F100.73950004577637
sg10
I100
sg11
I500
satp88
Rp89
(dp90
g25
I01
sg26
g31
sg32
(lp91
I3
aI5
aI30
aI9
asg34
I6
sg35
g36
(g3
tp92
Rp93
sbsS'IBEA'
p94
g2
(g3
g4
(lp95
(dp96
g7
g62
sg9
F0.10859799385070801
sg10
I100
sg11
I0
sa(dp97
g7
g62
sg9
F13.824272871017456
sg10
I100
sg11
I100
sa(dp98
g7
g62
sg9
F27.613574981689453
sg10
I100
sg11
I200
sa(dp99
g7
g62
sg9
F41.3392219543457
sg10
I100
sg11
I300
sa(dp100
g7
g62
sg9
F55.21668481826782
sg10
I100
sg11
I400
sa(dp101
g7
g62
sg9
F69.12814283370972
sg10
I100
sg11
I500
satp102
Rp103
(dp104
g25
I01
sg26
g31
sg32
(lp105
I3
aI5
aI30
aI9
asg34
I6
sg35
g36
(g3
tp106
Rp107
sbsS'NSGA2'
p108
g2
(g3
g4
(lp109
(dp110
g7
g62
sg9
F0.10895299911499023
sg10
I100
sg11
I0
sa(dp111
g7
g62
sg9
F16.836573123931885
sg10
I100
sg11
I100
sa(dp112
g7
g62
sg9
F33.721009969711304
sg10
I100
sg11
I200
sa(dp113
g7
g62
sg9
F50.53832793235779
sg10
I100
sg11
I300
sa(dp114
g7
g62
sg9
F67.18304800987244
sg10
I100
sg11
I400
sa(dp115
g7
g62
sg9
F84.07861399650574
sg10
I100
sg11
I500
satp116
Rp117
(dp118
g25
I01
sg26
g31
sg32
(lp119
I3
aI5
aI30
aI9
asg34
I6
sg35
g36
(g3
tp120
Rp121
sbsS'IBEA-SIP'
p122
g2
(g3
g4
(lp123
(dp124
g7
g62
sg9
F0.08966994285583496
sg10
I100
sg11
I0
sa(dp125
g7
(F0.147
F0.634
F0.059
I80
I100
tp126
sg9
F11.993772983551025
sg10
I100
sg11
I100
sa(dp127
g7
(F0.162
F0.63
F0.068
I85
I100
tp128
sg9
F24.217082023620605
sg10
I100
sg11
I200
sa(dp129
g7
(F0.167
F0.624
F0.071
I87
I100
tp130
sg9
F36.116729974746704
sg10
I100
sg11
I300
sa(dp131
g7
(F0.172
F0.737
F0.068
I81
I100
tp132
sg9
F48.194648027420044
sg10
I100
sg11
I400
sa(dp133
g7
(F0.174
F0.615
F0.07
I91
I100
tp134
sg9
F60.50259494781494
sg10
I100
sg11
I500
satp135
Rp136
(dp137
g25
I01
sg26
g31
sg32
(lp138
I3
aI5
aI30
aI9
asg34
I6
sg35
g36
(g3
tp139
Rp140
sbs.