(dp0
S'NSGA2-SIP'
p1
ccopy_reg
_reconstructor
p2
(cdeap.tools.support
Logbook
p3
c__builtin__
list
p4
(lp5
(dp6
S'hv|spread|igd|frontier#|valid#'
p7
(I0
I0
I0
I0
I0
tp8
sS'timestamp'
p9
F0.09285211563110352
sS'evals'
p10
I100
sS'gen'
p11
I0
sa(dp12
g7
(F0.153
F0.578
F0.058
I100
I100
tp13
sg9
F14.466957092285156
sg10
I100
sg11
I100
sa(dp14
g7
(F0.16
F0.651
F0.063
I100
I100
tp15
sg9
F29.0943500995636
sg10
I100
sg11
I200
sa(dp16
g7
(F0.162
F0.526
F0.061
I100
I100
tp17
sg9
F43.41991114616394
sg10
I100
sg11
I300
sa(dp18
g7
(F0.165
F0.596
F0.059
I100
I100
tp19
sg9
F57.948760986328125
sg10
I100
sg11
I400
sa(dp20
g7
(F0.166
F0.63
F0.059
I100
I100
tp21
sg9
F72.23928308486938
sg10
I100
sg11
I500
satp22
Rp23
(dp24
S'log_header'
p25
I01
sS'header'
p26
(S'gen'
p27
S'evals'
p28
S'hv|spread|igd|frontier#|valid#'
p29
S'timestamp'
p30
tp31
sS'columns_len'
p32
(lp33
I3
aI5
aI31
aI9
asS'buffindex'
p34
I6
sS'chapters'
p35
ccollections
defaultdict
p36
(g3
tp37
Rp38
sbsS'SPEA2-SIP'
p39
g2
(g3
g4
(lp40
(dp41
g7
(F0.061
F0.991
F0.04
I2
I2
tp42
sg9
F0.0987551212310791
sg10
I100
sg11
I0
sa(dp43
g7
(F0.159
F0.649
F0.089
I100
I100
tp44
sg9
F54.17136812210083
sg10
I100
sg11
I100
sa(dp45
g7
(F0.167
F0.616
F0.092
I100
I100
tp46
sg9
F121.79091095924377
sg10
I100
sg11
I200
sa(dp47
g7
(F0.169
F0.607
F0.093
I100
I100
tp48
sg9
F191.3421230316162
sg10
I100
sg11
I300
sa(dp49
g7
(F0.171
F0.628
F0.094
I100
I100
tp50
sg9
F260.5405740737915
sg10
I100
sg11
I400
sa(dp51
g7
(F0.173
F0.585
F0.095
I100
I100
tp52
sg9
F334.5177779197693
sg10
I100
sg11
I500
satp53
Rp54
(dp55
g25
I01
sg26
g31
sg32
(lp56
I3
aI5
aI31
aI9
asg34
I6
sg35
g36
(g3
tp57
Rp58
sbsS'SPEA2'
p59
g2
(g3
g4
(lp60
(dp61
g7
g8
sg9
F0.11185193061828613
sg10
I100
sg11
I0
sa(dp62
g7
g8
sg9
F101.53268790245056
sg10
I100
sg11
I100
sa(dp63
g7
g8
sg9
F219.09282898902893
sg10
I100
sg11
I200
sa(dp64
g7
g8
sg9
F339.999351978302
sg10
I100
sg11
I300
sa(dp65
g7
g8
sg9
F466.30213499069214
sg10
I100
sg11
I400
sa(dp66
g7
g8
sg9
F593.9744689464569
sg10
I100
sg11
I500
satp67
Rp68
(dp69
g25
I01
sg26
g31
sg32
(lp70
I3
aI5
aI30
aI9
asg34
I6
sg35
g36
(g3
tp71
Rp72
sbsS'IBEA-PEN'
p73
g2
(g3
g4
(lp74
(dp75
g7
(F0.082
F0.853
F0.02
I2
I2
tp76
sg9
F0.23033499717712402
sg10
I100
sg11
I0
sa(dp77
g7
(F0.162
F0.61
F0.032
I53
I70
tp78
sg9
F21.322526931762695
sg10
I100
sg11
I100
sa(dp79
g7
(F0.169
F0.648
F0.04
I57
I76
tp80
sg9
F42.669575929641724
sg10
I100
sg11
I200
sa(dp81
g7
(F0.171
F0.661
F0.049
I54
I71
tp82
sg9
F64.03656482696533
sg10
I100
sg11
I300
sa(dp83
g7
(F0.176
F0.663
F0.049
I56
I74
tp84
sg9
F85.459969997406
sg10
I100
sg11
I400
sa(dp85
g7
(F0.177
F0.602
F0.056
I52
I80
tp86
sg9
F106.86687994003296
sg10
I100
sg11
I500
satp87
Rp88
(dp89
g25
I01
sg26
g31
sg32
(lp90
I3
aI5
aI30
aI9
asg34
I6
sg35
g36
(g3
tp91
Rp92
sbsS'IBEA'
p93
g2
(g3
g4
(lp94
(dp95
g7
g8
sg9
F0.11249899864196777
sg10
I100
sg11
I0
sa(dp96
g7
g8
sg9
F14.490257978439331
sg10
I100
sg11
I100
sa(dp97
g7
g8
sg9
F29.011965036392212
sg10
I100
sg11
I200
sa(dp98
g7
g8
sg9
F43.452800035476685
sg10
I100
sg11
I300
sa(dp99
g7
g8
sg9
F57.886492013931274
sg10
I100
sg11
I400
sa(dp100
g7
g8
sg9
F72.33053302764893
sg10
I100
sg11
I500
satp101
Rp102
(dp103
g25
I01
sg26
g31
sg32
(lp104
I3
aI5
aI30
aI9
asg34
I6
sg35
g36
(g3
tp105
Rp106
sbsS'NSGA2'
p107
g2
(g3
g4
(lp108
(dp109
g7
g8
sg9
F0.11983394622802734
sg10
I100
sg11
I0
sa(dp110
g7
g8
sg9
F17.783629894256592
sg10
I100
sg11
I100
sa(dp111
g7
g8
sg9
F35.35787796974182
sg10
I100
sg11
I200
sa(dp112
g7
g8
sg9
F52.97869300842285
sg10
I100
sg11
I300
sa(dp113
g7
g8
sg9
F70.71833896636963
sg10
I100
sg11
I400
sa(dp114
g7
g8
sg9
F88.50013184547424
sg10
I100
sg11
I500
satp115
Rp116
(dp117
g25
I01
sg26
g31
sg32
(lp118
I3
aI5
aI30
aI9
asg34
I6
sg35
g36
(g3
tp119
Rp120
sbsS'IBEA-SIP'
p121
g2
(g3
g4
(lp122
(dp123
g7
(F0.077
F0.977
F0.039
I3
I3
tp124
sg9
F0.10162782669067383
sg10
I100
sg11
I0
sa(dp125
g7
(F0.152
F0.68
F0.059
I81
I100
tp126
sg9
F12.573960781097412
sg10
I100
sg11
I100
sa(dp127
g7
(F0.167
F0.62
F0.067
I85
I100
tp128
sg9
F25.284475803375244
sg10
I100
sg11
I200
sa(dp129
g7
(F0.175
F0.643
F0.068
I90
I100
tp130
sg9
F38.05543088912964
sg10
I100
sg11
I300
sa(dp131
g7
(F0.184
F0.671
F0.063
I85
I100
tp132
sg9
F50.72570490837097
sg10
I100
sg11
I400
sa(dp133
g7
(F0.187
F0.679
F0.071
I86
I100
tp134
sg9
F63.5826358795166
sg10
I100
sg11
I500
satp135
Rp136
(dp137
g25
I01
sg26
g31
sg32
(lp138
I3
aI5
aI30
aI9
asg34
I6
sg35
g36
(g3
tp139
Rp140
sbs.