(dp0
S'NSGA2-SIP'
p1
ccopy_reg
_reconstructor
p2
(cdeap.tools.support
Logbook
p3
c__builtin__
list
p4
(lp5
(dp6
S'hv|spread|igd|frontier#|valid#'
p7
(F0.055
F0.98
F0.058
I1
I1
tp8
sS'timestamp'
p9
F0.10036706924438477
sS'evals'
p10
I100
sS'gen'
p11
I0
sa(dp12
g7
(F0.147
F0.692
F0.056
I100
I100
tp13
sg9
F15.174211978912354
sg10
I100
sg11
I100
sa(dp14
g7
(F0.159
F0.669
F0.061
I100
I100
tp15
sg9
F30.67786407470703
sg10
I100
sg11
I200
sa(dp16
g7
(F0.163
F0.595
F0.066
I100
I100
tp17
sg9
F45.796979904174805
sg10
I100
sg11
I300
sa(dp18
g7
(F0.174
F0.693
F0.066
I100
I100
tp19
sg9
F60.95779609680176
sg10
I100
sg11
I400
sa(dp20
g7
(F0.177
F0.673
F0.067
I100
I100
tp21
sg9
F76.3961489200592
sg10
I100
sg11
I500
satp22
Rp23
(dp24
S'log_header'
p25
I01
sS'header'
p26
(S'gen'
p27
S'evals'
p28
S'hv|spread|igd|frontier#|valid#'
p29
S'timestamp'
p30
tp31
sS'columns_len'
p32
(lp33
I3
aI5
aI31
aI9
asS'buffindex'
p34
I6
sS'chapters'
p35
ccollections
defaultdict
p36
(g3
tp37
Rp38
sbsS'SPEA2-SIP'
p39
g2
(g3
g4
(lp40
(dp41
g7
(I0
I0
I0
I0
I0
tp42
sg9
F0.09629082679748535
sg10
I100
sg11
I0
sa(dp43
g7
(F0.155
F0.62
F0.074
I100
I100
tp44
sg9
F58.43014097213745
sg10
I100
sg11
I100
sa(dp45
g7
(F0.164
F0.651
F0.082
I100
I100
tp46
sg9
F130.29571795463562
sg10
I100
sg11
I200
sa(dp47
g7
(F0.167
F0.606
F0.085
I100
I100
tp48
sg9
F205.4053258895874
sg10
I100
sg11
I300
sa(dp49
g7
(F0.17
F0.639
F0.085
I100
I100
tp50
sg9
F281.44835591316223
sg10
I100
sg11
I400
sa(dp51
g7
(F0.171
F0.579
F0.087
I100
I100
tp52
sg9
F361.13195180892944
sg10
I100
sg11
I500
satp53
Rp54
(dp55
g25
I01
sg26
g31
sg32
(lp56
I3
aI5
aI31
aI9
asg34
I6
sg35
g36
(g3
tp57
Rp58
sbsS'SPEA2'
p59
g2
(g3
g4
(lp60
(dp61
g7
g42
sg9
F0.11659598350524902
sg10
I100
sg11
I0
sa(dp62
g7
g42
sg9
F106.28523302078247
sg10
I100
sg11
I100
sa(dp63
g7
g42
sg9
F227.9488229751587
sg10
I100
sg11
I200
sa(dp64
g7
g42
sg9
F363.59944105148315
sg10
I100
sg11
I300
sa(dp65
g7
g42
sg9
F504.06109404563904
sg10
I100
sg11
I400
sa(dp66
g7
g42
sg9
F650.7391400337219
sg10
I100
sg11
I500
satp67
Rp68
(dp69
g25
I01
sg26
g31
sg32
(lp70
I3
aI5
aI30
aI9
asg34
I6
sg35
g36
(g3
tp71
Rp72
sbsS'IBEA-PEN'
p73
g2
(g3
g4
(lp74
(dp75
g7
(F0.093
F0.823
F0.019
I4
I4
tp76
sg9
F0.248427152633667
sg10
I100
sg11
I0
sa(dp77
g7
(F0.168
F0.629
F0.032
I66
I87
tp78
sg9
F22.293047189712524
sg10
I100
sg11
I100
sa(dp79
g7
(F0.169
F0.76
F0.038
I60
I66
tp80
sg9
F44.527263164520264
sg10
I100
sg11
I200
sa(dp81
g7
(F0.173
F0.673
F0.039
I58
I73
tp82
sg9
F66.7882912158966
sg10
I100
sg11
I300
sa(dp83
g7
(F0.17
F0.746
F0.041
I52
I74
tp84
sg9
F89.06363201141357
sg10
I100
sg11
I400
sa(dp85
g7
(F0.148
F0.66
F0.045
I46
I59
tp86
sg9
F111.16650009155273
sg10
I100
sg11
I500
satp87
Rp88
(dp89
g25
I01
sg26
g31
sg32
(lp90
I3
aI5
aI30
aI9
asg34
I6
sg35
g36
(g3
tp91
Rp92
sbsS'IBEA'
p93
g2
(g3
g4
(lp94
(dp95
g7
g42
sg9
F0.11693191528320312
sg10
I100
sg11
I0
sa(dp96
g7
g42
sg9
F15.057050943374634
sg10
I100
sg11
I100
sa(dp97
g7
g42
sg9
F30.053863048553467
sg10
I100
sg11
I200
sa(dp98
g7
g42
sg9
F45.08644485473633
sg10
I100
sg11
I300
sa(dp99
g7
g42
sg9
F60.10985803604126
sg10
I100
sg11
I400
sa(dp100
g7
g42
sg9
F75.13660502433777
sg10
I100
sg11
I500
satp101
Rp102
(dp103
g25
I01
sg26
g31
sg32
(lp104
I3
aI5
aI30
aI9
asg34
I6
sg35
g36
(g3
tp105
Rp106
sbsS'NSGA2'
p107
g2
(g3
g4
(lp108
(dp109
g7
g42
sg9
F0.11648678779602051
sg10
I100
sg11
I0
sa(dp110
g7
g42
sg9
F18.487672805786133
sg10
I100
sg11
I100
sa(dp111
g7
g42
sg9
F36.833903789520264
sg10
I100
sg11
I200
sa(dp112
g7
g42
sg9
F55.189138889312744
sg10
I100
sg11
I300
sa(dp113
g7
g42
sg9
F73.60501480102539
sg10
I100
sg11
I400
sa(dp114
g7
g42
sg9
F92.15250492095947
sg10
I100
sg11
I500
satp115
Rp116
(dp117
g25
I01
sg26
g31
sg32
(lp118
I3
aI5
aI30
aI9
asg34
I6
sg35
g36
(g3
tp119
Rp120
sbsS'IBEA-SIP'
p121
g2
(g3
g4
(lp122
(dp123
g7
(F0.056
F0.92
F0.042
I1
I1
tp124
sg9
F0.10047101974487305
sg10
I100
sg11
I0
sa(dp125
g7
(F0.159
F0.723
F0.056
I83
I100
tp126
sg9
F13.450051069259644
sg10
I100
sg11
I100
sa(dp127
g7
(F0.169
F0.658
F0.058
I83
I100
tp128
sg9
F26.994303226470947
sg10
I100
sg11
I200
sa(dp129
g7
(F0.172
F0.654
F0.065
I93
I100
tp130
sg9
F40.5300772190094
sg10
I100
sg11
I300
sa(dp131
g7
(F0.173
F0.678
F0.069
I90
I100
tp132
sg9
F53.91475009918213
sg10
I100
sg11
I400
sa(dp133
g7
(F0.177
F0.776
F0.071
I91
I100
tp134
sg9
F67.26013922691345
sg10
I100
sg11
I500
satp135
Rp136
(dp137
g25
I01
sg26
g31
sg32
(lp138
I3
aI5
aI30
aI9
asg34
I6
sg35
g36
(g3
tp139
Rp140
sbs.