(dp0
S'NSGA2-SIP'
p1
ccopy_reg
_reconstructor
p2
(cdeap.tools.support
Logbook
p3
c__builtin__
list
p4
(lp5
(dp6
S'hv|spread|igd|frontier#|valid#'
p7
(F0.062
F2.236
F0.024
I1
I1
tp8
sS'timestamp'
p9
F0.08646702766418457
sS'evals'
p10
I100
sS'gen'
p11
I0
sa(dp12
g7
(F0.151
F0.629
F0.058
I100
I100
tp13
sg9
F13.473832130432129
sg10
I100
sg11
I100
sa(dp14
g7
(F0.16
F0.617
F0.063
I100
I100
tp15
sg9
F26.884031057357788
sg10
I100
sg11
I200
sa(dp16
g7
(F0.162
F0.611
F0.062
I100
I100
tp17
sg9
F40.28950214385986
sg10
I100
sg11
I300
sa(dp18
g7
(F0.166
F0.616
F0.064
I100
I100
tp19
sg9
F53.570449113845825
sg10
I100
sg11
I400
sa(dp20
g7
(F0.168
F0.647
F0.062
I100
I100
tp21
sg9
F66.72815608978271
sg10
I100
sg11
I500
satp22
Rp23
(dp24
S'log_header'
p25
I01
sS'header'
p26
(S'gen'
p27
S'evals'
p28
S'hv|spread|igd|frontier#|valid#'
p29
S'timestamp'
p30
tp31
sS'columns_len'
p32
(lp33
I3
aI5
aI31
aI9
asS'buffindex'
p34
I6
sS'chapters'
p35
ccollections
defaultdict
p36
(g3
tp37
Rp38
sbsS'SPEA2-SIP'
p39
g2
(g3
g4
(lp40
(dp41
g7
(I0
I0
I0
I0
I0
tp42
sg9
F0.08365797996520996
sg10
I100
sg11
I0
sa(dp43
g7
(F0.154
F0.67
F0.079
I100
I100
tp44
sg9
F51.743303060531616
sg10
I100
sg11
I100
sa(dp45
g7
(F0.159
F0.69
F0.086
I100
I100
tp46
sg9
F107.91277408599854
sg10
I100
sg11
I200
sa(dp47
g7
(F0.163
F0.658
F0.094
I100
I100
tp48
sg9
F168.38867902755737
sg10
I100
sg11
I300
sa(dp49
g7
(F0.165
F0.586
F0.093
I100
I100
tp50
sg9
F231.45511507987976
sg10
I100
sg11
I400
sa(dp51
g7
(F0.169
F0.561
F0.09
I100
I100
tp52
sg9
F296.25719690322876
sg10
I100
sg11
I500
satp53
Rp54
(dp55
g25
I01
sg26
g31
sg32
(lp56
I3
aI5
aI31
aI9
asg34
I6
sg35
g36
(g3
tp57
Rp58
sbsS'SPEA2'
p59
g2
(g3
g4
(lp60
(dp61
g7
g42
sg9
F0.10166597366333008
sg10
I100
sg11
I0
sa(dp62
g7
g42
sg9
F88.7007040977478
sg10
I100
sg11
I100
sa(dp63
g7
g42
sg9
F200.0714340209961
sg10
I100
sg11
I200
sa(dp64
g7
g42
sg9
F318.250776052475
sg10
I100
sg11
I300
sa(dp65
g7
g42
sg9
F437.5494101047516
sg10
I100
sg11
I400
sa(dp66
g7
g42
sg9
F558.305074930191
sg10
I100
sg11
I500
satp67
Rp68
(dp69
g25
I01
sg26
g31
sg32
(lp70
I3
aI5
aI30
aI9
asg34
I6
sg35
g36
(g3
tp71
Rp72
sbsS'IBEA'
p73
g2
(g3
g4
(lp74
(dp75
g7
g42
sg9
F0.10218620300292969
sg10
I100
sg11
I0
sa(dp76
g7
g42
sg9
F13.035457134246826
sg10
I100
sg11
I100
sa(dp77
g7
g42
sg9
F26.048569202423096
sg10
I100
sg11
I200
sa(dp78
g7
g42
sg9
F39.048134088516235
sg10
I100
sg11
I300
sa(dp79
g7
g42
sg9
F52.02417016029358
sg10
I100
sg11
I400
sa(dp80
g7
g42
sg9
F65.01303720474243
sg10
I100
sg11
I500
satp81
Rp82
(dp83
g25
I01
sg26
g31
sg32
(lp84
I3
aI5
aI30
aI9
asg34
I6
sg35
g36
(g3
tp85
Rp86
sbsS'NSGA2'
p87
g2
(g3
g4
(lp88
(dp89
g7
g42
sg9
F0.10046100616455078
sg10
I100
sg11
I0
sa(dp90
g7
g42
sg9
F16.039987802505493
sg10
I100
sg11
I100
sa(dp91
g7
g42
sg9
F31.9562029838562
sg10
I100
sg11
I200
sa(dp92
g7
g42
sg9
F47.85542678833008
sg10
I100
sg11
I300
sa(dp93
g7
g42
sg9
F63.810823917388916
sg10
I100
sg11
I400
sa(dp94
g7
g42
sg9
F79.71050000190735
sg10
I100
sg11
I500
satp95
Rp96
(dp97
g25
I01
sg26
g31
sg32
(lp98
I3
aI5
aI30
aI9
asg34
I6
sg35
g36
(g3
tp99
Rp100
sbsS'IBEA-SIP'
p101
g2
(g3
g4
(lp102
(dp103
g7
g42
sg9
F0.08335614204406738
sg10
I100
sg11
I0
sa(dp104
g7
(F0.158
F0.641
F0.054
I79
I100
tp105
sg9
F11.564496040344238
sg10
I100
sg11
I100
sa(dp106
g7
(F0.169
F0.648
F0.062
I86
I100
tp107
sg9
F23.389573097229004
sg10
I100
sg11
I200
sa(dp108
g7
(F0.176
F0.71
F0.069
I84
I100
tp109
sg9
F34.92443895339966
sg10
I100
sg11
I300
sa(dp110
g7
(F0.178
F0.732
F0.068
I76
I100
tp111
sg9
F46.23514795303345
sg10
I100
sg11
I400
sa(dp112
g7
(F0.188
F0.664
F0.068
I86
I100
tp113
sg9
F57.67529296875
sg10
I100
sg11
I500
satp114
Rp115
(dp116
g25
I01
sg26
g31
sg32
(lp117
I3
aI5
aI30
aI9
asg34
I6
sg35
g36
(g3
tp118
Rp119
sbs.