(dp0
S'NSGA2-SIP'
p1
ccopy_reg
_reconstructor
p2
(cdeap.tools.support
Logbook
p3
c__builtin__
list
p4
(lp5
(dp6
S'hv|spread|igd|frontier#|valid#'
p7
(F0.062
F1.02
F0.022
I1
I1
tp8
sS'timestamp'
p9
F0.09772896766662598
sS'evals'
p10
I100
sS'gen'
p11
I0
sa(dp12
g7
(F0.149
F0.681
F0.059
I100
I100
tp13
sg9
F14.441679000854492
sg10
I100
sg11
I100
sa(dp14
g7
(F0.159
F0.581
F0.062
I100
I100
tp15
sg9
F28.88311791419983
sg10
I100
sg11
I200
sa(dp16
g7
(F0.161
F0.619
F0.066
I100
I100
tp17
sg9
F43.472699880599976
sg10
I100
sg11
I300
sa(dp18
g7
(F0.163
F0.664
F0.063
I100
I100
tp19
sg9
F58.01013207435608
sg10
I100
sg11
I400
sa(dp20
g7
(F0.164
F0.649
F0.061
I100
I100
tp21
sg9
F72.52645206451416
sg10
I100
sg11
I500
satp22
Rp23
(dp24
S'log_header'
p25
I01
sS'header'
p26
(S'gen'
p27
S'evals'
p28
S'hv|spread|igd|frontier#|valid#'
p29
S'timestamp'
p30
tp31
sS'columns_len'
p32
(lp33
I3
aI5
aI31
aI9
asS'buffindex'
p34
I6
sS'chapters'
p35
ccollections
defaultdict
p36
(g3
tp37
Rp38
sbsS'SPEA2-SIP'
p39
g2
(g3
g4
(lp40
(dp41
g7
(F0.055
F2.236
F0.051
I1
I1
tp42
sg9
F0.0980830192565918
sg10
I100
sg11
I0
sa(dp43
g7
(F0.15
F0.658
F0.075
I100
I100
tp44
sg9
F57.029857873916626
sg10
I100
sg11
I100
sa(dp45
g7
(F0.155
F0.632
F0.082
I100
I100
tp46
sg9
F122.02508807182312
sg10
I100
sg11
I200
sa(dp47
g7
(F0.158
F0.639
F0.084
I100
I100
tp48
sg9
F188.01491403579712
sg10
I100
sg11
I300
sa(dp49
g7
(F0.16
F0.579
F0.085
I100
I100
tp50
sg9
F259.1833209991455
sg10
I100
sg11
I400
sa(dp51
g7
(F0.16
F0.648
F0.089
I100
I100
tp52
sg9
F328.52448987960815
sg10
I100
sg11
I500
satp53
Rp54
(dp55
g25
I01
sg26
g31
sg32
(lp56
I3
aI5
aI31
aI9
asg34
I6
sg35
g36
(g3
tp57
Rp58
sbsS'SPEA2'
p59
g2
(g3
g4
(lp60
(dp61
g7
(I0
I0
I0
I0
I0
tp62
sg9
F0.11562609672546387
sg10
I100
sg11
I0
sa(dp63
g7
g62
sg9
F82.72985696792603
sg10
I100
sg11
I100
sa(dp64
g7
g62
sg9
F192.32321095466614
sg10
I100
sg11
I200
sa(dp65
g7
g62
sg9
F314.82880306243896
sg10
I100
sg11
I300
sa(dp66
g7
g62
sg9
F438.3986909389496
sg10
I100
sg11
I400
sa(dp67
g7
g62
sg9
F568.1513209342957
sg10
I100
sg11
I500
satp68
Rp69
(dp70
g25
I01
sg26
g31
sg32
(lp71
I3
aI5
aI30
aI9
asg34
I6
sg35
g36
(g3
tp72
Rp73
sbsS'IBEA-PEN'
p74
g2
(g3
g4
(lp75
(dp76
g7
g62
sg9
F0.21397900581359863
sg10
I100
sg11
I0
sa(dp77
g7
(F0.168
F0.695
F0.042
I56
I72
tp78
sg9
F21.365324020385742
sg10
I100
sg11
I100
sa(dp79
g7
(F0.173
F0.761
F0.039
I54
I74
tp80
sg9
F42.73807096481323
sg10
I100
sg11
I200
sa(dp81
g7
(F0.169
F0.694
F0.029
I56
I72
tp82
sg9
F64.14367914199829
sg10
I100
sg11
I300
sa(dp83
g7
(F0.179
F0.615
F0.037
I71
I92
tp84
sg9
F85.54184699058533
sg10
I100
sg11
I400
sa(dp85
g7
(F0.176
F0.658
F0.048
I54
I72
tp86
sg9
F106.85338115692139
sg10
I100
sg11
I500
satp87
Rp88
(dp89
g25
I01
sg26
g31
sg32
(lp90
I3
aI5
aI30
aI9
asg34
I6
sg35
g36
(g3
tp91
Rp92
sbsS'IBEA'
p93
g2
(g3
g4
(lp94
(dp95
g7
g62
sg9
F0.11485886573791504
sg10
I100
sg11
I0
sa(dp96
g7
g62
sg9
F14.419256925582886
sg10
I100
sg11
I100
sa(dp97
g7
g62
sg9
F29.01054096221924
sg10
I100
sg11
I200
sa(dp98
g7
g62
sg9
F43.675447940826416
sg10
I100
sg11
I300
sa(dp99
g7
g62
sg9
F58.338093996047974
sg10
I100
sg11
I400
sa(dp100
g7
g62
sg9
F72.87753486633301
sg10
I100
sg11
I500
satp101
Rp102
(dp103
g25
I01
sg26
g31
sg32
(lp104
I3
aI5
aI30
aI9
asg34
I6
sg35
g36
(g3
tp105
Rp106
sbsS'NSGA2'
p107
g2
(g3
g4
(lp108
(dp109
g7
g62
sg9
F0.11424493789672852
sg10
I100
sg11
I0
sa(dp110
g7
g62
sg9
F17.58910083770752
sg10
I100
sg11
I100
sa(dp111
g7
g62
sg9
F35.19095587730408
sg10
I100
sg11
I200
sa(dp112
g7
g62
sg9
F52.88688683509827
sg10
I100
sg11
I300
sa(dp113
g7
g62
sg9
F70.62104892730713
sg10
I100
sg11
I400
sa(dp114
g7
g62
sg9
F88.4376847743988
sg10
I100
sg11
I500
satp115
Rp116
(dp117
g25
I01
sg26
g31
sg32
(lp118
I3
aI5
aI30
aI9
asg34
I6
sg35
g36
(g3
tp119
Rp120
sbsS'IBEA-SIP'
p121
g2
(g3
g4
(lp122
(dp123
g7
(F0.058
F1.1
F0.03
I1
I1
tp124
sg9
F0.09700298309326172
sg10
I100
sg11
I0
sa(dp125
g7
(F0.163
F0.75
F0.061
I84
I100
tp126
sg9
F12.568318128585815
sg10
I100
sg11
I100
sa(dp127
g7
(F0.171
F0.684
F0.064
I88
I100
tp128
sg9
F25.230698108673096
sg10
I100
sg11
I200
sa(dp129
g7
(F0.181
F0.738
F0.066
I94
I100
tp130
sg9
F37.92684006690979
sg10
I100
sg11
I300
sa(dp131
g7
(F0.183
F0.525
F0.067
I92
I100
tp132
sg9
F50.73295998573303
sg10
I100
sg11
I400
sa(dp133
g7
(F0.185
F0.619
F0.066
I87
I100
tp134
sg9
F63.49783420562744
sg10
I100
sg11
I500
satp135
Rp136
(dp137
g25
I01
sg26
g31
sg32
(lp138
I3
aI5
aI30
aI9
asg34
I6
sg35
g36
(g3
tp139
Rp140
sbs.