(dp0
S'NSGA2-SIP'
p1
ccopy_reg
_reconstructor
p2
(cdeap.tools.support
Logbook
p3
c__builtin__
list
p4
(lp5
(dp6
S'hv|spread|igd|frontier#|valid#'
p7
(F0.068
F0.977
F0.032
I3
I3
tp8
sS'timestamp'
p9
F0.10862183570861816
sS'evals'
p10
I100
sS'gen'
p11
I0
sa(dp12
g7
(F0.147
F0.643
F0.062
I100
I100
tp13
sg9
F16.30684781074524
sg10
I100
sg11
I100
sa(dp14
g7
(F0.157
F0.652
F0.067
I100
I100
tp15
sg9
F32.87446594238281
sg10
I100
sg11
I200
sa(dp16
g7
(F0.162
F0.672
F0.072
I100
I100
tp17
sg9
F49.15464782714844
sg10
I100
sg11
I300
sa(dp18
g7
(F0.169
F0.6
F0.073
I100
I100
tp19
sg9
F65.30747079849243
sg10
I100
sg11
I400
sa(dp20
g7
(F0.172
F0.577
F0.069
I100
I100
tp21
sg9
F81.38110780715942
sg10
I100
sg11
I500
satp22
Rp23
(dp24
S'log_header'
p25
I01
sS'header'
p26
(S'gen'
p27
S'evals'
p28
S'hv|spread|igd|frontier#|valid#'
p29
S'timestamp'
p30
tp31
sS'columns_len'
p32
(lp33
I3
aI5
aI31
aI9
asS'buffindex'
p34
I6
sS'chapters'
p35
ccollections
defaultdict
p36
(g3
tp37
Rp38
sbsS'SPEA2-SIP'
p39
g2
(g3
g4
(lp40
(dp41
g7
(I0
I0
I0
I0
I0
tp42
sg9
F0.09743499755859375
sg10
I100
sg11
I0
sa(dp43
g7
(F0.149
F0.648
F0.073
I100
I100
tp44
sg9
F56.13890790939331
sg10
I100
sg11
I100
sa(dp45
g7
(F0.156
F0.678
F0.084
I100
I100
tp46
sg9
F123.75336599349976
sg10
I100
sg11
I200
sa(dp47
g7
(F0.159
F0.635
F0.086
I100
I100
tp48
sg9
F191.3112280368805
sg10
I100
sg11
I300
sa(dp49
g7
(F0.16
F0.588
F0.087
I100
I100
tp50
sg9
F259.6388831138611
sg10
I100
sg11
I400
sa(dp51
g7
(F0.161
F0.625
F0.089
I100
I100
tp52
sg9
F329.0306360721588
sg10
I100
sg11
I500
satp53
Rp54
(dp55
g25
I01
sg26
g31
sg32
(lp56
I3
aI5
aI31
aI9
asg34
I6
sg35
g36
(g3
tp57
Rp58
sbsS'SPEA2'
p59
g2
(g3
g4
(lp60
(dp61
g7
g42
sg9
F0.12380790710449219
sg10
I100
sg11
I0
sa(dp62
g7
g42
sg9
F101.33104109764099
sg10
I100
sg11
I100
sa(dp63
g7
g42
sg9
F226.96712589263916
sg10
I100
sg11
I200
sa(dp64
g7
g42
sg9
F351.58301401138306
sg10
I100
sg11
I300
sa(dp65
g7
g42
sg9
F487.2126030921936
sg10
I100
sg11
I400
sa(dp66
g7
g42
sg9
F635.8781399726868
sg10
I100
sg11
I500
satp67
Rp68
(dp69
g25
I01
sg26
g31
sg32
(lp70
I3
aI5
aI30
aI9
asg34
I6
sg35
g36
(g3
tp71
Rp72
sbsS'IBEA-PEN'
p73
g2
(g3
g4
(lp74
(dp75
g7
(F0.044
F0.963
F0.017
I2
I2
tp76
sg9
F0.27018308639526367
sg10
I100
sg11
I0
sa(dp77
g7
g42
sg9
F16.136307954788208
sg10
I100
sg11
I100
sa(dp78
g7
g42
sg9
F31.984430074691772
sg10
I100
sg11
I200
sa(dp79
g7
g42
sg9
F47.865442991256714
sg10
I100
sg11
I300
sa(dp80
g7
g42
sg9
F63.74707818031311
sg10
I100
sg11
I400
sa(dp81
g7
g42
sg9
F79.53428602218628
sg10
I100
sg11
I500
satp82
Rp83
(dp84
g25
I01
sg26
g31
sg32
(lp85
I3
aI5
aI30
aI9
asg34
I6
sg35
g36
(g3
tp86
Rp87
sbsS'IBEA'
p88
g2
(g3
g4
(lp89
(dp90
g7
g42
sg9
F0.12375497817993164
sg10
I100
sg11
I0
sa(dp91
g7
g42
sg9
F15.50009799003601
sg10
I100
sg11
I100
sa(dp92
g7
g42
sg9
F31.004130125045776
sg10
I100
sg11
I200
sa(dp93
g7
g42
sg9
F46.50679302215576
sg10
I100
sg11
I300
sa(dp94
g7
g42
sg9
F61.94734215736389
sg10
I100
sg11
I400
sa(dp95
g7
g42
sg9
F77.35933113098145
sg10
I100
sg11
I500
satp96
Rp97
(dp98
g25
I01
sg26
g31
sg32
(lp99
I3
aI5
aI30
aI9
asg34
I6
sg35
g36
(g3
tp100
Rp101
sbsS'NSGA2'
p102
g2
(g3
g4
(lp103
(dp104
g7
g42
sg9
F0.12309408187866211
sg10
I100
sg11
I0
sa(dp105
g7
g42
sg9
F19.70835018157959
sg10
I100
sg11
I100
sa(dp106
g7
g42
sg9
F39.344258069992065
sg10
I100
sg11
I200
sa(dp107
g7
g42
sg9
F58.90965914726257
sg10
I100
sg11
I300
sa(dp108
g7
g42
sg9
F78.50600504875183
sg10
I100
sg11
I400
sa(dp109
g7
g42
sg9
F98.1543800830841
sg10
I100
sg11
I500
satp110
Rp111
(dp112
g25
I01
sg26
g31
sg32
(lp113
I3
aI5
aI30
aI9
asg34
I6
sg35
g36
(g3
tp114
Rp115
sbsS'IBEA-SIP'
p116
g2
(g3
g4
(lp117
(dp118
g7
g42
sg9
F0.09822201728820801
sg10
I100
sg11
I0
sa(dp119
g7
(F0.154
F0.677
F0.055
I88
I100
tp120
sg9
F13.755692958831787
sg10
I100
sg11
I100
sa(dp121
g7
(F0.165
F0.686
F0.067
I84
I100
tp122
sg9
F27.268402814865112
sg10
I100
sg11
I200
sa(dp123
g7
(F0.17
F0.711
F0.066
I90
I100
tp124
sg9
F40.83878684043884
sg10
I100
sg11
I300
sa(dp125
g7
(F0.172
F0.704
F0.071
I88
I100
tp126
sg9
F54.52921795845032
sg10
I100
sg11
I400
sa(dp127
g7
(F0.178
F0.665
F0.068
I90
I100
tp128
sg9
F68.29212403297424
sg10
I100
sg11
I500
satp129
Rp130
(dp131
g25
I01
sg26
g31
sg32
(lp132
I3
aI5
aI30
aI9
asg34
I6
sg35
g36
(g3
tp133
Rp134
sbs.