(dp0
S'NSGA2-SIP'
p1
ccopy_reg
_reconstructor
p2
(cdeap.tools.support
Logbook
p3
c__builtin__
list
p4
(lp5
(dp6
S'hv|spread|igd|frontier#|valid#'
p7
(F0.054
F2.227
F0.057
I1
I1
tp8
sS'timestamp'
p9
F0.09709715843200684
sS'evals'
p10
I100
sS'gen'
p11
I0
sa(dp12
g7
(F0.152
F0.642
F0.059
I100
I100
tp13
sg9
F13.75648808479309
sg10
I100
sg11
I100
sa(dp14
g7
(F0.164
F0.612
F0.065
I100
I100
tp15
sg9
F27.290722131729126
sg10
I100
sg11
I200
sa(dp16
g7
(F0.169
F0.558
F0.065
I100
I100
tp17
sg9
F40.65076303482056
sg10
I100
sg11
I300
sa(dp18
g7
(F0.172
F0.597
F0.063
I100
I100
tp19
sg9
F54.22212600708008
sg10
I100
sg11
I400
sa(dp20
g7
(F0.176
F0.602
F0.065
I100
I100
tp21
sg9
F67.45759296417236
sg10
I100
sg11
I500
satp22
Rp23
(dp24
S'log_header'
p25
I01
sS'header'
p26
(S'gen'
p27
S'evals'
p28
S'hv|spread|igd|frontier#|valid#'
p29
S'timestamp'
p30
tp31
sS'columns_len'
p32
(lp33
I3
aI5
aI31
aI9
asS'buffindex'
p34
I6
sS'chapters'
p35
ccollections
defaultdict
p36
(g3
tp37
Rp38
sbsS'SPEA2-SIP'
p39
g2
(g3
g4
(lp40
(dp41
g7
(I0
I0
I0
I0
I0
tp42
sg9
F0.09418082237243652
sg10
I100
sg11
I0
sa(dp43
g7
(F0.159
F0.631
F0.076
I100
I100
tp44
sg9
F51.89855599403381
sg10
I100
sg11
I100
sa(dp45
g7
(F0.167
F0.674
F0.086
I100
I100
tp46
sg9
F116.66810178756714
sg10
I100
sg11
I200
sa(dp47
g7
(F0.173
F0.669
F0.091
I100
I100
tp48
sg9
F183.7132430076599
sg10
I100
sg11
I300
sa(dp49
g7
(F0.176
F0.649
F0.091
I100
I100
tp50
sg9
F254.69213700294495
sg10
I100
sg11
I400
sa(dp51
g7
(F0.177
F0.596
F0.091
I100
I100
tp52
sg9
F324.62584495544434
sg10
I100
sg11
I500
satp53
Rp54
(dp55
g25
I01
sg26
g31
sg32
(lp56
I3
aI5
aI31
aI9
asg34
I6
sg35
g36
(g3
tp57
Rp58
sbsS'SPEA2'
p59
g2
(g3
g4
(lp60
(dp61
g7
g42
sg9
F0.13492488861083984
sg10
I100
sg11
I0
sa(dp62
g7
g42
sg9
F88.84571290016174
sg10
I100
sg11
I100
sa(dp63
g7
g42
sg9
F199.0118179321289
sg10
I100
sg11
I200
sa(dp64
g7
g42
sg9
F313.2833847999573
sg10
I100
sg11
I300
sa(dp65
g7
g42
sg9
F432.433974981308
sg10
I100
sg11
I400
sa(dp66
g7
g42
sg9
F548.5767040252686
sg10
I100
sg11
I500
satp67
Rp68
(dp69
g25
I01
sg26
g31
sg32
(lp70
I3
aI5
aI30
aI9
asg34
I6
sg35
g36
(g3
tp71
Rp72
sbsS'IBEA-PEN'
p73
g2
(g3
g4
(lp74
(dp75
g7
(F0.045
F0.964
F0.024
I3
I3
tp76
sg9
F0.2667670249938965
sg10
I100
sg11
I0
sa(dp77
g7
g42
sg9
F14.017502069473267
sg10
I100
sg11
I100
sa(dp78
g7
g42
sg9
F27.316649198532104
sg10
I100
sg11
I200
sa(dp79
g7
g42
sg9
F40.605449199676514
sg10
I100
sg11
I300
sa(dp80
g7
g42
sg9
F53.88604998588562
sg10
I100
sg11
I400
sa(dp81
g7
g42
sg9
F67.23515510559082
sg10
I100
sg11
I500
satp82
Rp83
(dp84
g25
I01
sg26
g31
sg32
(lp85
I3
aI5
aI30
aI9
asg34
I6
sg35
g36
(g3
tp86
Rp87
sbsS'IBEA'
p88
g2
(g3
g4
(lp89
(dp90
g7
g42
sg9
F0.11528897285461426
sg10
I100
sg11
I0
sa(dp91
g7
g42
sg9
F13.447993040084839
sg10
I100
sg11
I100
sa(dp92
g7
g42
sg9
F26.613715887069702
sg10
I100
sg11
I200
sa(dp93
g7
g42
sg9
F39.82627296447754
sg10
I100
sg11
I300
sa(dp94
g7
g42
sg9
F53.09052395820618
sg10
I100
sg11
I400
sa(dp95
g7
g42
sg9
F66.37057089805603
sg10
I100
sg11
I500
satp96
Rp97
(dp98
g25
I01
sg26
g31
sg32
(lp99
I3
aI5
aI30
aI9
asg34
I6
sg35
g36
(g3
tp100
Rp101
sbsS'NSGA2'
p102
g2
(g3
g4
(lp103
(dp104
g7
g42
sg9
F0.11521100997924805
sg10
I100
sg11
I0
sa(dp105
g7
g42
sg9
F16.277533054351807
sg10
I100
sg11
I100
sa(dp106
g7
g42
sg9
F32.362786054611206
sg10
I100
sg11
I200
sa(dp107
g7
g42
sg9
F48.362480878829956
sg10
I100
sg11
I300
sa(dp108
g7
g42
sg9
F64.43953800201416
sg10
I100
sg11
I400
sa(dp109
g7
g42
sg9
F80.7811770439148
sg10
I100
sg11
I500
satp110
Rp111
(dp112
g25
I01
sg26
g31
sg32
(lp113
I3
aI5
aI30
aI9
asg34
I6
sg35
g36
(g3
tp114
Rp115
sbsS'IBEA-SIP'
p116
g2
(g3
g4
(lp117
(dp118
g7
(F0.056
F2.227
F0.042
I1
I1
tp119
sg9
F0.09720277786254883
sg10
I100
sg11
I0
sa(dp120
g7
(F0.154
F0.692
F0.064
I85
I100
tp121
sg9
F11.720155954360962
sg10
I100
sg11
I100
sa(dp122
g7
(F0.166
F0.649
F0.064
I82
I100
tp123
sg9
F23.34677791595459
sg10
I100
sg11
I200
sa(dp124
g7
(F0.171
F0.586
F0.067
I91
I100
tp125
sg9
F34.993345975875854
sg10
I100
sg11
I300
sa(dp126
g7
(F0.178
F0.677
F0.066
I86
I100
tp127
sg9
F46.60159778594971
sg10
I100
sg11
I400
sa(dp128
g7
(F0.18
F0.616
F0.073
I83
I100
tp129
sg9
F58.152525901794434
sg10
I100
sg11
I500
satp130
Rp131
(dp132
g25
I01
sg26
g31
sg32
(lp133
I3
aI5
aI30
aI9
asg34
I6
sg35
g36
(g3
tp134
Rp135
sbs.