(dp0
S'NSGA2-SIP'
p1
ccopy_reg
_reconstructor
p2
(cdeap.tools.support
Logbook
p3
c__builtin__
list
p4
(lp5
(dp6
S'hv|spread|igd|frontier#|valid#'
p7
(I0
I0
I0
I0
I0
tp8
sS'timestamp'
p9
F0.09693384170532227
sS'evals'
p10
I100
sS'gen'
p11
I0
sa(dp12
g7
(F0.149
F0.695
F0.061
I100
I100
tp13
sg9
F15.081648826599121
sg10
I100
sg11
I100
sa(dp14
g7
(F0.156
F0.625
F0.061
I100
I100
tp15
sg9
F30.18595290184021
sg10
I100
sg11
I200
sa(dp16
g7
(F0.162
F0.602
F0.062
I100
I100
tp17
sg9
F44.76297688484192
sg10
I100
sg11
I300
sa(dp18
g7
(F0.167
F0.657
F0.065
I100
I100
tp19
sg9
F59.36737394332886
sg10
I100
sg11
I400
sa(dp20
g7
(F0.171
F0.666
F0.063
I100
I100
tp21
sg9
F73.97348880767822
sg10
I100
sg11
I500
satp22
Rp23
(dp24
S'log_header'
p25
I01
sS'header'
p26
(S'gen'
p27
S'evals'
p28
S'hv|spread|igd|frontier#|valid#'
p29
S'timestamp'
p30
tp31
sS'columns_len'
p32
(lp33
I3
aI5
aI31
aI9
asS'buffindex'
p34
I6
sS'chapters'
p35
ccollections
defaultdict
p36
(g3
tp37
Rp38
sbsS'SPEA2-SIP'
p39
g2
(g3
g4
(lp40
(dp41
g7
g8
sg9
F0.0947108268737793
sg10
I100
sg11
I0
sa(dp42
g7
(F0.153
F0.673
F0.08
I100
I100
tp43
sg9
F62.1274049282074
sg10
I100
sg11
I100
sa(dp44
g7
(F0.166
F0.722
F0.091
I100
I100
tp45
sg9
F130.7142288684845
sg10
I100
sg11
I200
sa(dp46
g7
(F0.17
F0.684
F0.096
I100
I100
tp47
sg9
F203.5735559463501
sg10
I100
sg11
I300
sa(dp48
g7
(F0.171
F0.598
F0.097
I100
I100
tp49
sg9
F278.5701038837433
sg10
I100
sg11
I400
sa(dp50
g7
(F0.177
F0.607
F0.096
I100
I100
tp51
sg9
F355.37896394729614
sg10
I100
sg11
I500
satp52
Rp53
(dp54
g25
I01
sg26
g31
sg32
(lp55
I3
aI5
aI31
aI9
asg34
I6
sg35
g36
(g3
tp56
Rp57
sbsS'SPEA2'
p58
g2
(g3
g4
(lp59
(dp60
g7
g8
sg9
F0.1145319938659668
sg10
I100
sg11
I0
sa(dp61
g7
g8
sg9
F95.47632884979248
sg10
I100
sg11
I100
sa(dp62
g7
g8
sg9
F217.17559790611267
sg10
I100
sg11
I200
sa(dp63
g7
g8
sg9
F346.8555188179016
sg10
I100
sg11
I300
sa(dp64
g7
g8
sg9
F465.14719676971436
sg10
I100
sg11
I400
sa(dp65
g7
g8
sg9
F594.2328209877014
sg10
I100
sg11
I500
satp66
Rp67
(dp68
g25
I01
sg26
g31
sg32
(lp69
I3
aI5
aI30
aI9
asg34
I6
sg35
g36
(g3
tp70
Rp71
sbsS'IBEA-PEN'
p72
g2
(g3
g4
(lp73
(dp74
g7
(F0.085
F0.863
F0.022
I2
I2
tp75
sg9
F0.23789501190185547
sg10
I100
sg11
I0
sa(dp76
g7
(F0.17
F0.538
F0.034
I63
I79
tp77
sg9
F21.881553888320923
sg10
I100
sg11
I100
sa(dp78
g7
(F0.174
F0.739
F0.035
I57
I81
tp79
sg9
F43.83715605735779
sg10
I100
sg11
I200
sa(dp80
g7
(F0.179
F0.574
F0.041
I60
I84
tp81
sg9
F65.67147088050842
sg10
I100
sg11
I300
sa(dp82
g7
(F0.179
F0.709
F0.041
I63
I82
tp83
sg9
F87.69341206550598
sg10
I100
sg11
I400
sa(dp84
g7
(F0.177
F0.768
F0.035
I68
I85
tp85
sg9
F109.82438492774963
sg10
I100
sg11
I500
satp86
Rp87
(dp88
g25
I01
sg26
g31
sg32
(lp89
I3
aI5
aI30
aI9
asg34
I6
sg35
g36
(g3
tp90
Rp91
sbsS'IBEA'
p92
g2
(g3
g4
(lp93
(dp94
g7
g8
sg9
F0.11749982833862305
sg10
I100
sg11
I0
sa(dp95
g7
g8
sg9
F15.016120910644531
sg10
I100
sg11
I100
sa(dp96
g7
g8
sg9
F29.943091869354248
sg10
I100
sg11
I200
sa(dp97
g7
g8
sg9
F44.83956003189087
sg10
I100
sg11
I300
sa(dp98
g7
g8
sg9
F59.79868698120117
sg10
I100
sg11
I400
sa(dp99
g7
g8
sg9
F74.72349882125854
sg10
I100
sg11
I500
satp100
Rp101
(dp102
g25
I01
sg26
g31
sg32
(lp103
I3
aI5
aI30
aI9
asg34
I6
sg35
g36
(g3
tp104
Rp105
sbsS'NSGA2'
p106
g2
(g3
g4
(lp107
(dp108
g7
g8
sg9
F0.11802792549133301
sg10
I100
sg11
I0
sa(dp109
g7
g8
sg9
F18.396710872650146
sg10
I100
sg11
I100
sa(dp110
g7
g8
sg9
F36.63138294219971
sg10
I100
sg11
I200
sa(dp111
g7
g8
sg9
F54.949543952941895
sg10
I100
sg11
I300
sa(dp112
g7
g8
sg9
F73.28538584709167
sg10
I100
sg11
I400
sa(dp113
g7
g8
sg9
F91.62913084030151
sg10
I100
sg11
I500
satp114
Rp115
(dp116
g25
I01
sg26
g31
sg32
(lp117
I3
aI5
aI30
aI9
asg34
I6
sg35
g36
(g3
tp118
Rp119
sbsS'IBEA-SIP'
p120
g2
(g3
g4
(lp121
(dp122
g7
g8
sg9
F0.09638500213623047
sg10
I100
sg11
I0
sa(dp123
g7
(F0.158
F0.603
F0.059
I82
I100
tp124
sg9
F13.056677103042603
sg10
I100
sg11
I100
sa(dp125
g7
(F0.172
F0.612
F0.062
I88
I100
tp126
sg9
F26.10191512107849
sg10
I100
sg11
I200
sa(dp127
g7
(F0.175
F0.68
F0.064
I84
I100
tp128
sg9
F39.01606512069702
sg10
I100
sg11
I300
sa(dp129
g7
(F0.177
F0.637
F0.063
I87
I100
tp130
sg9
F51.93020009994507
sg10
I100
sg11
I400
sa(dp131
g7
(F0.18
F0.662
F0.068
I87
I100
tp132
sg9
F64.83105993270874
sg10
I100
sg11
I500
satp133
Rp134
(dp135
g25
I01
sg26
g31
sg32
(lp136
I3
aI5
aI30
aI9
asg34
I6
sg35
g36
(g3
tp137
Rp138
sbs.