(dp0
S'NSGA2-SIP'
p1
ccopy_reg
_reconstructor
p2
(cdeap.tools.support
Logbook
p3
c__builtin__
list
p4
(lp5
(dp6
S'hv|spread|igd|frontier#|valid#'
p7
(I0
I0
I0
I0
I0
tp8
sS'timestamp'
p9
F0.09414100646972656
sS'evals'
p10
I100
sS'gen'
p11
I0
sa(dp12
g7
(F0.148
F0.607
F0.054
I100
I100
tp13
sg9
F15.124949932098389
sg10
I100
sg11
I100
sa(dp14
g7
(F0.162
F0.655
F0.059
I100
I100
tp15
sg9
F30.063379049301147
sg10
I100
sg11
I200
sa(dp16
g7
(F0.167
F0.657
F0.064
I100
I100
tp17
sg9
F44.95861291885376
sg10
I100
sg11
I300
sa(dp18
g7
(F0.168
F0.59
F0.064
I100
I100
tp19
sg9
F59.76248598098755
sg10
I100
sg11
I400
sa(dp20
g7
(F0.17
F0.649
F0.066
I100
I100
tp21
sg9
F74.52703905105591
sg10
I100
sg11
I500
satp22
Rp23
(dp24
S'log_header'
p25
I01
sS'header'
p26
(S'gen'
p27
S'evals'
p28
g7
S'timestamp'
p29
tp30
sS'columns_len'
p31
(lp32
I3
aI5
aI31
aI9
asS'buffindex'
p33
I6
sS'chapters'
p34
ccollections
defaultdict
p35
(g3
tp36
Rp37
sbsS'SPEA2-SIP'
p38
g2
(g3
g4
(lp39
(dp40
g7
(F0.061
F1.02
F0.02
I1
I1
tp41
sg9
F0.09781217575073242
sg10
I100
sg11
I0
sa(dp42
g7
(F0.149
F0.64
F0.09
I100
I100
tp43
sg9
F55.02809405326843
sg10
I100
sg11
I100
sa(dp44
g7
(F0.154
F0.615
F0.095
I100
I100
tp45
sg9
F119.04652118682861
sg10
I100
sg11
I200
sa(dp46
g7
(F0.157
F0.62
F0.093
I100
I100
tp47
sg9
F186.52867317199707
sg10
I100
sg11
I300
sa(dp48
g7
(F0.159
F0.587
F0.093
I100
I100
tp49
sg9
F256.7473270893097
sg10
I100
sg11
I400
sa(dp50
g7
(F0.163
F0.616
F0.096
I100
I100
tp51
sg9
F329.5502440929413
sg10
I100
sg11
I500
satp52
Rp53
(dp54
g25
I01
sg26
g30
sg31
(lp55
I3
aI5
aI31
aI9
asg33
I6
sg34
g35
(g3
tp56
Rp57
sbsS'SPEA2'
p58
g2
(g3
g4
(lp59
(dp60
g7
g8
sg9
F0.11411499977111816
sg10
I100
sg11
I0
sa(dp61
g7
g8
sg9
F86.36585688591003
sg10
I100
sg11
I100
sa(dp62
g7
g8
sg9
F218.51944589614868
sg10
I100
sg11
I200
sa(dp63
g7
g8
sg9
F355.6403729915619
sg10
I100
sg11
I300
sa(dp64
g7
g8
sg9
F488.3315968513489
sg10
I100
sg11
I400
sa(dp65
g7
g8
sg9
F613.5744140148163
sg10
I100
sg11
I500
satp66
Rp67
(dp68
g25
I01
sg26
g30
sg31
(lp69
I3
aI5
aI30
aI9
asg33
I6
sg34
g35
(g3
tp70
Rp71
sbsS'IBEA-PEN'
p72
g2
(g3
g4
(lp73
(dp74
g7
(F0.032
F1.52
F0.02
I1
I1
tp75
sg9
F0.23601698875427246
sg10
I100
sg11
I0
sa(dp76
g7
(F0.166
F0.664
F0.03
I58
I79
tp77
sg9
F22.221545219421387
sg10
I100
sg11
I100
sa(dp78
g7
(F0.166
F0.653
F0.037
I57
I69
tp79
sg9
F44.43729519844055
sg10
I100
sg11
I200
sa(dp80
g7
(F0.17
F0.629
F0.038
I62
I79
tp81
sg9
F66.50979018211365
sg10
I100
sg11
I300
sa(dp82
g7
(F0.175
F0.784
F0.043
I57
I74
tp83
sg9
F88.55811405181885
sg10
I100
sg11
I400
sa(dp84
g7
(F0.176
F0.76
F0.062
I56
I78
tp85
sg9
F110.71280217170715
sg10
I100
sg11
I500
satp86
Rp87
(dp88
g25
I01
sg26
g30
sg31
(lp89
I3
aI5
aI30
aI9
asg33
I6
sg34
g35
(g3
tp90
Rp91
sbsS'IBEA'
p92
g2
(g3
g4
(lp93
(dp94
g7
g8
sg9
F0.11662793159484863
sg10
I100
sg11
I0
sa(dp95
g7
g8
sg9
F15.068107843399048
sg10
I100
sg11
I100
sa(dp96
g7
g8
sg9
F30.138792991638184
sg10
I100
sg11
I200
sa(dp97
g7
g8
sg9
F45.174057960510254
sg10
I100
sg11
I300
sa(dp98
g7
g8
sg9
F60.107048988342285
sg10
I100
sg11
I400
sa(dp99
g7
g8
sg9
F75.07444787025452
sg10
I100
sg11
I500
satp100
Rp101
(dp102
g25
I01
sg26
g30
sg31
(lp103
I3
aI5
aI30
aI9
asg33
I6
sg34
g35
(g3
tp104
Rp105
sbsS'NSGA2'
p106
g2
(g3
g4
(lp107
(dp108
g7
g8
sg9
F0.11448001861572266
sg10
I100
sg11
I0
sa(dp109
g7
g8
sg9
F17.951457023620605
sg10
I100
sg11
I100
sa(dp110
g7
g8
sg9
F35.738592863082886
sg10
I100
sg11
I200
sa(dp111
g7
g8
sg9
F53.628973960876465
sg10
I100
sg11
I300
sa(dp112
g7
g8
sg9
F71.48318290710449
sg10
I100
sg11
I400
sa(dp113
g7
g8
sg9
F89.31503987312317
sg10
I100
sg11
I500
satp114
Rp115
(dp116
g25
I01
sg26
g30
sg31
(lp117
I3
aI5
aI30
aI9
asg33
I6
sg34
g35
(g3
tp118
Rp119
sbsS'IBEA-SIP'
p120
g2
(g3
g4
(lp121
(dp122
g7
(F0.06
F0.94
F0.026
I1
I1
tp123
sg9
F0.09973978996276855
sg10
I100
sg11
I0
sa(dp124
g7
(F0.158
F0.654
F0.054
I86
I100
tp125
sg9
F13.225616931915283
sg10
I100
sg11
I100
sa(dp126
g7
(F0.166
F0.632
F0.068
I90
I100
tp127
sg9
F26.672087907791138
sg10
I100
sg11
I200
sa(dp128
g7
(F0.172
F0.676
F0.069
I84
I100
tp129
sg9
F39.98688793182373
sg10
I100
sg11
I300
sa(dp130
g7
(F0.177
F0.64
F0.066
I89
I100
tp131
sg9
F53.0460889339447
sg10
I100
sg11
I400
sa(dp132
g7
(F0.179
F0.651
F0.068
I86
I100
tp133
sg9
F65.97753190994263
sg10
I100
sg11
I500
satp134
Rp135
(dp136
g25
I01
sg26
g30
sg31
(lp137
I3
aI5
aI30
aI9
asg33
I6
sg34
g35
(g3
tp138
Rp139
sbs.