(dp0
S'NSGA2-SIP'
p1
ccopy_reg
_reconstructor
p2
(cdeap.tools.support
Logbook
p3
c__builtin__
list
p4
(lp5
(dp6
S'hv|spread|igd|frontier#|valid#'
p7
(F0.07
F0.963
F0.024
I3
I3
tp8
sS'timestamp'
p9
F0.10265111923217773
sS'evals'
p10
I100
sS'gen'
p11
I0
sa(dp12
g7
(F0.152
F0.619
F0.06
I100
I100
tp13
sg9
F14.851109027862549
sg10
I100
sg11
I100
sa(dp14
g7
(F0.161
F0.621
F0.065
I100
I100
tp15
sg9
F29.728332042694092
sg10
I100
sg11
I200
sa(dp16
g7
(F0.165
F0.55
F0.065
I100
I100
tp17
sg9
F44.35869598388672
sg10
I100
sg11
I300
sa(dp18
g7
(F0.167
F0.575
F0.067
I100
I100
tp19
sg9
F58.94611096382141
sg10
I100
sg11
I400
sa(dp20
g7
(F0.17
F0.631
F0.066
I100
I100
tp21
sg9
F73.56085300445557
sg10
I100
sg11
I500
satp22
Rp23
(dp24
S'log_header'
p25
I01
sS'header'
p26
(S'gen'
p27
S'evals'
p28
S'hv|spread|igd|frontier#|valid#'
p29
S'timestamp'
p30
tp31
sS'columns_len'
p32
(lp33
I3
aI5
aI31
aI9
asS'buffindex'
p34
I6
sS'chapters'
p35
ccollections
defaultdict
p36
(g3
tp37
Rp38
sbsS'SPEA2-SIP'
p39
g2
(g3
g4
(lp40
(dp41
g7
(I0
I0
I0
I0
I0
tp42
sg9
F0.09255504608154297
sg10
I100
sg11
I0
sa(dp43
g7
(F0.151
F0.651
F0.08
I100
I100
tp44
sg9
F54.735458850860596
sg10
I100
sg11
I100
sa(dp45
g7
(F0.162
F0.566
F0.083
I100
I100
tp46
sg9
F117.23301792144775
sg10
I100
sg11
I200
sa(dp47
g7
(F0.164
F0.593
F0.088
I100
I100
tp48
sg9
F183.33071088790894
sg10
I100
sg11
I300
sa(dp49
g7
(F0.168
F0.674
F0.092
I100
I100
tp50
sg9
F252.50549292564392
sg10
I100
sg11
I400
sa(dp51
g7
(F0.17
F0.584
F0.095
I100
I100
tp52
sg9
F323.9258279800415
sg10
I100
sg11
I500
satp53
Rp54
(dp55
g25
I01
sg26
g31
sg32
(lp56
I3
aI5
aI31
aI9
asg34
I6
sg35
g36
(g3
tp57
Rp58
sbsS'SPEA2'
p59
g2
(g3
g4
(lp60
(dp61
g7
g42
sg9
F0.11273789405822754
sg10
I100
sg11
I0
sa(dp62
g7
g42
sg9
F98.77875089645386
sg10
I100
sg11
I100
sa(dp63
g7
g42
sg9
F223.6733558177948
sg10
I100
sg11
I200
sa(dp64
g7
g42
sg9
F356.92735600471497
sg10
I100
sg11
I300
sa(dp65
g7
g42
sg9
F482.26135182380676
sg10
I100
sg11
I400
sa(dp66
g7
g42
sg9
F618.0356049537659
sg10
I100
sg11
I500
satp67
Rp68
(dp69
g25
I01
sg26
g31
sg32
(lp70
I3
aI5
aI30
aI9
asg34
I6
sg35
g36
(g3
tp71
Rp72
sbsS'IBEA'
p73
g2
(g3
g4
(lp74
(dp75
g7
g42
sg9
F0.11228799819946289
sg10
I100
sg11
I0
sa(dp76
g7
g42
sg9
F14.475375175476074
sg10
I100
sg11
I100
sa(dp77
g7
g42
sg9
F28.994492053985596
sg10
I100
sg11
I200
sa(dp78
g7
g42
sg9
F43.49007606506348
sg10
I100
sg11
I300
sa(dp79
g7
g42
sg9
F57.8631911277771
sg10
I100
sg11
I400
sa(dp80
g7
g42
sg9
F72.27426218986511
sg10
I100
sg11
I500
satp81
Rp82
(dp83
g25
I01
sg26
g31
sg32
(lp84
I3
aI5
aI30
aI9
asg34
I6
sg35
g36
(g3
tp85
Rp86
sbsS'NSGA2'
p87
g2
(g3
g4
(lp88
(dp89
g7
g42
sg9
F0.11279487609863281
sg10
I100
sg11
I0
sa(dp90
g7
g42
sg9
F17.729472875595093
sg10
I100
sg11
I100
sa(dp91
g7
g42
sg9
F35.25277090072632
sg10
I100
sg11
I200
sa(dp92
g7
g42
sg9
F52.73602485656738
sg10
I100
sg11
I300
sa(dp93
g7
g42
sg9
F70.34093189239502
sg10
I100
sg11
I400
sa(dp94
g7
g42
sg9
F87.96306991577148
sg10
I100
sg11
I500
satp95
Rp96
(dp97
g25
I01
sg26
g31
sg32
(lp98
I3
aI5
aI30
aI9
asg34
I6
sg35
g36
(g3
tp99
Rp100
sbsS'IBEA-SIP'
p101
g2
(g3
g4
(lp102
(dp103
g7
g42
sg9
F0.09167790412902832
sg10
I100
sg11
I0
sa(dp104
g7
(F0.157
F0.752
F0.058
I89
I100
tp105
sg9
F12.638468027114868
sg10
I100
sg11
I100
sa(dp106
g7
(F0.171
F0.614
F0.065
I87
I100
tp107
sg9
F25.47489285469055
sg10
I100
sg11
I200
sa(dp108
g7
(F0.176
F0.618
F0.064
I94
I100
tp109
sg9
F38.18518304824829
sg10
I100
sg11
I300
sa(dp110
g7
(F0.183
F0.636
F0.066
I91
I100
tp111
sg9
F50.68801784515381
sg10
I100
sg11
I400
sa(dp112
g7
(F0.185
F0.625
F0.07
I92
I100
tp113
sg9
F63.265779972076416
sg10
I100
sg11
I500
satp114
Rp115
(dp116
g25
I01
sg26
g31
sg32
(lp117
I3
aI5
aI30
aI9
asg34
I6
sg35
g36
(g3
tp118
Rp119
sbs.