(dp0
S'NSGA2-SIP'
p1
ccopy_reg
_reconstructor
p2
(cdeap.tools.support
Logbook
p3
c__builtin__
list
p4
(lp5
(dp6
S'hv|spread|igd|frontier#|valid#'
p7
(F0.059
F1.12
F0.024
I1
I1
tp8
sS'timestamp'
p9
F0.09598898887634277
sS'evals'
p10
I100
sS'gen'
p11
I0
sa(dp12
g7
(F0.147
F0.583
F0.055
I100
I100
tp13
sg9
F13.18569803237915
sg10
I100
sg11
I100
sa(dp14
g7
(F0.159
F0.639
F0.06
I100
I100
tp15
sg9
F26.514214992523193
sg10
I100
sg11
I200
sa(dp16
g7
(F0.162
F0.647
F0.066
I99
I100
tp17
sg9
F39.964683055877686
sg10
I100
sg11
I300
sa(dp18
g7
(F0.165
F0.609
F0.065
I100
I100
tp19
sg9
F53.14177107810974
sg10
I100
sg11
I400
sa(dp20
g7
(F0.167
F0.661
F0.064
I100
I100
tp21
sg9
F66.19161701202393
sg10
I100
sg11
I500
satp22
Rp23
(dp24
S'log_header'
p25
I01
sS'header'
p26
(S'gen'
p27
S'evals'
p28
S'hv|spread|igd|frontier#|valid#'
p29
S'timestamp'
p30
tp31
sS'columns_len'
p32
(lp33
I3
aI5
aI31
aI9
asS'buffindex'
p34
I6
sS'chapters'
p35
ccollections
defaultdict
p36
(g3
tp37
Rp38
sbsS'SPEA2-SIP'
p39
g2
(g3
g4
(lp40
(dp41
g7
(I0
I0
I0
I0
I0
tp42
sg9
F0.10018396377563477
sg10
I100
sg11
I0
sa(dp43
g7
(F0.15
F0.622
F0.072
I100
I100
tp44
sg9
F50.446428060531616
sg10
I100
sg11
I100
sa(dp45
g7
(F0.154
F0.608
F0.084
I100
I100
tp46
sg9
F107.87959599494934
sg10
I100
sg11
I200
sa(dp47
g7
(F0.16
F0.629
F0.09
I100
I100
tp48
sg9
F171.87670302391052
sg10
I100
sg11
I300
sa(dp49
g7
(F0.164
F0.604
F0.091
I100
I100
tp50
sg9
F234.45053005218506
sg10
I100
sg11
I400
sa(dp51
g7
(F0.165
F0.552
F0.09
I100
I100
tp52
sg9
F298.6906499862671
sg10
I100
sg11
I500
satp53
Rp54
(dp55
g25
I01
sg26
g31
sg32
(lp56
I3
aI5
aI31
aI9
asg34
I6
sg35
g36
(g3
tp57
Rp58
sbsS'SPEA2'
p59
g2
(g3
g4
(lp60
(dp61
g7
g42
sg9
F0.11160397529602051
sg10
I100
sg11
I0
sa(dp62
g7
g42
sg9
F85.45117592811584
sg10
I100
sg11
I100
sa(dp63
g7
g42
sg9
F185.32153487205505
sg10
I100
sg11
I200
sa(dp64
g7
g42
sg9
F290.2462978363037
sg10
I100
sg11
I300
sa(dp65
g7
g42
sg9
F408.4606099128723
sg10
I100
sg11
I400
sa(dp66
g7
g42
sg9
F528.0875408649445
sg10
I100
sg11
I500
satp67
Rp68
(dp69
g25
I01
sg26
g31
sg32
(lp70
I3
aI5
aI30
aI9
asg34
I6
sg35
g36
(g3
tp71
Rp72
sbsS'IBEA-PEN'
p73
g2
(g3
g4
(lp74
(dp75
g7
(F0.025
F2.04
F0.02
I1
I1
tp76
sg9
F0.23911404609680176
sg10
I100
sg11
I0
sa(dp77
g7
g42
sg9
F13.707229137420654
sg10
I100
sg11
I100
sa(dp78
g7
g42
sg9
F26.92107105255127
sg10
I100
sg11
I200
sa(dp79
g7
g42
sg9
F40.10989809036255
sg10
I100
sg11
I300
sa(dp80
g7
g42
sg9
F53.318922996520996
sg10
I100
sg11
I400
sa(dp81
g7
g42
sg9
F66.51641011238098
sg10
I100
sg11
I500
satp82
Rp83
(dp84
g25
I01
sg26
g31
sg32
(lp85
I3
aI5
aI30
aI9
asg34
I6
sg35
g36
(g3
tp86
Rp87
sbsS'IBEA'
p88
g2
(g3
g4
(lp89
(dp90
g7
g42
sg9
F0.11264896392822266
sg10
I100
sg11
I0
sa(dp91
g7
g42
sg9
F13.120660066604614
sg10
I100
sg11
I100
sa(dp92
g7
g42
sg9
F26.06053614616394
sg10
I100
sg11
I200
sa(dp93
g7
g42
sg9
F38.97554612159729
sg10
I100
sg11
I300
sa(dp94
g7
g42
sg9
F51.874216079711914
sg10
I100
sg11
I400
sa(dp95
g7
g42
sg9
F64.82744598388672
sg10
I100
sg11
I500
satp96
Rp97
(dp98
g25
I01
sg26
g31
sg32
(lp99
I3
aI5
aI30
aI9
asg34
I6
sg35
g36
(g3
tp100
Rp101
sbsS'NSGA2'
p102
g2
(g3
g4
(lp103
(dp104
g7
g42
sg9
F0.11202502250671387
sg10
I100
sg11
I0
sa(dp105
g7
g42
sg9
F16.014297008514404
sg10
I100
sg11
I100
sa(dp106
g7
g42
sg9
F31.80525302886963
sg10
I100
sg11
I200
sa(dp107
g7
g42
sg9
F47.58791899681091
sg10
I100
sg11
I300
sa(dp108
g7
g42
sg9
F63.364964962005615
sg10
I100
sg11
I400
sa(dp109
g7
g42
sg9
F79.23669195175171
sg10
I100
sg11
I500
satp110
Rp111
(dp112
g25
I01
sg26
g31
sg32
(lp113
I3
aI5
aI30
aI9
asg34
I6
sg35
g36
(g3
tp114
Rp115
sbsS'IBEA-SIP'
p116
g2
(g3
g4
(lp117
(dp118
g7
(F0.07
F0.934
F0.033
I2
I2
tp119
sg9
F0.0994410514831543
sg10
I100
sg11
I0
sa(dp120
g7
(F0.151
F0.736
F0.058
I86
I100
tp121
sg9
F11.811238050460815
sg10
I100
sg11
I100
sa(dp122
g7
(F0.162
F0.674
F0.064
I92
I100
tp123
sg9
F23.31642508506775
sg10
I100
sg11
I200
sa(dp124
g7
(F0.165
F0.664
F0.066
I94
I100
tp125
sg9
F34.69488000869751
sg10
I100
sg11
I300
sa(dp126
g7
(F0.167
F0.696
F0.064
I84
I100
tp127
sg9
F45.85640597343445
sg10
I100
sg11
I400
sa(dp128
g7
(F0.169
F0.675
F0.071
I83
I100
tp129
sg9
F57.19354510307312
sg10
I100
sg11
I500
satp130
Rp131
(dp132
g25
I01
sg26
g31
sg32
(lp133
I3
aI5
aI30
aI9
asg34
I6
sg35
g36
(g3
tp134
Rp135
sbs.