(dp0
S'NSGA2-SIP'
p1
ccopy_reg
_reconstructor
p2
(cdeap.tools.support
Logbook
p3
c__builtin__
list
p4
(lp5
(dp6
S'hv|spread|igd|frontier#|valid#'
p7
(F0.061
F2.236
F0.03
I1
I1
tp8
sS'timestamp'
p9
F0.10219597816467285
sS'evals'
p10
I100
sS'gen'
p11
I0
sa(dp12
g7
(F0.148
F0.714
F0.062
I100
I100
tp13
sg9
F16.19154191017151
sg10
I100
sg11
I100
sa(dp14
g7
(F0.159
F0.655
F0.064
I100
I100
tp15
sg9
F32.29207801818848
sg10
I100
sg11
I200
sa(dp16
g7
(F0.162
F0.547
F0.062
I100
I100
tp17
sg9
F48.47479486465454
sg10
I100
sg11
I300
sa(dp18
g7
(F0.168
F0.665
F0.061
I100
I100
tp19
sg9
F64.68827891349792
sg10
I100
sg11
I400
sa(dp20
g7
(F0.17
F0.638
F0.06
I100
I100
tp21
sg9
F80.85405087471008
sg10
I100
sg11
I500
satp22
Rp23
(dp24
S'log_header'
p25
I01
sS'header'
p26
(S'gen'
p27
S'evals'
p28
S'hv|spread|igd|frontier#|valid#'
p29
S'timestamp'
p30
tp31
sS'columns_len'
p32
(lp33
I3
aI5
aI31
aI9
asS'buffindex'
p34
I6
sS'chapters'
p35
ccollections
defaultdict
p36
(g3
tp37
Rp38
sbsS'SPEA2-SIP'
p39
g2
(g3
g4
(lp40
(dp41
g7
(I0
I0
I0
I0
I0
tp42
sg9
F0.09916806221008301
sg10
I100
sg11
I0
sa(dp43
g7
(F0.161
F0.628
F0.075
I100
I100
tp44
sg9
F57.62340807914734
sg10
I100
sg11
I100
sa(dp45
g7
(F0.164
F0.714
F0.085
I100
I100
tp46
sg9
F127.97440910339355
sg10
I100
sg11
I200
sa(dp47
g7
(F0.169
F0.612
F0.089
I100
I100
tp48
sg9
F203.2822699546814
sg10
I100
sg11
I300
sa(dp49
g7
(F0.171
F0.638
F0.091
I100
I100
tp50
sg9
F282.5645570755005
sg10
I100
sg11
I400
sa(dp51
g7
(F0.172
F0.621
F0.091
I100
I100
tp52
sg9
F359.4203531742096
sg10
I100
sg11
I500
satp53
Rp54
(dp55
g25
I01
sg26
g31
sg32
(lp56
I3
aI5
aI31
aI9
asg34
I6
sg35
g36
(g3
tp57
Rp58
sbsS'SPEA2'
p59
g2
(g3
g4
(lp60
(dp61
g7
g42
sg9
F0.12186288833618164
sg10
I100
sg11
I0
sa(dp62
g7
g42
sg9
F98.00517201423645
sg10
I100
sg11
I100
sa(dp63
g7
g42
sg9
F216.40001392364502
sg10
I100
sg11
I200
sa(dp64
g7
g42
sg9
F339.57026195526123
sg10
I100
sg11
I300
sa(dp65
g7
g42
sg9
F471.0792770385742
sg10
I100
sg11
I400
sa(dp66
g7
g42
sg9
F608.6413691043854
sg10
I100
sg11
I500
satp67
Rp68
(dp69
g25
I01
sg26
g31
sg32
(lp70
I3
aI5
aI30
aI9
asg34
I6
sg35
g36
(g3
tp71
Rp72
sbsS'IBEA-PEN'
p73
g2
(g3
g4
(lp74
(dp75
g7
(F0.043
F0.946
F0.023
I3
I3
tp76
sg9
F0.2774021625518799
sg10
I100
sg11
I0
sa(dp77
g7
g42
sg9
F15.990895986557007
sg10
I100
sg11
I100
sa(dp78
g7
g42
sg9
F31.730196952819824
sg10
I100
sg11
I200
sa(dp79
g7
g42
sg9
F47.306573152542114
sg10
I100
sg11
I300
sa(dp80
g7
g42
sg9
F62.91999006271362
sg10
I100
sg11
I400
sa(dp81
g7
g42
sg9
F78.54475498199463
sg10
I100
sg11
I500
satp82
Rp83
(dp84
g25
I01
sg26
g31
sg32
(lp85
I3
aI5
aI30
aI9
asg34
I6
sg35
g36
(g3
tp86
Rp87
sbsS'IBEA'
p88
g2
(g3
g4
(lp89
(dp90
g7
g42
sg9
F0.12449002265930176
sg10
I100
sg11
I0
sa(dp91
g7
g42
sg9
F15.542541027069092
sg10
I100
sg11
I100
sa(dp92
g7
g42
sg9
F30.981566905975342
sg10
I100
sg11
I200
sa(dp93
g7
g42
sg9
F46.35093593597412
sg10
I100
sg11
I300
sa(dp94
g7
g42
sg9
F61.717034101486206
sg10
I100
sg11
I400
sa(dp95
g7
g42
sg9
F77.15575003623962
sg10
I100
sg11
I500
satp96
Rp97
(dp98
g25
I01
sg26
g31
sg32
(lp99
I3
aI5
aI30
aI9
asg34
I6
sg35
g36
(g3
tp100
Rp101
sbsS'NSGA2'
p102
g2
(g3
g4
(lp103
(dp104
g7
g42
sg9
F0.12301301956176758
sg10
I100
sg11
I0
sa(dp105
g7
g42
sg9
F19.92595410346985
sg10
I100
sg11
I100
sa(dp106
g7
g42
sg9
F39.85259819030762
sg10
I100
sg11
I200
sa(dp107
g7
g42
sg9
F59.83770799636841
sg10
I100
sg11
I300
sa(dp108
g7
g42
sg9
F79.85089802742004
sg10
I100
sg11
I400
sa(dp109
g7
g42
sg9
F99.79552602767944
sg10
I100
sg11
I500
satp110
Rp111
(dp112
g25
I01
sg26
g31
sg32
(lp113
I3
aI5
aI30
aI9
asg34
I6
sg35
g36
(g3
tp114
Rp115
sbsS'IBEA-SIP'
p116
g2
(g3
g4
(lp117
(dp118
g7
g42
sg9
F0.09965205192565918
sg10
I100
sg11
I0
sa(dp119
g7
(F0.161
F0.723
F0.057
I81
I100
tp120
sg9
F13.637655973434448
sg10
I100
sg11
I100
sa(dp121
g7
(F0.171
F0.633
F0.063
I83
I100
tp122
sg9
F27.164885997772217
sg10
I100
sg11
I200
sa(dp123
g7
(F0.178
F0.661
F0.063
I85
I100
tp124
sg9
F40.572011947631836
sg10
I100
sg11
I300
sa(dp125
g7
(F0.18
F0.686
F0.063
I90
I100
tp126
sg9
F53.95983290672302
sg10
I100
sg11
I400
sa(dp127
g7
(F0.185
F0.633
F0.071
I89
I100
tp128
sg9
F67.23805093765259
sg10
I100
sg11
I500
satp129
Rp130
(dp131
g25
I01
sg26
g31
sg32
(lp132
I3
aI5
aI30
aI9
asg34
I6
sg35
g36
(g3
tp133
Rp134
sbs.