(dp0
S'NSGA2-SIP'
p1
ccopy_reg
_reconstructor
p2
(cdeap.tools.support
Logbook
p3
c__builtin__
list
p4
(lp5
(dp6
S'hv|spread|igd|frontier#|valid#'
p7
(F0.057
F1.06
F0.039
I1
I1
tp8
sS'timestamp'
p9
F0.10228204727172852
sS'evals'
p10
I100
sS'gen'
p11
I0
sa(dp12
g7
(F0.15
F0.697
F0.055
I100
I100
tp13
sg9
F15.904885053634644
sg10
I100
sg11
I100
sa(dp14
g7
(F0.16
F0.599
F0.061
I100
I100
tp15
sg9
F32.03200387954712
sg10
I100
sg11
I200
sa(dp16
g7
(F0.163
F0.627
F0.061
I100
I100
tp17
sg9
F47.94874095916748
sg10
I100
sg11
I300
sa(dp18
g7
(F0.166
F0.696
F0.063
I100
I100
tp19
sg9
F63.85232090950012
sg10
I100
sg11
I400
sa(dp20
g7
(F0.167
F0.551
F0.064
I100
I100
tp21
sg9
F79.66863989830017
sg10
I100
sg11
I500
satp22
Rp23
(dp24
S'log_header'
p25
I01
sS'header'
p26
(S'gen'
p27
S'evals'
p28
S'hv|spread|igd|frontier#|valid#'
p29
S'timestamp'
p30
tp31
sS'columns_len'
p32
(lp33
I3
aI5
aI31
aI9
asS'buffindex'
p34
I6
sS'chapters'
p35
ccollections
defaultdict
p36
(g3
tp37
Rp38
sbsS'SPEA2-SIP'
p39
g2
(g3
g4
(lp40
(dp41
g7
(F0.061
F0.92
F0.032
I1
I1
tp42
sg9
F0.10302090644836426
sg10
I100
sg11
I0
sa(dp43
g7
(F0.154
F0.624
F0.087
I100
I100
tp44
sg9
F60.63652586936951
sg10
I100
sg11
I100
sa(dp45
g7
(F0.158
F0.672
F0.096
I100
I100
tp46
sg9
F130.6147768497467
sg10
I100
sg11
I200
sa(dp47
g7
(F0.163
F0.578
F0.094
I100
I100
tp48
sg9
F205.64628386497498
sg10
I100
sg11
I300
sa(dp49
g7
(F0.168
F0.623
F0.097
I100
I100
tp50
sg9
F283.3457238674164
sg10
I100
sg11
I400
sa(dp51
g7
(F0.172
F0.649
F0.099
I100
I100
tp52
sg9
F358.8333489894867
sg10
I100
sg11
I500
satp53
Rp54
(dp55
g25
I01
sg26
g31
sg32
(lp56
I3
aI5
aI31
aI9
asg34
I6
sg35
g36
(g3
tp57
Rp58
sbsS'SPEA2'
p59
g2
(g3
g4
(lp60
(dp61
g7
(I0
I0
I0
I0
I0
tp62
sg9
F0.12459707260131836
sg10
I100
sg11
I0
sa(dp63
g7
g62
sg9
F100.76081395149231
sg10
I100
sg11
I100
sa(dp64
g7
g62
sg9
F220.5670521259308
sg10
I100
sg11
I200
sa(dp65
g7
g62
sg9
F351.34473609924316
sg10
I100
sg11
I300
sa(dp66
g7
g62
sg9
F486.0407030582428
sg10
I100
sg11
I400
sa(dp67
g7
g62
sg9
F623.2774319648743
sg10
I100
sg11
I500
satp68
Rp69
(dp70
g25
I01
sg26
g31
sg32
(lp71
I3
aI5
aI30
aI9
asg34
I6
sg35
g36
(g3
tp72
Rp73
sbsS'IBEA-PEN'
p74
g2
(g3
g4
(lp75
(dp76
g7
g62
sg9
F0.26450586318969727
sg10
I100
sg11
I0
sa(dp77
g7
g62
sg9
F16.001720905303955
sg10
I100
sg11
I100
sa(dp78
g7
g62
sg9
F31.70780897140503
sg10
I100
sg11
I200
sa(dp79
g7
g62
sg9
F47.34883904457092
sg10
I100
sg11
I300
sa(dp80
g7
g62
sg9
F62.97477889060974
sg10
I100
sg11
I400
sa(dp81
g7
g62
sg9
F78.53376483917236
sg10
I100
sg11
I500
satp82
Rp83
(dp84
g25
I01
sg26
g31
sg32
(lp85
I3
aI5
aI30
aI9
asg34
I6
sg35
g36
(g3
tp86
Rp87
sbsS'IBEA'
p88
g2
(g3
g4
(lp89
(dp90
g7
g62
sg9
F0.12267208099365234
sg10
I100
sg11
I0
sa(dp91
g7
g62
sg9
F15.332677125930786
sg10
I100
sg11
I100
sa(dp92
g7
g62
sg9
F30.665834188461304
sg10
I100
sg11
I200
sa(dp93
g7
g62
sg9
F46.02099299430847
sg10
I100
sg11
I300
sa(dp94
g7
g62
sg9
F61.39289307594299
sg10
I100
sg11
I400
sa(dp95
g7
g62
sg9
F76.74923014640808
sg10
I100
sg11
I500
satp96
Rp97
(dp98
g25
I01
sg26
g31
sg32
(lp99
I3
aI5
aI30
aI9
asg34
I6
sg35
g36
(g3
tp100
Rp101
sbsS'NSGA2'
p102
g2
(g3
g4
(lp103
(dp104
g7
g62
sg9
F0.12427401542663574
sg10
I100
sg11
I0
sa(dp105
g7
g62
sg9
F19.93855118751526
sg10
I100
sg11
I100
sa(dp106
g7
g62
sg9
F39.73851418495178
sg10
I100
sg11
I200
sa(dp107
g7
g62
sg9
F59.47265911102295
sg10
I100
sg11
I300
sa(dp108
g7
g62
sg9
F79.19149708747864
sg10
I100
sg11
I400
sa(dp109
g7
g62
sg9
F98.78270411491394
sg10
I100
sg11
I500
satp110
Rp111
(dp112
g25
I01
sg26
g31
sg32
(lp113
I3
aI5
aI30
aI9
asg34
I6
sg35
g36
(g3
tp114
Rp115
sbsS'IBEA-SIP'
p116
g2
(g3
g4
(lp117
(dp118
g7
g62
sg9
F0.09933805465698242
sg10
I100
sg11
I0
sa(dp119
g7
(F0.156
F0.569
F0.057
I73
I100
tp120
sg9
F13.66978406906128
sg10
I100
sg11
I100
sa(dp121
g7
(F0.175
F0.677
F0.067
I80
I100
tp122
sg9
F27.319364070892334
sg10
I100
sg11
I200
sa(dp123
g7
(F0.178
F0.656
F0.07
I89
I100
tp124
sg9
F40.90585494041443
sg10
I100
sg11
I300
sa(dp125
g7
(F0.181
F0.654
F0.071
I92
I100
tp126
sg9
F54.45119094848633
sg10
I100
sg11
I400
sa(dp127
g7
(F0.182
F0.613
F0.07
I84
I100
tp128
sg9
F67.90494513511658
sg10
I100
sg11
I500
satp129
Rp130
(dp131
g25
I01
sg26
g31
sg32
(lp132
I3
aI5
aI30
aI9
asg34
I6
sg35
g36
(g3
tp133
Rp134
sbs.