(dp0
S'NSGA2-SIP'
p1
ccopy_reg
_reconstructor
p2
(cdeap.tools.support
Logbook
p3
c__builtin__
list
p4
(lp5
(dp6
S'hv|spread|igd|frontier#|valid#'
p7
(F0.068
F0.987
F0.021
I2
I3
tp8
sS'timestamp'
p9
F0.0995478630065918
sS'evals'
p10
I100
sS'gen'
p11
I0
sa(dp12
g7
(F0.15
F0.638
F0.063
I100
I100
tp13
sg9
F14.468469858169556
sg10
I100
sg11
I100
sa(dp14
g7
(F0.159
F0.67
F0.067
I100
I100
tp15
sg9
F29.000366926193237
sg10
I100
sg11
I200
sa(dp16
g7
(F0.169
F0.627
F0.067
I100
I100
tp17
sg9
F43.53341197967529
sg10
I100
sg11
I300
sa(dp18
g7
(F0.179
F0.619
F0.064
I100
I100
tp19
sg9
F58.141716957092285
sg10
I100
sg11
I400
sa(dp20
g7
(F0.18
F0.575
F0.062
I100
I100
tp21
sg9
F72.53843307495117
sg10
I100
sg11
I500
satp22
Rp23
(dp24
S'log_header'
p25
I01
sS'header'
p26
(S'gen'
p27
S'evals'
p28
S'hv|spread|igd|frontier#|valid#'
p29
S'timestamp'
p30
tp31
sS'columns_len'
p32
(lp33
I3
aI5
aI31
aI9
asS'buffindex'
p34
I6
sS'chapters'
p35
ccollections
defaultdict
p36
(g3
tp37
Rp38
sbsS'SPEA2-SIP'
p39
g2
(g3
g4
(lp40
(dp41
g7
(F0.064
F1.02
F0.022
I1
I1
tp42
sg9
F0.09684395790100098
sg10
I100
sg11
I0
sa(dp43
g7
(F0.153
F0.633
F0.083
I100
I100
tp44
sg9
F57.211223125457764
sg10
I100
sg11
I100
sa(dp45
g7
(F0.16
F0.641
F0.088
I100
I100
tp46
sg9
F130.8974540233612
sg10
I100
sg11
I200
sa(dp47
g7
(F0.163
F0.555
F0.091
I100
I100
tp48
sg9
F204.12030005455017
sg10
I100
sg11
I300
sa(dp49
g7
(F0.165
F0.627
F0.094
I100
I100
tp50
sg9
F279.86952900886536
sg10
I100
sg11
I400
sa(dp51
g7
(F0.169
F0.596
F0.093
I100
I100
tp52
sg9
F356.58213806152344
sg10
I100
sg11
I500
satp53
Rp54
(dp55
g25
I01
sg26
g31
sg32
(lp56
I3
aI5
aI31
aI9
asg34
I6
sg35
g36
(g3
tp57
Rp58
sbsS'SPEA2'
p59
g2
(g3
g4
(lp60
(dp61
g7
(I0
I0
I0
I0
I0
tp62
sg9
F0.1127619743347168
sg10
I100
sg11
I0
sa(dp63
g7
g62
sg9
F99.80982089042664
sg10
I100
sg11
I100
sa(dp64
g7
g62
sg9
F221.28470993041992
sg10
I100
sg11
I200
sa(dp65
g7
g62
sg9
F349.9215979576111
sg10
I100
sg11
I300
sa(dp66
g7
g62
sg9
F488.300822019577
sg10
I100
sg11
I400
sa(dp67
g7
g62
sg9
F620.6022288799286
sg10
I100
sg11
I500
satp68
Rp69
(dp70
g25
I01
sg26
g31
sg32
(lp71
I3
aI5
aI30
aI9
asg34
I6
sg35
g36
(g3
tp72
Rp73
sbsS'IBEA-PEN'
p74
g2
(g3
g4
(lp75
(dp76
g7
g62
sg9
F0.22463488578796387
sg10
I100
sg11
I0
sa(dp77
g7
(F0.163
F0.649
F0.034
I54
I63
tp78
sg9
F21.134279012680054
sg10
I100
sg11
I100
sa(dp79
g7
(F0.163
F0.598
F0.036
I42
I51
tp80
sg9
F42.366994857788086
sg10
I100
sg11
I200
sa(dp81
g7
(F0.171
F0.705
F0.033
I56
I64
tp82
sg9
F63.72664499282837
sg10
I100
sg11
I300
sa(dp83
g7
(F0.175
F0.738
F0.034
I65
I84
tp84
sg9
F85.29110383987427
sg10
I100
sg11
I400
sa(dp85
g7
(F0.176
F0.616
F0.044
I60
I77
tp86
sg9
F106.90507388114929
sg10
I100
sg11
I500
satp87
Rp88
(dp89
g25
I01
sg26
g31
sg32
(lp90
I3
aI5
aI30
aI9
asg34
I6
sg35
g36
(g3
tp91
Rp92
sbsS'IBEA'
p93
g2
(g3
g4
(lp94
(dp95
g7
g62
sg9
F0.11427688598632812
sg10
I100
sg11
I0
sa(dp96
g7
g62
sg9
F14.653127908706665
sg10
I100
sg11
I100
sa(dp97
g7
g62
sg9
F29.273124933242798
sg10
I100
sg11
I200
sa(dp98
g7
g62
sg9
F43.84390902519226
sg10
I100
sg11
I300
sa(dp99
g7
g62
sg9
F58.42823100090027
sg10
I100
sg11
I400
sa(dp100
g7
g62
sg9
F73.02893495559692
sg10
I100
sg11
I500
satp101
Rp102
(dp103
g25
I01
sg26
g31
sg32
(lp104
I3
aI5
aI30
aI9
asg34
I6
sg35
g36
(g3
tp105
Rp106
sbsS'NSGA2'
p107
g2
(g3
g4
(lp108
(dp109
g7
g62
sg9
F0.11360406875610352
sg10
I100
sg11
I0
sa(dp110
g7
g62
sg9
F17.599322080612183
sg10
I100
sg11
I100
sa(dp111
g7
g62
sg9
F35.18647503852844
sg10
I100
sg11
I200
sa(dp112
g7
g62
sg9
F52.975717067718506
sg10
I100
sg11
I300
sa(dp113
g7
g62
sg9
F70.7483651638031
sg10
I100
sg11
I400
sa(dp114
g7
g62
sg9
F88.5267322063446
sg10
I100
sg11
I500
satp115
Rp116
(dp117
g25
I01
sg26
g31
sg32
(lp118
I3
aI5
aI30
aI9
asg34
I6
sg35
g36
(g3
tp119
Rp120
sbsS'IBEA-SIP'
p121
g2
(g3
g4
(lp122
(dp123
g7
g62
sg9
F0.09391999244689941
sg10
I100
sg11
I0
sa(dp124
g7
(F0.153
F0.708
F0.056
I89
I100
tp125
sg9
F12.555442094802856
sg10
I100
sg11
I100
sa(dp126
g7
(F0.164
F0.635
F0.067
I89
I100
tp127
sg9
F25.325184106826782
sg10
I100
sg11
I200
sa(dp128
g7
(F0.173
F0.59
F0.067
I85
I100
tp129
sg9
F38.18111205101013
sg10
I100
sg11
I300
sa(dp130
g7
(F0.175
F0.671
F0.069
I88
I100
tp131
sg9
F50.885066986083984
sg10
I100
sg11
I400
sa(dp132
g7
(F0.176
F0.689
F0.07
I89
I100
tp133
sg9
F63.53682613372803
sg10
I100
sg11
I500
satp134
Rp135
(dp136
g25
I01
sg26
g31
sg32
(lp137
I3
aI5
aI30
aI9
asg34
I6
sg35
g36
(g3
tp138
Rp139
sbs.