(dp0
S'NSGA2-SIP'
p1
ccopy_reg
_reconstructor
p2
(cdeap.tools.support
Logbook
p3
c__builtin__
list
p4
(lp5
(dp6
S'hv|spread|igd|frontier#|valid#'
p7
(F0.065
F1.06
F0.014
I1
I1
tp8
sS'timestamp'
p9
F0.10291099548339844
sS'evals'
p10
I100
sS'gen'
p11
I0
sa(dp12
g7
(F0.152
F0.637
F0.057
I100
I100
tp13
sg9
F15.713735103607178
sg10
I100
sg11
I100
sa(dp14
g7
(F0.161
F0.617
F0.063
I100
I100
tp15
sg9
F31.66074299812317
sg10
I100
sg11
I200
sa(dp16
g7
(F0.163
F0.618
F0.062
I100
I100
tp17
sg9
F47.3139431476593
sg10
I100
sg11
I300
sa(dp18
g7
(F0.169
F0.62
F0.061
I100
I100
tp19
sg9
F62.78141713142395
sg10
I100
sg11
I400
sa(dp20
g7
(F0.17
F0.605
F0.061
I100
I100
tp21
sg9
F78.13159799575806
sg10
I100
sg11
I500
satp22
Rp23
(dp24
S'log_header'
p25
I01
sS'header'
p26
(S'gen'
p27
S'evals'
p28
S'hv|spread|igd|frontier#|valid#'
p29
S'timestamp'
p30
tp31
sS'columns_len'
p32
(lp33
I3
aI5
aI31
aI9
asS'buffindex'
p34
I6
sS'chapters'
p35
ccollections
defaultdict
p36
(g3
tp37
Rp38
sbsS'SPEA2-SIP'
p39
g2
(g3
g4
(lp40
(dp41
g7
(I0
I0
I0
I0
I0
tp42
sg9
F0.09949207305908203
sg10
I100
sg11
I0
sa(dp43
g7
(F0.146
F0.617
F0.077
I100
I100
tp44
sg9
F59.35675501823425
sg10
I100
sg11
I100
sa(dp45
g7
(F0.154
F0.655
F0.087
I100
I100
tp46
sg9
F129.89728808403015
sg10
I100
sg11
I200
sa(dp47
g7
(F0.157
F0.673
F0.088
I100
I100
tp48
sg9
F199.97808003425598
sg10
I100
sg11
I300
sa(dp49
g7
(F0.165
F0.671
F0.09
I100
I100
tp50
sg9
F268.4594759941101
sg10
I100
sg11
I400
sa(dp51
g7
(F0.169
F0.646
F0.09
I100
I100
tp52
sg9
F338.6503369808197
sg10
I100
sg11
I500
satp53
Rp54
(dp55
g25
I01
sg26
g31
sg32
(lp56
I3
aI5
aI31
aI9
asg34
I6
sg35
g36
(g3
tp57
Rp58
sbsS'SPEA2'
p59
g2
(g3
g4
(lp60
(dp61
g7
g42
sg9
F0.11906719207763672
sg10
I100
sg11
I0
sa(dp62
g7
g42
sg9
F95.88878512382507
sg10
I100
sg11
I100
sa(dp63
g7
g42
sg9
F215.74748420715332
sg10
I100
sg11
I200
sa(dp64
g7
g42
sg9
F347.3352620601654
sg10
I100
sg11
I300
sa(dp65
g7
g42
sg9
F482.3258411884308
sg10
I100
sg11
I400
sa(dp66
g7
g42
sg9
F621.3530640602112
sg10
I100
sg11
I500
satp67
Rp68
(dp69
g25
I01
sg26
g31
sg32
(lp70
I3
aI5
aI30
aI9
asg34
I6
sg35
g36
(g3
tp71
Rp72
sbsS'IBEA-PEN'
p73
g2
(g3
g4
(lp74
(dp75
g7
(F0.034
F1.52
F0.01
I1
I1
tp76
sg9
F0.24210095405578613
sg10
I100
sg11
I0
sa(dp77
g7
(F0.163
F0.645
F0.029
I49
I60
tp78
sg9
F22.621408939361572
sg10
I100
sg11
I100
sa(dp79
g7
(F0.175
F0.648
F0.039
I62
I77
tp80
sg9
F45.41280508041382
sg10
I100
sg11
I200
sa(dp81
g7
(F0.174
F0.674
F0.04
I57
I69
tp82
sg9
F68.10388493537903
sg10
I100
sg11
I300
sa(dp83
g7
(F0.175
F0.649
F0.035
I54
I80
tp84
sg9
F90.79528498649597
sg10
I100
sg11
I400
sa(dp85
g7
(F0.171
F0.66
F0.032
I52
I74
tp86
sg9
F113.45170211791992
sg10
I100
sg11
I500
satp87
Rp88
(dp89
g25
I01
sg26
g31
sg32
(lp90
I3
aI5
aI30
aI9
asg34
I6
sg35
g36
(g3
tp91
Rp92
sbsS'IBEA'
p93
g2
(g3
g4
(lp94
(dp95
g7
g42
sg9
F0.11994504928588867
sg10
I100
sg11
I0
sa(dp96
g7
g42
sg9
F15.573013067245483
sg10
I100
sg11
I100
sa(dp97
g7
g42
sg9
F31.078688144683838
sg10
I100
sg11
I200
sa(dp98
g7
g42
sg9
F46.559447050094604
sg10
I100
sg11
I300
sa(dp99
g7
g42
sg9
F62.035638093948364
sg10
I100
sg11
I400
sa(dp100
g7
g42
sg9
F77.53116011619568
sg10
I100
sg11
I500
satp101
Rp102
(dp103
g25
I01
sg26
g31
sg32
(lp104
I3
aI5
aI30
aI9
asg34
I6
sg35
g36
(g3
tp105
Rp106
sbsS'NSGA2'
p107
g2
(g3
g4
(lp108
(dp109
g7
g42
sg9
F0.11923003196716309
sg10
I100
sg11
I0
sa(dp110
g7
g42
sg9
F18.87108302116394
sg10
I100
sg11
I100
sa(dp111
g7
g42
sg9
F37.55947923660278
sg10
I100
sg11
I200
sa(dp112
g7
g42
sg9
F56.37265706062317
sg10
I100
sg11
I300
sa(dp113
g7
g42
sg9
F75.24598503112793
sg10
I100
sg11
I400
sa(dp114
g7
g42
sg9
F94.13742113113403
sg10
I100
sg11
I500
satp115
Rp116
(dp117
g25
I01
sg26
g31
sg32
(lp118
I3
aI5
aI30
aI9
asg34
I6
sg35
g36
(g3
tp119
Rp120
sbsS'IBEA-SIP'
p121
g2
(g3
g4
(lp122
(dp123
g7
g42
sg9
F0.09938883781433105
sg10
I100
sg11
I0
sa(dp124
g7
(F0.162
F0.605
F0.059
I84
I100
tp125
sg9
F13.945063829421997
sg10
I100
sg11
I100
sa(dp126
g7
(F0.174
F0.736
F0.06
I86
I100
tp127
sg9
F27.779199838638306
sg10
I100
sg11
I200
sa(dp128
g7
(F0.177
F0.668
F0.066
I90
I100
tp129
sg9
F41.507123947143555
sg10
I100
sg11
I300
sa(dp130
g7
(F0.182
F0.558
F0.067
I89
I100
tp131
sg9
F55.07602787017822
sg10
I100
sg11
I400
sa(dp132
g7
(F0.183
F0.596
F0.072
I85
I100
tp133
sg9
F68.62047505378723
sg10
I100
sg11
I500
satp134
Rp135
(dp136
g25
I01
sg26
g31
sg32
(lp137
I3
aI5
aI30
aI9
asg34
I6
sg35
g36
(g3
tp138
Rp139
sbs.