(dp0
S'NSGA2-SIP'
p1
ccopy_reg
_reconstructor
p2
(cdeap.tools.support
Logbook
p3
c__builtin__
list
p4
(lp5
(dp6
S'hv|spread|igd|frontier#|valid#'
p7
(F0.063
F0.982
F0.039
I2
I2
tp8
sS'timestamp'
p9
F0.1045529842376709
sS'evals'
p10
I100
sS'gen'
p11
I0
sa(dp12
g7
(F0.15
F0.614
F0.054
I100
I100
tp13
sg9
F15.411328077316284
sg10
I100
sg11
I100
sa(dp14
g7
(F0.158
F0.594
F0.063
I100
I100
tp15
sg9
F30.92961311340332
sg10
I100
sg11
I200
sa(dp16
g7
(F0.166
F0.589
F0.067
I100
I100
tp17
sg9
F46.17477798461914
sg10
I100
sg11
I300
sa(dp18
g7
(F0.169
F0.637
F0.064
I100
I100
tp19
sg9
F61.471049070358276
sg10
I100
sg11
I400
sa(dp20
g7
(F0.171
F0.64
F0.064
I100
I100
tp21
sg9
F76.74596095085144
sg10
I100
sg11
I500
satp22
Rp23
(dp24
S'log_header'
p25
I01
sS'header'
p26
(S'gen'
p27
S'evals'
p28
S'hv|spread|igd|frontier#|valid#'
p29
S'timestamp'
p30
tp31
sS'columns_len'
p32
(lp33
I3
aI5
aI31
aI9
asS'buffindex'
p34
I6
sS'chapters'
p35
ccollections
defaultdict
p36
(g3
tp37
Rp38
sbsS'SPEA2-SIP'
p39
g2
(g3
g4
(lp40
(dp41
g7
(F0.068
F0.978
F0.035
I2
I2
tp42
sg9
F0.10521101951599121
sg10
I100
sg11
I0
sa(dp43
g7
(F0.154
F0.597
F0.076
I100
I100
tp44
sg9
F56.7490758895874
sg10
I100
sg11
I100
sa(dp45
g7
(F0.165
F0.622
F0.085
I100
I100
tp46
sg9
F122.88895392417908
sg10
I100
sg11
I200
sa(dp47
g7
(F0.167
F0.623
F0.085
I100
I100
tp48
sg9
F193.27351999282837
sg10
I100
sg11
I300
sa(dp49
g7
(F0.169
F0.686
F0.087
I100
I100
tp50
sg9
F266.166307926178
sg10
I100
sg11
I400
sa(dp51
g7
(F0.17
F0.621
F0.091
I100
I100
tp52
sg9
F339.18617510795593
sg10
I100
sg11
I500
satp53
Rp54
(dp55
g25
I01
sg26
g31
sg32
(lp56
I3
aI5
aI31
aI9
asg34
I6
sg35
g36
(g3
tp57
Rp58
sbsS'SPEA2'
p59
g2
(g3
g4
(lp60
(dp61
g7
(I0
I0
I0
I0
I0
tp62
sg9
F0.11886787414550781
sg10
I100
sg11
I0
sa(dp63
g7
g62
sg9
F91.29428887367249
sg10
I100
sg11
I100
sa(dp64
g7
g62
sg9
F212.3836648464203
sg10
I100
sg11
I200
sa(dp65
g7
g62
sg9
F344.2467608451843
sg10
I100
sg11
I300
sa(dp66
g7
g62
sg9
F478.2447979450226
sg10
I100
sg11
I400
sa(dp67
g7
g62
sg9
F620.3588528633118
sg10
I100
sg11
I500
satp68
Rp69
(dp70
g25
I01
sg26
g31
sg32
(lp71
I3
aI5
aI30
aI9
asg34
I6
sg35
g36
(g3
tp72
Rp73
sbsS'IBEA-PEN'
p74
g2
(g3
g4
(lp75
(dp76
g7
(F0.039
F0.947
F0.015
I3
I3
tp77
sg9
F0.2467031478881836
sg10
I100
sg11
I0
sa(dp78
g7
(F0.166
F0.737
F0.03
I51
I64
tp79
sg9
F22.350486993789673
sg10
I100
sg11
I100
sa(dp80
g7
(F0.181
F0.608
F0.044
I59
I81
tp81
sg9
F44.816357135772705
sg10
I100
sg11
I200
sa(dp82
g7
(F0.184
F0.64
F0.047
I56
I79
tp83
sg9
F67.3609402179718
sg10
I100
sg11
I300
sa(dp84
g7
(F0.181
F0.696
F0.051
I46
I65
tp85
sg9
F89.8939881324768
sg10
I100
sg11
I400
sa(dp86
g7
(F0.178
F0.664
F0.052
I47
I67
tp87
sg9
F112.42076206207275
sg10
I100
sg11
I500
satp88
Rp89
(dp90
g25
I01
sg26
g31
sg32
(lp91
I3
aI5
aI30
aI9
asg34
I6
sg35
g36
(g3
tp92
Rp93
sbsS'IBEA'
p94
g2
(g3
g4
(lp95
(dp96
g7
g62
sg9
F0.11993408203125
sg10
I100
sg11
I0
sa(dp97
g7
g62
sg9
F15.264744997024536
sg10
I100
sg11
I100
sa(dp98
g7
g62
sg9
F30.430240154266357
sg10
I100
sg11
I200
sa(dp99
g7
g62
sg9
F45.63222408294678
sg10
I100
sg11
I300
sa(dp100
g7
g62
sg9
F60.826884031295776
sg10
I100
sg11
I400
sa(dp101
g7
g62
sg9
F76.06630396842957
sg10
I100
sg11
I500
satp102
Rp103
(dp104
g25
I01
sg26
g31
sg32
(lp105
I3
aI5
aI30
aI9
asg34
I6
sg35
g36
(g3
tp106
Rp107
sbsS'NSGA2'
p108
g2
(g3
g4
(lp109
(dp110
g7
g62
sg9
F0.11910796165466309
sg10
I100
sg11
I0
sa(dp111
g7
g62
sg9
F18.771838903427124
sg10
I100
sg11
I100
sa(dp112
g7
g62
sg9
F37.47237181663513
sg10
I100
sg11
I200
sa(dp113
g7
g62
sg9
F56.24653697013855
sg10
I100
sg11
I300
sa(dp114
g7
g62
sg9
F75.05594897270203
sg10
I100
sg11
I400
sa(dp115
g7
g62
sg9
F93.85168480873108
sg10
I100
sg11
I500
satp116
Rp117
(dp118
g25
I01
sg26
g31
sg32
(lp119
I3
aI5
aI30
aI9
asg34
I6
sg35
g36
(g3
tp120
Rp121
sbsS'IBEA-SIP'
p122
g2
(g3
g4
(lp123
(dp124
g7
g62
sg9
F0.09876418113708496
sg10
I100
sg11
I0
sa(dp125
g7
(F0.162
F0.624
F0.055
I79
I100
tp126
sg9
F13.39988899230957
sg10
I100
sg11
I100
sa(dp127
g7
(F0.17
F0.685
F0.062
I88
I100
tp128
sg9
F27.112290143966675
sg10
I100
sg11
I200
sa(dp129
g7
(F0.175
F0.624
F0.066
I88
I100
tp130
sg9
F40.59670805931091
sg10
I100
sg11
I300
sa(dp131
g7
(F0.178
F0.568
F0.062
I87
I100
tp132
sg9
F53.99065613746643
sg10
I100
sg11
I400
sa(dp133
g7
(F0.18
F0.68
F0.066
I82
I100
tp134
sg9
F67.29497218132019
sg10
I100
sg11
I500
satp135
Rp136
(dp137
g25
I01
sg26
g31
sg32
(lp138
I3
aI5
aI30
aI9
asg34
I6
sg35
g36
(g3
tp139
Rp140
sbs.