(dp0
S'NSGA2-SIP'
p1
ccopy_reg
_reconstructor
p2
(cdeap.tools.support
Logbook
p3
c__builtin__
list
p4
(lp5
(dp6
S'hv|spread|igd|frontier#|valid#'
p7
(F0.061
F2.227
F0.014
I1
I1
tp8
sS'timestamp'
p9
F0.11431884765625
sS'evals'
p10
I100
sS'gen'
p11
I0
sa(dp12
g7
(F0.159
F0.682
F0.058
I100
I100
tp13
sg9
F13.646703004837036
sg10
I100
sg11
I100
sa(dp14
g7
(F0.167
F0.624
F0.055
I100
I100
tp15
sg9
F26.776184797286987
sg10
I100
sg11
I200
sa(dp16
g7
(F0.171
F0.606
F0.062
I100
I100
tp17
sg9
F39.933703899383545
sg10
I100
sg11
I300
sa(dp18
g7
(F0.172
F0.626
F0.063
I100
I100
tp19
sg9
F53.065500020980835
sg10
I100
sg11
I400
sa(dp20
g7
(F0.175
F0.587
F0.061
I100
I100
tp21
sg9
F66.17652797698975
sg10
I100
sg11
I500
satp22
Rp23
(dp24
S'log_header'
p25
I01
sS'header'
p26
(S'gen'
p27
S'evals'
p28
S'hv|spread|igd|frontier#|valid#'
p29
S'timestamp'
p30
tp31
sS'columns_len'
p32
(lp33
I3
aI5
aI31
aI9
asS'buffindex'
p34
I6
sS'chapters'
p35
ccollections
defaultdict
p36
(g3
tp37
Rp38
sbsS'SPEA2-SIP'
p39
g2
(g3
g4
(lp40
(dp41
g7
(F0.07
F0.976
F0.051
I3
I3
tp42
sg9
F0.10191702842712402
sg10
I100
sg11
I0
sa(dp43
g7
(F0.152
F0.733
F0.082
I100
I100
tp44
sg9
F48.45072793960571
sg10
I100
sg11
I100
sa(dp45
g7
(F0.159
F0.644
F0.091
I100
I100
tp46
sg9
F102.93602204322815
sg10
I100
sg11
I200
sa(dp47
g7
(F0.163
F0.646
F0.093
I100
I100
tp48
sg9
F157.92728209495544
sg10
I100
sg11
I300
sa(dp49
g7
(F0.167
F0.656
F0.092
I100
I100
tp50
sg9
F217.96149110794067
sg10
I100
sg11
I400
sa(dp51
g7
(F0.17
F0.598
F0.093
I100
I100
tp52
sg9
F280.822478055954
sg10
I100
sg11
I500
satp53
Rp54
(dp55
g25
I01
sg26
g31
sg32
(lp56
I3
aI5
aI31
aI9
asg34
I6
sg35
g36
(g3
tp57
Rp58
sbsS'SPEA2'
p59
g2
(g3
g4
(lp60
(dp61
g7
(I0
I0
I0
I0
I0
tp62
sg9
F0.12032508850097656
sg10
I100
sg11
I0
sa(dp63
g7
g62
sg9
F82.00127696990967
sg10
I100
sg11
I100
sa(dp64
g7
g62
sg9
F178.71844506263733
sg10
I100
sg11
I200
sa(dp65
g7
g62
sg9
F283.56614112854004
sg10
I100
sg11
I300
sa(dp66
g7
g62
sg9
F392.85697197914124
sg10
I100
sg11
I400
sa(dp67
g7
g62
sg9
F511.9514539241791
sg10
I100
sg11
I500
satp68
Rp69
(dp70
g25
I01
sg26
g31
sg32
(lp71
I3
aI5
aI30
aI9
asg34
I6
sg35
g36
(g3
tp72
Rp73
sbsS'IBEA-PEN'
p74
g2
(g3
g4
(lp75
(dp76
g7
(F0.027
F2.044
F0.032
I1
I1
tp77
sg9
F0.2437911033630371
sg10
I100
sg11
I0
sa(dp78
g7
(F0.013
F2.02
F0.032
I1
I1
tp79
sg9
F13.743243217468262
sg10
I100
sg11
I100
sa(dp80
g7
g62
sg9
F27.048259019851685
sg10
I100
sg11
I200
sa(dp81
g7
g62
sg9
F40.33080005645752
sg10
I100
sg11
I300
sa(dp82
g7
g62
sg9
F53.600672006607056
sg10
I100
sg11
I400
sa(dp83
g7
g62
sg9
F66.87039017677307
sg10
I100
sg11
I500
satp84
Rp85
(dp86
g25
I01
sg26
g31
sg32
(lp87
I3
aI5
aI30
aI9
asg34
I6
sg35
g36
(g3
tp88
Rp89
sbsS'IBEA'
p90
g2
(g3
g4
(lp91
(dp92
g7
g62
sg9
F0.11200594902038574
sg10
I100
sg11
I0
sa(dp93
g7
g62
sg9
F13.301573991775513
sg10
I100
sg11
I100
sa(dp94
g7
g62
sg9
F26.401890993118286
sg10
I100
sg11
I200
sa(dp95
g7
g62
sg9
F39.7162561416626
sg10
I100
sg11
I300
sa(dp96
g7
g62
sg9
F52.768601179122925
sg10
I100
sg11
I400
sa(dp97
g7
g62
sg9
F65.82559895515442
sg10
I100
sg11
I500
satp98
Rp99
(dp100
g25
I01
sg26
g31
sg32
(lp101
I3
aI5
aI30
aI9
asg34
I6
sg35
g36
(g3
tp102
Rp103
sbsS'NSGA2'
p104
g2
(g3
g4
(lp105
(dp106
g7
g62
sg9
F0.11391091346740723
sg10
I100
sg11
I0
sa(dp107
g7
g62
sg9
F16.22673511505127
sg10
I100
sg11
I100
sa(dp108
g7
g62
sg9
F32.315606117248535
sg10
I100
sg11
I200
sa(dp109
g7
g62
sg9
F48.58192205429077
sg10
I100
sg11
I300
sa(dp110
g7
g62
sg9
F64.5484070777893
sg10
I100
sg11
I400
sa(dp111
g7
g62
sg9
F80.59688591957092
sg10
I100
sg11
I500
satp112
Rp113
(dp114
g25
I01
sg26
g31
sg32
(lp115
I3
aI5
aI30
aI9
asg34
I6
sg35
g36
(g3
tp116
Rp117
sbsS'IBEA-SIP'
p118
g2
(g3
g4
(lp119
(dp120
g7
(F0.059
F1.0
F0.032
I1
I1
tp121
sg9
F0.09653019905090332
sg10
I100
sg11
I0
sa(dp122
g7
(F0.156
F0.603
F0.053
I82
I100
tp123
sg9
F11.672631978988647
sg10
I100
sg11
I100
sa(dp124
g7
(F0.166
F0.611
F0.061
I84
I100
tp125
sg9
F23.18939709663391
sg10
I100
sg11
I200
sa(dp126
g7
(F0.179
F0.635
F0.066
I89
I100
tp127
sg9
F34.77385497093201
sg10
I100
sg11
I300
sa(dp128
g7
(F0.181
F0.681
F0.069
I88
I100
tp129
sg9
F46.20581007003784
sg10
I100
sg11
I400
sa(dp130
g7
(F0.182
F0.711
F0.074
I84
I100
tp131
sg9
F57.57323408126831
sg10
I100
sg11
I500
satp132
Rp133
(dp134
g25
I01
sg26
g31
sg32
(lp135
I3
aI5
aI30
aI9
asg34
I6
sg35
g36
(g3
tp136
Rp137
sbs.