(dp0
S'NSGA2-SIP'
p1
ccopy_reg
_reconstructor
p2
(cdeap.tools.support
Logbook
p3
c__builtin__
list
p4
(lp5
(dp6
S'hv|spread|igd|frontier#|valid#'
p7
(F0.065
F0.982
F0.045
I2
I2
tp8
sS'timestamp'
p9
F0.09106302261352539
sS'evals'
p10
I100
sS'gen'
p11
I0
sa(dp12
g7
(F0.153
F0.675
F0.058
I100
I100
tp13
sg9
F13.327794075012207
sg10
I100
sg11
I100
sa(dp14
g7
(F0.162
F0.65
F0.064
I100
I100
tp15
sg9
F26.62485408782959
sg10
I100
sg11
I200
sa(dp16
g7
(F0.166
F0.734
F0.068
I99
I100
tp17
sg9
F39.92447900772095
sg10
I100
sg11
I300
sa(dp18
g7
(F0.168
F0.614
F0.066
I100
I100
tp19
sg9
F53.23993706703186
sg10
I100
sg11
I400
sa(dp20
g7
(F0.169
F0.65
F0.071
I100
I100
tp21
sg9
F66.47180700302124
sg10
I100
sg11
I500
satp22
Rp23
(dp24
S'log_header'
p25
I01
sS'header'
p26
(S'gen'
p27
S'evals'
p28
g7
S'timestamp'
p29
tp30
sS'columns_len'
p31
(lp32
I3
aI5
aI31
aI9
asS'buffindex'
p33
I6
sS'chapters'
p34
ccollections
defaultdict
p35
(g3
tp36
Rp37
sbsS'SPEA2-SIP'
p38
g2
(g3
g4
(lp39
(dp40
g7
(I0
I0
I0
I0
I0
tp41
sg9
F0.08467388153076172
sg10
I100
sg11
I0
sa(dp42
g7
(F0.155
F0.594
F0.071
I100
I100
tp43
sg9
F53.915400981903076
sg10
I100
sg11
I100
sa(dp44
g7
(F0.164
F0.627
F0.081
I100
I100
tp45
sg9
F118.29196190834045
sg10
I100
sg11
I200
sa(dp46
g7
(F0.166
F0.671
F0.083
I100
I100
tp47
sg9
F184.2925660610199
sg10
I100
sg11
I300
sa(dp48
g7
(F0.166
F0.701
F0.085
I100
I100
tp49
sg9
F250.53073692321777
sg10
I100
sg11
I400
sa(dp50
g7
(F0.168
F0.632
F0.085
I100
I100
tp51
sg9
F314.6348280906677
sg10
I100
sg11
I500
satp52
Rp53
(dp54
g25
I01
sg26
g30
sg31
(lp55
I3
aI5
aI31
aI9
asg33
I6
sg34
g35
(g3
tp56
Rp57
sbsS'SPEA2'
p58
g2
(g3
g4
(lp59
(dp60
g7
g41
sg9
F0.10350894927978516
sg10
I100
sg11
I0
sa(dp61
g7
g41
sg9
F75.03115701675415
sg10
I100
sg11
I100
sa(dp62
g7
g41
sg9
F170.41242814064026
sg10
I100
sg11
I200
sa(dp63
g7
g41
sg9
F280.80691599845886
sg10
I100
sg11
I300
sa(dp64
g7
g41
sg9
F396.58869910240173
sg10
I100
sg11
I400
sa(dp65
g7
g41
sg9
F518.062931060791
sg10
I100
sg11
I500
satp66
Rp67
(dp68
g25
I01
sg26
g30
sg31
(lp69
I3
aI5
aI30
aI9
asg33
I6
sg34
g35
(g3
tp70
Rp71
sbsS'IBEA'
p72
g2
(g3
g4
(lp73
(dp74
g7
g41
sg9
F0.10337591171264648
sg10
I100
sg11
I0
sa(dp75
g7
g41
sg9
F13.147759914398193
sg10
I100
sg11
I100
sa(dp76
g7
g41
sg9
F26.307518005371094
sg10
I100
sg11
I200
sa(dp77
g7
g41
sg9
F39.44947600364685
sg10
I100
sg11
I300
sa(dp78
g7
g41
sg9
F52.59352684020996
sg10
I100
sg11
I400
sa(dp79
g7
g41
sg9
F65.73278903961182
sg10
I100
sg11
I500
satp80
Rp81
(dp82
g25
I01
sg26
g30
sg31
(lp83
I3
aI5
aI30
aI9
asg33
I6
sg34
g35
(g3
tp84
Rp85
sbsS'NSGA2'
p86
g2
(g3
g4
(lp87
(dp88
g7
g41
sg9
F0.10366606712341309
sg10
I100
sg11
I0
sa(dp89
g7
g41
sg9
F16.26439905166626
sg10
I100
sg11
I100
sa(dp90
g7
g41
sg9
F32.28928303718567
sg10
I100
sg11
I200
sa(dp91
g7
g41
sg9
F48.44538593292236
sg10
I100
sg11
I300
sa(dp92
g7
g41
sg9
F64.64082193374634
sg10
I100
sg11
I400
sa(dp93
g7
g41
sg9
F80.8245120048523
sg10
I100
sg11
I500
satp94
Rp95
(dp96
g25
I01
sg26
g30
sg31
(lp97
I3
aI5
aI30
aI9
asg33
I6
sg34
g35
(g3
tp98
Rp99
sbsS'IBEA-SIP'
p100
g2
(g3
g4
(lp101
(dp102
g7
(F0.066
F0.983
F0.04
I2
I2
tp103
sg9
F0.09031009674072266
sg10
I100
sg11
I0
sa(dp104
g7
(F0.157
F0.629
F0.055
I81
I100
tp105
sg9
F11.489986896514893
sg10
I100
sg11
I100
sa(dp106
g7
(F0.164
F0.579
F0.062
I86
I100
tp107
sg9
F23.10295796394348
sg10
I100
sg11
I200
sa(dp108
g7
(F0.171
F0.636
F0.063
I84
I100
tp109
sg9
F34.67634701728821
sg10
I100
sg11
I300
sa(dp110
g7
(F0.174
F0.602
F0.067
I83
I100
tp111
sg9
F46.17710995674133
sg10
I100
sg11
I400
sa(dp112
g7
(F0.175
F0.623
F0.07
I82
I100
tp113
sg9
F57.64690399169922
sg10
I100
sg11
I500
satp114
Rp115
(dp116
g25
I01
sg26
g30
sg31
(lp117
I3
aI5
aI30
aI9
asg33
I6
sg34
g35
(g3
tp118
Rp119
sbs.