(dp0
S'NSGA2-SIP'
p1
ccopy_reg
_reconstructor
p2
(cdeap.tools.support
Logbook
p3
c__builtin__
list
p4
(lp5
(dp6
S'hv|spread|igd|frontier#|valid#'
p7
(F0.057
F1.08
F0.037
I1
I1
tp8
sS'timestamp'
p9
F0.09683394432067871
sS'evals'
p10
I100
sS'gen'
p11
I0
sa(dp12
g7
(F0.15
F0.624
F0.057
I100
I100
tp13
sg9
F14.245023965835571
sg10
I100
sg11
I100
sa(dp14
g7
(F0.16
F0.59
F0.066
I100
I100
tp15
sg9
F28.832183837890625
sg10
I100
sg11
I200
sa(dp16
g7
(F0.172
F0.637
F0.063
I100
I100
tp17
sg9
F43.48300290107727
sg10
I100
sg11
I300
sa(dp18
g7
(F0.173
F0.647
F0.063
I100
I100
tp19
sg9
F58.034422874450684
sg10
I100
sg11
I400
sa(dp20
g7
(F0.173
F0.633
F0.062
I100
I100
tp21
sg9
F72.47253799438477
sg10
I100
sg11
I500
satp22
Rp23
(dp24
S'log_header'
p25
I01
sS'header'
p26
(S'gen'
p27
S'evals'
p28
S'hv|spread|igd|frontier#|valid#'
p29
S'timestamp'
p30
tp31
sS'columns_len'
p32
(lp33
I3
aI5
aI31
aI9
asS'buffindex'
p34
I6
sS'chapters'
p35
ccollections
defaultdict
p36
(g3
tp37
Rp38
sbsS'SPEA2-SIP'
p39
g2
(g3
g4
(lp40
(dp41
g7
(F0.064
F0.988
F0.05
I2
I2
tp42
sg9
F0.10017991065979004
sg10
I100
sg11
I0
sa(dp43
g7
(F0.153
F0.653
F0.083
I100
I100
tp44
sg9
F54.97263479232788
sg10
I100
sg11
I100
sa(dp45
g7
(F0.161
F0.61
F0.09
I100
I100
tp46
sg9
F119.66363382339478
sg10
I100
sg11
I200
sa(dp47
g7
(F0.165
F0.683
F0.095
I100
I100
tp48
sg9
F183.5232048034668
sg10
I100
sg11
I300
sa(dp49
g7
(F0.166
F0.618
F0.094
I100
I100
tp50
sg9
F248.22620391845703
sg10
I100
sg11
I400
sa(dp51
g7
(F0.168
F0.654
F0.094
I100
I100
tp52
sg9
F312.0051498413086
sg10
I100
sg11
I500
satp53
Rp54
(dp55
g25
I01
sg26
g31
sg32
(lp56
I3
aI5
aI31
aI9
asg34
I6
sg35
g36
(g3
tp57
Rp58
sbsS'SPEA2'
p59
g2
(g3
g4
(lp60
(dp61
g7
(I0
I0
I0
I0
I0
tp62
sg9
F0.11289405822753906
sg10
I100
sg11
I0
sa(dp63
g7
g62
sg9
F85.93587589263916
sg10
I100
sg11
I100
sa(dp64
g7
g62
sg9
F198.46003007888794
sg10
I100
sg11
I200
sa(dp65
g7
g62
sg9
F324.8318839073181
sg10
I100
sg11
I300
sa(dp66
g7
g62
sg9
F450.03989696502686
sg10
I100
sg11
I400
sa(dp67
g7
g62
sg9
F577.0720100402832
sg10
I100
sg11
I500
satp68
Rp69
(dp70
g25
I01
sg26
g31
sg32
(lp71
I3
aI5
aI30
aI9
asg34
I6
sg35
g36
(g3
tp72
Rp73
sbsS'IBEA-PEN'
p74
g2
(g3
g4
(lp75
(dp76
g7
g62
sg9
F0.22400903701782227
sg10
I100
sg11
I0
sa(dp77
g7
(F0.167
F0.668
F0.033
I55
I78
tp78
sg9
F21.12421202659607
sg10
I100
sg11
I100
sa(dp79
g7
(F0.177
F0.753
F0.042
I62
I78
tp80
sg9
F42.430344104766846
sg10
I100
sg11
I200
sa(dp81
g7
(F0.167
F0.694
F0.043
I53
I67
tp82
sg9
F63.7008318901062
sg10
I100
sg11
I300
sa(dp83
g7
(F0.167
F0.615
F0.043
I63
I76
tp84
sg9
F84.892098903656
sg10
I100
sg11
I400
sa(dp85
g7
(F0.175
F0.672
F0.039
I56
I73
tp86
sg9
F105.89491701126099
sg10
I100
sg11
I500
satp87
Rp88
(dp89
g25
I01
sg26
g31
sg32
(lp90
I3
aI5
aI30
aI9
asg34
I6
sg35
g36
(g3
tp91
Rp92
sbsS'IBEA'
p93
g2
(g3
g4
(lp94
(dp95
g7
g62
sg9
F0.10711193084716797
sg10
I100
sg11
I0
sa(dp96
g7
g62
sg9
F14.237621068954468
sg10
I100
sg11
I100
sa(dp97
g7
g62
sg9
F28.568140029907227
sg10
I100
sg11
I200
sa(dp98
g7
g62
sg9
F42.887293100357056
sg10
I100
sg11
I300
sa(dp99
g7
g62
sg9
F57.191258907318115
sg10
I100
sg11
I400
sa(dp100
g7
g62
sg9
F71.31888198852539
sg10
I100
sg11
I500
satp101
Rp102
(dp103
g25
I01
sg26
g31
sg32
(lp104
I3
aI5
aI30
aI9
asg34
I6
sg35
g36
(g3
tp105
Rp106
sbsS'NSGA2'
p107
g2
(g3
g4
(lp108
(dp109
g7
g62
sg9
F0.1132359504699707
sg10
I100
sg11
I0
sa(dp110
g7
g62
sg9
F17.517592906951904
sg10
I100
sg11
I100
sa(dp111
g7
g62
sg9
F34.996395111083984
sg10
I100
sg11
I200
sa(dp112
g7
g62
sg9
F52.513148069381714
sg10
I100
sg11
I300
sa(dp113
g7
g62
sg9
F70.05923414230347
sg10
I100
sg11
I400
sa(dp114
g7
g62
sg9
F87.58140802383423
sg10
I100
sg11
I500
satp115
Rp116
(dp117
g25
I01
sg26
g31
sg32
(lp118
I3
aI5
aI30
aI9
asg34
I6
sg35
g36
(g3
tp119
Rp120
sbsS'IBEA-SIP'
p121
g2
(g3
g4
(lp122
(dp123
g7
g62
sg9
F0.09385800361633301
sg10
I100
sg11
I0
sa(dp124
g7
(F0.152
F0.598
F0.06
I84
I100
tp125
sg9
F12.754894971847534
sg10
I100
sg11
I100
sa(dp126
g7
(F0.163
F0.647
F0.062
I88
I100
tp127
sg9
F25.719743013381958
sg10
I100
sg11
I200
sa(dp128
g7
(F0.173
F0.62
F0.069
I91
I100
tp129
sg9
F38.31370496749878
sg10
I100
sg11
I300
sa(dp130
g7
(F0.175
F0.647
F0.067
I87
I100
tp131
sg9
F50.92805886268616
sg10
I100
sg11
I400
sa(dp132
g7
(F0.176
F0.689
F0.074
I88
I100
tp133
sg9
F63.64432096481323
sg10
I100
sg11
I500
satp134
Rp135
(dp136
g25
I01
sg26
g31
sg32
(lp137
I3
aI5
aI30
aI9
asg34
I6
sg35
g36
(g3
tp138
Rp139
sbs.