(dp0
S'NSGA2-SIP'
p1
ccopy_reg
_reconstructor
p2
(cdeap.tools.support
Logbook
p3
c__builtin__
list
p4
(lp5
(dp6
S'hv|spread|igd|frontier#|valid#'
p7
(F0.06
F1.06
F0.024
I1
I1
tp8
sS'timestamp'
p9
F0.10201096534729004
sS'evals'
p10
I100
sS'gen'
p11
I0
sa(dp12
g7
(F0.148
F0.615
F0.058
I100
I100
tp13
sg9
F16.225985050201416
sg10
I100
sg11
I100
sa(dp14
g7
(F0.158
F0.634
F0.062
I100
I100
tp15
sg9
F32.622649908065796
sg10
I100
sg11
I200
sa(dp16
g7
(F0.165
F0.654
F0.066
I100
I100
tp17
sg9
F48.76728796958923
sg10
I100
sg11
I300
sa(dp18
g7
(F0.17
F0.636
F0.064
I100
I100
tp19
sg9
F64.89757585525513
sg10
I100
sg11
I400
sa(dp20
g7
(F0.172
F0.62
F0.065
I100
I100
tp21
sg9
F80.93456602096558
sg10
I100
sg11
I500
satp22
Rp23
(dp24
S'log_header'
p25
I01
sS'header'
p26
(S'gen'
p27
S'evals'
p28
S'hv|spread|igd|frontier#|valid#'
p29
S'timestamp'
p30
tp31
sS'columns_len'
p32
(lp33
I3
aI5
aI31
aI9
asS'buffindex'
p34
I6
sS'chapters'
p35
ccollections
defaultdict
p36
(g3
tp37
Rp38
sbsS'SPEA2-SIP'
p39
g2
(g3
g4
(lp40
(dp41
g7
(F0.055
F0.96
F0.05
I1
I1
tp42
sg9
F0.1013650894165039
sg10
I100
sg11
I0
sa(dp43
g7
(F0.155
F0.611
F0.085
I100
I100
tp44
sg9
F56.127169132232666
sg10
I100
sg11
I100
sa(dp45
g7
(F0.163
F0.623
F0.089
I100
I100
tp46
sg9
F128.1132459640503
sg10
I100
sg11
I200
sa(dp47
g7
(F0.166
F0.662
F0.091
I100
I100
tp48
sg9
F204.49648094177246
sg10
I100
sg11
I300
sa(dp49
g7
(F0.172
F0.668
F0.093
I100
I100
tp50
sg9
F283.8099730014801
sg10
I100
sg11
I400
sa(dp51
g7
(F0.174
F0.65
F0.093
I100
I100
tp52
sg9
F362.78825402259827
sg10
I100
sg11
I500
satp53
Rp54
(dp55
g25
I01
sg26
g31
sg32
(lp56
I3
aI5
aI31
aI9
asg34
I6
sg35
g36
(g3
tp57
Rp58
sbsS'SPEA2'
p59
g2
(g3
g4
(lp60
(dp61
g7
(I0
I0
I0
I0
I0
tp62
sg9
F0.1260371208190918
sg10
I100
sg11
I0
sa(dp63
g7
g62
sg9
F93.16270112991333
sg10
I100
sg11
I100
sa(dp64
g7
g62
sg9
F213.53218507766724
sg10
I100
sg11
I200
sa(dp65
g7
g62
sg9
F343.9068560600281
sg10
I100
sg11
I300
sa(dp66
g7
g62
sg9
F486.255273103714
sg10
I100
sg11
I400
sa(dp67
g7
g62
sg9
F632.4856240749359
sg10
I100
sg11
I500
satp68
Rp69
(dp70
g25
I01
sg26
g31
sg32
(lp71
I3
aI5
aI30
aI9
asg34
I6
sg35
g36
(g3
tp72
Rp73
sbsS'IBEA-PEN'
p74
g2
(g3
g4
(lp75
(dp76
g7
g62
sg9
F0.2659280300140381
sg10
I100
sg11
I0
sa(dp77
g7
g62
sg9
F16.30069398880005
sg10
I100
sg11
I100
sa(dp78
g7
g62
sg9
F32.183330059051514
sg10
I100
sg11
I200
sa(dp79
g7
g62
sg9
F48.02919292449951
sg10
I100
sg11
I300
sa(dp80
g7
g62
sg9
F63.91400504112244
sg10
I100
sg11
I400
sa(dp81
g7
g62
sg9
F79.74543309211731
sg10
I100
sg11
I500
satp82
Rp83
(dp84
g25
I01
sg26
g31
sg32
(lp85
I3
aI5
aI30
aI9
asg34
I6
sg35
g36
(g3
tp86
Rp87
sbsS'IBEA'
p88
g2
(g3
g4
(lp89
(dp90
g7
g62
sg9
F0.12362313270568848
sg10
I100
sg11
I0
sa(dp91
g7
g62
sg9
F15.513177156448364
sg10
I100
sg11
I100
sa(dp92
g7
g62
sg9
F30.941625118255615
sg10
I100
sg11
I200
sa(dp93
g7
g62
sg9
F46.36011719703674
sg10
I100
sg11
I300
sa(dp94
g7
g62
sg9
F61.84105896949768
sg10
I100
sg11
I400
sa(dp95
g7
g62
sg9
F77.40963315963745
sg10
I100
sg11
I500
satp96
Rp97
(dp98
g25
I01
sg26
g31
sg32
(lp99
I3
aI5
aI30
aI9
asg34
I6
sg35
g36
(g3
tp100
Rp101
sbsS'NSGA2'
p102
g2
(g3
g4
(lp103
(dp104
g7
g62
sg9
F0.12281417846679688
sg10
I100
sg11
I0
sa(dp105
g7
g62
sg9
F19.685636043548584
sg10
I100
sg11
I100
sa(dp106
g7
g62
sg9
F39.31480598449707
sg10
I100
sg11
I200
sa(dp107
g7
g62
sg9
F58.98444604873657
sg10
I100
sg11
I300
sa(dp108
g7
g62
sg9
F78.77842998504639
sg10
I100
sg11
I400
sa(dp109
g7
g62
sg9
F98.55299711227417
sg10
I100
sg11
I500
satp110
Rp111
(dp112
g25
I01
sg26
g31
sg32
(lp113
I3
aI5
aI30
aI9
asg34
I6
sg35
g36
(g3
tp114
Rp115
sbsS'IBEA-SIP'
p116
g2
(g3
g4
(lp117
(dp118
g7
g62
sg9
F0.09817194938659668
sg10
I100
sg11
I0
sa(dp119
g7
(F0.165
F0.648
F0.063
I81
I100
tp120
sg9
F13.5815908908844
sg10
I100
sg11
I100
sa(dp121
g7
(F0.174
F0.657
F0.071
I88
I100
tp122
sg9
F27.155722856521606
sg10
I100
sg11
I200
sa(dp123
g7
(F0.182
F0.69
F0.067
I91
I100
tp124
sg9
F40.57030487060547
sg10
I100
sg11
I300
sa(dp125
g7
(F0.184
F0.608
F0.066
I85
I100
tp126
sg9
F53.85102987289429
sg10
I100
sg11
I400
sa(dp127
g7
(F0.186
F0.655
F0.07
I92
I100
tp128
sg9
F67.23111701011658
sg10
I100
sg11
I500
satp129
Rp130
(dp131
g25
I01
sg26
g31
sg32
(lp132
I3
aI5
aI30
aI9
asg34
I6
sg35
g36
(g3
tp133
Rp134
sbs.