(dp0
S'NSGA2-SIP'
p1
ccopy_reg
_reconstructor
p2
(cdeap.tools.support
Logbook
p3
c__builtin__
list
p4
(lp5
(dp6
S'hv|spread|igd|frontier#|valid#'
p7
(F0.056
F0.94
F0.039
I1
I1
tp8
sS'timestamp'
p9
F0.10195302963256836
sS'evals'
p10
I100
sS'gen'
p11
I0
sa(dp12
g7
(F0.152
F0.688
F0.064
I100
I100
tp13
sg9
F16.301834106445312
sg10
I100
sg11
I100
sa(dp14
g7
(F0.156
F0.669
F0.066
I99
I100
tp15
sg9
F32.482118129730225
sg10
I100
sg11
I200
sa(dp16
g7
(F0.164
F0.624
F0.066
I100
I100
tp17
sg9
F48.67851996421814
sg10
I100
sg11
I300
sa(dp18
g7
(F0.165
F0.571
F0.066
I100
I100
tp19
sg9
F64.92532014846802
sg10
I100
sg11
I400
sa(dp20
g7
(F0.165
F0.592
F0.064
I100
I100
tp21
sg9
F81.26237201690674
sg10
I100
sg11
I500
satp22
Rp23
(dp24
S'log_header'
p25
I01
sS'header'
p26
(S'gen'
p27
S'evals'
p28
S'hv|spread|igd|frontier#|valid#'
p29
S'timestamp'
p30
tp31
sS'columns_len'
p32
(lp33
I3
aI5
aI31
aI9
asS'buffindex'
p34
I6
sS'chapters'
p35
ccollections
defaultdict
p36
(g3
tp37
Rp38
sbsS'SPEA2-SIP'
p39
g2
(g3
g4
(lp40
(dp41
g7
(F0.051
F2.283
F0.059
I1
I1
tp42
sg9
F0.10350799560546875
sg10
I100
sg11
I0
sa(dp43
g7
(F0.157
F0.645
F0.08
I100
I100
tp44
sg9
F61.318861961364746
sg10
I100
sg11
I100
sa(dp45
g7
(F0.162
F0.68
F0.087
I100
I100
tp46
sg9
F137.40149903297424
sg10
I100
sg11
I200
sa(dp47
g7
(F0.165
F0.646
F0.089
I100
I100
tp48
sg9
F214.7772409915924
sg10
I100
sg11
I300
sa(dp49
g7
(F0.166
F0.637
F0.088
I100
I100
tp50
sg9
F294.4817969799042
sg10
I100
sg11
I400
sa(dp51
g7
(F0.169
F0.629
F0.092
I100
I100
tp52
sg9
F371.7747120857239
sg10
I100
sg11
I500
satp53
Rp54
(dp55
g25
I01
sg26
g31
sg32
(lp56
I3
aI5
aI31
aI9
asg34
I6
sg35
g36
(g3
tp57
Rp58
sbsS'SPEA2'
p59
g2
(g3
g4
(lp60
(dp61
g7
(I0
I0
I0
I0
I0
tp62
sg9
F0.12372493743896484
sg10
I100
sg11
I0
sa(dp63
g7
g62
sg9
F95.18874406814575
sg10
I100
sg11
I100
sa(dp64
g7
g62
sg9
F214.16588497161865
sg10
I100
sg11
I200
sa(dp65
g7
g62
sg9
F338.71913599967957
sg10
I100
sg11
I300
sa(dp66
g7
g62
sg9
F473.0745439529419
sg10
I100
sg11
I400
sa(dp67
g7
g62
sg9
F610.3799159526825
sg10
I100
sg11
I500
satp68
Rp69
(dp70
g25
I01
sg26
g31
sg32
(lp71
I3
aI5
aI30
aI9
asg34
I6
sg35
g36
(g3
tp72
Rp73
sbsS'IBEA-PEN'
p74
g2
(g3
g4
(lp75
(dp76
g7
(F0.024
F2.036
F0.022
I1
I1
tp77
sg9
F0.2718360424041748
sg10
I100
sg11
I0
sa(dp78
g7
(F0.018
F2.025
F0.01
I1
I1
tp79
sg9
F16.180635929107666
sg10
I100
sg11
I100
sa(dp80
g7
g62
sg9
F32.09705305099487
sg10
I100
sg11
I200
sa(dp81
g7
g62
sg9
F47.91638994216919
sg10
I100
sg11
I300
sa(dp82
g7
g62
sg9
F63.620996952056885
sg10
I100
sg11
I400
sa(dp83
g7
g62
sg9
F79.29002594947815
sg10
I100
sg11
I500
satp84
Rp85
(dp86
g25
I01
sg26
g31
sg32
(lp87
I3
aI5
aI30
aI9
asg34
I6
sg35
g36
(g3
tp88
Rp89
sbsS'IBEA'
p90
g2
(g3
g4
(lp91
(dp92
g7
g62
sg9
F0.12500596046447754
sg10
I100
sg11
I0
sa(dp93
g7
g62
sg9
F15.827859878540039
sg10
I100
sg11
I100
sa(dp94
g7
g62
sg9
F31.470157861709595
sg10
I100
sg11
I200
sa(dp95
g7
g62
sg9
F47.054768800735474
sg10
I100
sg11
I300
sa(dp96
g7
g62
sg9
F62.60195779800415
sg10
I100
sg11
I400
sa(dp97
g7
g62
sg9
F78.15963101387024
sg10
I100
sg11
I500
satp98
Rp99
(dp100
g25
I01
sg26
g31
sg32
(lp101
I3
aI5
aI30
aI9
asg34
I6
sg35
g36
(g3
tp102
Rp103
sbsS'NSGA2'
p104
g2
(g3
g4
(lp105
(dp106
g7
g62
sg9
F0.12239503860473633
sg10
I100
sg11
I0
sa(dp107
g7
g62
sg9
F20.059468984603882
sg10
I100
sg11
I100
sa(dp108
g7
g62
sg9
F39.91560697555542
sg10
I100
sg11
I200
sa(dp109
g7
g62
sg9
F59.78903412818909
sg10
I100
sg11
I300
sa(dp110
g7
g62
sg9
F79.65378713607788
sg10
I100
sg11
I400
sa(dp111
g7
g62
sg9
F99.47388505935669
sg10
I100
sg11
I500
satp112
Rp113
(dp114
g25
I01
sg26
g31
sg32
(lp115
I3
aI5
aI30
aI9
asg34
I6
sg35
g36
(g3
tp116
Rp117
sbsS'IBEA-SIP'
p118
g2
(g3
g4
(lp119
(dp120
g7
g62
sg9
F0.0992739200592041
sg10
I100
sg11
I0
sa(dp121
g7
(F0.156
F0.727
F0.06
I86
I100
tp122
sg9
F13.781344890594482
sg10
I100
sg11
I100
sa(dp123
g7
(F0.166
F0.697
F0.072
I85
I100
tp124
sg9
F27.54780888557434
sg10
I100
sg11
I200
sa(dp125
g7
(F0.173
F0.632
F0.068
I91
I100
tp126
sg9
F41.28987503051758
sg10
I100
sg11
I300
sa(dp127
g7
(F0.176
F0.685
F0.07
I88
I100
tp128
sg9
F54.873443841934204
sg10
I100
sg11
I400
sa(dp129
g7
(F0.188
F0.638
F0.069
I88
I100
tp130
sg9
F68.44281387329102
sg10
I100
sg11
I500
satp131
Rp132
(dp133
g25
I01
sg26
g31
sg32
(lp134
I3
aI5
aI30
aI9
asg34
I6
sg35
g36
(g3
tp135
Rp136
sbs.