(dp0
S'NSGA2-SIP'
p1
ccopy_reg
_reconstructor
p2
(cdeap.tools.support
Logbook
p3
c__builtin__
list
p4
(lp5
(dp6
S'hv|spread|igd|frontier#|valid#'
p7
(F0.059
F1.14
F0.032
I1
I1
tp8
sS'timestamp'
p9
F0.08801984786987305
sS'evals'
p10
I100
sS'gen'
p11
I0
sa(dp12
g7
(F0.157
F0.648
F0.056
I100
I100
tp13
sg9
F13.553703784942627
sg10
I100
sg11
I100
sa(dp14
g7
(F0.165
F0.685
F0.057
I100
I100
tp15
sg9
F27.073707818984985
sg10
I100
sg11
I200
sa(dp16
g7
(F0.17
F0.622
F0.059
I100
I100
tp17
sg9
F40.597768783569336
sg10
I100
sg11
I300
sa(dp18
g7
(F0.173
F0.634
F0.06
I100
I100
tp19
sg9
F54.01363182067871
sg10
I100
sg11
I400
sa(dp20
g7
(F0.175
F0.627
F0.064
I100
I100
tp21
sg9
F67.35071587562561
sg10
I100
sg11
I500
satp22
Rp23
(dp24
S'log_header'
p25
I01
sS'header'
p26
(S'gen'
p27
S'evals'
p28
S'hv|spread|igd|frontier#|valid#'
p29
S'timestamp'
p30
tp31
sS'columns_len'
p32
(lp33
I3
aI5
aI31
aI9
asS'buffindex'
p34
I6
sS'chapters'
p35
ccollections
defaultdict
p36
(g3
tp37
Rp38
sbsS'SPEA2-SIP'
p39
g2
(g3
g4
(lp40
(dp41
g7
(F0.068
F0.972
F0.027
I2
I2
tp42
sg9
F0.08984708786010742
sg10
I100
sg11
I0
sa(dp43
g7
(F0.154
F0.63
F0.073
I100
I100
tp44
sg9
F50.06552505493164
sg10
I100
sg11
I100
sa(dp45
g7
(F0.161
F0.71
F0.083
I100
I100
tp46
sg9
F112.72891402244568
sg10
I100
sg11
I200
sa(dp47
g7
(F0.172
F0.581
F0.087
I100
I100
tp48
sg9
F175.9931640625
sg10
I100
sg11
I300
sa(dp49
g7
(F0.175
F0.614
F0.087
I100
I100
tp50
sg9
F240.1397190093994
sg10
I100
sg11
I400
sa(dp51
g7
(F0.176
F0.59
F0.088
I100
I100
tp52
sg9
F305.74343490600586
sg10
I100
sg11
I500
satp53
Rp54
(dp55
g25
I01
sg26
g31
sg32
(lp56
I3
aI5
aI31
aI9
asg34
I6
sg35
g36
(g3
tp57
Rp58
sbsS'SPEA2'
p59
g2
(g3
g4
(lp60
(dp61
g7
(I0
I0
I0
I0
I0
tp62
sg9
F0.10409903526306152
sg10
I100
sg11
I0
sa(dp63
g7
g62
sg9
F92.98104095458984
sg10
I100
sg11
I100
sa(dp64
g7
g62
sg9
F199.35372805595398
sg10
I100
sg11
I200
sa(dp65
g7
g62
sg9
F312.65395402908325
sg10
I100
sg11
I300
sa(dp66
g7
g62
sg9
F426.96287298202515
sg10
I100
sg11
I400
sa(dp67
g7
g62
sg9
F547.9150240421295
sg10
I100
sg11
I500
satp68
Rp69
(dp70
g25
I01
sg26
g31
sg32
(lp71
I3
aI5
aI30
aI9
asg34
I6
sg35
g36
(g3
tp72
Rp73
sbsS'IBEA'
p74
g2
(g3
g4
(lp75
(dp76
g7
g62
sg9
F0.10346293449401855
sg10
I100
sg11
I0
sa(dp77
g7
g62
sg9
F13.122436046600342
sg10
I100
sg11
I100
sa(dp78
g7
g62
sg9
F26.17089295387268
sg10
I100
sg11
I200
sa(dp79
g7
g62
sg9
F39.24388289451599
sg10
I100
sg11
I300
sa(dp80
g7
g62
sg9
F52.3104510307312
sg10
I100
sg11
I400
sa(dp81
g7
g62
sg9
F65.38443088531494
sg10
I100
sg11
I500
satp82
Rp83
(dp84
g25
I01
sg26
g31
sg32
(lp85
I3
aI5
aI30
aI9
asg34
I6
sg35
g36
(g3
tp86
Rp87
sbsS'NSGA2'
p88
g2
(g3
g4
(lp89
(dp90
g7
g62
sg9
F0.10209298133850098
sg10
I100
sg11
I0
sa(dp91
g7
g62
sg9
F15.94650387763977
sg10
I100
sg11
I100
sa(dp92
g7
g62
sg9
F31.911003828048706
sg10
I100
sg11
I200
sa(dp93
g7
g62
sg9
F47.93224787712097
sg10
I100
sg11
I300
sa(dp94
g7
g62
sg9
F64.03654599189758
sg10
I100
sg11
I400
sa(dp95
g7
g62
sg9
F80.09695076942444
sg10
I100
sg11
I500
satp96
Rp97
(dp98
g25
I01
sg26
g31
sg32
(lp99
I3
aI5
aI30
aI9
asg34
I6
sg35
g36
(g3
tp100
Rp101
sbsS'IBEA-SIP'
p102
g2
(g3
g4
(lp103
(dp104
g7
(F0.072
F0.962
F0.011
I3
I4
tp105
sg9
F0.09288406372070312
sg10
I100
sg11
I0
sa(dp106
g7
(F0.162
F0.693
F0.058
I78
I100
tp107
sg9
F11.623812913894653
sg10
I100
sg11
I100
sa(dp108
g7
(F0.174
F0.636
F0.069
I89
I100
tp109
sg9
F23.378278017044067
sg10
I100
sg11
I200
sa(dp110
g7
(F0.177
F0.627
F0.066
I87
I100
tp111
sg9
F35.05141091346741
sg10
I100
sg11
I300
sa(dp112
g7
(F0.184
F0.61
F0.069
I89
I100
tp113
sg9
F46.753340005874634
sg10
I100
sg11
I400
sa(dp114
g7
(F0.185
F0.628
F0.067
I91
I100
tp115
sg9
F58.5826199054718
sg10
I100
sg11
I500
satp116
Rp117
(dp118
g25
I01
sg26
g31
sg32
(lp119
I3
aI5
aI30
aI9
asg34
I6
sg35
g36
(g3
tp120
Rp121
sbs.