(dp0
S'NSGA2-SIP'
p1
ccopy_reg
_reconstructor
p2
(cdeap.tools.support
Logbook
p3
c__builtin__
list
p4
(lp5
(dp6
S'hv|spread|igd|frontier#|valid#'
p7
(F0.061
F2.236
F0.042
I1
I1
tp8
sS'timestamp'
p9
F0.11301803588867188
sS'evals'
p10
I100
sS'gen'
p11
I0
sa(dp12
g7
(F0.152
F0.622
F0.05
I100
I100
tp13
sg9
F13.469740867614746
sg10
I100
sg11
I100
sa(dp14
g7
(F0.161
F0.559
F0.056
I100
I100
tp15
sg9
F26.783334016799927
sg10
I100
sg11
I200
sa(dp16
g7
(F0.168
F0.652
F0.055
I100
I100
tp17
sg9
F40.10244083404541
sg10
I100
sg11
I300
sa(dp18
g7
(F0.169
F0.612
F0.058
I100
I100
tp19
sg9
F53.382776975631714
sg10
I100
sg11
I400
sa(dp20
g7
(F0.17
F0.632
F0.059
I100
I100
tp21
sg9
F66.6768889427185
sg10
I100
sg11
I500
satp22
Rp23
(dp24
S'log_header'
p25
I01
sS'header'
p26
(S'gen'
p27
S'evals'
p28
S'hv|spread|igd|frontier#|valid#'
p29
S'timestamp'
p30
tp31
sS'columns_len'
p32
(lp33
I3
aI5
aI31
aI9
asS'buffindex'
p34
I6
sS'chapters'
p35
ccollections
defaultdict
p36
(g3
tp37
Rp38
sbsS'SPEA2-SIP'
p39
g2
(g3
g4
(lp40
(dp41
g7
(I0
I0
I0
I0
I0
tp42
sg9
F0.09350395202636719
sg10
I100
sg11
I0
sa(dp43
g7
(F0.144
F0.638
F0.091
I100
I100
tp44
sg9
F48.431869983673096
sg10
I100
sg11
I100
sa(dp45
g7
(F0.152
F0.625
F0.093
I100
I100
tp46
sg9
F105.15825986862183
sg10
I100
sg11
I200
sa(dp47
g7
(F0.159
F0.721
F0.093
I100
I100
tp48
sg9
F164.91032195091248
sg10
I100
sg11
I300
sa(dp49
g7
(F0.161
F0.6
F0.092
I100
I100
tp50
sg9
F227.54334688186646
sg10
I100
sg11
I400
sa(dp51
g7
(F0.165
F0.626
F0.093
I100
I100
tp52
sg9
F291.164794921875
sg10
I100
sg11
I500
satp53
Rp54
(dp55
g25
I01
sg26
g31
sg32
(lp56
I3
aI5
aI31
aI9
asg34
I6
sg35
g36
(g3
tp57
Rp58
sbsS'SPEA2'
p59
g2
(g3
g4
(lp60
(dp61
g7
g42
sg9
F0.11993908882141113
sg10
I100
sg11
I0
sa(dp62
g7
g42
sg9
F87.19488000869751
sg10
I100
sg11
I100
sa(dp63
g7
g42
sg9
F192.50647616386414
sg10
I100
sg11
I200
sa(dp64
g7
g42
sg9
F311.5017890930176
sg10
I100
sg11
I300
sa(dp65
g7
g42
sg9
F435.93897104263306
sg10
I100
sg11
I400
sa(dp66
g7
g42
sg9
F558.2262010574341
sg10
I100
sg11
I500
satp67
Rp68
(dp69
g25
I01
sg26
g31
sg32
(lp70
I3
aI5
aI30
aI9
asg34
I6
sg35
g36
(g3
tp71
Rp72
sbsS'IBEA-PEN'
p73
g2
(g3
g4
(lp74
(dp75
g7
g42
sg9
F0.2653961181640625
sg10
I100
sg11
I0
sa(dp76
g7
g42
sg9
F13.934556007385254
sg10
I100
sg11
I100
sa(dp77
g7
g42
sg9
F27.328734159469604
sg10
I100
sg11
I200
sa(dp78
g7
g42
sg9
F40.66110110282898
sg10
I100
sg11
I300
sa(dp79
g7
g42
sg9
F54.038023948669434
sg10
I100
sg11
I400
sa(dp80
g7
g42
sg9
F67.40718913078308
sg10
I100
sg11
I500
satp81
Rp82
(dp83
g25
I01
sg26
g31
sg32
(lp84
I3
aI5
aI30
aI9
asg34
I6
sg35
g36
(g3
tp85
Rp86
sbsS'IBEA'
p87
g2
(g3
g4
(lp88
(dp89
g7
g42
sg9
F0.11628007888793945
sg10
I100
sg11
I0
sa(dp90
g7
g42
sg9
F13.484302043914795
sg10
I100
sg11
I100
sa(dp91
g7
g42
sg9
F26.726864099502563
sg10
I100
sg11
I200
sa(dp92
g7
g42
sg9
F39.96125507354736
sg10
I100
sg11
I300
sa(dp93
g7
g42
sg9
F53.257466077804565
sg10
I100
sg11
I400
sa(dp94
g7
g42
sg9
F66.53093409538269
sg10
I100
sg11
I500
satp95
Rp96
(dp97
g25
I01
sg26
g31
sg32
(lp98
I3
aI5
aI30
aI9
asg34
I6
sg35
g36
(g3
tp99
Rp100
sbsS'NSGA2'
p101
g2
(g3
g4
(lp102
(dp103
g7
g42
sg9
F0.1148219108581543
sg10
I100
sg11
I0
sa(dp104
g7
g42
sg9
F16.325485944747925
sg10
I100
sg11
I100
sa(dp105
g7
g42
sg9
F32.33995294570923
sg10
I100
sg11
I200
sa(dp106
g7
g42
sg9
F48.65032410621643
sg10
I100
sg11
I300
sa(dp107
g7
g42
sg9
F64.6707079410553
sg10
I100
sg11
I400
sa(dp108
g7
g42
sg9
F80.71596598625183
sg10
I100
sg11
I500
satp109
Rp110
(dp111
g25
I01
sg26
g31
sg32
(lp112
I3
aI5
aI30
aI9
asg34
I6
sg35
g36
(g3
tp113
Rp114
sbsS'IBEA-SIP'
p115
g2
(g3
g4
(lp116
(dp117
g7
(F0.061
F0.92
F0.024
I1
I1
tp118
sg9
F0.09711313247680664
sg10
I100
sg11
I0
sa(dp119
g7
(F0.158
F0.558
F0.065
I81
I100
tp120
sg9
F11.928442001342773
sg10
I100
sg11
I100
sa(dp121
g7
(F0.164
F0.715
F0.065
I84
I100
tp122
sg9
F23.661673069000244
sg10
I100
sg11
I200
sa(dp123
g7
(F0.173
F0.617
F0.073
I87
I100
tp124
sg9
F35.301820039749146
sg10
I100
sg11
I300
sa(dp125
g7
(F0.175
F0.743
F0.072
I92
I100
tp126
sg9
F47.049418926239014
sg10
I100
sg11
I400
sa(dp127
g7
(F0.176
F0.712
F0.069
I92
I100
tp128
sg9
F58.738353967666626
sg10
I100
sg11
I500
satp129
Rp130
(dp131
g25
I01
sg26
g31
sg32
(lp132
I3
aI5
aI30
aI9
asg34
I6
sg35
g36
(g3
tp133
Rp134
sbs.