(dp0
S'NSGA2-SIP'
p1
ccopy_reg
_reconstructor
p2
(cdeap.tools.support
Logbook
p3
c__builtin__
list
p4
(lp5
(dp6
S'hv|spread|igd|frontier#|valid#'
p7
(F0.068
F0.976
F0.042
I2
I2
tp8
sS'timestamp'
p9
F0.09866905212402344
sS'evals'
p10
I100
sS'gen'
p11
I0
sa(dp12
g7
(F0.155
F0.624
F0.062
I99
I100
tp13
sg9
F15.039201021194458
sg10
I100
sg11
I100
sa(dp14
g7
(F0.164
F0.643
F0.063
I100
I100
tp15
sg9
F30.08522605895996
sg10
I100
sg11
I200
sa(dp16
g7
(F0.175
F0.64
F0.065
I100
I100
tp17
sg9
F44.76186203956604
sg10
I100
sg11
I300
sa(dp18
g7
(F0.177
F0.557
F0.069
I100
I100
tp19
sg9
F59.46492600440979
sg10
I100
sg11
I400
sa(dp20
g7
(F0.178
F0.487
F0.069
I100
I100
tp21
sg9
F73.63443803787231
sg10
I100
sg11
I500
satp22
Rp23
(dp24
S'log_header'
p25
I01
sS'header'
p26
(S'gen'
p27
S'evals'
p28
S'hv|spread|igd|frontier#|valid#'
p29
S'timestamp'
p30
tp31
sS'columns_len'
p32
(lp33
I3
aI5
aI31
aI9
asS'buffindex'
p34
I6
sS'chapters'
p35
ccollections
defaultdict
p36
(g3
tp37
Rp38
sbsS'SPEA2-SIP'
p39
g2
(g3
g4
(lp40
(dp41
g7
(I0
I0
I0
I0
I0
tp42
sg9
F0.09256982803344727
sg10
I100
sg11
I0
sa(dp43
g7
(F0.161
F0.625
F0.083
I100
I100
tp44
sg9
F54.65320181846619
sg10
I100
sg11
I100
sa(dp45
g7
(F0.168
F0.597
F0.089
I100
I100
tp46
sg9
F125.20684003829956
sg10
I100
sg11
I200
sa(dp47
g7
(F0.172
F0.613
F0.091
I100
I100
tp48
sg9
F198.4974718093872
sg10
I100
sg11
I300
sa(dp49
g7
(F0.173
F0.694
F0.089
I100
I100
tp50
sg9
F272.5799000263214
sg10
I100
sg11
I400
sa(dp51
g7
(F0.174
F0.587
F0.089
I100
I100
tp52
sg9
F348.1402368545532
sg10
I100
sg11
I500
satp53
Rp54
(dp55
g25
I01
sg26
g31
sg32
(lp56
I3
aI5
aI31
aI9
asg34
I6
sg35
g36
(g3
tp57
Rp58
sbsS'SPEA2'
p59
g2
(g3
g4
(lp60
(dp61
g7
g42
sg9
F0.11423587799072266
sg10
I100
sg11
I0
sa(dp62
g7
g42
sg9
F90.9359838962555
sg10
I100
sg11
I100
sa(dp63
g7
g42
sg9
F210.7650818824768
sg10
I100
sg11
I200
sa(dp64
g7
g42
sg9
F335.63366198539734
sg10
I100
sg11
I300
sa(dp65
g7
g42
sg9
F458.5989170074463
sg10
I100
sg11
I400
sa(dp66
g7
g42
sg9
F586.4377870559692
sg10
I100
sg11
I500
satp67
Rp68
(dp69
g25
I01
sg26
g31
sg32
(lp70
I3
aI5
aI30
aI9
asg34
I6
sg35
g36
(g3
tp71
Rp72
sbsS'IBEA-PEN'
p73
g2
(g3
g4
(lp74
(dp75
g7
(F0.034
F1.5
F0.014
I1
I1
tp76
sg9
F0.22587990760803223
sg10
I100
sg11
I0
sa(dp77
g7
(F0.163
F0.681
F0.029
I56
I64
tp78
sg9
F21.240619897842407
sg10
I100
sg11
I100
sa(dp79
g7
(F0.169
F0.592
F0.035
I53
I70
tp80
sg9
F42.38379192352295
sg10
I100
sg11
I200
sa(dp81
g7
(F0.181
F0.66
F0.042
I66
I82
tp82
sg9
F63.68021011352539
sg10
I100
sg11
I300
sa(dp83
g7
(F0.185
F0.602
F0.044
I63
I84
tp84
sg9
F84.94998407363892
sg10
I100
sg11
I400
sa(dp85
g7
(F0.17
F0.623
F0.044
I37
I62
tp86
sg9
F106.10292506217957
sg10
I100
sg11
I500
satp87
Rp88
(dp89
g25
I01
sg26
g31
sg32
(lp90
I3
aI5
aI30
aI9
asg34
I6
sg35
g36
(g3
tp91
Rp92
sbsS'IBEA'
p93
g2
(g3
g4
(lp94
(dp95
g7
g42
sg9
F0.11285400390625
sg10
I100
sg11
I0
sa(dp96
g7
g42
sg9
F14.326782941818237
sg10
I100
sg11
I100
sa(dp97
g7
g42
sg9
F28.629560947418213
sg10
I100
sg11
I200
sa(dp98
g7
g42
sg9
F42.93128204345703
sg10
I100
sg11
I300
sa(dp99
g7
g42
sg9
F57.32262587547302
sg10
I100
sg11
I400
sa(dp100
g7
g42
sg9
F71.69830393791199
sg10
I100
sg11
I500
satp101
Rp102
(dp103
g25
I01
sg26
g31
sg32
(lp104
I3
aI5
aI30
aI9
asg34
I6
sg35
g36
(g3
tp105
Rp106
sbsS'NSGA2'
p107
g2
(g3
g4
(lp108
(dp109
g7
g42
sg9
F0.11165308952331543
sg10
I100
sg11
I0
sa(dp110
g7
g42
sg9
F17.633336067199707
sg10
I100
sg11
I100
sa(dp111
g7
g42
sg9
F35.13932394981384
sg10
I100
sg11
I200
sa(dp112
g7
g42
sg9
F52.72481393814087
sg10
I100
sg11
I300
sa(dp113
g7
g42
sg9
F70.28566789627075
sg10
I100
sg11
I400
sa(dp114
g7
g42
sg9
F87.85885500907898
sg10
I100
sg11
I500
satp115
Rp116
(dp117
g25
I01
sg26
g31
sg32
(lp118
I3
aI5
aI30
aI9
asg34
I6
sg35
g36
(g3
tp119
Rp120
sbsS'IBEA-SIP'
p121
g2
(g3
g4
(lp122
(dp123
g7
g42
sg9
F0.09243917465209961
sg10
I100
sg11
I0
sa(dp124
g7
(F0.162
F0.701
F0.058
I88
I100
tp125
sg9
F12.685461044311523
sg10
I100
sg11
I100
sa(dp126
g7
(F0.171
F0.731
F0.059
I76
I100
tp127
sg9
F25.025269031524658
sg10
I100
sg11
I200
sa(dp128
g7
(F0.176
F0.691
F0.065
I89
I100
tp129
sg9
F37.56750202178955
sg10
I100
sg11
I300
sa(dp130
g7
(F0.178
F0.663
F0.063
I88
I100
tp131
sg9
F50.076115131378174
sg10
I100
sg11
I400
sa(dp132
g7
(F0.183
F0.723
F0.064
I88
I100
tp133
sg9
F62.52213215827942
sg10
I100
sg11
I500
satp134
Rp135
(dp136
g25
I01
sg26
g31
sg32
(lp137
I3
aI5
aI30
aI9
asg34
I6
sg35
g36
(g3
tp138
Rp139
sbs.