(dp0
S'NSGA2-SIP'
p1
ccopy_reg
_reconstructor
p2
(cdeap.tools.support
Logbook
p3
c__builtin__
list
p4
(lp5
(dp6
S'hv|spread|igd|frontier#|valid#'
p7
(I0
I0
I0
I0
I0
tp8
sS'timestamp'
p9
F0.09448003768920898
sS'evals'
p10
I100
sS'gen'
p11
I0
sa(dp12
g7
(F0.149
F0.55
F0.062
I100
I100
tp13
sg9
F14.977647066116333
sg10
I100
sg11
I100
sa(dp14
g7
(F0.159
F0.688
F0.063
I100
I100
tp15
sg9
F29.93534803390503
sg10
I100
sg11
I200
sa(dp16
g7
(F0.166
F0.578
F0.066
I100
I100
tp17
sg9
F45.06787610054016
sg10
I100
sg11
I300
sa(dp18
g7
(F0.169
F0.607
F0.065
I100
I100
tp19
sg9
F60.173749923706055
sg10
I100
sg11
I400
sa(dp20
g7
(F0.171
F0.587
F0.064
I100
I100
tp21
sg9
F75.2627010345459
sg10
I100
sg11
I500
satp22
Rp23
(dp24
S'log_header'
p25
I01
sS'header'
p26
(S'gen'
p27
S'evals'
p28
S'hv|spread|igd|frontier#|valid#'
p29
S'timestamp'
p30
tp31
sS'columns_len'
p32
(lp33
I3
aI5
aI31
aI9
asS'buffindex'
p34
I6
sS'chapters'
p35
ccollections
defaultdict
p36
(g3
tp37
Rp38
sbsS'SPEA2-SIP'
p39
g2
(g3
g4
(lp40
(dp41
g7
(F0.065
F1.08
F0.01
I1
I1
tp42
sg9
F0.09685492515563965
sg10
I100
sg11
I0
sa(dp43
g7
(F0.151
F0.618
F0.089
I100
I100
tp44
sg9
F59.1550018787384
sg10
I100
sg11
I100
sa(dp45
g7
(F0.157
F0.668
F0.09
I100
I100
tp46
sg9
F128.57572388648987
sg10
I100
sg11
I200
sa(dp47
g7
(F0.158
F0.655
F0.09
I100
I100
tp48
sg9
F201.90506792068481
sg10
I100
sg11
I300
sa(dp49
g7
(F0.165
F0.591
F0.09
I100
I100
tp50
sg9
F274.21420884132385
sg10
I100
sg11
I400
sa(dp51
g7
(F0.166
F0.588
F0.095
I100
I100
tp52
sg9
F349.4157428741455
sg10
I100
sg11
I500
satp53
Rp54
(dp55
g25
I01
sg26
g31
sg32
(lp56
I3
aI5
aI31
aI9
asg34
I6
sg35
g36
(g3
tp57
Rp58
sbsS'SPEA2'
p59
g2
(g3
g4
(lp60
(dp61
g7
g8
sg9
F0.11380314826965332
sg10
I100
sg11
I0
sa(dp62
g7
g8
sg9
F88.97454810142517
sg10
I100
sg11
I100
sa(dp63
g7
g8
sg9
F194.28348016738892
sg10
I100
sg11
I200
sa(dp64
g7
g8
sg9
F317.3589491844177
sg10
I100
sg11
I300
sa(dp65
g7
g8
sg9
F447.5852460861206
sg10
I100
sg11
I400
sa(dp66
g7
g8
sg9
F581.519287109375
sg10
I100
sg11
I500
satp67
Rp68
(dp69
g25
I01
sg26
g31
sg32
(lp70
I3
aI5
aI30
aI9
asg34
I6
sg35
g36
(g3
tp71
Rp72
sbsS'IBEA-PEN'
p73
g2
(g3
g4
(lp74
(dp75
g7
g8
sg9
F0.2245011329650879
sg10
I100
sg11
I0
sa(dp76
g7
(F0.158
F0.684
F0.039
I51
I75
tp77
sg9
F21.540346145629883
sg10
I100
sg11
I100
sa(dp78
g7
(F0.174
F0.656
F0.047
I65
I84
tp79
sg9
F43.232102155685425
sg10
I100
sg11
I200
sa(dp80
g7
(F0.178
F0.682
F0.033
I56
I71
tp81
sg9
F64.92589807510376
sg10
I100
sg11
I300
sa(dp82
g7
(F0.175
F0.733
F0.03
I54
I78
tp83
sg9
F86.54991221427917
sg10
I100
sg11
I400
sa(dp84
g7
(F0.18
F0.576
F0.044
I59
I75
tp85
sg9
F108.07394409179688
sg10
I100
sg11
I500
satp86
Rp87
(dp88
g25
I01
sg26
g31
sg32
(lp89
I3
aI5
aI30
aI9
asg34
I6
sg35
g36
(g3
tp90
Rp91
sbsS'IBEA'
p92
g2
(g3
g4
(lp93
(dp94
g7
g8
sg9
F0.11356520652770996
sg10
I100
sg11
I0
sa(dp95
g7
g8
sg9
F14.87611722946167
sg10
I100
sg11
I100
sa(dp96
g7
g8
sg9
F29.585548162460327
sg10
I100
sg11
I200
sa(dp97
g7
g8
sg9
F44.3011691570282
sg10
I100
sg11
I300
sa(dp98
g7
g8
sg9
F58.942235231399536
sg10
I100
sg11
I400
sa(dp99
g7
g8
sg9
F73.67298603057861
sg10
I100
sg11
I500
satp100
Rp101
(dp102
g25
I01
sg26
g31
sg32
(lp103
I3
aI5
aI30
aI9
asg34
I6
sg35
g36
(g3
tp104
Rp105
sbsS'NSGA2'
p106
g2
(g3
g4
(lp107
(dp108
g7
g8
sg9
F0.11500310897827148
sg10
I100
sg11
I0
sa(dp109
g7
g8
sg9
F17.854687213897705
sg10
I100
sg11
I100
sa(dp110
g7
g8
sg9
F35.67834520339966
sg10
I100
sg11
I200
sa(dp111
g7
g8
sg9
F53.47001814842224
sg10
I100
sg11
I300
sa(dp112
g7
g8
sg9
F71.13905906677246
sg10
I100
sg11
I400
sa(dp113
g7
g8
sg9
F88.71270418167114
sg10
I100
sg11
I500
satp114
Rp115
(dp116
g25
I01
sg26
g31
sg32
(lp117
I3
aI5
aI30
aI9
asg34
I6
sg35
g36
(g3
tp118
Rp119
sbsS'IBEA-SIP'
p120
g2
(g3
g4
(lp121
(dp122
g7
g8
sg9
F0.09362101554870605
sg10
I100
sg11
I0
sa(dp123
g7
(F0.147
F0.704
F0.059
I81
I100
tp124
sg9
F12.916522979736328
sg10
I100
sg11
I100
sa(dp125
g7
(F0.174
F0.717
F0.066
I91
I100
tp126
sg9
F26.27366304397583
sg10
I100
sg11
I200
sa(dp127
g7
(F0.181
F0.574
F0.067
I88
I100
tp128
sg9
F39.321239948272705
sg10
I100
sg11
I300
sa(dp129
g7
(F0.186
F0.666
F0.069
I89
I100
tp130
sg9
F52.37599492073059
sg10
I100
sg11
I400
sa(dp131
g7
(F0.187
F0.67
F0.066
I90
I100
tp132
sg9
F65.01298999786377
sg10
I100
sg11
I500
satp133
Rp134
(dp135
g25
I01
sg26
g31
sg32
(lp136
I3
aI5
aI30
aI9
asg34
I6
sg35
g36
(g3
tp137
Rp138
sbs.