(dp0
S'NSGA2-SIP'
p1
ccopy_reg
_reconstructor
p2
(cdeap.tools.support
Logbook
p3
c__builtin__
list
p4
(lp5
(dp6
S'hv|spread|igd|frontier#|valid#'
p7
(F0.061
F2.227
F0.026
I1
I1
tp8
sS'timestamp'
p9
F0.09908008575439453
sS'evals'
p10
I100
sS'gen'
p11
I0
sa(dp12
g7
(F0.156
F0.626
F0.056
I100
I100
tp13
sg9
F13.552742958068848
sg10
I100
sg11
I100
sa(dp14
g7
(F0.164
F0.695
F0.06
I100
I100
tp15
sg9
F27.10635805130005
sg10
I100
sg11
I200
sa(dp16
g7
(F0.168
F0.651
F0.063
I100
I100
tp17
sg9
F40.788089990615845
sg10
I100
sg11
I300
sa(dp18
g7
(F0.17
F0.59
F0.065
I100
I100
tp19
sg9
F54.23521113395691
sg10
I100
sg11
I400
sa(dp20
g7
(F0.173
F0.619
F0.065
I100
I100
tp21
sg9
F67.6279079914093
sg10
I100
sg11
I500
satp22
Rp23
(dp24
S'log_header'
p25
I01
sS'header'
p26
(S'gen'
p27
S'evals'
p28
S'hv|spread|igd|frontier#|valid#'
p29
S'timestamp'
p30
tp31
sS'columns_len'
p32
(lp33
I3
aI5
aI31
aI9
asS'buffindex'
p34
I6
sS'chapters'
p35
ccollections
defaultdict
p36
(g3
tp37
Rp38
sbsS'SPEA2-SIP'
p39
g2
(g3
g4
(lp40
(dp41
g7
(F0.077
F0.91
F0.028
I2
I2
tp42
sg9
F0.11858987808227539
sg10
I100
sg11
I0
sa(dp43
g7
(F0.156
F0.677
F0.083
I100
I100
tp44
sg9
F50.69515585899353
sg10
I100
sg11
I100
sa(dp45
g7
(F0.164
F0.605
F0.092
I100
I100
tp46
sg9
F108.17621493339539
sg10
I100
sg11
I200
sa(dp47
g7
(F0.166
F0.635
F0.092
I100
I100
tp48
sg9
F168.3317449092865
sg10
I100
sg11
I300
sa(dp49
g7
(F0.168
F0.629
F0.091
I100
I100
tp50
sg9
F227.51810884475708
sg10
I100
sg11
I400
sa(dp51
g7
(F0.169
F0.595
F0.09
I100
I100
tp52
sg9
F288.1674509048462
sg10
I100
sg11
I500
satp53
Rp54
(dp55
g25
I01
sg26
g31
sg32
(lp56
I3
aI5
aI31
aI9
asg34
I6
sg35
g36
(g3
tp57
Rp58
sbsS'SPEA2'
p59
g2
(g3
g4
(lp60
(dp61
g7
(I0
I0
I0
I0
I0
tp62
sg9
F0.12004685401916504
sg10
I100
sg11
I0
sa(dp63
g7
g62
sg9
F93.2234799861908
sg10
I100
sg11
I100
sa(dp64
g7
g62
sg9
F199.58714199066162
sg10
I100
sg11
I200
sa(dp65
g7
g62
sg9
F320.35786390304565
sg10
I100
sg11
I300
sa(dp66
g7
g62
sg9
F448.7038609981537
sg10
I100
sg11
I400
sa(dp67
g7
g62
sg9
F567.3798418045044
sg10
I100
sg11
I500
satp68
Rp69
(dp70
g25
I01
sg26
g31
sg32
(lp71
I3
aI5
aI30
aI9
asg34
I6
sg35
g36
(g3
tp72
Rp73
sbsS'IBEA-PEN'
p74
g2
(g3
g4
(lp75
(dp76
g7
(F0.087
F0.937
F0.01
I3
I3
tp77
sg9
F0.2515389919281006
sg10
I100
sg11
I0
sa(dp78
g7
(F0.021
F2.032
F0.02
I1
I1
tp79
sg9
F13.889026165008545
sg10
I100
sg11
I100
sa(dp80
g7
g62
sg9
F27.297706127166748
sg10
I100
sg11
I200
sa(dp81
g7
g62
sg9
F40.907647132873535
sg10
I100
sg11
I300
sa(dp82
g7
g62
sg9
F54.166337966918945
sg10
I100
sg11
I400
sa(dp83
g7
g62
sg9
F67.48252010345459
sg10
I100
sg11
I500
satp84
Rp85
(dp86
g25
I01
sg26
g31
sg32
(lp87
I3
aI5
aI30
aI9
asg34
I6
sg35
g36
(g3
tp88
Rp89
sbsS'IBEA'
p90
g2
(g3
g4
(lp91
(dp92
g7
g62
sg9
F0.11474299430847168
sg10
I100
sg11
I0
sa(dp93
g7
g62
sg9
F13.413434028625488
sg10
I100
sg11
I100
sa(dp94
g7
g62
sg9
F26.556233167648315
sg10
I100
sg11
I200
sa(dp95
g7
g62
sg9
F39.65234112739563
sg10
I100
sg11
I300
sa(dp96
g7
g62
sg9
F52.76201510429382
sg10
I100
sg11
I400
sa(dp97
g7
g62
sg9
F66.20090222358704
sg10
I100
sg11
I500
satp98
Rp99
(dp100
g25
I01
sg26
g31
sg32
(lp101
I3
aI5
aI30
aI9
asg34
I6
sg35
g36
(g3
tp102
Rp103
sbsS'NSGA2'
p104
g2
(g3
g4
(lp105
(dp106
g7
g62
sg9
F0.11504006385803223
sg10
I100
sg11
I0
sa(dp107
g7
g62
sg9
F16.200297117233276
sg10
I100
sg11
I100
sa(dp108
g7
g62
sg9
F32.229634046554565
sg10
I100
sg11
I200
sa(dp109
g7
g62
sg9
F48.24363112449646
sg10
I100
sg11
I300
sa(dp110
g7
g62
sg9
F64.56164002418518
sg10
I100
sg11
I400
sa(dp111
g7
g62
sg9
F80.61022615432739
sg10
I100
sg11
I500
satp112
Rp113
(dp114
g25
I01
sg26
g31
sg32
(lp115
I3
aI5
aI30
aI9
asg34
I6
sg35
g36
(g3
tp116
Rp117
sbsS'IBEA-SIP'
p118
g2
(g3
g4
(lp119
(dp120
g7
g62
sg9
F0.09590697288513184
sg10
I100
sg11
I0
sa(dp121
g7
(F0.157
F0.706
F0.06
I82
I100
tp122
sg9
F11.848526954650879
sg10
I100
sg11
I100
sa(dp123
g7
(F0.165
F0.605
F0.064
I94
I100
tp124
sg9
F23.667598962783813
sg10
I100
sg11
I200
sa(dp125
g7
(F0.167
F0.706
F0.066
I87
I100
tp126
sg9
F35.34868407249451
sg10
I100
sg11
I300
sa(dp127
g7
(F0.173
F0.669
F0.068
I91
I100
tp128
sg9
F47.02239012718201
sg10
I100
sg11
I400
sa(dp129
g7
(F0.176
F0.65
F0.066
I88
I100
tp130
sg9
F58.661274909973145
sg10
I100
sg11
I500
satp131
Rp132
(dp133
g25
I01
sg26
g31
sg32
(lp134
I3
aI5
aI30
aI9
asg34
I6
sg35
g36
(g3
tp135
Rp136
sbs.