(dp0
S'NSGA2-SIP'
p1
ccopy_reg
_reconstructor
p2
(cdeap.tools.support
Logbook
p3
c__builtin__
list
p4
(lp5
(dp6
S'hv|spread|igd|frontier#|valid#'
p7
(I0
I0
I0
I0
I0
tp8
sS'timestamp'
p9
F0.0937960147857666
sS'evals'
p10
I100
sS'gen'
p11
I0
sa(dp12
g7
(F0.148
F0.592
F0.06
I100
I100
tp13
sg9
F14.855479001998901
sg10
I100
sg11
I100
sa(dp14
g7
(F0.156
F0.707
F0.067
I100
I100
tp15
sg9
F29.943194150924683
sg10
I100
sg11
I200
sa(dp16
g7
(F0.164
F0.562
F0.068
I100
I100
tp17
sg9
F44.86127805709839
sg10
I100
sg11
I300
sa(dp18
g7
(F0.167
F0.568
F0.07
I100
I100
tp19
sg9
F59.773107051849365
sg10
I100
sg11
I400
sa(dp20
g7
(F0.177
F0.654
F0.066
I100
I100
tp21
sg9
F74.63136219978333
sg10
I100
sg11
I500
satp22
Rp23
(dp24
S'log_header'
p25
I01
sS'header'
p26
(S'gen'
p27
S'evals'
p28
S'hv|spread|igd|frontier#|valid#'
p29
S'timestamp'
p30
tp31
sS'columns_len'
p32
(lp33
I3
aI5
aI31
aI9
asS'buffindex'
p34
I6
sS'chapters'
p35
ccollections
defaultdict
p36
(g3
tp37
Rp38
sbsS'SPEA2-SIP'
p39
g2
(g3
g4
(lp40
(dp41
g7
(F0.06
F2.245
F0.03
I1
I1
tp42
sg9
F0.09618401527404785
sg10
I100
sg11
I0
sa(dp43
g7
(F0.155
F0.678
F0.086
I100
I100
tp44
sg9
F53.62318301200867
sg10
I100
sg11
I100
sa(dp45
g7
(F0.167
F0.634
F0.085
I100
I100
tp46
sg9
F117.95155310630798
sg10
I100
sg11
I200
sa(dp47
g7
(F0.171
F0.603
F0.083
I100
I100
tp48
sg9
F184.32471299171448
sg10
I100
sg11
I300
sa(dp49
g7
(F0.173
F0.521
F0.086
I100
I100
tp50
sg9
F252.09876203536987
sg10
I100
sg11
I400
sa(dp51
g7
(F0.174
F0.629
F0.084
I100
I100
tp52
sg9
F320.037682056427
sg10
I100
sg11
I500
satp53
Rp54
(dp55
g25
I01
sg26
g31
sg32
(lp56
I3
aI5
aI31
aI9
asg34
I6
sg35
g36
(g3
tp57
Rp58
sbsS'SPEA2'
p59
g2
(g3
g4
(lp60
(dp61
g7
g8
sg9
F0.11306500434875488
sg10
I100
sg11
I0
sa(dp62
g7
g8
sg9
F91.89589095115662
sg10
I100
sg11
I100
sa(dp63
g7
g8
sg9
F202.36835598945618
sg10
I100
sg11
I200
sa(dp64
g7
g8
sg9
F321.36402893066406
sg10
I100
sg11
I300
sa(dp65
g7
g8
sg9
F449.225163936615
sg10
I100
sg11
I400
sa(dp66
g7
g8
sg9
F580.4068508148193
sg10
I100
sg11
I500
satp67
Rp68
(dp69
g25
I01
sg26
g31
sg32
(lp70
I3
aI5
aI30
aI9
asg34
I6
sg35
g36
(g3
tp71
Rp72
sbsS'IBEA-PEN'
p73
g2
(g3
g4
(lp74
(dp75
g7
g8
sg9
F0.22264790534973145
sg10
I100
sg11
I0
sa(dp76
g7
(F0.163
F0.664
F0.05
I49
I66
tp77
sg9
F21.251654863357544
sg10
I100
sg11
I100
sa(dp78
g7
(F0.169
F0.658
F0.038
I64
I80
tp79
sg9
F42.553438901901245
sg10
I100
sg11
I200
sa(dp80
g7
(F0.175
F0.744
F0.034
I63
I78
tp81
sg9
F63.838382959365845
sg10
I100
sg11
I300
sa(dp82
g7
(F0.172
F0.612
F0.045
I55
I68
tp83
sg9
F85.03588199615479
sg10
I100
sg11
I400
sa(dp84
g7
(F0.172
F0.683
F0.035
I64
I76
tp85
sg9
F106.1786630153656
sg10
I100
sg11
I500
satp86
Rp87
(dp88
g25
I01
sg26
g31
sg32
(lp89
I3
aI5
aI30
aI9
asg34
I6
sg35
g36
(g3
tp90
Rp91
sbsS'IBEA'
p92
g2
(g3
g4
(lp93
(dp94
g7
g8
sg9
F0.11228394508361816
sg10
I100
sg11
I0
sa(dp95
g7
g8
sg9
F14.363921880722046
sg10
I100
sg11
I100
sa(dp96
g7
g8
sg9
F28.698652982711792
sg10
I100
sg11
I200
sa(dp97
g7
g8
sg9
F43.14157795906067
sg10
I100
sg11
I300
sa(dp98
g7
g8
sg9
F57.655728816986084
sg10
I100
sg11
I400
sa(dp99
g7
g8
sg9
F72.15476894378662
sg10
I100
sg11
I500
satp100
Rp101
(dp102
g25
I01
sg26
g31
sg32
(lp103
I3
aI5
aI30
aI9
asg34
I6
sg35
g36
(g3
tp104
Rp105
sbsS'NSGA2'
p106
g2
(g3
g4
(lp107
(dp108
g7
g8
sg9
F0.11231613159179688
sg10
I100
sg11
I0
sa(dp109
g7
g8
sg9
F17.577027082443237
sg10
I100
sg11
I100
sa(dp110
g7
g8
sg9
F34.84935212135315
sg10
I100
sg11
I200
sa(dp111
g7
g8
sg9
F52.39759707450867
sg10
I100
sg11
I300
sa(dp112
g7
g8
sg9
F70.01406002044678
sg10
I100
sg11
I400
sa(dp113
g7
g8
sg9
F87.58973217010498
sg10
I100
sg11
I500
satp114
Rp115
(dp116
g25
I01
sg26
g31
sg32
(lp117
I3
aI5
aI30
aI9
asg34
I6
sg35
g36
(g3
tp118
Rp119
sbsS'IBEA-SIP'
p120
g2
(g3
g4
(lp121
(dp122
g7
(F0.052
F1.0
F0.066
I1
I1
tp123
sg9
F0.09694099426269531
sg10
I100
sg11
I0
sa(dp124
g7
(F0.157
F0.621
F0.053
I82
I100
tp125
sg9
F12.989403009414673
sg10
I100
sg11
I100
sa(dp126
g7
(F0.166
F0.606
F0.072
I88
I100
tp127
sg9
F25.85814881324768
sg10
I100
sg11
I200
sa(dp128
g7
(F0.171
F0.571
F0.072
I87
I100
tp129
sg9
F38.66110682487488
sg10
I100
sg11
I300
sa(dp130
g7
(F0.176
F0.6
F0.074
I89
I100
tp131
sg9
F51.41683387756348
sg10
I100
sg11
I400
sa(dp132
g7
(F0.181
F0.605
F0.073
I89
I100
tp133
sg9
F64.13724684715271
sg10
I100
sg11
I500
satp134
Rp135
(dp136
g25
I01
sg26
g31
sg32
(lp137
I3
aI5
aI30
aI9
asg34
I6
sg35
g36
(g3
tp138
Rp139
sbs.