(dp0
S'NSGA2-SIP'
p1
ccopy_reg
_reconstructor
p2
(cdeap.tools.support
Logbook
p3
c__builtin__
list
p4
(lp5
(dp6
S'hv|spread|igd|frontier#|valid#'
p7
(F0.062
F1.04
F0.02
I1
I2
tp8
sS'timestamp'
p9
F0.09153890609741211
sS'evals'
p10
I100
sS'gen'
p11
I0
sa(dp12
g7
(F0.155
F0.592
F0.06
I100
I100
tp13
sg9
F13.706305027008057
sg10
I100
sg11
I100
sa(dp14
g7
(F0.161
F0.602
F0.06
I100
I100
tp15
sg9
F27.360251903533936
sg10
I100
sg11
I200
sa(dp16
g7
(F0.168
F0.608
F0.067
I100
I100
tp17
sg9
F41.192622900009155
sg10
I100
sg11
I300
sa(dp18
g7
(F0.17
F0.632
F0.066
I100
I100
tp19
sg9
F55.001025915145874
sg10
I100
sg11
I400
sa(dp20
g7
(F0.177
F0.561
F0.063
I100
I100
tp21
sg9
F68.53789806365967
sg10
I100
sg11
I500
satp22
Rp23
(dp24
S'log_header'
p25
I01
sS'header'
p26
(S'gen'
p27
S'evals'
p28
S'hv|spread|igd|frontier#|valid#'
p29
S'timestamp'
p30
tp31
sS'columns_len'
p32
(lp33
I3
aI5
aI31
aI9
asS'buffindex'
p34
I6
sS'chapters'
p35
ccollections
defaultdict
p36
(g3
tp37
Rp38
sbsS'SPEA2-SIP'
p39
g2
(g3
g4
(lp40
(dp41
g7
(F0.075
F0.96
F0.037
I2
I2
tp42
sg9
F0.09254097938537598
sg10
I100
sg11
I0
sa(dp43
g7
(F0.161
F0.61
F0.078
I100
I100
tp44
sg9
F55.022615909576416
sg10
I100
sg11
I100
sa(dp45
g7
(F0.171
F0.591
F0.086
I100
I100
tp46
sg9
F122.02137804031372
sg10
I100
sg11
I200
sa(dp47
g7
(F0.173
F0.606
F0.086
I100
I100
tp48
sg9
F190.14043998718262
sg10
I100
sg11
I300
sa(dp49
g7
(F0.176
F0.621
F0.087
I100
I100
tp50
sg9
F260.17896795272827
sg10
I100
sg11
I400
sa(dp51
g7
(F0.177
F0.593
F0.089
I100
I100
tp52
sg9
F332.15426898002625
sg10
I100
sg11
I500
satp53
Rp54
(dp55
g25
I01
sg26
g31
sg32
(lp56
I3
aI5
aI31
aI9
asg34
I6
sg35
g36
(g3
tp57
Rp58
sbsS'SPEA2'
p59
g2
(g3
g4
(lp60
(dp61
g7
(I0
I0
I0
I0
I0
tp62
sg9
F0.11385297775268555
sg10
I100
sg11
I0
sa(dp63
g7
g62
sg9
F92.58484601974487
sg10
I100
sg11
I100
sa(dp64
g7
g62
sg9
F208.32708716392517
sg10
I100
sg11
I200
sa(dp65
g7
g62
sg9
F330.2231590747833
sg10
I100
sg11
I300
sa(dp66
g7
g62
sg9
F455.8511300086975
sg10
I100
sg11
I400
sa(dp67
g7
g62
sg9
F583.2138249874115
sg10
I100
sg11
I500
satp68
Rp69
(dp70
g25
I01
sg26
g31
sg32
(lp71
I3
aI5
aI30
aI9
asg34
I6
sg35
g36
(g3
tp72
Rp73
sbsS'IBEA-PEN'
p74
g2
(g3
g4
(lp75
(dp76
g7
(F0.042
F0.982
F0.017
I3
I3
tp77
sg9
F0.23790788650512695
sg10
I100
sg11
I0
sa(dp78
g7
(F0.011
F2.014
F0.017
I1
I1
tp79
sg9
F14.12028980255127
sg10
I100
sg11
I100
sa(dp80
g7
(F0.011
F2.014
F0.017
I1
I1
tp81
sg9
F27.944061994552612
sg10
I100
sg11
I200
sa(dp82
g7
(F0.011
F2.014
F0.017
I1
I1
tp83
sg9
F41.768643856048584
sg10
I100
sg11
I300
sa(dp84
g7
g62
sg9
F55.56039595603943
sg10
I100
sg11
I400
sa(dp85
g7
g62
sg9
F69.31226682662964
sg10
I100
sg11
I500
satp86
Rp87
(dp88
g25
I01
sg26
g31
sg32
(lp89
I3
aI5
aI30
aI9
asg34
I6
sg35
g36
(g3
tp90
Rp91
sbsS'IBEA'
p92
g2
(g3
g4
(lp93
(dp94
g7
g62
sg9
F0.11374783515930176
sg10
I100
sg11
I0
sa(dp95
g7
g62
sg9
F13.524061918258667
sg10
I100
sg11
I100
sa(dp96
g7
g62
sg9
F27.032602787017822
sg10
I100
sg11
I200
sa(dp97
g7
g62
sg9
F40.504639863967896
sg10
I100
sg11
I300
sa(dp98
g7
g62
sg9
F53.97988486289978
sg10
I100
sg11
I400
sa(dp99
g7
g62
sg9
F67.44340896606445
sg10
I100
sg11
I500
satp100
Rp101
(dp102
g25
I01
sg26
g31
sg32
(lp103
I3
aI5
aI30
aI9
asg34
I6
sg35
g36
(g3
tp104
Rp105
sbsS'NSGA2'
p106
g2
(g3
g4
(lp107
(dp108
g7
g62
sg9
F0.1054389476776123
sg10
I100
sg11
I0
sa(dp109
g7
g62
sg9
F16.59883713722229
sg10
I100
sg11
I100
sa(dp110
g7
g62
sg9
F33.19795298576355
sg10
I100
sg11
I200
sa(dp111
g7
g62
sg9
F49.7412850856781
sg10
I100
sg11
I300
sa(dp112
g7
g62
sg9
F66.2528920173645
sg10
I100
sg11
I400
sa(dp113
g7
g62
sg9
F82.75178813934326
sg10
I100
sg11
I500
satp114
Rp115
(dp116
g25
I01
sg26
g31
sg32
(lp117
I3
aI5
aI30
aI9
asg34
I6
sg35
g36
(g3
tp118
Rp119
sbsS'IBEA-SIP'
p120
g2
(g3
g4
(lp121
(dp122
g7
g62
sg9
F0.08748602867126465
sg10
I100
sg11
I0
sa(dp123
g7
(F0.156
F0.753
F0.056
I84
I100
tp124
sg9
F11.965414047241211
sg10
I100
sg11
I100
sa(dp125
g7
(F0.162
F0.678
F0.062
I84
I100
tp126
sg9
F23.861564874649048
sg10
I100
sg11
I200
sa(dp127
g7
(F0.168
F0.659
F0.068
I91
I100
tp128
sg9
F35.8022620677948
sg10
I100
sg11
I300
sa(dp129
g7
(F0.176
F0.563
F0.069
I94
I100
tp130
sg9
F47.909255027770996
sg10
I100
sg11
I400
sa(dp131
g7
(F0.178
F0.691
F0.065
I86
I100
tp132
sg9
F59.87206292152405
sg10
I100
sg11
I500
satp133
Rp134
(dp135
g25
I01
sg26
g31
sg32
(lp136
I3
aI5
aI30
aI9
asg34
I6
sg35
g36
(g3
tp137
Rp138
sbs.