(dp0
S'NSGA2-SIP'
p1
ccopy_reg
_reconstructor
p2
(cdeap.tools.support
Logbook
p3
c__builtin__
list
p4
(lp5
(dp6
S'hv|spread|igd|frontier#|valid#'
p7
(I0
I0
I0
I0
I0
tp8
sS'timestamp'
p9
F0.0975039005279541
sS'evals'
p10
I100
sS'gen'
p11
I0
sa(dp12
g7
(F0.158
F0.656
F0.055
I100
I100
tp13
sg9
F15.85751986503601
sg10
I100
sg11
I100
sa(dp14
g7
(F0.166
F0.686
F0.062
I100
I100
tp15
sg9
F32.05474781990051
sg10
I100
sg11
I200
sa(dp16
g7
(F0.172
F0.595
F0.062
I100
I100
tp17
sg9
F48.22822904586792
sg10
I100
sg11
I300
sa(dp18
g7
(F0.175
F0.624
F0.063
I100
I100
tp19
sg9
F64.43194603919983
sg10
I100
sg11
I400
sa(dp20
g7
(F0.176
F0.744
F0.065
I100
I100
tp21
sg9
F80.3422338962555
sg10
I100
sg11
I500
satp22
Rp23
(dp24
S'log_header'
p25
I01
sS'header'
p26
(S'gen'
p27
S'evals'
p28
S'hv|spread|igd|frontier#|valid#'
p29
S'timestamp'
p30
tp31
sS'columns_len'
p32
(lp33
I3
aI5
aI31
aI9
asS'buffindex'
p34
I6
sS'chapters'
p35
ccollections
defaultdict
p36
(g3
tp37
Rp38
sbsS'SPEA2-SIP'
p39
g2
(g3
g4
(lp40
(dp41
g7
g8
sg9
F0.09840703010559082
sg10
I100
sg11
I0
sa(dp42
g7
(F0.159
F0.633
F0.083
I100
I100
tp43
sg9
F58.85326600074768
sg10
I100
sg11
I100
sa(dp44
g7
(F0.162
F0.683
F0.087
I100
I100
tp45
sg9
F128.99804091453552
sg10
I100
sg11
I200
sa(dp46
g7
(F0.166
F0.578
F0.088
I100
I100
tp47
sg9
F202.14147996902466
sg10
I100
sg11
I300
sa(dp48
g7
(F0.168
F0.614
F0.091
I100
I100
tp49
sg9
F278.5928740501404
sg10
I100
sg11
I400
sa(dp50
g7
(F0.17
F0.637
F0.094
I100
I100
tp51
sg9
F357.3236038684845
sg10
I100
sg11
I500
satp52
Rp53
(dp54
g25
I01
sg26
g31
sg32
(lp55
I3
aI5
aI31
aI9
asg34
I6
sg35
g36
(g3
tp56
Rp57
sbsS'SPEA2'
p58
g2
(g3
g4
(lp59
(dp60
g7
g8
sg9
F0.12151813507080078
sg10
I100
sg11
I0
sa(dp61
g7
g8
sg9
F92.3920509815216
sg10
I100
sg11
I100
sa(dp62
g7
g8
sg9
F211.2249801158905
sg10
I100
sg11
I200
sa(dp63
g7
g8
sg9
F334.2848551273346
sg10
I100
sg11
I300
sa(dp64
g7
g8
sg9
F459.5254919528961
sg10
I100
sg11
I400
sa(dp65
g7
g8
sg9
F589.3339121341705
sg10
I100
sg11
I500
satp66
Rp67
(dp68
g25
I01
sg26
g31
sg32
(lp69
I3
aI5
aI30
aI9
asg34
I6
sg35
g36
(g3
tp70
Rp71
sbsS'IBEA-PEN'
p72
g2
(g3
g4
(lp73
(dp74
g7
(F0.032
F0.995
F0.027
I2
I3
tp75
sg9
F0.27477407455444336
sg10
I100
sg11
I0
sa(dp76
g7
g8
sg9
F16.180257081985474
sg10
I100
sg11
I100
sa(dp77
g7
g8
sg9
F32.17142915725708
sg10
I100
sg11
I200
sa(dp78
g7
g8
sg9
F48.1636221408844
sg10
I100
sg11
I300
sa(dp79
g7
g8
sg9
F64.19106912612915
sg10
I100
sg11
I400
sa(dp80
g7
g8
sg9
F80.20246410369873
sg10
I100
sg11
I500
satp81
Rp82
(dp83
g25
I01
sg26
g31
sg32
(lp84
I3
aI5
aI30
aI9
asg34
I6
sg35
g36
(g3
tp85
Rp86
sbsS'IBEA'
p87
g2
(g3
g4
(lp88
(dp89
g7
g8
sg9
F0.1304340362548828
sg10
I100
sg11
I0
sa(dp90
g7
g8
sg9
F15.579472064971924
sg10
I100
sg11
I100
sa(dp91
g7
g8
sg9
F31.19084596633911
sg10
I100
sg11
I200
sa(dp92
g7
g8
sg9
F46.824121952056885
sg10
I100
sg11
I300
sa(dp93
g7
g8
sg9
F62.42986512184143
sg10
I100
sg11
I400
sa(dp94
g7
g8
sg9
F78.03894901275635
sg10
I100
sg11
I500
satp95
Rp96
(dp97
g25
I01
sg26
g31
sg32
(lp98
I3
aI5
aI30
aI9
asg34
I6
sg35
g36
(g3
tp99
Rp100
sbsS'NSGA2'
p101
g2
(g3
g4
(lp102
(dp103
g7
g8
sg9
F0.1220090389251709
sg10
I100
sg11
I0
sa(dp104
g7
g8
sg9
F19.886475086212158
sg10
I100
sg11
I100
sa(dp105
g7
g8
sg9
F39.677201986312866
sg10
I100
sg11
I200
sa(dp106
g7
g8
sg9
F59.55655097961426
sg10
I100
sg11
I300
sa(dp107
g7
g8
sg9
F79.47360396385193
sg10
I100
sg11
I400
sa(dp108
g7
g8
sg9
F99.39057397842407
sg10
I100
sg11
I500
satp109
Rp110
(dp111
g25
I01
sg26
g31
sg32
(lp112
I3
aI5
aI30
aI9
asg34
I6
sg35
g36
(g3
tp113
Rp114
sbsS'IBEA-SIP'
p115
g2
(g3
g4
(lp116
(dp117
g7
(F0.055
F2.292
F0.053
I1
I1
tp118
sg9
F0.10157489776611328
sg10
I100
sg11
I0
sa(dp119
g7
(F0.16
F0.637
F0.055
I85
I100
tp120
sg9
F13.54381799697876
sg10
I100
sg11
I100
sa(dp121
g7
(F0.166
F0.593
F0.065
I88
I100
tp122
sg9
F27.196862936019897
sg10
I100
sg11
I200
sa(dp123
g7
(F0.177
F0.665
F0.066
I95
I100
tp124
sg9
F40.844512939453125
sg10
I100
sg11
I300
sa(dp125
g7
(F0.179
F0.658
F0.068
I90
I100
tp126
sg9
F54.262091875076294
sg10
I100
sg11
I400
sa(dp127
g7
(F0.181
F0.728
F0.064
I91
I100
tp128
sg9
F67.65609407424927
sg10
I100
sg11
I500
satp129
Rp130
(dp131
g25
I01
sg26
g31
sg32
(lp132
I3
aI5
aI30
aI9
asg34
I6
sg35
g36
(g3
tp133
Rp134
sbs.