(dp0
S'NSGA2-SIP'
p1
ccopy_reg
_reconstructor
p2
(cdeap.tools.support
Logbook
p3
c__builtin__
list
p4
(lp5
(dp6
S'hv|spread|igd|frontier#|valid#'
p7
(I0
I0
I0
I0
I0
tp8
sS'timestamp'
p9
F0.0935060977935791
sS'evals'
p10
I100
sS'gen'
p11
I0
sa(dp12
g7
(F0.155
F0.669
F0.06
I100
I100
tp13
sg9
F14.624847888946533
sg10
I100
sg11
I100
sa(dp14
g7
(F0.165
F0.615
F0.064
I100
I100
tp15
sg9
F29.181761026382446
sg10
I100
sg11
I200
sa(dp16
g7
(F0.168
F0.6
F0.069
I100
I100
tp17
sg9
F43.690694093704224
sg10
I100
sg11
I300
sa(dp18
g7
(F0.172
F0.616
F0.066
I100
I100
tp19
sg9
F58.16104507446289
sg10
I100
sg11
I400
sa(dp20
g7
(F0.177
F0.63
F0.069
I100
I100
tp21
sg9
F72.62640690803528
sg10
I100
sg11
I500
satp22
Rp23
(dp24
S'log_header'
p25
I01
sS'header'
p26
(S'gen'
p27
S'evals'
p28
S'hv|spread|igd|frontier#|valid#'
p29
S'timestamp'
p30
tp31
sS'columns_len'
p32
(lp33
I3
aI5
aI31
aI9
asS'buffindex'
p34
I6
sS'chapters'
p35
ccollections
defaultdict
p36
(g3
tp37
Rp38
sbsS'SPEA2-SIP'
p39
g2
(g3
g4
(lp40
(dp41
g7
g8
sg9
F0.09324097633361816
sg10
I100
sg11
I0
sa(dp42
g7
(F0.136
F0.668
F0.076
I100
I100
tp43
sg9
F54.3398540019989
sg10
I100
sg11
I100
sa(dp44
g7
(F0.142
F0.698
F0.085
I100
I100
tp45
sg9
F117.96797704696655
sg10
I100
sg11
I200
sa(dp46
g7
(F0.143
F0.609
F0.089
I100
I100
tp47
sg9
F183.8110671043396
sg10
I100
sg11
I300
sa(dp48
g7
(F0.151
F0.627
F0.089
I100
I100
tp49
sg9
F250.3294370174408
sg10
I100
sg11
I400
sa(dp50
g7
(F0.153
F0.623
F0.092
I100
I100
tp51
sg9
F315.4277641773224
sg10
I100
sg11
I500
satp52
Rp53
(dp54
g25
I01
sg26
g31
sg32
(lp55
I3
aI5
aI31
aI9
asg34
I6
sg35
g36
(g3
tp56
Rp57
sbsS'SPEA2'
p58
g2
(g3
g4
(lp59
(dp60
g7
g8
sg9
F0.11272311210632324
sg10
I100
sg11
I0
sa(dp61
g7
g8
sg9
F92.27050805091858
sg10
I100
sg11
I100
sa(dp62
g7
g8
sg9
F211.53061318397522
sg10
I100
sg11
I200
sa(dp63
g7
g8
sg9
F335.2429311275482
sg10
I100
sg11
I300
sa(dp64
g7
g8
sg9
F458.01785802841187
sg10
I100
sg11
I400
sa(dp65
g7
g8
sg9
F583.609316110611
sg10
I100
sg11
I500
satp66
Rp67
(dp68
g25
I01
sg26
g31
sg32
(lp69
I3
aI5
aI30
aI9
asg34
I6
sg35
g36
(g3
tp70
Rp71
sbsS'IBEA-PEN'
p72
g2
(g3
g4
(lp73
(dp74
g7
g8
sg9
F0.2246391773223877
sg10
I100
sg11
I0
sa(dp75
g7
(F0.162
F0.709
F0.032
I46
I54
tp76
sg9
F21.0678551197052
sg10
I100
sg11
I100
sa(dp77
g7
(F0.171
F0.631
F0.041
I58
I69
tp78
sg9
F42.21747016906738
sg10
I100
sg11
I200
sa(dp79
g7
(F0.178
F0.665
F0.042
I51
I72
tp80
sg9
F63.579843044281006
sg10
I100
sg11
I300
sa(dp81
g7
(F0.172
F0.698
F0.034
I63
I81
tp82
sg9
F84.621178150177
sg10
I100
sg11
I400
sa(dp83
g7
(F0.178
F0.667
F0.039
I53
I69
tp84
sg9
F105.78640222549438
sg10
I100
sg11
I500
satp85
Rp86
(dp87
g25
I01
sg26
g31
sg32
(lp88
I3
aI5
aI30
aI9
asg34
I6
sg35
g36
(g3
tp89
Rp90
sbsS'IBEA'
p91
g2
(g3
g4
(lp92
(dp93
g7
g8
sg9
F0.11355209350585938
sg10
I100
sg11
I0
sa(dp94
g7
g8
sg9
F14.513949155807495
sg10
I100
sg11
I100
sa(dp95
g7
g8
sg9
F29.07809805870056
sg10
I100
sg11
I200
sa(dp96
g7
g8
sg9
F43.64439296722412
sg10
I100
sg11
I300
sa(dp97
g7
g8
sg9
F58.03556799888611
sg10
I100
sg11
I400
sa(dp98
g7
g8
sg9
F72.25864315032959
sg10
I100
sg11
I500
satp99
Rp100
(dp101
g25
I01
sg26
g31
sg32
(lp102
I3
aI5
aI30
aI9
asg34
I6
sg35
g36
(g3
tp103
Rp104
sbsS'NSGA2'
p105
g2
(g3
g4
(lp106
(dp107
g7
g8
sg9
F0.11254119873046875
sg10
I100
sg11
I0
sa(dp108
g7
g8
sg9
F17.59648108482361
sg10
I100
sg11
I100
sa(dp109
g7
g8
sg9
F35.09152412414551
sg10
I100
sg11
I200
sa(dp110
g7
g8
sg9
F52.86025905609131
sg10
I100
sg11
I300
sa(dp111
g7
g8
sg9
F70.59329319000244
sg10
I100
sg11
I400
sa(dp112
g7
g8
sg9
F88.36725497245789
sg10
I100
sg11
I500
satp113
Rp114
(dp115
g25
I01
sg26
g31
sg32
(lp116
I3
aI5
aI30
aI9
asg34
I6
sg35
g36
(g3
tp117
Rp118
sbsS'IBEA-SIP'
p119
g2
(g3
g4
(lp120
(dp121
g7
(F0.068
F0.98
F0.031
I2
I2
tp122
sg9
F0.09967589378356934
sg10
I100
sg11
I0
sa(dp123
g7
(F0.154
F0.637
F0.062
I82
I100
tp124
sg9
F12.71631383895874
sg10
I100
sg11
I100
sa(dp125
g7
(F0.173
F0.612
F0.063
I87
I100
tp126
sg9
F25.544357776641846
sg10
I100
sg11
I200
sa(dp127
g7
(F0.175
F0.623
F0.067
I78
I100
tp128
sg9
F38.119844913482666
sg10
I100
sg11
I300
sa(dp129
g7
(F0.176
F0.688
F0.058
I92
I100
tp130
sg9
F50.77444386482239
sg10
I100
sg11
I400
sa(dp131
g7
(F0.179
F0.616
F0.065
I86
I100
tp132
sg9
F62.98542284965515
sg10
I100
sg11
I500
satp133
Rp134
(dp135
g25
I01
sg26
g31
sg32
(lp136
I3
aI5
aI30
aI9
asg34
I6
sg35
g36
(g3
tp137
Rp138
sbs.