(dp0
S'NSGA2-SIP'
p1
ccopy_reg
_reconstructor
p2
(cdeap.tools.support
Logbook
p3
c__builtin__
list
p4
(lp5
(dp6
S'hv|spread|igd|frontier#|valid#'
p7
(F0.057
F1.06
F0.047
I1
I1
tp8
sS'timestamp'
p9
F0.10296511650085449
sS'evals'
p10
I100
sS'gen'
p11
I0
sa(dp12
g7
(F0.148
F0.624
F0.062
I100
I100
tp13
sg9
F15.820338010787964
sg10
I100
sg11
I100
sa(dp14
g7
(F0.161
F0.704
F0.063
I100
I100
tp15
sg9
F32.258285999298096
sg10
I100
sg11
I200
sa(dp16
g7
(F0.165
F0.669
F0.066
I100
I100
tp17
sg9
F48.62617301940918
sg10
I100
sg11
I300
sa(dp18
g7
(F0.167
F0.613
F0.063
I100
I100
tp19
sg9
F65.07444405555725
sg10
I100
sg11
I400
sa(dp20
g7
(F0.176
F0.594
F0.067
I100
I100
tp21
sg9
F81.55404806137085
sg10
I100
sg11
I500
satp22
Rp23
(dp24
S'log_header'
p25
I01
sS'header'
p26
(S'gen'
p27
S'evals'
p28
S'hv|spread|igd|frontier#|valid#'
p29
S'timestamp'
p30
tp31
sS'columns_len'
p32
(lp33
I3
aI5
aI31
aI9
asS'buffindex'
p34
I6
sS'chapters'
p35
ccollections
defaultdict
p36
(g3
tp37
Rp38
sbsS'SPEA2-SIP'
p39
g2
(g3
g4
(lp40
(dp41
g7
(F0.053
F2.254
F0.047
I1
I1
tp42
sg9
F0.1016700267791748
sg10
I100
sg11
I0
sa(dp43
g7
(F0.144
F0.641
F0.076
I100
I100
tp44
sg9
F55.86119294166565
sg10
I100
sg11
I100
sa(dp45
g7
(F0.153
F0.602
F0.089
I100
I100
tp46
sg9
F122.37392091751099
sg10
I100
sg11
I200
sa(dp47
g7
(F0.156
F0.602
F0.09
I100
I100
tp48
sg9
F194.00012612342834
sg10
I100
sg11
I300
sa(dp49
g7
(F0.157
F0.676
F0.093
I100
I100
tp50
sg9
F268.2214410305023
sg10
I100
sg11
I400
sa(dp51
g7
(F0.158
F0.618
F0.092
I100
I100
tp52
sg9
F343.9898669719696
sg10
I100
sg11
I500
satp53
Rp54
(dp55
g25
I01
sg26
g31
sg32
(lp56
I3
aI5
aI31
aI9
asg34
I6
sg35
g36
(g3
tp57
Rp58
sbsS'SPEA2'
p59
g2
(g3
g4
(lp60
(dp61
g7
(I0
I0
I0
I0
I0
tp62
sg9
F0.12267398834228516
sg10
I100
sg11
I0
sa(dp63
g7
g62
sg9
F88.07865786552429
sg10
I100
sg11
I100
sa(dp64
g7
g62
sg9
F205.63278889656067
sg10
I100
sg11
I200
sa(dp65
g7
g62
sg9
F328.63987588882446
sg10
I100
sg11
I300
sa(dp66
g7
g62
sg9
F458.62638092041016
sg10
I100
sg11
I400
sa(dp67
g7
g62
sg9
F597.8731579780579
sg10
I100
sg11
I500
satp68
Rp69
(dp70
g25
I01
sg26
g31
sg32
(lp71
I3
aI5
aI30
aI9
asg34
I6
sg35
g36
(g3
tp72
Rp73
sbsS'IBEA-PEN'
p74
g2
(g3
g4
(lp75
(dp76
g7
g62
sg9
F0.2639350891113281
sg10
I100
sg11
I0
sa(dp77
g7
g62
sg9
F16.15292000770569
sg10
I100
sg11
I100
sa(dp78
g7
g62
sg9
F32.0059609413147
sg10
I100
sg11
I200
sa(dp79
g7
g62
sg9
F47.897557973861694
sg10
I100
sg11
I300
sa(dp80
g7
g62
sg9
F63.83838987350464
sg10
I100
sg11
I400
sa(dp81
g7
g62
sg9
F79.66400790214539
sg10
I100
sg11
I500
satp82
Rp83
(dp84
g25
I01
sg26
g31
sg32
(lp85
I3
aI5
aI30
aI9
asg34
I6
sg35
g36
(g3
tp86
Rp87
sbsS'IBEA'
p88
g2
(g3
g4
(lp89
(dp90
g7
g62
sg9
F0.12522482872009277
sg10
I100
sg11
I0
sa(dp91
g7
g62
sg9
F15.649772882461548
sg10
I100
sg11
I100
sa(dp92
g7
g62
sg9
F31.24821901321411
sg10
I100
sg11
I200
sa(dp93
g7
g62
sg9
F46.787282943725586
sg10
I100
sg11
I300
sa(dp94
g7
g62
sg9
F62.28444695472717
sg10
I100
sg11
I400
sa(dp95
g7
g62
sg9
F77.85375595092773
sg10
I100
sg11
I500
satp96
Rp97
(dp98
g25
I01
sg26
g31
sg32
(lp99
I3
aI5
aI30
aI9
asg34
I6
sg35
g36
(g3
tp100
Rp101
sbsS'NSGA2'
p102
g2
(g3
g4
(lp103
(dp104
g7
g62
sg9
F0.12481880187988281
sg10
I100
sg11
I0
sa(dp105
g7
g62
sg9
F20.137128829956055
sg10
I100
sg11
I100
sa(dp106
g7
g62
sg9
F40.13074088096619
sg10
I100
sg11
I200
sa(dp107
g7
g62
sg9
F60.133260011672974
sg10
I100
sg11
I300
sa(dp108
g7
g62
sg9
F80.26469492912292
sg10
I100
sg11
I400
sa(dp109
g7
g62
sg9
F100.45016479492188
sg10
I100
sg11
I500
satp110
Rp111
(dp112
g25
I01
sg26
g31
sg32
(lp113
I3
aI5
aI30
aI9
asg34
I6
sg35
g36
(g3
tp114
Rp115
sbsS'IBEA-SIP'
p116
g2
(g3
g4
(lp117
(dp118
g7
(F0.074
F0.994
F0.042
I4
I4
tp119
sg9
F0.11224699020385742
sg10
I100
sg11
I0
sa(dp120
g7
(F0.158
F0.643
F0.055
I85
I100
tp121
sg9
F13.66915512084961
sg10
I100
sg11
I100
sa(dp122
g7
(F0.173
F0.638
F0.064
I87
I100
tp123
sg9
F27.15463614463806
sg10
I100
sg11
I200
sa(dp124
g7
(F0.178
F0.621
F0.063
I88
I100
tp125
sg9
F40.597334146499634
sg10
I100
sg11
I300
sa(dp126
g7
(F0.182
F0.626
F0.068
I87
I100
tp127
sg9
F53.9946711063385
sg10
I100
sg11
I400
sa(dp128
g7
(F0.184
F0.709
F0.064
I90
I100
tp129
sg9
F67.41113209724426
sg10
I100
sg11
I500
satp130
Rp131
(dp132
g25
I01
sg26
g31
sg32
(lp133
I3
aI5
aI30
aI9
asg34
I6
sg35
g36
(g3
tp134
Rp135
sbs.