(dp0
S'NSGA2-SIP'
p1
ccopy_reg
_reconstructor
p2
(cdeap.tools.support
Logbook
p3
c__builtin__
list
p4
(lp5
(dp6
S'hv|spread|igd|frontier#|valid#'
p7
(F0.055
F1.12
F0.046
I1
I1
tp8
sS'timestamp'
p9
F0.10143208503723145
sS'evals'
p10
I100
sS'gen'
p11
I0
sa(dp12
g7
(F0.148
F0.697
F0.057
I100
I100
tp13
sg9
F16.022181034088135
sg10
I100
sg11
I100
sa(dp14
g7
(F0.16
F0.629
F0.064
I100
I100
tp15
sg9
F32.348052978515625
sg10
I100
sg11
I200
sa(dp16
g7
(F0.166
F0.554
F0.068
I100
I100
tp17
sg9
F48.45744013786316
sg10
I100
sg11
I300
sa(dp18
g7
(F0.17
F0.582
F0.067
I100
I100
tp19
sg9
F64.32628893852234
sg10
I100
sg11
I400
sa(dp20
g7
(F0.171
F0.683
F0.066
I100
I100
tp21
sg9
F80.02878308296204
sg10
I100
sg11
I500
satp22
Rp23
(dp24
S'log_header'
p25
I01
sS'header'
p26
(S'gen'
p27
S'evals'
p28
S'hv|spread|igd|frontier#|valid#'
p29
S'timestamp'
p30
tp31
sS'columns_len'
p32
(lp33
I3
aI5
aI31
aI9
asS'buffindex'
p34
I6
sS'chapters'
p35
ccollections
defaultdict
p36
(g3
tp37
Rp38
sbsS'SPEA2-SIP'
p39
g2
(g3
g4
(lp40
(dp41
g7
(F0.075
F0.961
F0.032
I2
I2
tp42
sg9
F0.1055459976196289
sg10
I100
sg11
I0
sa(dp43
g7
(F0.155
F0.683
F0.077
I100
I100
tp44
sg9
F58.444080114364624
sg10
I100
sg11
I100
sa(dp45
g7
(F0.163
F0.682
F0.087
I100
I100
tp46
sg9
F130.55725407600403
sg10
I100
sg11
I200
sa(dp47
g7
(F0.166
F0.57
F0.091
I100
I100
tp48
sg9
F204.15937304496765
sg10
I100
sg11
I300
sa(dp49
g7
(F0.168
F0.662
F0.093
I100
I100
tp50
sg9
F277.0385880470276
sg10
I100
sg11
I400
sa(dp51
g7
(F0.169
F0.671
F0.092
I100
I100
tp52
sg9
F352.07424807548523
sg10
I100
sg11
I500
satp53
Rp54
(dp55
g25
I01
sg26
g31
sg32
(lp56
I3
aI5
aI31
aI9
asg34
I6
sg35
g36
(g3
tp57
Rp58
sbsS'SPEA2'
p59
g2
(g3
g4
(lp60
(dp61
g7
(I0
I0
I0
I0
I0
tp62
sg9
F0.12418794631958008
sg10
I100
sg11
I0
sa(dp63
g7
g62
sg9
F89.8226261138916
sg10
I100
sg11
I100
sa(dp64
g7
g62
sg9
F197.61317801475525
sg10
I100
sg11
I200
sa(dp65
g7
g62
sg9
F316.5775148868561
sg10
I100
sg11
I300
sa(dp66
g7
g62
sg9
F443.03613805770874
sg10
I100
sg11
I400
sa(dp67
g7
g62
sg9
F575.5505619049072
sg10
I100
sg11
I500
satp68
Rp69
(dp70
g25
I01
sg26
g31
sg32
(lp71
I3
aI5
aI30
aI9
asg34
I6
sg35
g36
(g3
tp72
Rp73
sbsS'IBEA-PEN'
p74
g2
(g3
g4
(lp75
(dp76
g7
(F0.027
F2.044
F0.024
I1
I1
tp77
sg9
F0.2675609588623047
sg10
I100
sg11
I0
sa(dp78
g7
(F0.023
F2.036
F0.01
I1
I1
tp79
sg9
F16.03444194793701
sg10
I100
sg11
I100
sa(dp80
g7
g62
sg9
F31.688055992126465
sg10
I100
sg11
I200
sa(dp81
g7
g62
sg9
F47.31909489631653
sg10
I100
sg11
I300
sa(dp82
g7
g62
sg9
F62.92450189590454
sg10
I100
sg11
I400
sa(dp83
g7
g62
sg9
F78.49355697631836
sg10
I100
sg11
I500
satp84
Rp85
(dp86
g25
I01
sg26
g31
sg32
(lp87
I3
aI5
aI30
aI9
asg34
I6
sg35
g36
(g3
tp88
Rp89
sbsS'IBEA'
p90
g2
(g3
g4
(lp91
(dp92
g7
g62
sg9
F0.12499880790710449
sg10
I100
sg11
I0
sa(dp93
g7
g62
sg9
F15.599609851837158
sg10
I100
sg11
I100
sa(dp94
g7
g62
sg9
F31.10025691986084
sg10
I100
sg11
I200
sa(dp95
g7
g62
sg9
F46.6355619430542
sg10
I100
sg11
I300
sa(dp96
g7
g62
sg9
F62.091349840164185
sg10
I100
sg11
I400
sa(dp97
g7
g62
sg9
F77.54230284690857
sg10
I100
sg11
I500
satp98
Rp99
(dp100
g25
I01
sg26
g31
sg32
(lp101
I3
aI5
aI30
aI9
asg34
I6
sg35
g36
(g3
tp102
Rp103
sbsS'NSGA2'
p104
g2
(g3
g4
(lp105
(dp106
g7
g62
sg9
F0.12292790412902832
sg10
I100
sg11
I0
sa(dp107
g7
g62
sg9
F19.77849006652832
sg10
I100
sg11
I100
sa(dp108
g7
g62
sg9
F39.51469898223877
sg10
I100
sg11
I200
sa(dp109
g7
g62
sg9
F59.304933071136475
sg10
I100
sg11
I300
sa(dp110
g7
g62
sg9
F79.2114360332489
sg10
I100
sg11
I400
sa(dp111
g7
g62
sg9
F99.16652297973633
sg10
I100
sg11
I500
satp112
Rp113
(dp114
g25
I01
sg26
g31
sg32
(lp115
I3
aI5
aI30
aI9
asg34
I6
sg35
g36
(g3
tp116
Rp117
sbsS'IBEA-SIP'
p118
g2
(g3
g4
(lp119
(dp120
g7
g62
sg9
F0.09824514389038086
sg10
I100
sg11
I0
sa(dp121
g7
(F0.161
F0.652
F0.057
I82
I100
tp122
sg9
F13.679855108261108
sg10
I100
sg11
I100
sa(dp123
g7
(F0.168
F0.646
F0.062
I94
I100
tp124
sg9
F27.324168920516968
sg10
I100
sg11
I200
sa(dp125
g7
(F0.171
F0.666
F0.064
I92
I100
tp126
sg9
F40.815845012664795
sg10
I100
sg11
I300
sa(dp127
g7
(F0.172
F0.644
F0.065
I88
I100
tp128
sg9
F54.2776620388031
sg10
I100
sg11
I400
sa(dp129
g7
(F0.177
F0.712
F0.066
I95
I100
tp130
sg9
F67.65910601615906
sg10
I100
sg11
I500
satp131
Rp132
(dp133
g25
I01
sg26
g31
sg32
(lp134
I3
aI5
aI30
aI9
asg34
I6
sg35
g36
(g3
tp135
Rp136
sbs.