(dp0
S'NSGA2-SIP'
p1
ccopy_reg
_reconstructor
p2
(cdeap.tools.support
Logbook
p3
c__builtin__
list
p4
(lp5
(dp6
S'hv|spread|igd|frontier#|valid#'
p7
(F0.057
F0.94
F0.042
I1
I1
tp8
sS'timestamp'
p9
F0.09077215194702148
sS'evals'
p10
I100
sS'gen'
p11
I0
sa(dp12
g7
(F0.153
F0.62
F0.058
I100
I100
tp13
sg9
F13.601036071777344
sg10
I100
sg11
I100
sa(dp14
g7
(F0.158
F0.598
F0.06
I100
I100
tp15
sg9
F27.030889987945557
sg10
I100
sg11
I200
sa(dp16
g7
(F0.161
F0.666
F0.063
I100
I100
tp17
sg9
F40.52214694023132
sg10
I100
sg11
I300
sa(dp18
g7
(F0.165
F0.678
F0.061
I100
I100
tp19
sg9
F54.03472113609314
sg10
I100
sg11
I400
sa(dp20
g7
(F0.168
F0.653
F0.063
I100
I100
tp21
sg9
F67.47727108001709
sg10
I100
sg11
I500
satp22
Rp23
(dp24
S'log_header'
p25
I01
sS'header'
p26
(S'gen'
p27
S'evals'
p28
S'hv|spread|igd|frontier#|valid#'
p29
S'timestamp'
p30
tp31
sS'columns_len'
p32
(lp33
I3
aI5
aI31
aI9
asS'buffindex'
p34
I6
sS'chapters'
p35
ccollections
defaultdict
p36
(g3
tp37
Rp38
sbsS'SPEA2-SIP'
p39
g2
(g3
g4
(lp40
(dp41
g7
(F0.075
F0.966
F0.038
I3
I3
tp42
sg9
F0.09655404090881348
sg10
I100
sg11
I0
sa(dp43
g7
(F0.153
F0.599
F0.086
I100
I100
tp44
sg9
F52.04045510292053
sg10
I100
sg11
I100
sa(dp45
g7
(F0.156
F0.642
F0.094
I100
I100
tp46
sg9
F115.91709399223328
sg10
I100
sg11
I200
sa(dp47
g7
(F0.158
F0.633
F0.094
I100
I100
tp48
sg9
F179.65577602386475
sg10
I100
sg11
I300
sa(dp49
g7
(F0.162
F0.663
F0.097
I100
I100
tp50
sg9
F246.00926399230957
sg10
I100
sg11
I400
sa(dp51
g7
(F0.167
F0.63
F0.097
I100
I100
tp52
sg9
F314.3764250278473
sg10
I100
sg11
I500
satp53
Rp54
(dp55
g25
I01
sg26
g31
sg32
(lp56
I3
aI5
aI31
aI9
asg34
I6
sg35
g36
(g3
tp57
Rp58
sbsS'SPEA2'
p59
g2
(g3
g4
(lp60
(dp61
g7
(I0
I0
I0
I0
I0
tp62
sg9
F0.10719704627990723
sg10
I100
sg11
I0
sa(dp63
g7
g62
sg9
F80.68643498420715
sg10
I100
sg11
I100
sa(dp64
g7
g62
sg9
F182.35178899765015
sg10
I100
sg11
I200
sa(dp65
g7
g62
sg9
F291.3164460659027
sg10
I100
sg11
I300
sa(dp66
g7
g62
sg9
F401.45618200302124
sg10
I100
sg11
I400
sa(dp67
g7
g62
sg9
F520.5648980140686
sg10
I100
sg11
I500
satp68
Rp69
(dp70
g25
I01
sg26
g31
sg32
(lp71
I3
aI5
aI30
aI9
asg34
I6
sg35
g36
(g3
tp72
Rp73
sbsS'IBEA-PEN'
p74
g2
(g3
g4
(lp75
(dp76
g7
g62
sg9
F0.22581005096435547
sg10
I100
sg11
I0
sa(dp77
g7
(F0.018
F2.025
F0.014
I1
I1
tp78
sg9
F14.121899127960205
sg10
I100
sg11
I100
sa(dp79
g7
g62
sg9
F28.014381170272827
sg10
I100
sg11
I200
sa(dp80
g7
g62
sg9
F41.86215305328369
sg10
I100
sg11
I300
sa(dp81
g7
g62
sg9
F55.7060489654541
sg10
I100
sg11
I400
sa(dp82
g7
g62
sg9
F69.5612370967865
sg10
I100
sg11
I500
satp83
Rp84
(dp85
g25
I01
sg26
g31
sg32
(lp86
I3
aI5
aI30
aI9
asg34
I6
sg35
g36
(g3
tp87
Rp88
sbsS'IBEA'
p89
g2
(g3
g4
(lp90
(dp91
g7
g62
sg9
F0.14107704162597656
sg10
I100
sg11
I0
sa(dp92
g7
g62
sg9
F13.647598028182983
sg10
I100
sg11
I100
sa(dp93
g7
g62
sg9
F27.27786898612976
sg10
I100
sg11
I200
sa(dp94
g7
g62
sg9
F41.00438404083252
sg10
I100
sg11
I300
sa(dp95
g7
g62
sg9
F54.65588903427124
sg10
I100
sg11
I400
sa(dp96
g7
g62
sg9
F68.27642011642456
sg10
I100
sg11
I500
satp97
Rp98
(dp99
g25
I01
sg26
g31
sg32
(lp100
I3
aI5
aI30
aI9
asg34
I6
sg35
g36
(g3
tp101
Rp102
sbsS'NSGA2'
p103
g2
(g3
g4
(lp104
(dp105
g7
g62
sg9
F0.10640597343444824
sg10
I100
sg11
I0
sa(dp106
g7
g62
sg9
F16.698567867279053
sg10
I100
sg11
I100
sa(dp107
g7
g62
sg9
F33.37832283973694
sg10
I100
sg11
I200
sa(dp108
g7
g62
sg9
F50.10626697540283
sg10
I100
sg11
I300
sa(dp109
g7
g62
sg9
F66.86567878723145
sg10
I100
sg11
I400
sa(dp110
g7
g62
sg9
F83.63496398925781
sg10
I100
sg11
I500
satp111
Rp112
(dp113
g25
I01
sg26
g31
sg32
(lp114
I3
aI5
aI30
aI9
asg34
I6
sg35
g36
(g3
tp115
Rp116
sbsS'IBEA-SIP'
p117
g2
(g3
g4
(lp118
(dp119
g7
g62
sg9
F0.08802604675292969
sg10
I100
sg11
I0
sa(dp120
g7
(F0.156
F0.732
F0.066
I86
I100
tp121
sg9
F11.812746047973633
sg10
I100
sg11
I100
sa(dp122
g7
(F0.164
F0.67
F0.065
I84
I100
tp123
sg9
F23.580224990844727
sg10
I100
sg11
I200
sa(dp124
g7
(F0.169
F0.662
F0.066
I88
I100
tp125
sg9
F35.4717071056366
sg10
I100
sg11
I300
sa(dp126
g7
(F0.178
F0.619
F0.068
I92
I100
tp127
sg9
F47.218761920928955
sg10
I100
sg11
I400
sa(dp128
g7
(F0.18
F0.706
F0.074
I90
I100
tp129
sg9
F58.923738956451416
sg10
I100
sg11
I500
satp130
Rp131
(dp132
g25
I01
sg26
g31
sg32
(lp133
I3
aI5
aI30
aI9
asg34
I6
sg35
g36
(g3
tp134
Rp135
sbs.