(dp0
S'NSGA2-SIP'
p1
ccopy_reg
_reconstructor
p2
(cdeap.tools.support
Logbook
p3
c__builtin__
list
p4
(lp5
(dp6
S'hv|spread|igd|frontier#|valid#'
p7
(F0.055
F0.88
F0.039
I1
I1
tp8
sS'timestamp'
p9
F0.0918879508972168
sS'evals'
p10
I100
sS'gen'
p11
I0
sa(dp12
g7
(F0.153
F0.658
F0.058
I100
I100
tp13
sg9
F14.100574970245361
sg10
I100
sg11
I100
sa(dp14
g7
(F0.164
F0.652
F0.059
I100
I100
tp15
sg9
F28.098490953445435
sg10
I100
sg11
I200
sa(dp16
g7
(F0.165
F0.68
F0.06
I100
I100
tp17
sg9
F42.12910294532776
sg10
I100
sg11
I300
sa(dp18
g7
(F0.166
F0.615
F0.061
I100
I100
tp19
sg9
F56.011504888534546
sg10
I100
sg11
I400
sa(dp20
g7
(F0.169
F0.609
F0.064
I100
I100
tp21
sg9
F69.82725691795349
sg10
I100
sg11
I500
satp22
Rp23
(dp24
S'log_header'
p25
I01
sS'header'
p26
(S'gen'
p27
S'evals'
p28
S'hv|spread|igd|frontier#|valid#'
p29
S'timestamp'
p30
tp31
sS'columns_len'
p32
(lp33
I3
aI5
aI31
aI9
asS'buffindex'
p34
I6
sS'chapters'
p35
ccollections
defaultdict
p36
(g3
tp37
Rp38
sbsS'SPEA2-SIP'
p39
g2
(g3
g4
(lp40
(dp41
g7
(I0
I0
I0
I0
I0
tp42
sg9
F0.08899092674255371
sg10
I100
sg11
I0
sa(dp43
g7
(F0.154
F0.638
F0.085
I100
I100
tp44
sg9
F52.25843787193298
sg10
I100
sg11
I100
sa(dp45
g7
(F0.159
F0.627
F0.091
I100
I100
tp46
sg9
F118.13204789161682
sg10
I100
sg11
I200
sa(dp47
g7
(F0.161
F0.613
F0.093
I100
I100
tp48
sg9
F185.60978388786316
sg10
I100
sg11
I300
sa(dp49
g7
(F0.164
F0.614
F0.095
I100
I100
tp50
sg9
F251.6111068725586
sg10
I100
sg11
I400
sa(dp51
g7
(F0.169
F0.646
F0.096
I100
I100
tp52
sg9
F318.51700806617737
sg10
I100
sg11
I500
satp53
Rp54
(dp55
g25
I01
sg26
g31
sg32
(lp56
I3
aI5
aI31
aI9
asg34
I6
sg35
g36
(g3
tp57
Rp58
sbsS'SPEA2'
p59
g2
(g3
g4
(lp60
(dp61
g7
g42
sg9
F0.10721397399902344
sg10
I100
sg11
I0
sa(dp62
g7
g42
sg9
F84.46221804618835
sg10
I100
sg11
I100
sa(dp63
g7
g42
sg9
F194.63836193084717
sg10
I100
sg11
I200
sa(dp64
g7
g42
sg9
F312.7207999229431
sg10
I100
sg11
I300
sa(dp65
g7
g42
sg9
F430.66214513778687
sg10
I100
sg11
I400
sa(dp66
g7
g42
sg9
F556.414134979248
sg10
I100
sg11
I500
satp67
Rp68
(dp69
g25
I01
sg26
g31
sg32
(lp70
I3
aI5
aI30
aI9
asg34
I6
sg35
g36
(g3
tp71
Rp72
sbsS'IBEA'
p73
g2
(g3
g4
(lp74
(dp75
g7
g42
sg9
F0.1063530445098877
sg10
I100
sg11
I0
sa(dp76
g7
g42
sg9
F13.696646928787231
sg10
I100
sg11
I100
sa(dp77
g7
g42
sg9
F27.40561604499817
sg10
I100
sg11
I200
sa(dp78
g7
g42
sg9
F41.157585859298706
sg10
I100
sg11
I300
sa(dp79
g7
g42
sg9
F54.89140701293945
sg10
I100
sg11
I400
sa(dp80
g7
g42
sg9
F68.45107197761536
sg10
I100
sg11
I500
satp81
Rp82
(dp83
g25
I01
sg26
g31
sg32
(lp84
I3
aI5
aI30
aI9
asg34
I6
sg35
g36
(g3
tp85
Rp86
sbsS'NSGA2'
p87
g2
(g3
g4
(lp88
(dp89
g7
g42
sg9
F0.1071009635925293
sg10
I100
sg11
I0
sa(dp90
g7
g42
sg9
F16.8138210773468
sg10
I100
sg11
I100
sa(dp91
g7
g42
sg9
F33.56066012382507
sg10
I100
sg11
I200
sa(dp92
g7
g42
sg9
F50.43384909629822
sg10
I100
sg11
I300
sa(dp93
g7
g42
sg9
F67.2703640460968
sg10
I100
sg11
I400
sa(dp94
g7
g42
sg9
F84.12117409706116
sg10
I100
sg11
I500
satp95
Rp96
(dp97
g25
I01
sg26
g31
sg32
(lp98
I3
aI5
aI30
aI9
asg34
I6
sg35
g36
(g3
tp99
Rp100
sbsS'IBEA-SIP'
p101
g2
(g3
g4
(lp102
(dp103
g7
(F0.063
F0.989
F0.039
I2
I2
tp104
sg9
F0.09460997581481934
sg10
I100
sg11
I0
sa(dp105
g7
(F0.159
F0.705
F0.058
I81
I100
tp106
sg9
F12.263664960861206
sg10
I100
sg11
I100
sa(dp107
g7
(F0.165
F0.612
F0.067
I76
I100
tp108
sg9
F24.411757946014404
sg10
I100
sg11
I200
sa(dp109
g7
(F0.17
F0.623
F0.069
I85
I100
tp110
sg9
F36.543148040771484
sg10
I100
sg11
I300
sa(dp111
g7
(F0.174
F0.639
F0.07
I89
I100
tp112
sg9
F48.626405000686646
sg10
I100
sg11
I400
sa(dp113
g7
(F0.178
F0.632
F0.068
I92
I100
tp114
sg9
F60.764297008514404
sg10
I100
sg11
I500
satp115
Rp116
(dp117
g25
I01
sg26
g31
sg32
(lp118
I3
aI5
aI30
aI9
asg34
I6
sg35
g36
(g3
tp119
Rp120
sbs.