(dp0
S'NSGA2-SIP'
p1
ccopy_reg
_reconstructor
p2
(cdeap.tools.support
Logbook
p3
c__builtin__
list
p4
(lp5
(dp6
S'hv|spread|igd|frontier#|valid#'
p7
(F0.054
F2.21
F0.051
I1
I1
tp8
sS'timestamp'
p9
F0.0865030288696289
sS'evals'
p10
I100
sS'gen'
p11
I0
sa(dp12
g7
(F0.151
F0.715
F0.06
I100
I100
tp13
sg9
F13.379748106002808
sg10
I100
sg11
I100
sa(dp14
g7
(F0.159
F0.671
F0.066
I100
I100
tp15
sg9
F26.58774209022522
sg10
I100
sg11
I200
sa(dp16
g7
(F0.165
F0.636
F0.064
I100
I100
tp17
sg9
F39.89121103286743
sg10
I100
sg11
I300
sa(dp18
g7
(F0.168
F0.666
F0.066
I100
I100
tp19
sg9
F53.17956614494324
sg10
I100
sg11
I400
sa(dp20
g7
(F0.171
F0.577
F0.066
I100
I100
tp21
sg9
F66.39085602760315
sg10
I100
sg11
I500
satp22
Rp23
(dp24
S'log_header'
p25
I01
sS'header'
p26
(S'gen'
p27
S'evals'
p28
S'hv|spread|igd|frontier#|valid#'
p29
S'timestamp'
p30
tp31
sS'columns_len'
p32
(lp33
I3
aI5
aI31
aI9
asS'buffindex'
p34
I6
sS'chapters'
p35
ccollections
defaultdict
p36
(g3
tp37
Rp38
sbsS'SPEA2-SIP'
p39
g2
(g3
g4
(lp40
(dp41
g7
(I0
I0
I0
I0
I0
tp42
sg9
F0.08373403549194336
sg10
I100
sg11
I0
sa(dp43
g7
(F0.15
F0.656
F0.08
I100
I100
tp44
sg9
F51.0645911693573
sg10
I100
sg11
I100
sa(dp45
g7
(F0.16
F0.666
F0.09
I100
I100
tp46
sg9
F109.96818995475769
sg10
I100
sg11
I200
sa(dp47
g7
(F0.162
F0.623
F0.091
I100
I100
tp48
sg9
F170.85306096076965
sg10
I100
sg11
I300
sa(dp49
g7
(F0.163
F0.612
F0.091
I100
I100
tp50
sg9
F233.57351899147034
sg10
I100
sg11
I400
sa(dp51
g7
(F0.163
F0.716
F0.092
I100
I100
tp52
sg9
F297.4798080921173
sg10
I100
sg11
I500
satp53
Rp54
(dp55
g25
I01
sg26
g31
sg32
(lp56
I3
aI5
aI31
aI9
asg34
I6
sg35
g36
(g3
tp57
Rp58
sbsS'SPEA2'
p59
g2
(g3
g4
(lp60
(dp61
g7
g42
sg9
F0.10084795951843262
sg10
I100
sg11
I0
sa(dp62
g7
g42
sg9
F92.38345003128052
sg10
I100
sg11
I100
sa(dp63
g7
g42
sg9
F196.0140860080719
sg10
I100
sg11
I200
sa(dp64
g7
g42
sg9
F310.92656898498535
sg10
I100
sg11
I300
sa(dp65
g7
g42
sg9
F430.8483729362488
sg10
I100
sg11
I400
sa(dp66
g7
g42
sg9
F543.0460140705109
sg10
I100
sg11
I500
satp67
Rp68
(dp69
g25
I01
sg26
g31
sg32
(lp70
I3
aI5
aI30
aI9
asg34
I6
sg35
g36
(g3
tp71
Rp72
sbsS'IBEA'
p73
g2
(g3
g4
(lp74
(dp75
g7
g42
sg9
F0.10235810279846191
sg10
I100
sg11
I0
sa(dp76
g7
g42
sg9
F13.060513019561768
sg10
I100
sg11
I100
sa(dp77
g7
g42
sg9
F26.11048197746277
sg10
I100
sg11
I200
sa(dp78
g7
g42
sg9
F39.17384696006775
sg10
I100
sg11
I300
sa(dp79
g7
g42
sg9
F52.22518706321716
sg10
I100
sg11
I400
sa(dp80
g7
g42
sg9
F65.26657295227051
sg10
I100
sg11
I500
satp81
Rp82
(dp83
g25
I01
sg26
g31
sg32
(lp84
I3
aI5
aI30
aI9
asg34
I6
sg35
g36
(g3
tp85
Rp86
sbsS'NSGA2'
p87
g2
(g3
g4
(lp88
(dp89
g7
g42
sg9
F0.10167789459228516
sg10
I100
sg11
I0
sa(dp90
g7
g42
sg9
F15.843187808990479
sg10
I100
sg11
I100
sa(dp91
g7
g42
sg9
F31.62653088569641
sg10
I100
sg11
I200
sa(dp92
g7
g42
sg9
F47.49750590324402
sg10
I100
sg11
I300
sa(dp93
g7
g42
sg9
F63.39221000671387
sg10
I100
sg11
I400
sa(dp94
g7
g42
sg9
F79.37479090690613
sg10
I100
sg11
I500
satp95
Rp96
(dp97
g25
I01
sg26
g31
sg32
(lp98
I3
aI5
aI30
aI9
asg34
I6
sg35
g36
(g3
tp99
Rp100
sbsS'IBEA-SIP'
p101
g2
(g3
g4
(lp102
(dp103
g7
g42
sg9
F0.08351302146911621
sg10
I100
sg11
I0
sa(dp104
g7
(F0.156
F0.633
F0.06
I83
I100
tp105
sg9
F11.466171979904175
sg10
I100
sg11
I100
sa(dp106
g7
(F0.169
F0.689
F0.066
I86
I100
tp107
sg9
F23.050554990768433
sg10
I100
sg11
I200
sa(dp108
g7
(F0.174
F0.582
F0.068
I85
I100
tp109
sg9
F34.59291100502014
sg10
I100
sg11
I300
sa(dp110
g7
(F0.174
F0.683
F0.071
I90
I100
tp111
sg9
F46.144365072250366
sg10
I100
sg11
I400
sa(dp112
g7
(F0.178
F0.62
F0.071
I96
I100
tp113
sg9
F57.78840708732605
sg10
I100
sg11
I500
satp114
Rp115
(dp116
g25
I01
sg26
g31
sg32
(lp117
I3
aI5
aI30
aI9
asg34
I6
sg35
g36
(g3
tp118
Rp119
sbs.