(dp0
S'NSGA2-SIP'
p1
ccopy_reg
_reconstructor
p2
(cdeap.tools.support
Logbook
p3
c__builtin__
list
p4
(lp5
(dp6
S'hv|spread|igd|frontier#|valid#'
p7
(F0.057
F2.292
F0.036
I1
I1
tp8
sS'timestamp'
p9
F0.10259699821472168
sS'evals'
p10
I100
sS'gen'
p11
I0
sa(dp12
g7
(F0.145
F0.618
F0.063
I100
I100
tp13
sg9
F16.182520866394043
sg10
I100
sg11
I100
sa(dp14
g7
(F0.156
F0.603
F0.061
I100
I100
tp15
sg9
F32.56107687950134
sg10
I100
sg11
I200
sa(dp16
g7
(F0.166
F0.626
F0.066
I100
I100
tp17
sg9
F48.91342902183533
sg10
I100
sg11
I300
sa(dp18
g7
(F0.169
F0.575
F0.066
I100
I100
tp19
sg9
F64.89034605026245
sg10
I100
sg11
I400
sa(dp20
g7
(F0.171
F0.655
F0.069
I100
I100
tp21
sg9
F80.85412096977234
sg10
I100
sg11
I500
satp22
Rp23
(dp24
S'log_header'
p25
I01
sS'header'
p26
(S'gen'
p27
S'evals'
p28
S'hv|spread|igd|frontier#|valid#'
p29
S'timestamp'
p30
tp31
sS'columns_len'
p32
(lp33
I3
aI5
aI31
aI9
asS'buffindex'
p34
I6
sS'chapters'
p35
ccollections
defaultdict
p36
(g3
tp37
Rp38
sbsS'SPEA2-SIP'
p39
g2
(g3
g4
(lp40
(dp41
g7
(I0
I0
I0
I0
I0
tp42
sg9
F0.09857392311096191
sg10
I100
sg11
I0
sa(dp43
g7
(F0.146
F0.584
F0.08
I100
I100
tp44
sg9
F57.109243869781494
sg10
I100
sg11
I100
sa(dp45
g7
(F0.156
F0.683
F0.09
I100
I100
tp46
sg9
F126.58233690261841
sg10
I100
sg11
I200
sa(dp47
g7
(F0.171
F0.635
F0.089
I100
I100
tp48
sg9
F199.27362298965454
sg10
I100
sg11
I300
sa(dp49
g7
(F0.173
F0.691
F0.092
I100
I100
tp50
sg9
F274.1869888305664
sg10
I100
sg11
I400
sa(dp51
g7
(F0.176
F0.601
F0.096
I100
I100
tp52
sg9
F352.11021995544434
sg10
I100
sg11
I500
satp53
Rp54
(dp55
g25
I01
sg26
g31
sg32
(lp56
I3
aI5
aI31
aI9
asg34
I6
sg35
g36
(g3
tp57
Rp58
sbsS'SPEA2'
p59
g2
(g3
g4
(lp60
(dp61
g7
g42
sg9
F0.12452507019042969
sg10
I100
sg11
I0
sa(dp62
g7
g42
sg9
F86.95820808410645
sg10
I100
sg11
I100
sa(dp63
g7
g42
sg9
F212.9772310256958
sg10
I100
sg11
I200
sa(dp64
g7
g42
sg9
F356.5169060230255
sg10
I100
sg11
I300
sa(dp65
g7
g42
sg9
F497.0912001132965
sg10
I100
sg11
I400
sa(dp66
g7
g42
sg9
F644.8728840351105
sg10
I100
sg11
I500
satp67
Rp68
(dp69
g25
I01
sg26
g31
sg32
(lp70
I3
aI5
aI30
aI9
asg34
I6
sg35
g36
(g3
tp71
Rp72
sbsS'IBEA-PEN'
p73
g2
(g3
g4
(lp74
(dp75
g7
(F0.039
F2.072
F0.017
I1
I1
tp76
sg9
F0.2719728946685791
sg10
I100
sg11
I0
sa(dp77
g7
g42
sg9
F16.252083778381348
sg10
I100
sg11
I100
sa(dp78
g7
g42
sg9
F32.0760018825531
sg10
I100
sg11
I200
sa(dp79
g7
g42
sg9
F47.91220784187317
sg10
I100
sg11
I300
sa(dp80
g7
g42
sg9
F63.72402477264404
sg10
I100
sg11
I400
sa(dp81
g7
g42
sg9
F79.52887296676636
sg10
I100
sg11
I500
satp82
Rp83
(dp84
g25
I01
sg26
g31
sg32
(lp85
I3
aI5
aI30
aI9
asg34
I6
sg35
g36
(g3
tp86
Rp87
sbsS'IBEA'
p88
g2
(g3
g4
(lp89
(dp90
g7
g42
sg9
F0.12327408790588379
sg10
I100
sg11
I0
sa(dp91
g7
g42
sg9
F15.60174012184143
sg10
I100
sg11
I100
sa(dp92
g7
g42
sg9
F31.11419916152954
sg10
I100
sg11
I200
sa(dp93
g7
g42
sg9
F46.63524317741394
sg10
I100
sg11
I300
sa(dp94
g7
g42
sg9
F62.18300104141235
sg10
I100
sg11
I400
sa(dp95
g7
g42
sg9
F77.71490406990051
sg10
I100
sg11
I500
satp96
Rp97
(dp98
g25
I01
sg26
g31
sg32
(lp99
I3
aI5
aI30
aI9
asg34
I6
sg35
g36
(g3
tp100
Rp101
sbsS'NSGA2'
p102
g2
(g3
g4
(lp103
(dp104
g7
g42
sg9
F0.12488603591918945
sg10
I100
sg11
I0
sa(dp105
g7
g42
sg9
F19.921267986297607
sg10
I100
sg11
I100
sa(dp106
g7
g42
sg9
F39.86539602279663
sg10
I100
sg11
I200
sa(dp107
g7
g42
sg9
F59.87725806236267
sg10
I100
sg11
I300
sa(dp108
g7
g42
sg9
F79.9239091873169
sg10
I100
sg11
I400
sa(dp109
g7
g42
sg9
F100.00288605690002
sg10
I100
sg11
I500
satp110
Rp111
(dp112
g25
I01
sg26
g31
sg32
(lp113
I3
aI5
aI30
aI9
asg34
I6
sg35
g36
(g3
tp114
Rp115
sbsS'IBEA-SIP'
p116
g2
(g3
g4
(lp117
(dp118
g7
g42
sg9
F0.09801316261291504
sg10
I100
sg11
I0
sa(dp119
g7
(F0.15
F0.696
F0.064
I88
I100
tp120
sg9
F13.374969959259033
sg10
I100
sg11
I100
sa(dp121
g7
(F0.162
F0.694
F0.07
I88
I100
tp122
sg9
F26.91698694229126
sg10
I100
sg11
I200
sa(dp123
g7
(F0.166
F0.547
F0.073
I91
I100
tp124
sg9
F40.44868016242981
sg10
I100
sg11
I300
sa(dp125
g7
(F0.17
F0.664
F0.074
I86
I100
tp126
sg9
F53.770813941955566
sg10
I100
sg11
I400
sa(dp127
g7
(F0.172
F0.633
F0.074
I91
I100
tp128
sg9
F67.18760514259338
sg10
I100
sg11
I500
satp129
Rp130
(dp131
g25
I01
sg26
g31
sg32
(lp132
I3
aI5
aI30
aI9
asg34
I6
sg35
g36
(g3
tp133
Rp134
sbs.