(dp0
S'NSGA2-SIP'
p1
ccopy_reg
_reconstructor
p2
(cdeap.tools.support
Logbook
p3
c__builtin__
list
p4
(lp5
(dp6
S'hv|spread|igd|frontier#|valid#'
p7
(F0.06
F1.06
F0.024
I1
I1
tp8
sS'timestamp'
p9
F0.08695697784423828
sS'evals'
p10
I100
sS'gen'
p11
I0
sa(dp12
g7
(F0.157
F0.674
F0.055
I100
I100
tp13
sg9
F13.365730047225952
sg10
I100
sg11
I100
sa(dp14
g7
(F0.165
F0.646
F0.063
I100
I100
tp15
sg9
F26.84284996986389
sg10
I100
sg11
I200
sa(dp16
g7
(F0.168
F0.612
F0.064
I100
I100
tp17
sg9
F40.246894121170044
sg10
I100
sg11
I300
sa(dp18
g7
(F0.172
F0.626
F0.067
I100
I100
tp19
sg9
F53.39367198944092
sg10
I100
sg11
I400
sa(dp20
g7
(F0.176
F0.581
F0.067
I100
I100
tp21
sg9
F66.52223300933838
sg10
I100
sg11
I500
satp22
Rp23
(dp24
S'log_header'
p25
I01
sS'header'
p26
(S'gen'
p27
S'evals'
p28
S'hv|spread|igd|frontier#|valid#'
p29
S'timestamp'
p30
tp31
sS'columns_len'
p32
(lp33
I3
aI5
aI31
aI9
asS'buffindex'
p34
I6
sS'chapters'
p35
ccollections
defaultdict
p36
(g3
tp37
Rp38
sbsS'SPEA2-SIP'
p39
g2
(g3
g4
(lp40
(dp41
g7
(F0.059
F1.1
F0.046
I1
I1
tp42
sg9
F0.08713197708129883
sg10
I100
sg11
I0
sa(dp43
g7
(F0.156
F0.638
F0.078
I100
I100
tp44
sg9
F50.676591873168945
sg10
I100
sg11
I100
sa(dp45
g7
(F0.163
F0.651
F0.084
I100
I100
tp46
sg9
F108.95149397850037
sg10
I100
sg11
I200
sa(dp47
g7
(F0.164
F0.662
F0.086
I100
I100
tp48
sg9
F172.10666489601135
sg10
I100
sg11
I300
sa(dp49
g7
(F0.165
F0.586
F0.087
I100
I100
tp50
sg9
F234.5223879814148
sg10
I100
sg11
I400
sa(dp51
g7
(F0.166
F0.615
F0.089
I100
I100
tp52
sg9
F298.3937928676605
sg10
I100
sg11
I500
satp53
Rp54
(dp55
g25
I01
sg26
g31
sg32
(lp56
I3
aI5
aI31
aI9
asg34
I6
sg35
g36
(g3
tp57
Rp58
sbsS'SPEA2'
p59
g2
(g3
g4
(lp60
(dp61
g7
(I0
I0
I0
I0
I0
tp62
sg9
F0.10123801231384277
sg10
I100
sg11
I0
sa(dp63
g7
g62
sg9
F77.78690910339355
sg10
I100
sg11
I100
sa(dp64
g7
g62
sg9
F176.9681179523468
sg10
I100
sg11
I200
sa(dp65
g7
g62
sg9
F287.37562704086304
sg10
I100
sg11
I300
sa(dp66
g7
g62
sg9
F398.5963740348816
sg10
I100
sg11
I400
sa(dp67
g7
g62
sg9
F514.1321160793304
sg10
I100
sg11
I500
satp68
Rp69
(dp70
g25
I01
sg26
g31
sg32
(lp71
I3
aI5
aI30
aI9
asg34
I6
sg35
g36
(g3
tp72
Rp73
sbsS'IBEA'
p74
g2
(g3
g4
(lp75
(dp76
g7
g62
sg9
F0.10057783126831055
sg10
I100
sg11
I0
sa(dp77
g7
g62
sg9
F13.126866817474365
sg10
I100
sg11
I100
sa(dp78
g7
g62
sg9
F26.217773914337158
sg10
I100
sg11
I200
sa(dp79
g7
g62
sg9
F39.321669816970825
sg10
I100
sg11
I300
sa(dp80
g7
g62
sg9
F52.456785917282104
sg10
I100
sg11
I400
sa(dp81
g7
g62
sg9
F65.59809994697571
sg10
I100
sg11
I500
satp82
Rp83
(dp84
g25
I01
sg26
g31
sg32
(lp85
I3
aI5
aI30
aI9
asg34
I6
sg35
g36
(g3
tp86
Rp87
sbsS'NSGA2'
p88
g2
(g3
g4
(lp89
(dp90
g7
g62
sg9
F0.10280895233154297
sg10
I100
sg11
I0
sa(dp91
g7
g62
sg9
F16.062087059020996
sg10
I100
sg11
I100
sa(dp92
g7
g62
sg9
F32.11346507072449
sg10
I100
sg11
I200
sa(dp93
g7
g62
sg9
F48.13128900527954
sg10
I100
sg11
I300
sa(dp94
g7
g62
sg9
F64.16469812393188
sg10
I100
sg11
I400
sa(dp95
g7
g62
sg9
F80.18521404266357
sg10
I100
sg11
I500
satp96
Rp97
(dp98
g25
I01
sg26
g31
sg32
(lp99
I3
aI5
aI30
aI9
asg34
I6
sg35
g36
(g3
tp100
Rp101
sbsS'IBEA-SIP'
p102
g2
(g3
g4
(lp103
(dp104
g7
g62
sg9
F0.08433890342712402
sg10
I100
sg11
I0
sa(dp105
g7
(F0.156
F0.613
F0.062
I80
I100
tp106
sg9
F11.601526975631714
sg10
I100
sg11
I100
sa(dp107
g7
(F0.169
F0.674
F0.064
I93
I100
tp108
sg9
F23.232991933822632
sg10
I100
sg11
I200
sa(dp109
g7
(F0.172
F0.717
F0.067
I93
I100
tp110
sg9
F34.768818855285645
sg10
I100
sg11
I300
sa(dp111
g7
(F0.175
F0.638
F0.065
I88
I100
tp112
sg9
F46.211673974990845
sg10
I100
sg11
I400
sa(dp113
g7
(F0.18
F0.591
F0.07
I84
I100
tp114
sg9
F57.64878988265991
sg10
I100
sg11
I500
satp115
Rp116
(dp117
g25
I01
sg26
g31
sg32
(lp118
I3
aI5
aI30
aI9
asg34
I6
sg35
g36
(g3
tp119
Rp120
sbs.