(dp0
S'NSGA2-SIP'
p1
ccopy_reg
_reconstructor
p2
(cdeap.tools.support
Logbook
p3
c__builtin__
list
p4
(lp5
(dp6
S'hv|spread|igd|frontier#|valid#'
p7
(F0.063
F1.1
F0.026
I1
I1
tp8
sS'timestamp'
p9
F0.19889378547668457
sS'evals'
p10
I100
sS'gen'
p11
I0
sa(dp12
g7
(F0.147
F0.615
F0.064
I100
I100
tp13
sg9
F27.950620889663696
sg10
I100
sg11
I100
sa(dp14
g7
(F0.162
F0.646
F0.067
I100
I100
tp15
sg9
F43.44605994224548
sg10
I100
sg11
I200
sa(dp16
g7
(F0.167
F0.632
F0.066
I100
I100
tp17
sg9
F58.706700801849365
sg10
I100
sg11
I300
sa(dp18
g7
(F0.177
F0.622
F0.068
I100
I100
tp19
sg9
F73.85202288627625
sg10
I100
sg11
I400
sa(dp20
g7
(F0.178
F0.597
F0.068
I100
I100
tp21
sg9
F89.24616599082947
sg10
I100
sg11
I500
satp22
Rp23
(dp24
S'log_header'
p25
I01
sS'header'
p26
(S'gen'
p27
S'evals'
p28
S'hv|spread|igd|frontier#|valid#'
p29
S'timestamp'
p30
tp31
sS'columns_len'
p32
(lp33
I3
aI5
aI31
aI9
asS'buffindex'
p34
I6
sS'chapters'
p35
ccollections
defaultdict
p36
(g3
tp37
Rp38
sbsS'SPEA2-SIP'
p39
g2
(g3
g4
(lp40
(dp41
g7
(I0
I0
I0
I0
I0
tp42
sg9
F0.09880185127258301
sg10
I100
sg11
I0
sa(dp43
g7
(F0.151
F0.583
F0.078
I100
I100
tp44
sg9
F60.191882848739624
sg10
I100
sg11
I100
sa(dp45
g7
(F0.158
F0.615
F0.082
I100
I100
tp46
sg9
F133.49531388282776
sg10
I100
sg11
I200
sa(dp47
g7
(F0.161
F0.604
F0.087
I100
I100
tp48
sg9
F208.435231924057
sg10
I100
sg11
I300
sa(dp49
g7
(F0.162
F0.629
F0.086
I100
I100
tp50
sg9
F287.16893696784973
sg10
I100
sg11
I400
sa(dp51
g7
(F0.163
F0.649
F0.09
I100
I100
tp52
sg9
F366.99284982681274
sg10
I100
sg11
I500
satp53
Rp54
(dp55
g25
I01
sg26
g31
sg32
(lp56
I3
aI5
aI31
aI9
asg34
I6
sg35
g36
(g3
tp57
Rp58
sbsS'SPEA2'
p59
g2
(g3
g4
(lp60
(dp61
g7
g42
sg9
F0.11845898628234863
sg10
I100
sg11
I0
sa(dp62
g7
g42
sg9
F89.66845798492432
sg10
I100
sg11
I100
sa(dp63
g7
g42
sg9
F205.20790004730225
sg10
I100
sg11
I200
sa(dp64
g7
g42
sg9
F332.7375750541687
sg10
I100
sg11
I300
sa(dp65
g7
g42
sg9
F461.7957410812378
sg10
I100
sg11
I400
sa(dp66
g7
g42
sg9
F599.4921271800995
sg10
I100
sg11
I500
satp67
Rp68
(dp69
g25
I01
sg26
g31
sg32
(lp70
I3
aI5
aI30
aI9
asg34
I6
sg35
g36
(g3
tp71
Rp72
sbsS'IBEA'
p73
g2
(g3
g4
(lp74
(dp75
g7
g42
sg9
F0.11853313446044922
sg10
I100
sg11
I0
sa(dp76
g7
g42
sg9
F15.297345161437988
sg10
I100
sg11
I100
sa(dp77
g7
g42
sg9
F30.612646102905273
sg10
I100
sg11
I200
sa(dp78
g7
g42
sg9
F45.897144079208374
sg10
I100
sg11
I300
sa(dp79
g7
g42
sg9
F61.175987005233765
sg10
I100
sg11
I400
sa(dp80
g7
g42
sg9
F76.46732711791992
sg10
I100
sg11
I500
satp81
Rp82
(dp83
g25
I01
sg26
g31
sg32
(lp84
I3
aI5
aI30
aI9
asg34
I6
sg35
g36
(g3
tp85
Rp86
sbsS'NSGA2'
p87
g2
(g3
g4
(lp88
(dp89
g7
g42
sg9
F0.23671317100524902
sg10
I100
sg11
I0
sa(dp90
g7
g42
sg9
F36.80946612358093
sg10
I100
sg11
I100
sa(dp91
g7
g42
sg9
F72.82100200653076
sg10
I100
sg11
I200
sa(dp92
g7
g42
sg9
F109.17663407325745
sg10
I100
sg11
I300
sa(dp93
g7
g42
sg9
F145.5927770137787
sg10
I100
sg11
I400
sa(dp94
g7
g42
sg9
F182.09870409965515
sg10
I100
sg11
I500
satp95
Rp96
(dp97
g25
I01
sg26
g31
sg32
(lp98
I3
aI5
aI30
aI9
asg34
I6
sg35
g36
(g3
tp99
Rp100
sbsS'IBEA-SIP'
p101
g2
(g3
g4
(lp102
(dp103
g7
(F0.057
F2.21
F0.039
I1
I1
tp104
sg9
F0.10105395317077637
sg10
I100
sg11
I0
sa(dp105
g7
(F0.163
F0.644
F0.054
I80
I100
tp106
sg9
F13.431648015975952
sg10
I100
sg11
I100
sa(dp107
g7
(F0.17
F0.577
F0.064
I88
I100
tp108
sg9
F26.92719006538391
sg10
I100
sg11
I200
sa(dp109
g7
(F0.173
F0.621
F0.065
I85
I100
tp110
sg9
F40.213051080703735
sg10
I100
sg11
I300
sa(dp111
g7
(F0.176
F0.754
F0.068
I88
I100
tp112
sg9
F59.288930892944336
sg10
I100
sg11
I400
sa(dp113
g7
(F0.181
F0.629
F0.067
I92
I100
tp114
sg9
F84.73427891731262
sg10
I100
sg11
I500
satp115
Rp116
(dp117
g25
I01
sg26
g31
sg32
(lp118
I3
aI5
aI30
aI9
asg34
I6
sg35
g36
(g3
tp119
Rp120
sbs.