(dp0
S'NSGA2-SIP'
p1
ccopy_reg
_reconstructor
p2
(cdeap.tools.support
Logbook
p3
c__builtin__
list
p4
(lp5
(dp6
S'hv|spread|igd|frontier#|valid#'
p7
(I0
I0
I0
I0
I0
tp8
sS'timestamp'
p9
F0.09627604484558105
sS'evals'
p10
I100
sS'gen'
p11
I0
sa(dp12
g7
(F0.147
F0.658
F0.056
I100
I100
tp13
sg9
F14.835096836090088
sg10
I100
sg11
I100
sa(dp14
g7
(F0.155
F0.74
F0.063
I100
I100
tp15
sg9
F30.024016857147217
sg10
I100
sg11
I200
sa(dp16
g7
(F0.163
F0.645
F0.066
I100
I100
tp17
sg9
F45.235800981521606
sg10
I100
sg11
I300
sa(dp18
g7
(F0.166
F0.531
F0.07
I100
I100
tp19
sg9
F60.389256954193115
sg10
I100
sg11
I400
sa(dp20
g7
(F0.176
F0.54
F0.065
I100
I100
tp21
sg9
F75.56060791015625
sg10
I100
sg11
I500
satp22
Rp23
(dp24
S'log_header'
p25
I01
sS'header'
p26
(S'gen'
p27
S'evals'
p28
g7
S'timestamp'
p29
tp30
sS'columns_len'
p31
(lp32
I3
aI5
aI31
aI9
asS'buffindex'
p33
I6
sS'chapters'
p34
ccollections
defaultdict
p35
(g3
tp36
Rp37
sbsS'SPEA2-SIP'
p38
g2
(g3
g4
(lp39
(dp40
g7
(F0.062
F0.987
F0.045
I2
I2
tp41
sg9
F0.10145902633666992
sg10
I100
sg11
I0
sa(dp42
g7
(F0.159
F0.581
F0.08
I100
I100
tp43
sg9
F58.99043917655945
sg10
I100
sg11
I100
sa(dp44
g7
(F0.165
F0.647
F0.09
I100
I100
tp45
sg9
F129.0775170326233
sg10
I100
sg11
I200
sa(dp46
g7
(F0.167
F0.689
F0.091
I100
I100
tp47
sg9
F202.31796312332153
sg10
I100
sg11
I300
sa(dp48
g7
(F0.168
F0.645
F0.092
I100
I100
tp49
sg9
F276.47352409362793
sg10
I100
sg11
I400
sa(dp50
g7
(F0.169
F0.606
F0.092
I100
I100
tp51
sg9
F351.9774420261383
sg10
I100
sg11
I500
satp52
Rp53
(dp54
g25
I01
sg26
g30
sg31
(lp55
I3
aI5
aI31
aI9
asg33
I6
sg34
g35
(g3
tp56
Rp57
sbsS'SPEA2'
p58
g2
(g3
g4
(lp59
(dp60
g7
g8
sg9
F0.11454105377197266
sg10
I100
sg11
I0
sa(dp61
g7
g8
sg9
F91.26234102249146
sg10
I100
sg11
I100
sa(dp62
g7
g8
sg9
F207.591411113739
sg10
I100
sg11
I200
sa(dp63
g7
g8
sg9
F328.93998503685
sg10
I100
sg11
I300
sa(dp64
g7
g8
sg9
F446.69969391822815
sg10
I100
sg11
I400
sa(dp65
g7
g8
sg9
F570.9664149284363
sg10
I100
sg11
I500
satp66
Rp67
(dp68
g25
I01
sg26
g30
sg31
(lp69
I3
aI5
aI30
aI9
asg33
I6
sg34
g35
(g3
tp70
Rp71
sbsS'IBEA'
p72
g2
(g3
g4
(lp73
(dp74
g7
g8
sg9
F0.11779093742370605
sg10
I100
sg11
I0
sa(dp75
g7
g8
sg9
F14.927158832550049
sg10
I100
sg11
I100
sa(dp76
g7
g8
sg9
F29.744475841522217
sg10
I100
sg11
I200
sa(dp77
g7
g8
sg9
F44.55219292640686
sg10
I100
sg11
I300
sa(dp78
g7
g8
sg9
F59.32859396934509
sg10
I100
sg11
I400
sa(dp79
g7
g8
sg9
F74.13523697853088
sg10
I100
sg11
I500
satp80
Rp81
(dp82
g25
I01
sg26
g30
sg31
(lp83
I3
aI5
aI30
aI9
asg33
I6
sg34
g35
(g3
tp84
Rp85
sbsS'NSGA2'
p86
g2
(g3
g4
(lp87
(dp88
g7
g8
sg9
F0.11847090721130371
sg10
I100
sg11
I0
sa(dp89
g7
g8
sg9
F18.13498878479004
sg10
I100
sg11
I100
sa(dp90
g7
g8
sg9
F36.08562088012695
sg10
I100
sg11
I200
sa(dp91
g7
g8
sg9
F54.11748385429382
sg10
I100
sg11
I300
sa(dp92
g7
g8
sg9
F72.19231581687927
sg10
I100
sg11
I400
sa(dp93
g7
g8
sg9
F90.26445198059082
sg10
I100
sg11
I500
satp94
Rp95
(dp96
g25
I01
sg26
g30
sg31
(lp97
I3
aI5
aI30
aI9
asg33
I6
sg34
g35
(g3
tp98
Rp99
sbsS'IBEA-SIP'
p100
g2
(g3
g4
(lp101
(dp102
g7
(F0.06
F2.236
F0.03
I1
I1
tp103
sg9
F0.09875202178955078
sg10
I100
sg11
I0
sa(dp104
g7
(F0.158
F0.771
F0.06
I84
I100
tp105
sg9
F12.975741147994995
sg10
I100
sg11
I100
sa(dp106
g7
(F0.171
F0.621
F0.062
I88
I100
tp107
sg9
F26.24379014968872
sg10
I100
sg11
I200
sa(dp108
g7
(F0.174
F0.643
F0.068
I89
I100
tp109
sg9
F39.47114109992981
sg10
I100
sg11
I300
sa(dp110
g7
(F0.18
F0.592
F0.065
I87
I100
tp111
sg9
F52.457866191864014
sg10
I100
sg11
I400
sa(dp112
g7
(F0.183
F0.642
F0.07
I91
I100
tp113
sg9
F65.5483820438385
sg10
I100
sg11
I500
satp114
Rp115
(dp116
g25
I01
sg26
g30
sg31
(lp117
I3
aI5
aI30
aI9
asg33
I6
sg34
g35
(g3
tp118
Rp119
sbs.