(dp0
S'NSGA2-SIP'
p1
ccopy_reg
_reconstructor
p2
(cdeap.tools.support
Logbook
p3
c__builtin__
list
p4
(lp5
(dp6
S'hv|spread|igd|frontier#|valid#'
p7
(I0
I0
I0
I0
I0
tp8
sS'timestamp'
p9
F0.08477520942687988
sS'evals'
p10
I100
sS'gen'
p11
I0
sa(dp12
g7
(F0.155
F0.619
F0.061
I100
I100
tp13
sg9
F13.19809103012085
sg10
I100
sg11
I100
sa(dp14
g7
(F0.165
F0.624
F0.061
I100
I100
tp15
sg9
F26.64720916748047
sg10
I100
sg11
I200
sa(dp16
g7
(F0.173
F0.693
F0.064
I100
I100
tp17
sg9
F40.08968710899353
sg10
I100
sg11
I300
sa(dp18
g7
(F0.175
F0.591
F0.07
I100
I100
tp19
sg9
F53.38423800468445
sg10
I100
sg11
I400
sa(dp20
g7
(F0.176
F0.628
F0.065
I100
I100
tp21
sg9
F66.69626808166504
sg10
I100
sg11
I500
satp22
Rp23
(dp24
S'log_header'
p25
I01
sS'header'
p26
(S'gen'
p27
S'evals'
p28
S'hv|spread|igd|frontier#|valid#'
p29
S'timestamp'
p30
tp31
sS'columns_len'
p32
(lp33
I3
aI5
aI31
aI9
asS'buffindex'
p34
I6
sS'chapters'
p35
ccollections
defaultdict
p36
(g3
tp37
Rp38
sbsS'SPEA2-SIP'
p39
g2
(g3
g4
(lp40
(dp41
g7
(F0.066
F1.02
F0.0
I1
I1
tp42
sg9
F0.08702278137207031
sg10
I100
sg11
I0
sa(dp43
g7
(F0.155
F0.603
F0.072
I100
I100
tp44
sg9
F49.860270977020264
sg10
I100
sg11
I100
sa(dp45
g7
(F0.162
F0.629
F0.085
I100
I100
tp46
sg9
F108.51557278633118
sg10
I100
sg11
I200
sa(dp47
g7
(F0.165
F0.563
F0.088
I100
I100
tp48
sg9
F167.76994800567627
sg10
I100
sg11
I300
sa(dp49
g7
(F0.168
F0.635
F0.091
I100
I100
tp50
sg9
F226.97946786880493
sg10
I100
sg11
I400
sa(dp51
g7
(F0.17
F0.641
F0.09
I100
I100
tp52
sg9
F288.6249129772186
sg10
I100
sg11
I500
satp53
Rp54
(dp55
g25
I01
sg26
g31
sg32
(lp56
I3
aI5
aI31
aI9
asg34
I6
sg35
g36
(g3
tp57
Rp58
sbsS'SPEA2'
p59
g2
(g3
g4
(lp60
(dp61
g7
g8
sg9
F0.1021878719329834
sg10
I100
sg11
I0
sa(dp62
g7
g8
sg9
F77.03164601325989
sg10
I100
sg11
I100
sa(dp63
g7
g8
sg9
F175.03437685966492
sg10
I100
sg11
I200
sa(dp64
g7
g8
sg9
F289.33758902549744
sg10
I100
sg11
I300
sa(dp65
g7
g8
sg9
F406.5032949447632
sg10
I100
sg11
I400
sa(dp66
g7
g8
sg9
F519.0098598003387
sg10
I100
sg11
I500
satp67
Rp68
(dp69
g25
I01
sg26
g31
sg32
(lp70
I3
aI5
aI30
aI9
asg34
I6
sg35
g36
(g3
tp71
Rp72
sbsS'IBEA'
p73
g2
(g3
g4
(lp74
(dp75
g7
g8
sg9
F0.1019129753112793
sg10
I100
sg11
I0
sa(dp76
g7
g8
sg9
F13.24686884880066
sg10
I100
sg11
I100
sa(dp77
g7
g8
sg9
F26.355562925338745
sg10
I100
sg11
I200
sa(dp78
g7
g8
sg9
F39.50035285949707
sg10
I100
sg11
I300
sa(dp79
g7
g8
sg9
F52.605631828308105
sg10
I100
sg11
I400
sa(dp80
g7
g8
sg9
F65.72106885910034
sg10
I100
sg11
I500
satp81
Rp82
(dp83
g25
I01
sg26
g31
sg32
(lp84
I3
aI5
aI30
aI9
asg34
I6
sg35
g36
(g3
tp85
Rp86
sbsS'NSGA2'
p87
g2
(g3
g4
(lp88
(dp89
g7
g8
sg9
F0.10296297073364258
sg10
I100
sg11
I0
sa(dp90
g7
g8
sg9
F16.141942977905273
sg10
I100
sg11
I100
sa(dp91
g7
g8
sg9
F32.20683193206787
sg10
I100
sg11
I200
sa(dp92
g7
g8
sg9
F48.176202058792114
sg10
I100
sg11
I300
sa(dp93
g7
g8
sg9
F64.11643695831299
sg10
I100
sg11
I400
sa(dp94
g7
g8
sg9
F80.0934009552002
sg10
I100
sg11
I500
satp95
Rp96
(dp97
g25
I01
sg26
g31
sg32
(lp98
I3
aI5
aI30
aI9
asg34
I6
sg35
g36
(g3
tp99
Rp100
sbsS'IBEA-SIP'
p101
g2
(g3
g4
(lp102
(dp103
g7
g8
sg9
F0.08447408676147461
sg10
I100
sg11
I0
sa(dp104
g7
(F0.16
F0.611
F0.061
I86
I100
tp105
sg9
F11.40702509880066
sg10
I100
sg11
I100
sa(dp106
g7
(F0.167
F0.609
F0.067
I87
I100
tp107
sg9
F22.927810192108154
sg10
I100
sg11
I200
sa(dp108
g7
(F0.17
F0.646
F0.066
I84
I100
tp109
sg9
F34.331178188323975
sg10
I100
sg11
I300
sa(dp110
g7
(F0.172
F0.637
F0.069
I91
I100
tp111
sg9
F45.779479026794434
sg10
I100
sg11
I400
sa(dp112
g7
(F0.179
F0.606
F0.068
I90
I100
tp113
sg9
F57.20025110244751
sg10
I100
sg11
I500
satp114
Rp115
(dp116
g25
I01
sg26
g31
sg32
(lp117
I3
aI5
aI30
aI9
asg34
I6
sg35
g36
(g3
tp118
Rp119
sbs.