(dp0
S'NSGA2-SIP'
p1
ccopy_reg
_reconstructor
p2
(cdeap.tools.support
Logbook
p3
c__builtin__
list
p4
(lp5
(dp6
S'hv|spread|igd|frontier#|valid#'
p7
(I0
I0
I0
I0
I0
tp8
sS'timestamp'
p9
F0.09814119338989258
sS'evals'
p10
I100
sS'gen'
p11
I0
sa(dp12
g7
(F0.144
F0.542
F0.061
I100
I100
tp13
sg9
F16.159963130950928
sg10
I100
sg11
I100
sa(dp14
g7
(F0.152
F0.659
F0.068
I100
I100
tp15
sg9
F32.31231999397278
sg10
I100
sg11
I200
sa(dp16
g7
(F0.155
F0.615
F0.068
I100
I100
tp17
sg9
F48.31502318382263
sg10
I100
sg11
I300
sa(dp18
g7
(F0.166
F0.62
F0.067
I100
I100
tp19
sg9
F64.29525709152222
sg10
I100
sg11
I400
sa(dp20
g7
(F0.171
F0.672
F0.066
I100
I100
tp21
sg9
F80.47911715507507
sg10
I100
sg11
I500
satp22
Rp23
(dp24
S'log_header'
p25
I01
sS'header'
p26
(S'gen'
p27
S'evals'
p28
S'hv|spread|igd|frontier#|valid#'
p29
S'timestamp'
p30
tp31
sS'columns_len'
p32
(lp33
I3
aI5
aI31
aI9
asS'buffindex'
p34
I6
sS'chapters'
p35
ccollections
defaultdict
p36
(g3
tp37
Rp38
sbsS'SPEA2-SIP'
p39
g2
(g3
g4
(lp40
(dp41
g7
(F0.079
F0.947
F0.031
I3
I3
tp42
sg9
F0.10859513282775879
sg10
I100
sg11
I0
sa(dp43
g7
(F0.158
F0.683
F0.084
I100
I100
tp44
sg9
F60.75784111022949
sg10
I100
sg11
I100
sa(dp45
g7
(F0.163
F0.622
F0.089
I100
I100
tp46
sg9
F133.5431191921234
sg10
I100
sg11
I200
sa(dp47
g7
(F0.166
F0.62
F0.092
I100
I100
tp48
sg9
F207.0592269897461
sg10
I100
sg11
I300
sa(dp49
g7
(F0.169
F0.635
F0.09
I100
I100
tp50
sg9
F281.9862470626831
sg10
I100
sg11
I400
sa(dp51
g7
(F0.174
F0.666
F0.093
I100
I100
tp52
sg9
F363.4885890483856
sg10
I100
sg11
I500
satp53
Rp54
(dp55
g25
I01
sg26
g31
sg32
(lp56
I3
aI5
aI31
aI9
asg34
I6
sg35
g36
(g3
tp57
Rp58
sbsS'SPEA2'
p59
g2
(g3
g4
(lp60
(dp61
g7
g8
sg9
F0.12168312072753906
sg10
I100
sg11
I0
sa(dp62
g7
g8
sg9
F97.89786911010742
sg10
I100
sg11
I100
sa(dp63
g7
g8
sg9
F221.57057905197144
sg10
I100
sg11
I200
sa(dp64
g7
g8
sg9
F349.0384740829468
sg10
I100
sg11
I300
sa(dp65
g7
g8
sg9
F483.28540802001953
sg10
I100
sg11
I400
sa(dp66
g7
g8
sg9
F620.3794310092926
sg10
I100
sg11
I500
satp67
Rp68
(dp69
g25
I01
sg26
g31
sg32
(lp70
I3
aI5
aI30
aI9
asg34
I6
sg35
g36
(g3
tp71
Rp72
sbsS'IBEA-PEN'
p73
g2
(g3
g4
(lp74
(dp75
g7
(F0.038
F2.072
F0.024
I1
I1
tp76
sg9
F0.2723689079284668
sg10
I100
sg11
I0
sa(dp77
g7
(F0.024
F0.981
F0.019
I2
I2
tp78
sg9
F16.183218955993652
sg10
I100
sg11
I100
sa(dp79
g7
(F0.015
F2.022
F0.024
I1
I1
tp80
sg9
F31.960983991622925
sg10
I100
sg11
I200
sa(dp81
g7
g8
sg9
F47.783390045166016
sg10
I100
sg11
I300
sa(dp82
g7
g8
sg9
F63.6225528717041
sg10
I100
sg11
I400
sa(dp83
g7
g8
sg9
F79.6696879863739
sg10
I100
sg11
I500
satp84
Rp85
(dp86
g25
I01
sg26
g31
sg32
(lp87
I3
aI5
aI30
aI9
asg34
I6
sg35
g36
(g3
tp88
Rp89
sbsS'IBEA'
p90
g2
(g3
g4
(lp91
(dp92
g7
g8
sg9
F0.1228020191192627
sg10
I100
sg11
I0
sa(dp93
g7
g8
sg9
F15.558227062225342
sg10
I100
sg11
I100
sa(dp94
g7
g8
sg9
F31.0783429145813
sg10
I100
sg11
I200
sa(dp95
g7
g8
sg9
F46.60299491882324
sg10
I100
sg11
I300
sa(dp96
g7
g8
sg9
F62.137020111083984
sg10
I100
sg11
I400
sa(dp97
g7
g8
sg9
F77.6937620639801
sg10
I100
sg11
I500
satp98
Rp99
(dp100
g25
I01
sg26
g31
sg32
(lp101
I3
aI5
aI30
aI9
asg34
I6
sg35
g36
(g3
tp102
Rp103
sbsS'NSGA2'
p104
g2
(g3
g4
(lp105
(dp106
g7
g8
sg9
F0.12412285804748535
sg10
I100
sg11
I0
sa(dp107
g7
g8
sg9
F19.847996950149536
sg10
I100
sg11
I100
sa(dp108
g7
g8
sg9
F39.327433824539185
sg10
I100
sg11
I200
sa(dp109
g7
g8
sg9
F58.90419602394104
sg10
I100
sg11
I300
sa(dp110
g7
g8
sg9
F78.58399200439453
sg10
I100
sg11
I400
sa(dp111
g7
g8
sg9
F98.40512895584106
sg10
I100
sg11
I500
satp112
Rp113
(dp114
g25
I01
sg26
g31
sg32
(lp115
I3
aI5
aI30
aI9
asg34
I6
sg35
g36
(g3
tp116
Rp117
sbsS'IBEA-SIP'
p118
g2
(g3
g4
(lp119
(dp120
g7
(F0.056
F0.98
F0.037
I1
I1
tp121
sg9
F0.10230183601379395
sg10
I100
sg11
I0
sa(dp122
g7
(F0.153
F0.679
F0.054
I89
I100
tp123
sg9
F13.63289999961853
sg10
I100
sg11
I100
sa(dp124
g7
(F0.162
F0.648
F0.065
I88
I100
tp125
sg9
F27.24592399597168
sg10
I100
sg11
I200
sa(dp126
g7
(F0.166
F0.694
F0.07
I83
I100
tp127
sg9
F40.84087300300598
sg10
I100
sg11
I300
sa(dp128
g7
(F0.175
F0.617
F0.065
I92
I100
tp129
sg9
F54.56187295913696
sg10
I100
sg11
I400
sa(dp130
g7
(F0.18
F0.723
F0.068
I93
I100
tp131
sg9
F68.16351985931396
sg10
I100
sg11
I500
satp132
Rp133
(dp134
g25
I01
sg26
g31
sg32
(lp135
I3
aI5
aI30
aI9
asg34
I6
sg35
g36
(g3
tp136
Rp137
sbs.