(dp0
S'NSGA2-SIP'
p1
ccopy_reg
_reconstructor
p2
(cdeap.tools.support
Logbook
p3
c__builtin__
list
p4
(lp5
(dp6
S'hv|spread|igd|frontier#|valid#'
p7
(I0
I0
I0
I0
I0
tp8
sS'timestamp'
p9
F0.08982014656066895
sS'evals'
p10
I100
sS'gen'
p11
I0
sa(dp12
g7
(F0.144
F0.732
F0.065
I100
I100
tp13
sg9
F14.077672004699707
sg10
I100
sg11
I100
sa(dp14
g7
(F0.154
F0.613
F0.07
I100
I100
tp15
sg9
F28.411710023880005
sg10
I100
sg11
I200
sa(dp16
g7
(F0.167
F0.576
F0.065
I100
I100
tp17
sg9
F42.49360203742981
sg10
I100
sg11
I300
sa(dp18
g7
(F0.169
F0.637
F0.068
I100
I100
tp19
sg9
F56.64318919181824
sg10
I100
sg11
I400
sa(dp20
g7
(F0.17
F0.623
F0.068
I100
I100
tp21
sg9
F70.76060700416565
sg10
I100
sg11
I500
satp22
Rp23
(dp24
S'log_header'
p25
I01
sS'header'
p26
(S'gen'
p27
S'evals'
p28
S'hv|spread|igd|frontier#|valid#'
p29
S'timestamp'
p30
tp31
sS'columns_len'
p32
(lp33
I3
aI5
aI31
aI9
asS'buffindex'
p34
I6
sS'chapters'
p35
ccollections
defaultdict
p36
(g3
tp37
Rp38
sbsS'SPEA2-SIP'
p39
g2
(g3
g4
(lp40
(dp41
g7
g8
sg9
F0.08982992172241211
sg10
I100
sg11
I0
sa(dp42
g7
(F0.152
F0.691
F0.083
I100
I100
tp43
sg9
F52.423075914382935
sg10
I100
sg11
I100
sa(dp44
g7
(F0.157
F0.613
F0.093
I100
I100
tp45
sg9
F114.16112995147705
sg10
I100
sg11
I200
sa(dp46
g7
(F0.159
F0.579
F0.096
I100
I100
tp47
sg9
F178.71350383758545
sg10
I100
sg11
I300
sa(dp48
g7
(F0.161
F0.633
F0.095
I100
I100
tp49
sg9
F247.3038787841797
sg10
I100
sg11
I400
sa(dp50
g7
(F0.163
F0.67
F0.096
I100
I100
tp51
sg9
F316.4906508922577
sg10
I100
sg11
I500
satp52
Rp53
(dp54
g25
I01
sg26
g31
sg32
(lp55
I3
aI5
aI31
aI9
asg34
I6
sg35
g36
(g3
tp56
Rp57
sbsS'SPEA2'
p58
g2
(g3
g4
(lp59
(dp60
g7
g8
sg9
F0.10979485511779785
sg10
I100
sg11
I0
sa(dp61
g7
g8
sg9
F86.9529640674591
sg10
I100
sg11
I100
sa(dp62
g7
g8
sg9
F199.30892992019653
sg10
I100
sg11
I200
sa(dp63
g7
g8
sg9
F324.84214186668396
sg10
I100
sg11
I300
sa(dp64
g7
g8
sg9
F449.75001287460327
sg10
I100
sg11
I400
sa(dp65
g7
g8
sg9
F575.3338119983673
sg10
I100
sg11
I500
satp66
Rp67
(dp68
g25
I01
sg26
g31
sg32
(lp69
I3
aI5
aI30
aI9
asg34
I6
sg35
g36
(g3
tp70
Rp71
sbsS'IBEA'
p72
g2
(g3
g4
(lp73
(dp74
g7
g8
sg9
F0.1094660758972168
sg10
I100
sg11
I0
sa(dp75
g7
g8
sg9
F14.020190000534058
sg10
I100
sg11
I100
sa(dp76
g7
g8
sg9
F27.89843201637268
sg10
I100
sg11
I200
sa(dp77
g7
g8
sg9
F41.74707007408142
sg10
I100
sg11
I300
sa(dp78
g7
g8
sg9
F55.589017152786255
sg10
I100
sg11
I400
sa(dp79
g7
g8
sg9
F69.41826701164246
sg10
I100
sg11
I500
satp80
Rp81
(dp82
g25
I01
sg26
g31
sg32
(lp83
I3
aI5
aI30
aI9
asg34
I6
sg35
g36
(g3
tp84
Rp85
sbsS'NSGA2'
p86
g2
(g3
g4
(lp87
(dp88
g7
g8
sg9
F0.10860705375671387
sg10
I100
sg11
I0
sa(dp89
g7
g8
sg9
F16.88347291946411
sg10
I100
sg11
I100
sa(dp90
g7
g8
sg9
F33.639941930770874
sg10
I100
sg11
I200
sa(dp91
g7
g8
sg9
F50.50905895233154
sg10
I100
sg11
I300
sa(dp92
g7
g8
sg9
F67.42319083213806
sg10
I100
sg11
I400
sa(dp93
g7
g8
sg9
F84.34536004066467
sg10
I100
sg11
I500
satp94
Rp95
(dp96
g25
I01
sg26
g31
sg32
(lp97
I3
aI5
aI30
aI9
asg34
I6
sg35
g36
(g3
tp98
Rp99
sbsS'IBEA-SIP'
p100
g2
(g3
g4
(lp101
(dp102
g7
g8
sg9
F0.08885312080383301
sg10
I100
sg11
I0
sa(dp103
g7
(F0.155
F0.651
F0.06
I87
I100
tp104
sg9
F12.426986932754517
sg10
I100
sg11
I100
sa(dp105
g7
(F0.168
F0.615
F0.062
I89
I100
tp106
sg9
F24.83311891555786
sg10
I100
sg11
I200
sa(dp107
g7
(F0.172
F0.616
F0.067
I88
I100
tp108
sg9
F36.975367069244385
sg10
I100
sg11
I300
sa(dp109
g7
(F0.18
F0.604
F0.067
I91
I100
tp110
sg9
F49.099199056625366
sg10
I100
sg11
I400
sa(dp111
g7
(F0.182
F0.656
F0.072
I90
I100
tp112
sg9
F61.116706132888794
sg10
I100
sg11
I500
satp113
Rp114
(dp115
g25
I01
sg26
g31
sg32
(lp116
I3
aI5
aI30
aI9
asg34
I6
sg35
g36
(g3
tp117
Rp118
sbs.