(dp0
S'NSGA2-SIP'
p1
ccopy_reg
_reconstructor
p2
(cdeap.tools.support
Logbook
p3
c__builtin__
list
p4
(lp5
(dp6
S'hv|spread|igd|frontier#|valid#'
p7
(F0.065
F2.21
F0.01
I1
I1
tp8
sS'timestamp'
p9
F0.1016380786895752
sS'evals'
p10
I100
sS'gen'
p11
I0
sa(dp12
g7
(F0.148
F0.617
F0.062
I100
I100
tp13
sg9
F15.490386009216309
sg10
I100
sg11
I100
sa(dp14
g7
(F0.165
F0.623
F0.063
I100
I100
tp15
sg9
F30.85153102874756
sg10
I100
sg11
I200
sa(dp16
g7
(F0.169
F0.66
F0.065
I100
I100
tp17
sg9
F46.121861934661865
sg10
I100
sg11
I300
sa(dp18
g7
(F0.171
F0.635
F0.063
I100
I100
tp19
sg9
F61.439257860183716
sg10
I100
sg11
I400
sa(dp20
g7
(F0.177
F0.663
F0.066
I100
I100
tp21
sg9
F76.68606686592102
sg10
I100
sg11
I500
satp22
Rp23
(dp24
S'log_header'
p25
I01
sS'header'
p26
(S'gen'
p27
S'evals'
p28
S'hv|spread|igd|frontier#|valid#'
p29
S'timestamp'
p30
tp31
sS'columns_len'
p32
(lp33
I3
aI5
aI31
aI9
asS'buffindex'
p34
I6
sS'chapters'
p35
ccollections
defaultdict
p36
(g3
tp37
Rp38
sbsS'SPEA2-SIP'
p39
g2
(g3
g4
(lp40
(dp41
g7
(I0
I0
I0
I0
I0
tp42
sg9
F0.09801697731018066
sg10
I100
sg11
I0
sa(dp43
g7
(F0.153
F0.596
F0.084
I100
I100
tp44
sg9
F59.73959398269653
sg10
I100
sg11
I100
sa(dp45
g7
(F0.16
F0.551
F0.091
I100
I100
tp46
sg9
F128.83747601509094
sg10
I100
sg11
I200
sa(dp47
g7
(F0.163
F0.607
F0.093
I100
I100
tp48
sg9
F202.40310192108154
sg10
I100
sg11
I300
sa(dp49
g7
(F0.162
F0.625
F0.095
I100
I100
tp50
sg9
F279.43279695510864
sg10
I100
sg11
I400
sa(dp51
g7
(F0.172
F0.715
F0.095
I100
I100
tp52
sg9
F356.6896119117737
sg10
I100
sg11
I500
satp53
Rp54
(dp55
g25
I01
sg26
g31
sg32
(lp56
I3
aI5
aI31
aI9
asg34
I6
sg35
g36
(g3
tp57
Rp58
sbsS'SPEA2'
p59
g2
(g3
g4
(lp60
(dp61
g7
g42
sg9
F0.11760902404785156
sg10
I100
sg11
I0
sa(dp62
g7
g42
sg9
F104.35336804389954
sg10
I100
sg11
I100
sa(dp63
g7
g42
sg9
F241.68121600151062
sg10
I100
sg11
I200
sa(dp64
g7
g42
sg9
F384.08455896377563
sg10
I100
sg11
I300
sa(dp65
g7
g42
sg9
F525.4194459915161
sg10
I100
sg11
I400
sa(dp66
g7
g42
sg9
F670.2058908939362
sg10
I100
sg11
I500
satp67
Rp68
(dp69
g25
I01
sg26
g31
sg32
(lp70
I3
aI5
aI30
aI9
asg34
I6
sg35
g36
(g3
tp71
Rp72
sbsS'IBEA-PEN'
p73
g2
(g3
g4
(lp74
(dp75
g7
g42
sg9
F0.2402629852294922
sg10
I100
sg11
I0
sa(dp76
g7
(F0.161
F0.613
F0.036
I64
I81
tp77
sg9
F22.93366813659668
sg10
I100
sg11
I100
sa(dp78
g7
(F0.174
F0.743
F0.039
I51
I67
tp79
sg9
F45.46719408035278
sg10
I100
sg11
I200
sa(dp80
g7
(F0.179
F0.594
F0.046
I59
I70
tp81
sg9
F67.97170209884644
sg10
I100
sg11
I300
sa(dp82
g7
(F0.18
F0.754
F0.049
I57
I71
tp83
sg9
F90.42164611816406
sg10
I100
sg11
I400
sa(dp84
g7
(F0.183
F0.571
F0.05
I67
I82
tp85
sg9
F113.02199006080627
sg10
I100
sg11
I500
satp86
Rp87
(dp88
g25
I01
sg26
g31
sg32
(lp89
I3
aI5
aI30
aI9
asg34
I6
sg35
g36
(g3
tp90
Rp91
sbsS'IBEA'
p92
g2
(g3
g4
(lp93
(dp94
g7
g42
sg9
F0.11858105659484863
sg10
I100
sg11
I0
sa(dp95
g7
g42
sg9
F15.24912691116333
sg10
I100
sg11
I100
sa(dp96
g7
g42
sg9
F30.44676399230957
sg10
I100
sg11
I200
sa(dp97
g7
g42
sg9
F45.64713001251221
sg10
I100
sg11
I300
sa(dp98
g7
g42
sg9
F60.86355495452881
sg10
I100
sg11
I400
sa(dp99
g7
g42
sg9
F76.02889204025269
sg10
I100
sg11
I500
satp100
Rp101
(dp102
g25
I01
sg26
g31
sg32
(lp103
I3
aI5
aI30
aI9
asg34
I6
sg35
g36
(g3
tp104
Rp105
sbsS'NSGA2'
p106
g2
(g3
g4
(lp107
(dp108
g7
g42
sg9
F0.11833500862121582
sg10
I100
sg11
I0
sa(dp109
g7
g42
sg9
F18.83136487007141
sg10
I100
sg11
I100
sa(dp110
g7
g42
sg9
F37.57367992401123
sg10
I100
sg11
I200
sa(dp111
g7
g42
sg9
F56.244627952575684
sg10
I100
sg11
I300
sa(dp112
g7
g42
sg9
F74.91514301300049
sg10
I100
sg11
I400
sa(dp113
g7
g42
sg9
F93.51250505447388
sg10
I100
sg11
I500
satp114
Rp115
(dp116
g25
I01
sg26
g31
sg32
(lp117
I3
aI5
aI30
aI9
asg34
I6
sg35
g36
(g3
tp118
Rp119
sbsS'IBEA-SIP'
p120
g2
(g3
g4
(lp121
(dp122
g7
(F0.052
F2.254
F0.055
I1
I1
tp123
sg9
F0.10157108306884766
sg10
I100
sg11
I0
sa(dp124
g7
(F0.161
F0.759
F0.068
I87
I100
tp125
sg9
F13.768612146377563
sg10
I100
sg11
I100
sa(dp126
g7
(F0.167
F0.713
F0.065
I85
I100
tp127
sg9
F27.42064094543457
sg10
I100
sg11
I200
sa(dp128
g7
(F0.175
F0.682
F0.065
I79
I100
tp129
sg9
F40.973905086517334
sg10
I100
sg11
I300
sa(dp130
g7
(F0.177
F0.579
F0.069
I81
I100
tp131
sg9
F54.28176712989807
sg10
I100
sg11
I400
sa(dp132
g7
(F0.178
F0.621
F0.066
I88
I100
tp133
sg9
F67.59861898422241
sg10
I100
sg11
I500
satp134
Rp135
(dp136
g25
I01
sg26
g31
sg32
(lp137
I3
aI5
aI30
aI9
asg34
I6
sg35
g36
(g3
tp138
Rp139
sbs.