(dp0
S'NSGA2-SIP'
p1
ccopy_reg
_reconstructor
p2
(cdeap.tools.support
Logbook
p3
c__builtin__
list
p4
(lp5
(dp6
S'hv|spread|igd|frontier#|valid#'
p7
(I0
I0
I0
I0
I0
tp8
sS'timestamp'
p9
F0.09344196319580078
sS'evals'
p10
I100
sS'gen'
p11
I0
sa(dp12
g7
(F0.151
F0.647
F0.057
I100
I100
tp13
sg9
F14.581256866455078
sg10
I100
sg11
I100
sa(dp14
g7
(F0.161
F0.594
F0.06
I100
I100
tp15
sg9
F29.279038906097412
sg10
I100
sg11
I200
sa(dp16
g7
(F0.166
F0.649
F0.06
I100
I100
tp17
sg9
F43.84169888496399
sg10
I100
sg11
I300
sa(dp18
g7
(F0.168
F0.543
F0.063
I100
I100
tp19
sg9
F58.27555990219116
sg10
I100
sg11
I400
sa(dp20
g7
(F0.169
F0.585
F0.066
I100
I100
tp21
sg9
F72.75452208518982
sg10
I100
sg11
I500
satp22
Rp23
(dp24
S'log_header'
p25
I01
sS'header'
p26
(S'gen'
p27
S'evals'
p28
S'hv|spread|igd|frontier#|valid#'
p29
S'timestamp'
p30
tp31
sS'columns_len'
p32
(lp33
I3
aI5
aI31
aI9
asS'buffindex'
p34
I6
sS'chapters'
p35
ccollections
defaultdict
p36
(g3
tp37
Rp38
sbsS'SPEA2-SIP'
p39
g2
(g3
g4
(lp40
(dp41
g7
g8
sg9
F0.09383583068847656
sg10
I100
sg11
I0
sa(dp42
g7
(F0.143
F0.647
F0.077
I100
I100
tp43
sg9
F55.274791955947876
sg10
I100
sg11
I100
sa(dp44
g7
(F0.151
F0.627
F0.083
I100
I100
tp45
sg9
F120.84410381317139
sg10
I100
sg11
I200
sa(dp46
g7
(F0.153
F0.589
F0.085
I100
I100
tp47
sg9
F190.34797286987305
sg10
I100
sg11
I300
sa(dp48
g7
(F0.155
F0.651
F0.088
I100
I100
tp49
sg9
F260.23411297798157
sg10
I100
sg11
I400
sa(dp50
g7
(F0.157
F0.584
F0.092
I100
I100
tp51
sg9
F330.78704500198364
sg10
I100
sg11
I500
satp52
Rp53
(dp54
g25
I01
sg26
g31
sg32
(lp55
I3
aI5
aI31
aI9
asg34
I6
sg35
g36
(g3
tp56
Rp57
sbsS'SPEA2'
p58
g2
(g3
g4
(lp59
(dp60
g7
g8
sg9
F0.1133270263671875
sg10
I100
sg11
I0
sa(dp61
g7
g8
sg9
F89.54203081130981
sg10
I100
sg11
I100
sa(dp62
g7
g8
sg9
F201.75618290901184
sg10
I100
sg11
I200
sa(dp63
g7
g8
sg9
F317.185546875
sg10
I100
sg11
I300
sa(dp64
g7
g8
sg9
F445.9564778804779
sg10
I100
sg11
I400
sa(dp65
g7
g8
sg9
F575.4447298049927
sg10
I100
sg11
I500
satp66
Rp67
(dp68
g25
I01
sg26
g31
sg32
(lp69
I3
aI5
aI30
aI9
asg34
I6
sg35
g36
(g3
tp70
Rp71
sbsS'IBEA'
p72
g2
(g3
g4
(lp73
(dp74
g7
g8
sg9
F0.11294794082641602
sg10
I100
sg11
I0
sa(dp75
g7
g8
sg9
F14.623245000839233
sg10
I100
sg11
I100
sa(dp76
g7
g8
sg9
F29.245903968811035
sg10
I100
sg11
I200
sa(dp77
g7
g8
sg9
F43.8721718788147
sg10
I100
sg11
I300
sa(dp78
g7
g8
sg9
F58.51396203041077
sg10
I100
sg11
I400
sa(dp79
g7
g8
sg9
F73.13655495643616
sg10
I100
sg11
I500
satp80
Rp81
(dp82
g25
I01
sg26
g31
sg32
(lp83
I3
aI5
aI30
aI9
asg34
I6
sg35
g36
(g3
tp84
Rp85
sbsS'NSGA2'
p86
g2
(g3
g4
(lp87
(dp88
g7
g8
sg9
F0.11463403701782227
sg10
I100
sg11
I0
sa(dp89
g7
g8
sg9
F17.672266960144043
sg10
I100
sg11
I100
sa(dp90
g7
g8
sg9
F35.27505302429199
sg10
I100
sg11
I200
sa(dp91
g7
g8
sg9
F52.868927001953125
sg10
I100
sg11
I300
sa(dp92
g7
g8
sg9
F70.47054386138916
sg10
I100
sg11
I400
sa(dp93
g7
g8
sg9
F88.09347796440125
sg10
I100
sg11
I500
satp94
Rp95
(dp96
g25
I01
sg26
g31
sg32
(lp97
I3
aI5
aI30
aI9
asg34
I6
sg35
g36
(g3
tp98
Rp99
sbsS'IBEA-SIP'
p100
g2
(g3
g4
(lp101
(dp102
g7
(F0.064
F2.245
F0.014
I1
I1
tp103
sg9
F0.0964968204498291
sg10
I100
sg11
I0
sa(dp104
g7
(F0.158
F0.662
F0.058
I86
I100
tp105
sg9
F13.12828278541565
sg10
I100
sg11
I100
sa(dp106
g7
(F0.165
F0.659
F0.064
I90
I100
tp107
sg9
F26.16641092300415
sg10
I100
sg11
I200
sa(dp108
g7
(F0.17
F0.653
F0.065
I93
I100
tp109
sg9
F39.27532386779785
sg10
I100
sg11
I300
sa(dp110
g7
(F0.174
F0.689
F0.065
I90
I100
tp111
sg9
F52.2193808555603
sg10
I100
sg11
I400
sa(dp112
g7
(F0.175
F0.644
F0.067
I90
I100
tp113
sg9
F64.97329497337341
sg10
I100
sg11
I500
satp114
Rp115
(dp116
g25
I01
sg26
g31
sg32
(lp117
I3
aI5
aI30
aI9
asg34
I6
sg35
g36
(g3
tp118
Rp119
sbs.