(dp0
S'NSGA2-SIP'
p1
ccopy_reg
_reconstructor
p2
(cdeap.tools.support
Logbook
p3
c__builtin__
list
p4
(lp5
(dp6
S'hv|spread|igd|frontier#|valid#'
p7
(I0
I0
I0
I0
I0
tp8
sS'timestamp'
p9
F0.10015106201171875
sS'evals'
p10
I100
sS'gen'
p11
I0
sa(dp12
g7
(F0.15
F0.677
F0.059
I100
I100
tp13
sg9
F15.525673866271973
sg10
I100
sg11
I100
sa(dp14
g7
(F0.162
F0.655
F0.066
I100
I100
tp15
sg9
F31.26040291786194
sg10
I100
sg11
I200
sa(dp16
g7
(F0.164
F0.609
F0.069
I100
I100
tp17
sg9
F46.83615493774414
sg10
I100
sg11
I300
sa(dp18
g7
(F0.166
F0.663
F0.065
I100
I100
tp19
sg9
F62.13745093345642
sg10
I100
sg11
I400
sa(dp20
g7
(F0.168
F0.715
F0.071
I100
I100
tp21
sg9
F77.43183588981628
sg10
I100
sg11
I500
satp22
Rp23
(dp24
S'log_header'
p25
I01
sS'header'
p26
(S'gen'
p27
S'evals'
p28
S'hv|spread|igd|frontier#|valid#'
p29
S'timestamp'
p30
tp31
sS'columns_len'
p32
(lp33
I3
aI5
aI31
aI9
asS'buffindex'
p34
I6
sS'chapters'
p35
ccollections
defaultdict
p36
(g3
tp37
Rp38
sbsS'SPEA2-SIP'
p39
g2
(g3
g4
(lp40
(dp41
g7
g8
sg9
F0.10106992721557617
sg10
I100
sg11
I0
sa(dp42
g7
(F0.153
F0.603
F0.084
I100
I100
tp43
sg9
F59.34501099586487
sg10
I100
sg11
I100
sa(dp44
g7
(F0.158
F0.629
F0.088
I100
I100
tp45
sg9
F128.38620495796204
sg10
I100
sg11
I200
sa(dp46
g7
(F0.16
F0.689
F0.09
I100
I100
tp47
sg9
F199.99173188209534
sg10
I100
sg11
I300
sa(dp48
g7
(F0.162
F0.6
F0.091
I100
I100
tp49
sg9
F271.8885500431061
sg10
I100
sg11
I400
sa(dp50
g7
(F0.163
F0.588
F0.09
I100
I100
tp51
sg9
F343.05740189552307
sg10
I100
sg11
I500
satp52
Rp53
(dp54
g25
I01
sg26
g31
sg32
(lp55
I3
aI5
aI31
aI9
asg34
I6
sg35
g36
(g3
tp56
Rp57
sbsS'SPEA2'
p58
g2
(g3
g4
(lp59
(dp60
g7
g8
sg9
F0.12196993827819824
sg10
I100
sg11
I0
sa(dp61
g7
g8
sg9
F97.73085498809814
sg10
I100
sg11
I100
sa(dp62
g7
g8
sg9
F214.03118586540222
sg10
I100
sg11
I200
sa(dp63
g7
g8
sg9
F347.46168994903564
sg10
I100
sg11
I300
sa(dp64
g7
g8
sg9
F481.97290086746216
sg10
I100
sg11
I400
sa(dp65
g7
g8
sg9
F618.1143038272858
sg10
I100
sg11
I500
satp66
Rp67
(dp68
g25
I01
sg26
g31
sg32
(lp69
I3
aI5
aI30
aI9
asg34
I6
sg35
g36
(g3
tp70
Rp71
sbsS'IBEA-PEN'
p72
g2
(g3
g4
(lp73
(dp74
g7
(F0.035
F0.981
F0.026
I3
I3
tp75
sg9
F0.25147199630737305
sg10
I100
sg11
I0
sa(dp76
g7
(F0.163
F0.77
F0.03
I45
I64
tp77
sg9
F22.781198978424072
sg10
I100
sg11
I100
sa(dp78
g7
(F0.178
F0.619
F0.038
I71
I85
tp79
sg9
F45.86180090904236
sg10
I100
sg11
I200
sa(dp80
g7
(F0.177
F0.72
F0.042
I63
I80
tp81
sg9
F68.80333089828491
sg10
I100
sg11
I300
sa(dp82
g7
(F0.178
F0.672
F0.043
I60
I84
tp83
sg9
F91.69712805747986
sg10
I100
sg11
I400
sa(dp84
g7
(F0.184
F0.537
F0.04
I63
I77
tp85
sg9
F114.30011487007141
sg10
I100
sg11
I500
satp86
Rp87
(dp88
g25
I01
sg26
g31
sg32
(lp89
I3
aI5
aI30
aI9
asg34
I6
sg35
g36
(g3
tp90
Rp91
sbsS'IBEA'
p92
g2
(g3
g4
(lp93
(dp94
g7
g8
sg9
F0.12196993827819824
sg10
I100
sg11
I0
sa(dp95
g7
g8
sg9
F15.47294306755066
sg10
I100
sg11
I100
sa(dp96
g7
g8
sg9
F30.865936040878296
sg10
I100
sg11
I200
sa(dp97
g7
g8
sg9
F46.23376703262329
sg10
I100
sg11
I300
sa(dp98
g7
g8
sg9
F61.60657000541687
sg10
I100
sg11
I400
sa(dp99
g7
g8
sg9
F76.94634699821472
sg10
I100
sg11
I500
satp100
Rp101
(dp102
g25
I01
sg26
g31
sg32
(lp103
I3
aI5
aI30
aI9
asg34
I6
sg35
g36
(g3
tp104
Rp105
sbsS'NSGA2'
p106
g2
(g3
g4
(lp107
(dp108
g7
g8
sg9
F0.12174296379089355
sg10
I100
sg11
I0
sa(dp109
g7
g8
sg9
F18.82429599761963
sg10
I100
sg11
I100
sa(dp110
g7
g8
sg9
F37.56978392601013
sg10
I100
sg11
I200
sa(dp111
g7
g8
sg9
F56.381696939468384
sg10
I100
sg11
I300
sa(dp112
g7
g8
sg9
F75.08628106117249
sg10
I100
sg11
I400
sa(dp113
g7
g8
sg9
F93.7292730808258
sg10
I100
sg11
I500
satp114
Rp115
(dp116
g25
I01
sg26
g31
sg32
(lp117
I3
aI5
aI30
aI9
asg34
I6
sg35
g36
(g3
tp118
Rp119
sbsS'IBEA-SIP'
p120
g2
(g3
g4
(lp121
(dp122
g7
(F0.06
F2.193
F0.022
I1
I1
tp123
sg9
F0.1098639965057373
sg10
I100
sg11
I0
sa(dp124
g7
(F0.163
F0.575
F0.063
I85
I100
tp125
sg9
F13.488762855529785
sg10
I100
sg11
I100
sa(dp126
g7
(F0.172
F0.71
F0.065
I83
I100
tp127
sg9
F26.927342891693115
sg10
I100
sg11
I200
sa(dp128
g7
(F0.177
F0.695
F0.066
I85
I100
tp129
sg9
F40.21516299247742
sg10
I100
sg11
I300
sa(dp130
g7
(F0.179
F0.583
F0.067
I86
I100
tp131
sg9
F53.47501587867737
sg10
I100
sg11
I400
sa(dp132
g7
(F0.189
F0.659
F0.064
I86
I100
tp133
sg9
F66.83466005325317
sg10
I100
sg11
I500
satp134
Rp135
(dp136
g25
I01
sg26
g31
sg32
(lp137
I3
aI5
aI30
aI9
asg34
I6
sg35
g36
(g3
tp138
Rp139
sbs.