(dp0
S'NSGA2-SIP'
p1
ccopy_reg
_reconstructor
p2
(cdeap.tools.support
Logbook
p3
c__builtin__
list
p4
(lp5
(dp6
S'hv|spread|igd|frontier#|valid#'
p7
(I0
I0
I0
I0
I0
tp8
sS'timestamp'
p9
F0.10084700584411621
sS'evals'
p10
I100
sS'gen'
p11
I0
sa(dp12
g7
(F0.153
F0.607
F0.063
I100
I100
tp13
sg9
F15.974015951156616
sg10
I100
sg11
I100
sa(dp14
g7
(F0.16
F0.656
F0.067
I100
I100
tp15
sg9
F31.9725558757782
sg10
I100
sg11
I200
sa(dp16
g7
(F0.166
F0.571
F0.068
I100
I100
tp17
sg9
F47.88875889778137
sg10
I100
sg11
I300
sa(dp18
g7
(F0.175
F0.705
F0.064
I100
I100
tp19
sg9
F63.600703954696655
sg10
I100
sg11
I400
sa(dp20
g7
(F0.176
F0.651
F0.064
I100
I100
tp21
sg9
F79.30790901184082
sg10
I100
sg11
I500
satp22
Rp23
(dp24
S'log_header'
p25
I01
sS'header'
p26
(S'gen'
p27
S'evals'
p28
S'hv|spread|igd|frontier#|valid#'
p29
S'timestamp'
p30
tp31
sS'columns_len'
p32
(lp33
I3
aI5
aI31
aI9
asS'buffindex'
p34
I6
sS'chapters'
p35
ccollections
defaultdict
p36
(g3
tp37
Rp38
sbsS'SPEA2-SIP'
p39
g2
(g3
g4
(lp40
(dp41
g7
g8
sg9
F0.10056900978088379
sg10
I100
sg11
I0
sa(dp42
g7
(F0.145
F0.675
F0.071
I100
I100
tp43
sg9
F60.37382698059082
sg10
I100
sg11
I100
sa(dp44
g7
(F0.151
F0.65
F0.084
I100
I100
tp45
sg9
F130.25831604003906
sg10
I100
sg11
I200
sa(dp46
g7
(F0.158
F0.558
F0.088
I100
I100
tp47
sg9
F204.89619517326355
sg10
I100
sg11
I300
sa(dp48
g7
(F0.163
F0.693
F0.089
I100
I100
tp49
sg9
F281.95056200027466
sg10
I100
sg11
I400
sa(dp50
g7
(F0.169
F0.566
F0.091
I100
I100
tp51
sg9
F359.4110760688782
sg10
I100
sg11
I500
satp52
Rp53
(dp54
g25
I01
sg26
g31
sg32
(lp55
I3
aI5
aI31
aI9
asg34
I6
sg35
g36
(g3
tp56
Rp57
sbsS'SPEA2'
p58
g2
(g3
g4
(lp59
(dp60
g7
g8
sg9
F0.12405085563659668
sg10
I100
sg11
I0
sa(dp61
g7
g8
sg9
F102.17544507980347
sg10
I100
sg11
I100
sa(dp62
g7
g8
sg9
F229.07414388656616
sg10
I100
sg11
I200
sa(dp63
g7
g8
sg9
F364.7027778625488
sg10
I100
sg11
I300
sa(dp64
g7
g8
sg9
F504.9585909843445
sg10
I100
sg11
I400
sa(dp65
g7
g8
sg9
F644.8772070407867
sg10
I100
sg11
I500
satp66
Rp67
(dp68
g25
I01
sg26
g31
sg32
(lp69
I3
aI5
aI30
aI9
asg34
I6
sg35
g36
(g3
tp70
Rp71
sbsS'IBEA-PEN'
p72
g2
(g3
g4
(lp73
(dp74
g7
g8
sg9
F0.2670619487762451
sg10
I100
sg11
I0
sa(dp75
g7
g8
sg9
F16.324559926986694
sg10
I100
sg11
I100
sa(dp76
g7
g8
sg9
F32.291587114334106
sg10
I100
sg11
I200
sa(dp77
g7
g8
sg9
F48.27888894081116
sg10
I100
sg11
I300
sa(dp78
g7
g8
sg9
F64.27482104301453
sg10
I100
sg11
I400
sa(dp79
g7
g8
sg9
F80.23758602142334
sg10
I100
sg11
I500
satp80
Rp81
(dp82
g25
I01
sg26
g31
sg32
(lp83
I3
aI5
aI30
aI9
asg34
I6
sg35
g36
(g3
tp84
Rp85
sbsS'IBEA'
p86
g2
(g3
g4
(lp87
(dp88
g7
g8
sg9
F0.12201094627380371
sg10
I100
sg11
I0
sa(dp89
g7
g8
sg9
F15.692242860794067
sg10
I100
sg11
I100
sa(dp90
g7
g8
sg9
F31.28955101966858
sg10
I100
sg11
I200
sa(dp91
g7
g8
sg9
F46.95640587806702
sg10
I100
sg11
I300
sa(dp92
g7
g8
sg9
F62.61186599731445
sg10
I100
sg11
I400
sa(dp93
g7
g8
sg9
F78.18822693824768
sg10
I100
sg11
I500
satp94
Rp95
(dp96
g25
I01
sg26
g31
sg32
(lp97
I3
aI5
aI30
aI9
asg34
I6
sg35
g36
(g3
tp98
Rp99
sbsS'NSGA2'
p100
g2
(g3
g4
(lp101
(dp102
g7
g8
sg9
F0.12257504463195801
sg10
I100
sg11
I0
sa(dp103
g7
g8
sg9
F19.27094316482544
sg10
I100
sg11
I100
sa(dp104
g7
g8
sg9
F38.513203144073486
sg10
I100
sg11
I200
sa(dp105
g7
g8
sg9
F57.700490951538086
sg10
I100
sg11
I300
sa(dp106
g7
g8
sg9
F76.93259716033936
sg10
I100
sg11
I400
sa(dp107
g7
g8
sg9
F96.07022714614868
sg10
I100
sg11
I500
satp108
Rp109
(dp110
g25
I01
sg26
g31
sg32
(lp111
I3
aI5
aI30
aI9
asg34
I6
sg35
g36
(g3
tp112
Rp113
sbsS'IBEA-SIP'
p114
g2
(g3
g4
(lp115
(dp116
g7
(F0.055
F2.218
F0.048
I1
I1
tp117
sg9
F0.10461592674255371
sg10
I100
sg11
I0
sa(dp118
g7
(F0.162
F0.635
F0.055
I78
I100
tp119
sg9
F13.899708032608032
sg10
I100
sg11
I100
sa(dp120
g7
(F0.17
F0.676
F0.063
I86
I100
tp121
sg9
F27.963313102722168
sg10
I100
sg11
I200
sa(dp122
g7
(F0.173
F0.533
F0.066
I83
I100
tp123
sg9
F41.88313102722168
sg10
I100
sg11
I300
sa(dp124
g7
(F0.18
F0.644
F0.064
I85
I100
tp125
sg9
F55.86016607284546
sg10
I100
sg11
I400
sa(dp126
g7
(F0.182
F0.647
F0.067
I87
I100
tp127
sg9
F69.86083197593689
sg10
I100
sg11
I500
satp128
Rp129
(dp130
g25
I01
sg26
g31
sg32
(lp131
I3
aI5
aI30
aI9
asg34
I6
sg35
g36
(g3
tp132
Rp133
sbs.