(dp0
S'NSGA2-SIP'
p1
ccopy_reg
_reconstructor
p2
(cdeap.tools.support
Logbook
p3
c__builtin__
list
p4
(lp5
(dp6
S'hv|spread|igd|frontier#|valid#'
p7
(I0
I0
I0
I0
I0
tp8
sS'timestamp'
p9
F0.0991060733795166
sS'evals'
p10
I100
sS'gen'
p11
I0
sa(dp12
g7
(F0.146
F0.673
F0.064
I100
I100
tp13
sg9
F15.342091083526611
sg10
I100
sg11
I100
sa(dp14
g7
(F0.16
F0.66
F0.067
I100
I100
tp15
sg9
F30.665407180786133
sg10
I100
sg11
I200
sa(dp16
g7
(F0.163
F0.585
F0.07
I100
I100
tp17
sg9
F45.73457217216492
sg10
I100
sg11
I300
sa(dp18
g7
(F0.169
F0.614
F0.07
I100
I100
tp19
sg9
F60.86270713806152
sg10
I100
sg11
I400
sa(dp20
g7
(F0.17
F0.571
F0.069
I99
I100
tp21
sg9
F75.94115209579468
sg10
I100
sg11
I500
satp22
Rp23
(dp24
S'log_header'
p25
I01
sS'header'
p26
(S'gen'
p27
S'evals'
p28
S'hv|spread|igd|frontier#|valid#'
p29
S'timestamp'
p30
tp31
sS'columns_len'
p32
(lp33
I3
aI5
aI31
aI9
asS'buffindex'
p34
I6
sS'chapters'
p35
ccollections
defaultdict
p36
(g3
tp37
Rp38
sbsS'SPEA2-SIP'
p39
g2
(g3
g4
(lp40
(dp41
g7
g8
sg9
F0.0991208553314209
sg10
I100
sg11
I0
sa(dp42
g7
(F0.157
F0.602
F0.081
I100
I100
tp43
sg9
F57.72263288497925
sg10
I100
sg11
I100
sa(dp44
g7
(F0.162
F0.589
F0.088
I100
I100
tp45
sg9
F125.57339596748352
sg10
I100
sg11
I200
sa(dp46
g7
(F0.165
F0.597
F0.095
I100
I100
tp47
sg9
F200.03759098052979
sg10
I100
sg11
I300
sa(dp48
g7
(F0.166
F0.594
F0.098
I100
I100
tp49
sg9
F276.0762598514557
sg10
I100
sg11
I400
sa(dp50
g7
(F0.167
F0.59
F0.098
I100
I100
tp51
sg9
F351.99601101875305
sg10
I100
sg11
I500
satp52
Rp53
(dp54
g25
I01
sg26
g31
sg32
(lp55
I3
aI5
aI31
aI9
asg34
I6
sg35
g36
(g3
tp56
Rp57
sbsS'SPEA2'
p58
g2
(g3
g4
(lp59
(dp60
g7
g8
sg9
F0.12049698829650879
sg10
I100
sg11
I0
sa(dp61
g7
g8
sg9
F102.6189239025116
sg10
I100
sg11
I100
sa(dp62
g7
g8
sg9
F229.85124683380127
sg10
I100
sg11
I200
sa(dp63
g7
g8
sg9
F364.8108539581299
sg10
I100
sg11
I300
sa(dp64
g7
g8
sg9
F499.44814705848694
sg10
I100
sg11
I400
sa(dp65
g7
g8
sg9
F638.6980700492859
sg10
I100
sg11
I500
satp66
Rp67
(dp68
g25
I01
sg26
g31
sg32
(lp69
I3
aI5
aI30
aI9
asg34
I6
sg35
g36
(g3
tp70
Rp71
sbsS'IBEA-PEN'
p72
g2
(g3
g4
(lp73
(dp74
g7
(F0.028
F0.949
F0.022
I2
I2
tp75
sg9
F0.26107096672058105
sg10
I100
sg11
I0
sa(dp76
g7
(F0.008
F2.01
F0.014
I1
I1
tp77
sg9
F15.899890899658203
sg10
I100
sg11
I100
sa(dp78
g7
(F0.008
F2.01
F0.014
I1
I1
tp79
sg9
F31.550360918045044
sg10
I100
sg11
I200
sa(dp80
g7
(F0.008
F2.01
F0.014
I1
I1
tp81
sg9
F47.17468500137329
sg10
I100
sg11
I300
sa(dp82
g7
g8
sg9
F62.76081204414368
sg10
I100
sg11
I400
sa(dp83
g7
g8
sg9
F78.40568089485168
sg10
I100
sg11
I500
satp84
Rp85
(dp86
g25
I01
sg26
g31
sg32
(lp87
I3
aI5
aI30
aI9
asg34
I6
sg35
g36
(g3
tp88
Rp89
sbsS'IBEA'
p90
g2
(g3
g4
(lp91
(dp92
g7
g8
sg9
F0.12072300910949707
sg10
I100
sg11
I0
sa(dp93
g7
g8
sg9
F15.248480081558228
sg10
I100
sg11
I100
sa(dp94
g7
g8
sg9
F30.50537610054016
sg10
I100
sg11
I200
sa(dp95
g7
g8
sg9
F45.74074411392212
sg10
I100
sg11
I300
sa(dp96
g7
g8
sg9
F60.96865916252136
sg10
I100
sg11
I400
sa(dp97
g7
g8
sg9
F76.20397806167603
sg10
I100
sg11
I500
satp98
Rp99
(dp100
g25
I01
sg26
g31
sg32
(lp101
I3
aI5
aI30
aI9
asg34
I6
sg35
g36
(g3
tp102
Rp103
sbsS'NSGA2'
p104
g2
(g3
g4
(lp105
(dp106
g7
g8
sg9
F0.13472700119018555
sg10
I100
sg11
I0
sa(dp107
g7
g8
sg9
F18.859251976013184
sg10
I100
sg11
I100
sa(dp108
g7
g8
sg9
F37.58636999130249
sg10
I100
sg11
I200
sa(dp109
g7
g8
sg9
F56.345832109451294
sg10
I100
sg11
I300
sa(dp110
g7
g8
sg9
F75.1494870185852
sg10
I100
sg11
I400
sa(dp111
g7
g8
sg9
F94.02004718780518
sg10
I100
sg11
I500
satp112
Rp113
(dp114
g25
I01
sg26
g31
sg32
(lp115
I3
aI5
aI30
aI9
asg34
I6
sg35
g36
(g3
tp116
Rp117
sbsS'IBEA-SIP'
p118
g2
(g3
g4
(lp119
(dp120
g7
(F0.053
F0.9
F0.055
I1
I1
tp121
sg9
F0.1159818172454834
sg10
I100
sg11
I0
sa(dp122
g7
(F0.162
F0.705
F0.056
I83
I100
tp123
sg9
F13.519938945770264
sg10
I100
sg11
I100
sa(dp124
g7
(F0.17
F0.636
F0.062
I83
I100
tp125
sg9
F27.22669291496277
sg10
I100
sg11
I200
sa(dp126
g7
(F0.175
F0.639
F0.067
I90
I100
tp127
sg9
F41.03968381881714
sg10
I100
sg11
I300
sa(dp128
g7
(F0.177
F0.603
F0.067
I85
I100
tp129
sg9
F54.617955923080444
sg10
I100
sg11
I400
sa(dp130
g7
(F0.182
F0.643
F0.067
I89
I100
tp131
sg9
F68.25578999519348
sg10
I100
sg11
I500
satp132
Rp133
(dp134
g25
I01
sg26
g31
sg32
(lp135
I3
aI5
aI30
aI9
asg34
I6
sg35
g36
(g3
tp136
Rp137
sbs.