(dp0
S'NSGA2-SIP'
p1
ccopy_reg
_reconstructor
p2
(cdeap.tools.support
Logbook
p3
c__builtin__
list
p4
(lp5
(dp6
S'hv|spread|igd|frontier#|valid#'
p7
(F0.061
F0.987
F0.052
I2
I2
tp8
sS'timestamp'
p9
F0.10612320899963379
sS'evals'
p10
I100
sS'gen'
p11
I0
sa(dp12
g7
(F0.15
F0.664
F0.056
I100
I100
tp13
sg9
F16.3090341091156
sg10
I100
sg11
I100
sa(dp14
g7
(F0.158
F0.511
F0.06
I100
I100
tp15
sg9
F32.63816714286804
sg10
I100
sg11
I200
sa(dp16
g7
(F0.161
F0.693
F0.06
I100
I100
tp17
sg9
F48.8570671081543
sg10
I100
sg11
I300
sa(dp18
g7
(F0.165
F0.57
F0.064
I100
I100
tp19
sg9
F65.07742714881897
sg10
I100
sg11
I400
sa(dp20
g7
(F0.167
F0.621
F0.068
I100
I100
tp21
sg9
F81.31759905815125
sg10
I100
sg11
I500
satp22
Rp23
(dp24
S'log_header'
p25
I01
sS'header'
p26
(S'gen'
p27
S'evals'
p28
S'hv|spread|igd|frontier#|valid#'
p29
S'timestamp'
p30
tp31
sS'columns_len'
p32
(lp33
I3
aI5
aI31
aI9
asS'buffindex'
p34
I6
sS'chapters'
p35
ccollections
defaultdict
p36
(g3
tp37
Rp38
sbsS'SPEA2-SIP'
p39
g2
(g3
g4
(lp40
(dp41
g7
(F0.059
F2.245
F0.024
I1
I1
tp42
sg9
F0.10241079330444336
sg10
I100
sg11
I0
sa(dp43
g7
(F0.155
F0.614
F0.084
I100
I100
tp44
sg9
F60.32530379295349
sg10
I100
sg11
I100
sa(dp45
g7
(F0.161
F0.662
F0.086
I100
I100
tp46
sg9
F132.0163538455963
sg10
I100
sg11
I200
sa(dp47
g7
(F0.163
F0.706
F0.09
I100
I100
tp48
sg9
F206.76685285568237
sg10
I100
sg11
I300
sa(dp49
g7
(F0.165
F0.629
F0.092
I100
I100
tp50
sg9
F280.78305292129517
sg10
I100
sg11
I400
sa(dp51
g7
(F0.165
F0.618
F0.094
I100
I100
tp52
sg9
F351.70341992378235
sg10
I100
sg11
I500
satp53
Rp54
(dp55
g25
I01
sg26
g31
sg32
(lp56
I3
aI5
aI31
aI9
asg34
I6
sg35
g36
(g3
tp57
Rp58
sbsS'SPEA2'
p59
g2
(g3
g4
(lp60
(dp61
g7
(I0
I0
I0
I0
I0
tp62
sg9
F0.12263917922973633
sg10
I100
sg11
I0
sa(dp63
g7
g62
sg9
F86.52057099342346
sg10
I100
sg11
I100
sa(dp64
g7
g62
sg9
F199.07633805274963
sg10
I100
sg11
I200
sa(dp65
g7
g62
sg9
F322.45969104766846
sg10
I100
sg11
I300
sa(dp66
g7
g62
sg9
F445.9764151573181
sg10
I100
sg11
I400
sa(dp67
g7
g62
sg9
F565.9814791679382
sg10
I100
sg11
I500
satp68
Rp69
(dp70
g25
I01
sg26
g31
sg32
(lp71
I3
aI5
aI30
aI9
asg34
I6
sg35
g36
(g3
tp72
Rp73
sbsS'IBEA-PEN'
p74
g2
(g3
g4
(lp75
(dp76
g7
(F0.092
F0.905
F0.016
I4
I4
tp77
sg9
F0.27953481674194336
sg10
I100
sg11
I0
sa(dp78
g7
(F0.015
F2.02
F0.017
I1
I1
tp79
sg9
F16.11662197113037
sg10
I100
sg11
I100
sa(dp80
g7
(F0.015
F2.02
F0.017
I1
I1
tp81
sg9
F31.874647855758667
sg10
I100
sg11
I200
sa(dp82
g7
g62
sg9
F47.54994082450867
sg10
I100
sg11
I300
sa(dp83
g7
g62
sg9
F63.378251791000366
sg10
I100
sg11
I400
sa(dp84
g7
g62
sg9
F79.21060180664062
sg10
I100
sg11
I500
satp85
Rp86
(dp87
g25
I01
sg26
g31
sg32
(lp88
I3
aI5
aI30
aI9
asg34
I6
sg35
g36
(g3
tp89
Rp90
sbsS'IBEA'
p91
g2
(g3
g4
(lp92
(dp93
g7
g62
sg9
F0.12396812438964844
sg10
I100
sg11
I0
sa(dp94
g7
g62
sg9
F15.589992046356201
sg10
I100
sg11
I100
sa(dp95
g7
g62
sg9
F30.997563123703003
sg10
I100
sg11
I200
sa(dp96
g7
g62
sg9
F46.426722049713135
sg10
I100
sg11
I300
sa(dp97
g7
g62
sg9
F61.902350187301636
sg10
I100
sg11
I400
sa(dp98
g7
g62
sg9
F77.34511613845825
sg10
I100
sg11
I500
satp99
Rp100
(dp101
g25
I01
sg26
g31
sg32
(lp102
I3
aI5
aI30
aI9
asg34
I6
sg35
g36
(g3
tp103
Rp104
sbsS'NSGA2'
p105
g2
(g3
g4
(lp106
(dp107
g7
g62
sg9
F0.12286710739135742
sg10
I100
sg11
I0
sa(dp108
g7
g62
sg9
F19.568583011627197
sg10
I100
sg11
I100
sa(dp109
g7
g62
sg9
F39.151715993881226
sg10
I100
sg11
I200
sa(dp110
g7
g62
sg9
F58.685161113739014
sg10
I100
sg11
I300
sa(dp111
g7
g62
sg9
F78.15457916259766
sg10
I100
sg11
I400
sa(dp112
g7
g62
sg9
F97.57986402511597
sg10
I100
sg11
I500
satp113
Rp114
(dp115
g25
I01
sg26
g31
sg32
(lp116
I3
aI5
aI30
aI9
asg34
I6
sg35
g36
(g3
tp117
Rp118
sbsS'IBEA-SIP'
p119
g2
(g3
g4
(lp120
(dp121
g7
g62
sg9
F0.09917306900024414
sg10
I100
sg11
I0
sa(dp122
g7
(F0.155
F0.634
F0.058
I79
I100
tp123
sg9
F13.666281938552856
sg10
I100
sg11
I100
sa(dp124
g7
(F0.163
F0.698
F0.066
I89
I100
tp125
sg9
F27.387339115142822
sg10
I100
sg11
I200
sa(dp126
g7
(F0.166
F0.594
F0.067
I91
I100
tp127
sg9
F41.13420510292053
sg10
I100
sg11
I300
sa(dp128
g7
(F0.169
F0.704
F0.07
I90
I100
tp129
sg9
F54.729686975479126
sg10
I100
sg11
I400
sa(dp130
g7
(F0.172
F0.675
F0.071
I91
I100
tp131
sg9
F68.50998210906982
sg10
I100
sg11
I500
satp132
Rp133
(dp134
g25
I01
sg26
g31
sg32
(lp135
I3
aI5
aI30
aI9
asg34
I6
sg35
g36
(g3
tp136
Rp137
sbs.