(dp0
S'NSGA2-SIP'
p1
ccopy_reg
_reconstructor
p2
(cdeap.tools.support
Logbook
p3
c__builtin__
list
p4
(lp5
(dp6
S'hv|spread|igd|frontier#|valid#'
p7
(F0.06
F0.88
F0.022
I1
I1
tp8
sS'timestamp'
p9
F0.09537601470947266
sS'evals'
p10
I100
sS'gen'
p11
I0
sa(dp12
g7
(F0.147
F0.608
F0.056
I100
I100
tp13
sg9
F14.608517169952393
sg10
I100
sg11
I100
sa(dp14
g7
(F0.158
F0.591
F0.056
I100
I100
tp15
sg9
F29.242204189300537
sg10
I100
sg11
I200
sa(dp16
g7
(F0.168
F0.577
F0.053
I100
I100
tp17
sg9
F43.85037708282471
sg10
I100
sg11
I300
sa(dp18
g7
(F0.169
F0.672
F0.054
I100
I100
tp19
sg9
F58.29927897453308
sg10
I100
sg11
I400
sa(dp20
g7
(F0.174
F0.592
F0.057
I100
I100
tp21
sg9
F72.57304215431213
sg10
I100
sg11
I500
satp22
Rp23
(dp24
S'log_header'
p25
I01
sS'header'
p26
(S'gen'
p27
S'evals'
p28
S'hv|spread|igd|frontier#|valid#'
p29
S'timestamp'
p30
tp31
sS'columns_len'
p32
(lp33
I3
aI5
aI31
aI9
asS'buffindex'
p34
I6
sS'chapters'
p35
ccollections
defaultdict
p36
(g3
tp37
Rp38
sbsS'SPEA2-SIP'
p39
g2
(g3
g4
(lp40
(dp41
g7
(F0.066
F0.974
F0.054
I2
I2
tp42
sg9
F0.0983128547668457
sg10
I100
sg11
I0
sa(dp43
g7
(F0.161
F0.658
F0.071
I100
I100
tp44
sg9
F55.02581596374512
sg10
I100
sg11
I100
sa(dp45
g7
(F0.167
F0.658
F0.082
I100
I100
tp46
sg9
F118.9600739479065
sg10
I100
sg11
I200
sa(dp47
g7
(F0.17
F0.605
F0.086
I100
I100
tp48
sg9
F186.6515429019928
sg10
I100
sg11
I300
sa(dp49
g7
(F0.173
F0.691
F0.092
I100
I100
tp50
sg9
F256.5761020183563
sg10
I100
sg11
I400
sa(dp51
g7
(F0.176
F0.638
F0.093
I100
I100
tp52
sg9
F329.27933287620544
sg10
I100
sg11
I500
satp53
Rp54
(dp55
g25
I01
sg26
g31
sg32
(lp56
I3
aI5
aI31
aI9
asg34
I6
sg35
g36
(g3
tp57
Rp58
sbsS'SPEA2'
p59
g2
(g3
g4
(lp60
(dp61
g7
(I0
I0
I0
I0
I0
tp62
sg9
F0.11108112335205078
sg10
I100
sg11
I0
sa(dp63
g7
g62
sg9
F85.55219197273254
sg10
I100
sg11
I100
sa(dp64
g7
g62
sg9
F199.53690099716187
sg10
I100
sg11
I200
sa(dp65
g7
g62
sg9
F320.7656559944153
sg10
I100
sg11
I300
sa(dp66
g7
g62
sg9
F437.0139100551605
sg10
I100
sg11
I400
sa(dp67
g7
g62
sg9
F558.02148604393
sg10
I100
sg11
I500
satp68
Rp69
(dp70
g25
I01
sg26
g31
sg32
(lp71
I3
aI5
aI30
aI9
asg34
I6
sg35
g36
(g3
tp72
Rp73
sbsS'IBEA'
p74
g2
(g3
g4
(lp75
(dp76
g7
g62
sg9
F0.11100888252258301
sg10
I100
sg11
I0
sa(dp77
g7
g62
sg9
F14.411725997924805
sg10
I100
sg11
I100
sa(dp78
g7
g62
sg9
F28.727802991867065
sg10
I100
sg11
I200
sa(dp79
g7
g62
sg9
F43.08452606201172
sg10
I100
sg11
I300
sa(dp80
g7
g62
sg9
F57.465025901794434
sg10
I100
sg11
I400
sa(dp81
g7
g62
sg9
F71.80308699607849
sg10
I100
sg11
I500
satp82
Rp83
(dp84
g25
I01
sg26
g31
sg32
(lp85
I3
aI5
aI30
aI9
asg34
I6
sg35
g36
(g3
tp86
Rp87
sbsS'NSGA2'
p88
g2
(g3
g4
(lp89
(dp90
g7
g62
sg9
F0.11051487922668457
sg10
I100
sg11
I0
sa(dp91
g7
g62
sg9
F17.44232702255249
sg10
I100
sg11
I100
sa(dp92
g7
g62
sg9
F34.886029958724976
sg10
I100
sg11
I200
sa(dp93
g7
g62
sg9
F52.114290952682495
sg10
I100
sg11
I300
sa(dp94
g7
g62
sg9
F69.26594686508179
sg10
I100
sg11
I400
sa(dp95
g7
g62
sg9
F86.60207891464233
sg10
I100
sg11
I500
satp96
Rp97
(dp98
g25
I01
sg26
g31
sg32
(lp99
I3
aI5
aI30
aI9
asg34
I6
sg35
g36
(g3
tp100
Rp101
sbsS'IBEA-SIP'
p102
g2
(g3
g4
(lp103
(dp104
g7
g62
sg9
F0.09248495101928711
sg10
I100
sg11
I0
sa(dp105
g7
(F0.154
F0.695
F0.061
I81
I100
tp106
sg9
F12.782701969146729
sg10
I100
sg11
I100
sa(dp107
g7
(F0.173
F0.674
F0.065
I82
I100
tp108
sg9
F25.562822103500366
sg10
I100
sg11
I200
sa(dp109
g7
(F0.179
F0.611
F0.063
I83
I100
tp110
sg9
F38.09469294548035
sg10
I100
sg11
I300
sa(dp111
g7
(F0.18
F0.668
F0.063
I89
I100
tp112
sg9
F50.700462102890015
sg10
I100
sg11
I400
sa(dp113
g7
(F0.181
F0.599
F0.07
I91
I100
tp114
sg9
F63.40030097961426
sg10
I100
sg11
I500
satp115
Rp116
(dp117
g25
I01
sg26
g31
sg32
(lp118
I3
aI5
aI30
aI9
asg34
I6
sg35
g36
(g3
tp119
Rp120
sbs.