(dp0
S'NSGA2-SIP'
p1
ccopy_reg
_reconstructor
p2
(cdeap.tools.support
Logbook
p3
c__builtin__
list
p4
(lp5
(dp6
S'hv|spread|igd|frontier#|valid#'
p7
(F0.095
F0.72
F0.059
I29
I60
tp8
sS'timestamp'
p9
F0.10872697830200195
sS'evals'
p10
I100
sS'gen'
p11
I0
sa(dp12
g7
(F0.16
F0.604
F0.251
I96
I100
tp13
sg9
F15.801697015762329
sg10
I100
sg11
I100
sa(dp14
g7
(F0.163
F0.66
F0.253
I99
I100
tp15
sg9
F31.660589933395386
sg10
I100
sg11
I200
sa(dp16
g7
(F0.163
F0.604
F0.26
I95
I100
tp17
sg9
F47.625393867492676
sg10
I100
sg11
I300
sa(dp18
g7
(F0.163
F0.611
F0.26
I97
I100
tp19
sg9
F63.47870683670044
sg10
I100
sg11
I400
sa(dp20
g7
(F0.164
F0.64
F0.249
I97
I100
tp21
sg9
F79.26166105270386
sg10
I100
sg11
I500
satp22
Rp23
(dp24
S'log_header'
p25
I01
sS'header'
p26
(S'gen'
p27
S'evals'
p28
g7
S'timestamp'
p29
tp30
sS'columns_len'
p31
(lp32
I3
aI5
aI30
aI9
asS'buffindex'
p33
I6
sS'chapters'
p34
ccollections
defaultdict
p35
(g3
tp36
Rp37
sbsS'SPEA2-SIP'
p38
g2
(g3
g4
(lp39
(dp40
g7
(F0.091
F0.836
F0.06
I19
I50
tp41
sg9
F0.08765292167663574
sg10
I100
sg11
I0
sa(dp42
g7
(F0.157
F0.65
F0.21
I100
I100
tp43
sg9
F83.16621804237366
sg10
I100
sg11
I100
sa(dp44
g7
(F0.158
F0.59
F0.2
I100
I100
tp45
sg9
F176.06567311286926
sg10
I100
sg11
I200
sa(dp46
g7
(F0.159
F0.685
F0.197
I100
I100
tp47
sg9
F271.94371509552
sg10
I100
sg11
I300
sa(dp48
g7
(F0.16
F0.637
F0.207
I100
I100
tp49
sg9
F366.8382430076599
sg10
I100
sg11
I400
sa(dp50
g7
(F0.161
F0.674
F0.213
I100
I100
tp51
sg9
F464.0907690525055
sg10
I100
sg11
I500
satp52
Rp53
(dp54
g25
I01
sg26
g30
sg31
(lp55
I3
aI5
aI31
aI9
asg33
I6
sg34
g35
(g3
tp56
Rp57
sbsS'SPEA2'
p58
g2
(g3
g4
(lp59
(dp60
g7
(I0
I0
I0
I0
I0
tp61
sg9
F0.0577089786529541
sg10
I100
sg11
I0
sa(dp62
g7
g61
sg9
F78.97235107421875
sg10
I100
sg11
I100
sa(dp63
g7
g61
sg9
F184.13099598884583
sg10
I100
sg11
I200
sa(dp64
g7
g61
sg9
F294.2187149524689
sg10
I100
sg11
I300
sa(dp65
g7
g61
sg9
F408.5956621170044
sg10
I100
sg11
I400
sa(dp66
g7
g61
sg9
F530.1244261264801
sg10
I100
sg11
I500
satp67
Rp68
(dp69
g25
I01
sg26
g30
sg31
(lp70
I3
aI5
aI30
aI9
asg33
I6
sg34
g35
(g3
tp71
Rp72
sbsS'IBEA'
p73
g2
(g3
g4
(lp74
(dp75
g7
g61
sg9
F0.05767011642456055
sg10
I100
sg11
I0
sa(dp76
g7
g61
sg9
F10.379302024841309
sg10
I100
sg11
I100
sa(dp77
g7
g61
sg9
F20.74359917640686
sg10
I100
sg11
I200
sa(dp78
g7
g61
sg9
F31.135042190551758
sg10
I100
sg11
I300
sa(dp79
g7
g61
sg9
F41.52139616012573
sg10
I100
sg11
I400
sa(dp80
g7
g61
sg9
F51.9408860206604
sg10
I100
sg11
I500
satp81
Rp82
(dp83
g25
I01
sg26
g30
sg31
(lp84
I3
aI5
aI30
aI9
asg33
I6
sg34
g35
(g3
tp85
Rp86
sbsS'NSGA2'
p87
g2
(g3
g4
(lp88
(dp89
g7
g61
sg9
F0.05739307403564453
sg10
I100
sg11
I0
sa(dp90
g7
g61
sg9
F13.484434127807617
sg10
I100
sg11
I100
sa(dp91
g7
g61
sg9
F26.90976119041443
sg10
I100
sg11
I200
sa(dp92
g7
g61
sg9
F40.34590721130371
sg10
I100
sg11
I300
sa(dp93
g7
g61
sg9
F53.76963210105896
sg10
I100
sg11
I400
sa(dp94
g7
g61
sg9
F67.15057420730591
sg10
I100
sg11
I500
satp95
Rp96
(dp97
g25
I01
sg26
g30
sg31
(lp98
I3
aI5
aI30
aI9
asg33
I6
sg34
g35
(g3
tp99
Rp100
sbsS'IBEA-SIP'
p101
g2
(g3
g4
(lp102
(dp103
g7
(F0.095
F0.82
F0.05
I21
I54
tp104
sg9
F0.09411001205444336
sg10
I100
sg11
I0
sa(dp105
g7
(F0.158
F0.704
F0.193
I76
I100
tp106
sg9
F13.35989499092102
sg10
I100
sg11
I100
sa(dp107
g7
(F0.162
F0.669
F0.181
I72
I100
tp108
sg9
F26.706073999404907
sg10
I100
sg11
I200
sa(dp109
g7
(F0.162
F0.661
F0.182
I79
I100
tp110
sg9
F40.17130708694458
sg10
I100
sg11
I300
sa(dp111
g7
(F0.16
F0.723
F0.166
I76
I100
tp112
sg9
F53.61545705795288
sg10
I100
sg11
I400
sa(dp113
g7
(F0.164
F0.656
F0.16
I77
I100
tp114
sg9
F67.21622109413147
sg10
I100
sg11
I500
satp115
Rp116
(dp117
g25
I01
sg26
g30
sg31
(lp118
I3
aI5
aI30
aI9
asg33
I6
sg34
g35
(g3
tp119
Rp120
sbs.