(dp0
S'NSGA2-SIP'
p1
ccopy_reg
_reconstructor
p2
(cdeap.tools.support
Logbook
p3
c__builtin__
list
p4
(lp5
(dp6
S'hv|spread|igd|frontier#|valid#'
p7
(F0.09
F0.856
F0.058
I19
I47
tp8
sS'timestamp'
p9
F0.0790400505065918
sS'evals'
p10
I100
sS'gen'
p11
I0
sa(dp12
g7
(F0.161
F0.648
F0.247
I96
I100
tp13
sg9
F14.724333047866821
sg10
I100
sg11
I100
sa(dp14
g7
(F0.164
F0.64
F0.237
I98
I100
tp15
sg9
F29.352830171585083
sg10
I100
sg11
I200
sa(dp16
g7
(F0.164
F0.644
F0.243
I95
I100
tp17
sg9
F44.02832317352295
sg10
I100
sg11
I300
sa(dp18
g7
(F0.164
F0.616
F0.261
I97
I100
tp19
sg9
F58.608514070510864
sg10
I100
sg11
I400
sa(dp20
g7
(F0.166
F0.63
F0.237
I98
I100
tp21
sg9
F73.26417708396912
sg10
I100
sg11
I500
satp22
Rp23
(dp24
S'log_header'
p25
I01
sS'header'
p26
(S'gen'
p27
S'evals'
p28
S'hv|spread|igd|frontier#|valid#'
p29
S'timestamp'
p30
tp31
sS'columns_len'
p32
(lp33
I3
aI5
aI30
aI9
asS'buffindex'
p34
I6
sS'chapters'
p35
ccollections
defaultdict
p36
(g3
tp37
Rp38
sbsS'SPEA2-SIP'
p39
g2
(g3
g4
(lp40
(dp41
g7
(F0.096
F0.82
F0.062
I30
I58
tp42
sg9
F0.1036520004272461
sg10
I100
sg11
I0
sa(dp43
g7
(F0.155
F0.599
F0.204
I100
I100
tp44
sg9
F71.0915470123291
sg10
I100
sg11
I100
sa(dp45
g7
(F0.159
F0.655
F0.21
I100
I100
tp46
sg9
F156.75959300994873
sg10
I100
sg11
I200
sa(dp47
g7
(F0.161
F0.613
F0.208
I100
I100
tp48
sg9
F239.28013110160828
sg10
I100
sg11
I300
sa(dp49
g7
(F0.163
F0.651
F0.221
I100
I100
tp50
sg9
F327.3806269168854
sg10
I100
sg11
I400
sa(dp51
g7
(F0.165
F0.63
F0.224
I100
I100
tp52
sg9
F414.1122260093689
sg10
I100
sg11
I500
satp53
Rp54
(dp55
g25
I01
sg26
g31
sg32
(lp56
I3
aI5
aI31
aI9
asg34
I6
sg35
g36
(g3
tp57
Rp58
sbsS'SPEA2'
p59
g2
(g3
g4
(lp60
(dp61
g7
(I0
I0
I0
I0
I0
tp62
sg9
F0.0528559684753418
sg10
I100
sg11
I0
sa(dp63
g7
g62
sg9
F82.1735999584198
sg10
I100
sg11
I100
sa(dp64
g7
g62
sg9
F177.5411820411682
sg10
I100
sg11
I200
sa(dp65
g7
g62
sg9
F289.1498429775238
sg10
I100
sg11
I300
sa(dp66
g7
g62
sg9
F401.0018138885498
sg10
I100
sg11
I400
sa(dp67
g7
g62
sg9
F512.3048439025879
sg10
I100
sg11
I500
satp68
Rp69
(dp70
g25
I01
sg26
g31
sg32
(lp71
I3
aI5
aI30
aI9
asg34
I6
sg35
g36
(g3
tp72
Rp73
sbsS'IBEA'
p74
g2
(g3
g4
(lp75
(dp76
g7
g62
sg9
F0.053186893463134766
sg10
I100
sg11
I0
sa(dp77
g7
g62
sg9
F9.371546030044556
sg10
I100
sg11
I100
sa(dp78
g7
g62
sg9
F18.749336004257202
sg10
I100
sg11
I200
sa(dp79
g7
g62
sg9
F28.131584882736206
sg10
I100
sg11
I300
sa(dp80
g7
g62
sg9
F37.514994859695435
sg10
I100
sg11
I400
sa(dp81
g7
g62
sg9
F46.926634073257446
sg10
I100
sg11
I500
satp82
Rp83
(dp84
g25
I01
sg26
g31
sg32
(lp85
I3
aI5
aI30
aI9
asg34
I6
sg35
g36
(g3
tp86
Rp87
sbsS'NSGA2'
p88
g2
(g3
g4
(lp89
(dp90
g7
g62
sg9
F0.053218841552734375
sg10
I100
sg11
I0
sa(dp91
g7
g62
sg9
F12.415683031082153
sg10
I100
sg11
I100
sa(dp92
g7
g62
sg9
F24.76268196105957
sg10
I100
sg11
I200
sa(dp93
g7
g62
sg9
F37.1103298664093
sg10
I100
sg11
I300
sa(dp94
g7
g62
sg9
F49.44714093208313
sg10
I100
sg11
I400
sa(dp95
g7
g62
sg9
F61.81099987030029
sg10
I100
sg11
I500
satp96
Rp97
(dp98
g25
I01
sg26
g31
sg32
(lp99
I3
aI5
aI30
aI9
asg34
I6
sg35
g36
(g3
tp100
Rp101
sbsS'IBEA-SIP'
p102
g2
(g3
g4
(lp103
(dp104
g7
(F0.094
F0.725
F0.076
I24
I58
tp105
sg9
F0.09236717224121094
sg10
I100
sg11
I0
sa(dp106
g7
(F0.163
F0.616
F0.218
I76
I100
tp107
sg9
F12.010483026504517
sg10
I100
sg11
I100
sa(dp108
g7
(F0.162
F0.634
F0.208
I76
I100
tp109
sg9
F24.10594415664673
sg10
I100
sg11
I200
sa(dp110
g7
(F0.162
F0.756
F0.198
I77
I100
tp111
sg9
F36.18441820144653
sg10
I100
sg11
I300
sa(dp112
g7
(F0.163
F0.721
F0.183
I77
I100
tp113
sg9
F48.30099415779114
sg10
I100
sg11
I400
sa(dp114
g7
(F0.163
F0.632
F0.214
I78
I100
tp115
sg9
F60.53967213630676
sg10
I100
sg11
I500
satp116
Rp117
(dp118
g25
I01
sg26
g31
sg32
(lp119
I3
aI5
aI30
aI9
asg34
I6
sg35
g36
(g3
tp120
Rp121
sbs.