(dp0
S'NSGA2-SIP'
p1
ccopy_reg
_reconstructor
p2
(cdeap.tools.support
Logbook
p3
c__builtin__
list
p4
(lp5
(dp6
S'hv|spread|igd|frontier#|valid#'
p7
(F0.097
F0.859
F0.066
I23
I59
tp8
sS'timestamp'
p9
F0.08932304382324219
sS'evals'
p10
I100
sS'gen'
p11
I0
sa(dp12
g7
(F0.154
F0.602
F0.233
I95
I100
tp13
sg9
F14.579642057418823
sg10
I100
sg11
I100
sa(dp14
g7
(F0.16
F0.658
F0.222
I97
I100
tp15
sg9
F29.32473111152649
sg10
I100
sg11
I200
sa(dp16
g7
(F0.164
F0.661
F0.253
I98
I100
tp17
sg9
F44.03105306625366
sg10
I100
sg11
I300
sa(dp18
g7
(F0.163
F0.629
F0.245
I98
I100
tp19
sg9
F58.713274002075195
sg10
I100
sg11
I400
sa(dp20
g7
(F0.164
F0.686
F0.241
I97
I100
tp21
sg9
F73.26353716850281
sg10
I100
sg11
I500
satp22
Rp23
(dp24
S'log_header'
p25
I01
sS'header'
p26
(S'gen'
p27
S'evals'
p28
S'hv|spread|igd|frontier#|valid#'
p29
S'timestamp'
p30
tp31
sS'columns_len'
p32
(lp33
I3
aI5
aI30
aI9
asS'buffindex'
p34
I6
sS'chapters'
p35
ccollections
defaultdict
p36
(g3
tp37
Rp38
sbsS'SPEA2-SIP'
p39
g2
(g3
g4
(lp40
(dp41
g7
(F0.103
F0.796
F0.074
I30
I55
tp42
sg9
F0.10047292709350586
sg10
I100
sg11
I0
sa(dp43
g7
(F0.156
F0.639
F0.243
I100
I100
tp44
sg9
F69.33177304267883
sg10
I100
sg11
I100
sa(dp45
g7
(F0.16
F0.629
F0.241
I100
I100
tp46
sg9
F151.6177909374237
sg10
I100
sg11
I200
sa(dp47
g7
(F0.161
F0.635
F0.23
I100
I100
tp48
sg9
F233.21310901641846
sg10
I100
sg11
I300
sa(dp49
g7
(F0.162
F0.647
F0.215
I100
I100
tp50
sg9
F319.06336188316345
sg10
I100
sg11
I400
sa(dp51
g7
(F0.162
F0.65
F0.231
I100
I100
tp52
sg9
F402.9230670928955
sg10
I100
sg11
I500
satp53
Rp54
(dp55
g25
I01
sg26
g31
sg32
(lp56
I3
aI5
aI31
aI9
asg34
I6
sg35
g36
(g3
tp57
Rp58
sbsS'SPEA2'
p59
g2
(g3
g4
(lp60
(dp61
g7
(I0
I0
I0
I0
I0
tp62
sg9
F0.05312299728393555
sg10
I100
sg11
I0
sa(dp63
g7
g62
sg9
F82.35128903388977
sg10
I100
sg11
I100
sa(dp64
g7
g62
sg9
F184.53459191322327
sg10
I100
sg11
I200
sa(dp65
g7
g62
sg9
F290.9008529186249
sg10
I100
sg11
I300
sa(dp66
g7
g62
sg9
F404.3788731098175
sg10
I100
sg11
I400
sa(dp67
g7
g62
sg9
F512.11523604393
sg10
I100
sg11
I500
satp68
Rp69
(dp70
g25
I01
sg26
g31
sg32
(lp71
I3
aI5
aI30
aI9
asg34
I6
sg35
g36
(g3
tp72
Rp73
sbsS'IBEA'
p74
g2
(g3
g4
(lp75
(dp76
g7
g62
sg9
F0.053057193756103516
sg10
I100
sg11
I0
sa(dp77
g7
g62
sg9
F9.306169033050537
sg10
I100
sg11
I100
sa(dp78
g7
g62
sg9
F18.610689163208008
sg10
I100
sg11
I200
sa(dp79
g7
g62
sg9
F27.931632041931152
sg10
I100
sg11
I300
sa(dp80
g7
g62
sg9
F37.24721312522888
sg10
I100
sg11
I400
sa(dp81
g7
g62
sg9
F46.576900005340576
sg10
I100
sg11
I500
satp82
Rp83
(dp84
g25
I01
sg26
g31
sg32
(lp85
I3
aI5
aI30
aI9
asg34
I6
sg35
g36
(g3
tp86
Rp87
sbsS'NSGA2'
p88
g2
(g3
g4
(lp89
(dp90
g7
g62
sg9
F0.052744150161743164
sg10
I100
sg11
I0
sa(dp91
g7
g62
sg9
F12.246577978134155
sg10
I100
sg11
I100
sa(dp92
g7
g62
sg9
F24.448333978652954
sg10
I100
sg11
I200
sa(dp93
g7
g62
sg9
F36.656790018081665
sg10
I100
sg11
I300
sa(dp94
g7
g62
sg9
F48.78344011306763
sg10
I100
sg11
I400
sa(dp95
g7
g62
sg9
F60.88814306259155
sg10
I100
sg11
I500
satp96
Rp97
(dp98
g25
I01
sg26
g31
sg32
(lp99
I3
aI5
aI30
aI9
asg34
I6
sg35
g36
(g3
tp100
Rp101
sbsS'IBEA-SIP'
p102
g2
(g3
g4
(lp103
(dp104
g7
(F0.092
F0.72
F0.057
I26
I54
tp105
sg9
F0.0945580005645752
sg10
I100
sg11
I0
sa(dp106
g7
(F0.16
F0.707
F0.187
I83
I100
tp107
sg9
F12.17401909828186
sg10
I100
sg11
I100
sa(dp108
g7
(F0.16
F0.531
F0.177
I76
I100
tp109
sg9
F24.40644097328186
sg10
I100
sg11
I200
sa(dp110
g7
(F0.162
F0.678
F0.191
I76
I100
tp111
sg9
F36.5084011554718
sg10
I100
sg11
I300
sa(dp112
g7
(F0.163
F0.668
F0.17
I83
I100
tp113
sg9
F48.79741597175598
sg10
I100
sg11
I400
sa(dp114
g7
(F0.162
F0.684
F0.192
I79
I100
tp115
sg9
F61.03344011306763
sg10
I100
sg11
I500
satp116
Rp117
(dp118
g25
I01
sg26
g31
sg32
(lp119
I3
aI5
aI30
aI9
asg34
I6
sg35
g36
(g3
tp120
Rp121
sbs.