(dp0
S'NSGA2-SIP'
p1
ccopy_reg
_reconstructor
p2
(cdeap.tools.support
Logbook
p3
c__builtin__
list
p4
(lp5
(dp6
S'hv|spread|igd|frontier#|valid#'
p7
(F0.084
F0.866
F0.049
I23
I55
tp8
sS'timestamp'
p9
F0.08475399017333984
sS'evals'
p10
I100
sS'gen'
p11
I0
sa(dp12
g7
(F0.162
F0.62
F0.245
I98
I100
tp13
sg9
F14.094252824783325
sg10
I100
sg11
I100
sa(dp14
g7
(F0.163
F0.637
F0.25
I98
I100
tp15
sg9
F27.91927695274353
sg10
I100
sg11
I200
sa(dp16
g7
(F0.164
F0.674
F0.245
I98
I100
tp17
sg9
F41.84490990638733
sg10
I100
sg11
I300
sa(dp18
g7
(F0.164
F0.613
F0.244
I95
I100
tp19
sg9
F55.78208684921265
sg10
I100
sg11
I400
sa(dp20
g7
(F0.164
F0.701
F0.243
I96
I100
tp21
sg9
F69.7019100189209
sg10
I100
sg11
I500
satp22
Rp23
(dp24
S'log_header'
p25
I01
sS'header'
p26
(S'gen'
p27
S'evals'
p28
S'hv|spread|igd|frontier#|valid#'
p29
S'timestamp'
p30
tp31
sS'columns_len'
p32
(lp33
I3
aI5
aI30
aI9
asS'buffindex'
p34
I6
sS'chapters'
p35
ccollections
defaultdict
p36
(g3
tp37
Rp38
sbsS'SPEA2-SIP'
p39
g2
(g3
g4
(lp40
(dp41
g7
(F0.092
F0.84
F0.048
I23
I50
tp42
sg9
F0.08147311210632324
sg10
I100
sg11
I0
sa(dp43
g7
(F0.155
F0.614
F0.22
I100
I100
tp44
sg9
F69.66409301757812
sg10
I100
sg11
I100
sa(dp45
g7
(F0.16
F0.641
F0.22
I100
I100
tp46
sg9
F148.74674797058105
sg10
I100
sg11
I200
sa(dp47
g7
(F0.161
F0.655
F0.219
I100
I100
tp48
sg9
F231.03157496452332
sg10
I100
sg11
I300
sa(dp49
g7
(F0.162
F0.61
F0.197
I100
I100
tp50
sg9
F311.974543094635
sg10
I100
sg11
I400
sa(dp51
g7
(F0.163
F0.668
F0.203
I100
I100
tp52
sg9
F393.6571271419525
sg10
I100
sg11
I500
satp53
Rp54
(dp55
g25
I01
sg26
g31
sg32
(lp56
I3
aI5
aI31
aI9
asg34
I6
sg35
g36
(g3
tp57
Rp58
sbsS'SPEA2'
p59
g2
(g3
g4
(lp60
(dp61
g7
(I0
I0
I0
I0
I0
tp62
sg9
F0.05010104179382324
sg10
I100
sg11
I0
sa(dp63
g7
g62
sg9
F77.00068497657776
sg10
I100
sg11
I100
sa(dp64
g7
g62
sg9
F170.23600888252258
sg10
I100
sg11
I200
sa(dp65
g7
g62
sg9
F271.0560529232025
sg10
I100
sg11
I300
sa(dp66
g7
g62
sg9
F371.9329569339752
sg10
I100
sg11
I400
sa(dp67
g7
g62
sg9
F478.5512218475342
sg10
I100
sg11
I500
satp68
Rp69
(dp70
g25
I01
sg26
g31
sg32
(lp71
I3
aI5
aI30
aI9
asg34
I6
sg35
g36
(g3
tp72
Rp73
sbsS'IBEA-PEN'
p74
g2
(g3
g4
(lp75
(dp76
g7
(F0.065
F0.953
F0.016
I26
I70
tp77
sg9
F0.17040085792541504
sg10
I100
sg11
I0
sa(dp78
g7
g62
sg9
F9.100275039672852
sg10
I100
sg11
I100
sa(dp79
g7
g62
sg9
F18.031216859817505
sg10
I100
sg11
I200
sa(dp80
g7
g62
sg9
F26.982544898986816
sg10
I100
sg11
I300
sa(dp81
g7
g62
sg9
F35.97920298576355
sg10
I100
sg11
I400
sa(dp82
g7
g62
sg9
F44.9619140625
sg10
I100
sg11
I500
satp83
Rp84
(dp85
g25
I01
sg26
g31
sg32
(lp86
I3
aI5
aI30
aI9
asg34
I6
sg35
g36
(g3
tp87
Rp88
sbsS'IBEA'
p89
g2
(g3
g4
(lp90
(dp91
g7
g62
sg9
F0.07163000106811523
sg10
I100
sg11
I0
sa(dp92
g7
g62
sg9
F8.813191890716553
sg10
I100
sg11
I100
sa(dp93
g7
g62
sg9
F17.607390880584717
sg10
I100
sg11
I200
sa(dp94
g7
g62
sg9
F26.3839590549469
sg10
I100
sg11
I300
sa(dp95
g7
g62
sg9
F35.174798011779785
sg10
I100
sg11
I400
sa(dp96
g7
g62
sg9
F43.98738694190979
sg10
I100
sg11
I500
satp97
Rp98
(dp99
g25
I01
sg26
g31
sg32
(lp100
I3
aI5
aI30
aI9
asg34
I6
sg35
g36
(g3
tp101
Rp102
sbsS'NSGA2'
p103
g2
(g3
g4
(lp104
(dp105
g7
g62
sg9
F0.049749135971069336
sg10
I100
sg11
I0
sa(dp106
g7
g62
sg9
F11.642688989639282
sg10
I100
sg11
I100
sa(dp107
g7
g62
sg9
F23.21447515487671
sg10
I100
sg11
I200
sa(dp108
g7
g62
sg9
F34.80957913398743
sg10
I100
sg11
I300
sa(dp109
g7
g62
sg9
F46.38770794868469
sg10
I100
sg11
I400
sa(dp110
g7
g62
sg9
F57.951327085494995
sg10
I100
sg11
I500
satp111
Rp112
(dp113
g25
I01
sg26
g31
sg32
(lp114
I3
aI5
aI30
aI9
asg34
I6
sg35
g36
(g3
tp115
Rp116
sbsS'IBEA-SIP'
p117
g2
(g3
g4
(lp118
(dp119
g7
(F0.093
F0.811
F0.081
I20
I58
tp120
sg9
F0.08033895492553711
sg10
I100
sg11
I0
sa(dp121
g7
(F0.159
F0.702
F0.204
I85
I100
tp122
sg9
F11.483695983886719
sg10
I100
sg11
I100
sa(dp123
g7
(F0.161
F0.667
F0.189
I84
I100
tp124
sg9
F23.062708854675293
sg10
I100
sg11
I200
sa(dp125
g7
(F0.161
F0.641
F0.231
I74
I100
tp126
sg9
F34.56550478935242
sg10
I100
sg11
I300
sa(dp127
g7
(F0.163
F0.668
F0.175
I78
I100
tp128
sg9
F46.10628294944763
sg10
I100
sg11
I400
sa(dp129
g7
(F0.161
F0.683
F0.159
I83
I100
tp130
sg9
F57.78121900558472
sg10
I100
sg11
I500
satp131
Rp132
(dp133
g25
I01
sg26
g31
sg32
(lp134
I3
aI5
aI30
aI9
asg34
I6
sg35
g36
(g3
tp135
Rp136
sbs.