(dp0
S'NSGA2-SIP'
p1
ccopy_reg
_reconstructor
p2
(cdeap.tools.support
Logbook
p3
c__builtin__
list
p4
(lp5
(dp6
S'hv|spread|igd|frontier#|valid#'
p7
(F0.099
F0.941
F0.034
I13
I21
tp8
sS'timestamp'
p9
F0.055847883224487305
sS'evals'
p10
I100
sS'gen'
p11
I0
sa(dp12
g7
(F0.174
F0.618
F0.033
I95
I100
tp13
sg9
F9.902661800384521
sg10
I100
sg11
I100
sa(dp14
g7
(F0.179
F0.664
F0.036
I99
I100
tp15
sg9
F20.22631287574768
sg10
I100
sg11
I200
sa(dp16
g7
(F0.18
F0.636
F0.037
I97
I100
tp17
sg9
F30.444169998168945
sg10
I100
sg11
I300
sa(dp18
g7
(F0.181
F0.518
F0.038
I97
I100
tp19
sg9
F40.69005298614502
sg10
I100
sg11
I400
sa(dp20
g7
(F0.181
F0.58
F0.036
I98
I100
tp21
sg9
F51.00735878944397
sg10
I100
sg11
I500
satp22
Rp23
(dp24
S'log_header'
p25
I01
sS'header'
p26
(S'gen'
p27
S'evals'
p28
g7
S'timestamp'
p29
tp30
sS'columns_len'
p31
(lp32
I3
aI5
aI30
aI9
asS'buffindex'
p33
I6
sS'chapters'
p34
ccollections
defaultdict
p35
(g3
tp36
Rp37
sbsS'SPEA2-SIP'
p38
g2
(g3
g4
(lp39
(dp40
g7
(F0.1
F0.856
F0.036
I12
I25
tp41
sg9
F0.05379486083984375
sg10
I100
sg11
I0
sa(dp42
g7
(F0.171
F0.688
F0.037
I100
I100
tp43
sg9
F73.25760293006897
sg10
I100
sg11
I100
sa(dp44
g7
(F0.174
F0.6
F0.037
I100
I100
tp45
sg9
F155.2099940776825
sg10
I100
sg11
I200
sa(dp46
g7
(F0.177
F0.666
F0.038
I100
I100
tp47
sg9
F237.6500220298767
sg10
I100
sg11
I300
sa(dp48
g7
(F0.179
F0.621
F0.038
I100
I100
tp49
sg9
F320.7483139038086
sg10
I100
sg11
I400
sa(dp50
g7
(F0.18
F0.625
F0.037
I100
I100
tp51
sg9
F398.9403898715973
sg10
I100
sg11
I500
satp52
Rp53
(dp54
g25
I01
sg26
g30
sg31
(lp55
I3
aI5
aI31
aI9
asg33
I6
sg34
g35
(g3
tp56
Rp57
sbsS'SPEA2'
p58
g2
(g3
g4
(lp59
(dp60
g7
(I0
I0
I0
I0
I0
tp61
sg9
F0.039479970932006836
sg10
I100
sg11
I0
sa(dp62
g7
g61
sg9
F89.33390402793884
sg10
I100
sg11
I100
sa(dp63
g7
g61
sg9
F208.79823207855225
sg10
I100
sg11
I200
sa(dp64
g7
g61
sg9
F337.1555140018463
sg10
I100
sg11
I300
sa(dp65
g7
g61
sg9
F461.4157030582428
sg10
I100
sg11
I400
sa(dp66
g7
g61
sg9
F581.6702971458435
sg10
I100
sg11
I500
satp67
Rp68
(dp69
g25
I01
sg26
g30
sg31
(lp70
I3
aI5
aI30
aI9
asg33
I6
sg34
g35
(g3
tp71
Rp72
sbsS'IBEA-PEN'
p73
g2
(g3
g4
(lp74
(dp75
g7
(F0.134
F0.77
F0.026
I26
I70
tp76
sg9
F0.14294791221618652
sg10
I100
sg11
I0
sa(dp77
g7
(F0.168
F0.542
F0.033
I58
I90
tp78
sg9
F10.454206943511963
sg10
I100
sg11
I100
sa(dp79
g7
(F0.161
F0.65
F0.028
I48
I75
tp80
sg9
F20.77611494064331
sg10
I100
sg11
I200
sa(dp81
g7
(F0.164
F0.62
F0.032
I57
I94
tp82
sg9
F31.124151945114136
sg10
I100
sg11
I300
sa(dp83
g7
(F0.168
F0.672
F0.033
I39
I76
tp84
sg9
F41.28642296791077
sg10
I100
sg11
I400
sa(dp85
g7
(F0.163
F0.675
F0.032
I53
I94
tp86
sg9
F51.56228494644165
sg10
I100
sg11
I500
satp87
Rp88
(dp89
g25
I01
sg26
g30
sg31
(lp90
I3
aI5
aI30
aI9
asg33
I6
sg34
g35
(g3
tp91
Rp92
sbsS'IBEA'
p93
g2
(g3
g4
(lp94
(dp95
g7
g61
sg9
F0.03919196128845215
sg10
I100
sg11
I0
sa(dp96
g7
g61
sg9
F8.390060901641846
sg10
I100
sg11
I100
sa(dp97
g7
g61
sg9
F16.835653066635132
sg10
I100
sg11
I200
sa(dp98
g7
g61
sg9
F25.300485849380493
sg10
I100
sg11
I300
sa(dp99
g7
g61
sg9
F33.845085859298706
sg10
I100
sg11
I400
sa(dp100
g7
g61
sg9
F42.44660401344299
sg10
I100
sg11
I500
satp101
Rp102
(dp103
g25
I01
sg26
g30
sg31
(lp104
I3
aI5
aI30
aI9
asg33
I6
sg34
g35
(g3
tp105
Rp106
sbsS'NSGA2'
p107
g2
(g3
g4
(lp108
(dp109
g7
g61
sg9
F0.04013705253601074
sg10
I100
sg11
I0
sa(dp110
g7
g61
sg9
F11.33878207206726
sg10
I100
sg11
I100
sa(dp111
g7
g61
sg9
F22.627018928527832
sg10
I100
sg11
I200
sa(dp112
g7
g61
sg9
F33.899898052215576
sg10
I100
sg11
I300
sa(dp113
g7
g61
sg9
F45.15746307373047
sg10
I100
sg11
I400
sa(dp114
g7
g61
sg9
F56.39472699165344
sg10
I100
sg11
I500
satp115
Rp116
(dp117
g25
I01
sg26
g30
sg31
(lp118
I3
aI5
aI30
aI9
asg33
I6
sg34
g35
(g3
tp119
Rp120
sbsS'IBEA-SIP'
p121
g2
(g3
g4
(lp122
(dp123
g7
(F0.09
F0.921
F0.036
I12
I20
tp124
sg9
F0.053032875061035156
sg10
I100
sg11
I0
sa(dp125
g7
(F0.168
F0.712
F0.037
I65
I100
tp126
sg9
F8.16278886795044
sg10
I100
sg11
I100
sa(dp127
g7
(F0.174
F0.679
F0.038
I63
I100
tp128
sg9
F16.350895881652832
sg10
I100
sg11
I200
sa(dp129
g7
(F0.175
F0.622
F0.036
I71
I100
tp130
sg9
F24.487483024597168
sg10
I100
sg11
I300
sa(dp131
g7
(F0.172
F0.688
F0.037
I60
I100
tp132
sg9
F32.61310887336731
sg10
I100
sg11
I400
sa(dp133
g7
(F0.171
F0.614
F0.035
I60
I100
tp134
sg9
F40.67656898498535
sg10
I100
sg11
I500
satp135
Rp136
(dp137
g25
I01
sg26
g30
sg31
(lp138
I3
aI5
aI30
aI9
asg33
I6
sg34
g35
(g3
tp139
Rp140
sbs.