(dp0
S'NSGA2-SIP'
p1
ccopy_reg
_reconstructor
p2
(cdeap.tools.support
Logbook
p3
c__builtin__
list
p4
(lp5
(dp6
S'hv|spread|igd|frontier#|valid#'
p7
(F0.11
F0.596
F0.037
I20
I32
tp8
sS'timestamp'
p9
F0.08360910415649414
sS'evals'
p10
I100
sS'gen'
p11
I0
sa(dp12
g7
(F0.173
F0.588
F0.035
I96
I100
tp13
sg9
F11.251384973526001
sg10
I100
sg11
I100
sa(dp14
g7
(F0.178
F0.659
F0.036
I94
I100
tp15
sg9
F22.324684143066406
sg10
I100
sg11
I200
sa(dp16
g7
(F0.18
F0.668
F0.037
I95
I100
tp17
sg9
F33.4698920249939
sg10
I100
sg11
I300
sa(dp18
g7
(F0.18
F0.671
F0.038
I94
I100
tp19
sg9
F44.72387099266052
sg10
I100
sg11
I400
sa(dp20
g7
(F0.181
F0.603
F0.038
I97
I100
tp21
sg9
F56.12249398231506
sg10
I100
sg11
I500
satp22
Rp23
(dp24
S'log_header'
p25
I01
sS'header'
p26
(S'gen'
p27
S'evals'
p28
S'hv|spread|igd|frontier#|valid#'
p29
S'timestamp'
p30
tp31
sS'columns_len'
p32
(lp33
I3
aI5
aI30
aI9
asS'buffindex'
p34
I6
sS'chapters'
p35
ccollections
defaultdict
p36
(g3
tp37
Rp38
sbsS'SPEA2-SIP'
p39
g2
(g3
g4
(lp40
(dp41
g7
(F0.103
F0.872
F0.033
I14
I23
tp42
sg9
F0.06384992599487305
sg10
I100
sg11
I0
sa(dp43
g7
(F0.164
F0.659
F0.035
I100
I100
tp44
sg9
F75.05582690238953
sg10
I100
sg11
I100
sa(dp45
g7
(F0.167
F0.674
F0.036
I100
I100
tp46
sg9
F158.43696403503418
sg10
I100
sg11
I200
sa(dp47
g7
(F0.17
F0.655
F0.037
I100
I100
tp48
sg9
F239.8175938129425
sg10
I100
sg11
I300
sa(dp49
g7
(F0.177
F0.625
F0.038
I100
I100
tp50
sg9
F323.441437959671
sg10
I100
sg11
I400
sa(dp51
g7
(F0.178
F0.675
F0.037
I100
I100
tp52
sg9
F409.28511095046997
sg10
I100
sg11
I500
satp53
Rp54
(dp55
g25
I01
sg26
g31
sg32
(lp56
I3
aI5
aI31
aI9
asg34
I6
sg35
g36
(g3
tp57
Rp58
sbsS'SPEA2'
p59
g2
(g3
g4
(lp60
(dp61
g7
(I0
I0
I0
I0
I0
tp62
sg9
F0.04282093048095703
sg10
I100
sg11
I0
sa(dp63
g7
g62
sg9
F102.22590398788452
sg10
I100
sg11
I100
sa(dp64
g7
g62
sg9
F230.60988593101501
sg10
I100
sg11
I200
sa(dp65
g7
g62
sg9
F355.1636199951172
sg10
I100
sg11
I300
sa(dp66
g7
g62
sg9
F480.09059500694275
sg10
I100
sg11
I400
sa(dp67
g7
g62
sg9
F607.6355879306793
sg10
I100
sg11
I500
satp68
Rp69
(dp70
g25
I01
sg26
g31
sg32
(lp71
I3
aI5
aI30
aI9
asg34
I6
sg35
g36
(g3
tp72
Rp73
sbsS'IBEA-PEN'
p74
g2
(g3
g4
(lp75
(dp76
g7
(F0.136
F0.726
F0.024
I30
I62
tp77
sg9
F0.17305207252502441
sg10
I100
sg11
I0
sa(dp78
g7
(F0.011
F2.651
F0.022
I1
I1
tp79
sg9
F9.094587087631226
sg10
I100
sg11
I100
sa(dp80
g7
g62
sg9
F18.03499698638916
sg10
I100
sg11
I200
sa(dp81
g7
g62
sg9
F26.9117910861969
sg10
I100
sg11
I300
sa(dp82
g7
g62
sg9
F35.77414608001709
sg10
I100
sg11
I400
sa(dp83
g7
g62
sg9
F44.67283892631531
sg10
I100
sg11
I500
satp84
Rp85
(dp86
g25
I01
sg26
g31
sg32
(lp87
I3
aI5
aI30
aI9
asg34
I6
sg35
g36
(g3
tp88
Rp89
sbsS'IBEA'
p90
g2
(g3
g4
(lp91
(dp92
g7
g62
sg9
F0.042942047119140625
sg10
I100
sg11
I0
sa(dp93
g7
g62
sg9
F8.706675052642822
sg10
I100
sg11
I100
sa(dp94
g7
g62
sg9
F17.43629217147827
sg10
I100
sg11
I200
sa(dp95
g7
g62
sg9
F26.15050196647644
sg10
I100
sg11
I300
sa(dp96
g7
g62
sg9
F34.906378984451294
sg10
I100
sg11
I400
sa(dp97
g7
g62
sg9
F43.664409160614014
sg10
I100
sg11
I500
satp98
Rp99
(dp100
g25
I01
sg26
g31
sg32
(lp101
I3
aI5
aI30
aI9
asg34
I6
sg35
g36
(g3
tp102
Rp103
sbsS'NSGA2'
p104
g2
(g3
g4
(lp105
(dp106
g7
g62
sg9
F0.04235482215881348
sg10
I100
sg11
I0
sa(dp107
g7
g62
sg9
F12.720191955566406
sg10
I100
sg11
I100
sa(dp108
g7
g62
sg9
F25.342692852020264
sg10
I100
sg11
I200
sa(dp109
g7
g62
sg9
F37.97328782081604
sg10
I100
sg11
I300
sa(dp110
g7
g62
sg9
F50.58697700500488
sg10
I100
sg11
I400
sa(dp111
g7
g62
sg9
F63.21290183067322
sg10
I100
sg11
I500
satp112
Rp113
(dp114
g25
I01
sg26
g31
sg32
(lp115
I3
aI5
aI30
aI9
asg34
I6
sg35
g36
(g3
tp116
Rp117
sbsS'IBEA-SIP'
p118
g2
(g3
g4
(lp119
(dp120
g7
(F0.086
F0.864
F0.039
I12
I20
tp121
sg9
F0.05713605880737305
sg10
I100
sg11
I0
sa(dp122
g7
(F0.173
F0.613
F0.035
I67
I100
tp123
sg9
F8.351263046264648
sg10
I100
sg11
I100
sa(dp124
g7
(F0.169
F0.692
F0.036
I60
I100
tp125
sg9
F16.598780155181885
sg10
I100
sg11
I200
sa(dp126
g7
(F0.169
F0.582
F0.04
I58
I100
tp127
sg9
F24.899145126342773
sg10
I100
sg11
I300
sa(dp128
g7
(F0.167
F0.789
F0.038
I67
I100
tp129
sg9
F33.27155017852783
sg10
I100
sg11
I400
sa(dp130
g7
(F0.174
F0.764
F0.034
I73
I100
tp131
sg9
F41.7198441028595
sg10
I100
sg11
I500
satp132
Rp133
(dp134
g25
I01
sg26
g31
sg32
(lp135
I3
aI5
aI30
aI9
asg34
I6
sg35
g36
(g3
tp136
Rp137
sbs.