(dp0
S'NSGA2-SIP'
p1
ccopy_reg
_reconstructor
p2
(cdeap.tools.support
Logbook
p3
c__builtin__
list
p4
(lp5
(dp6
S'hv|spread|igd|frontier#|valid#'
p7
(F0.101
F0.848
F0.038
I17
I23
tp8
sS'timestamp'
p9
F0.0908510684967041
sS'evals'
p10
I100
sS'gen'
p11
I0
sa(dp12
g7
(F0.176
F0.648
F0.033
I96
I100
tp13
sg9
F9.076812982559204
sg10
I100
sg11
I100
sa(dp14
g7
(F0.178
F0.685
F0.033
I97
I100
tp15
sg9
F17.953187942504883
sg10
I100
sg11
I200
sa(dp16
g7
(F0.181
F0.585
F0.037
I95
I100
tp17
sg9
F26.86784291267395
sg10
I100
sg11
I300
sa(dp18
g7
(F0.181
F0.636
F0.035
I95
I100
tp19
sg9
F35.945873975753784
sg10
I100
sg11
I400
sa(dp20
g7
(F0.181
F0.545
F0.035
I97
I100
tp21
sg9
F44.93994402885437
sg10
I100
sg11
I500
satp22
Rp23
(dp24
S'log_header'
p25
I01
sS'header'
p26
(S'gen'
p27
S'evals'
p28
S'hv|spread|igd|frontier#|valid#'
p29
S'timestamp'
p30
tp31
sS'columns_len'
p32
(lp33
I3
aI5
aI30
aI9
asS'buffindex'
p34
I6
sS'chapters'
p35
ccollections
defaultdict
p36
(g3
tp37
Rp38
sbsS'SPEA2-SIP'
p39
g2
(g3
g4
(lp40
(dp41
g7
(F0.094
F0.845
F0.047
I12
I23
tp42
sg9
F0.06994986534118652
sg10
I100
sg11
I0
sa(dp43
g7
(F0.167
F0.631
F0.034
I100
I100
tp44
sg9
F63.55982780456543
sg10
I100
sg11
I100
sa(dp45
g7
(F0.169
F0.723
F0.036
I100
I100
tp46
sg9
F131.33049392700195
sg10
I100
sg11
I200
sa(dp47
g7
(F0.17
F0.634
F0.037
I100
I100
tp48
sg9
F200.9131247997284
sg10
I100
sg11
I300
sa(dp49
g7
(F0.17
F0.697
F0.037
I100
I100
tp50
sg9
F271.51098799705505
sg10
I100
sg11
I400
sa(dp51
g7
(F0.174
F0.688
F0.037
I100
I100
tp52
sg9
F341.0598518848419
sg10
I100
sg11
I500
satp53
Rp54
(dp55
g25
I01
sg26
g31
sg32
(lp56
I3
aI5
aI31
aI9
asg34
I6
sg35
g36
(g3
tp57
Rp58
sbsS'SPEA2'
p59
g2
(g3
g4
(lp60
(dp61
g7
(I0
I0
I0
I0
I0
tp62
sg9
F0.03848099708557129
sg10
I100
sg11
I0
sa(dp63
g7
g62
sg9
F90.72317695617676
sg10
I100
sg11
I100
sa(dp64
g7
g62
sg9
F198.2302749156952
sg10
I100
sg11
I200
sa(dp65
g7
g62
sg9
F300.4409599304199
sg10
I100
sg11
I300
sa(dp66
g7
g62
sg9
F399.0791268348694
sg10
I100
sg11
I400
sa(dp67
g7
g62
sg9
F501.88137698173523
sg10
I100
sg11
I500
satp68
Rp69
(dp70
g25
I01
sg26
g31
sg32
(lp71
I3
aI5
aI30
aI9
asg34
I6
sg35
g36
(g3
tp72
Rp73
sbsS'IBEA-PEN'
p74
g2
(g3
g4
(lp75
(dp76
g7
(F0.142
F0.731
F0.032
I26
I65
tp77
sg9
F0.14818692207336426
sg10
I100
sg11
I0
sa(dp78
g7
g62
sg9
F7.98366904258728
sg10
I100
sg11
I100
sa(dp79
g7
g62
sg9
F15.67180609703064
sg10
I100
sg11
I200
sa(dp80
g7
g62
sg9
F23.38249897956848
sg10
I100
sg11
I300
sa(dp81
g7
g62
sg9
F31.061600923538208
sg10
I100
sg11
I400
sa(dp82
g7
g62
sg9
F38.672499895095825
sg10
I100
sg11
I500
satp83
Rp84
(dp85
g25
I01
sg26
g31
sg32
(lp86
I3
aI5
aI30
aI9
asg34
I6
sg35
g36
(g3
tp87
Rp88
sbsS'IBEA'
p89
g2
(g3
g4
(lp90
(dp91
g7
g62
sg9
F0.05507493019104004
sg10
I100
sg11
I0
sa(dp92
g7
g62
sg9
F7.621505975723267
sg10
I100
sg11
I100
sa(dp93
g7
g62
sg9
F15.03705096244812
sg10
I100
sg11
I200
sa(dp94
g7
g62
sg9
F22.462213039398193
sg10
I100
sg11
I300
sa(dp95
g7
g62
sg9
F29.909670114517212
sg10
I100
sg11
I400
sa(dp96
g7
g62
sg9
F37.386878967285156
sg10
I100
sg11
I500
satp97
Rp98
(dp99
g25
I01
sg26
g31
sg32
(lp100
I3
aI5
aI30
aI9
asg34
I6
sg35
g36
(g3
tp101
Rp102
sbsS'NSGA2'
p103
g2
(g3
g4
(lp104
(dp105
g7
g62
sg9
F0.03795504570007324
sg10
I100
sg11
I0
sa(dp106
g7
g62
sg9
F10.178250074386597
sg10
I100
sg11
I100
sa(dp107
g7
g62
sg9
F20.083073139190674
sg10
I100
sg11
I200
sa(dp108
g7
g62
sg9
F30.022666215896606
sg10
I100
sg11
I300
sa(dp109
g7
g62
sg9
F39.95120406150818
sg10
I100
sg11
I400
sa(dp110
g7
g62
sg9
F49.899827003479004
sg10
I100
sg11
I500
satp111
Rp112
(dp113
g25
I01
sg26
g31
sg32
(lp114
I3
aI5
aI30
aI9
asg34
I6
sg35
g36
(g3
tp115
Rp116
sbsS'IBEA-SIP'
p117
g2
(g3
g4
(lp118
(dp119
g7
(F0.094
F0.88
F0.035
I15
I26
tp120
sg9
F0.08042407035827637
sg10
I100
sg11
I0
sa(dp121
g7
(F0.168
F0.74
F0.033
I62
I100
tp122
sg9
F7.316586971282959
sg10
I100
sg11
I100
sa(dp123
g7
(F0.17
F0.615
F0.036
I74
I100
tp124
sg9
F14.793029069900513
sg10
I100
sg11
I200
sa(dp125
g7
(F0.174
F0.61
F0.038
I75
I100
tp126
sg9
F22.031102895736694
sg10
I100
sg11
I300
sa(dp127
g7
(F0.177
F0.712
F0.036
I68
I100
tp128
sg9
F29.25576400756836
sg10
I100
sg11
I400
sa(dp129
g7
(F0.176
F0.647
F0.034
I68
I100
tp130
sg9
F36.49512195587158
sg10
I100
sg11
I500
satp131
Rp132
(dp133
g25
I01
sg26
g31
sg32
(lp134
I3
aI5
aI30
aI9
asg34
I6
sg35
g36
(g3
tp135
Rp136
sbs.