(dp0
S'NSGA2-SIP'
p1
ccopy_reg
_reconstructor
p2
(cdeap.tools.support
Logbook
p3
c__builtin__
list
p4
(lp5
(dp6
S'hv|spread|igd|frontier#|valid#'
p7
(F0.105
F0.809
F0.041
I19
I26
tp8
sS'timestamp'
p9
F0.07900595664978027
sS'evals'
p10
I100
sS'gen'
p11
I0
sa(dp12
g7
(F0.173
F0.615
F0.032
I97
I100
tp13
sg9
F11.082452058792114
sg10
I100
sg11
I100
sa(dp14
g7
(F0.174
F0.602
F0.034
I98
I100
tp15
sg9
F22.400447130203247
sg10
I100
sg11
I200
sa(dp16
g7
(F0.176
F0.554
F0.035
I97
I100
tp17
sg9
F33.59078311920166
sg10
I100
sg11
I300
sa(dp18
g7
(F0.178
F0.594
F0.036
I97
I100
tp19
sg9
F44.934874057769775
sg10
I100
sg11
I400
sa(dp20
g7
(F0.178
F0.599
F0.035
I98
I100
tp21
sg9
F56.21943497657776
sg10
I100
sg11
I500
satp22
Rp23
(dp24
S'log_header'
p25
I01
sS'header'
p26
(S'gen'
p27
S'evals'
p28
S'hv|spread|igd|frontier#|valid#'
p29
S'timestamp'
p30
tp31
sS'columns_len'
p32
(lp33
I3
aI5
aI30
aI9
asS'buffindex'
p34
I6
sS'chapters'
p35
ccollections
defaultdict
p36
(g3
tp37
Rp38
sbsS'SPEA2-SIP'
p39
g2
(g3
g4
(lp40
(dp41
g7
(F0.101
F0.853
F0.038
I15
I27
tp42
sg9
F0.06738591194152832
sg10
I100
sg11
I0
sa(dp43
g7
(F0.169
F0.622
F0.036
I100
I100
tp44
sg9
F76.56444692611694
sg10
I100
sg11
I100
sa(dp45
g7
(F0.172
F0.688
F0.037
I100
I100
tp46
sg9
F160.00575804710388
sg10
I100
sg11
I200
sa(dp47
g7
(F0.173
F0.623
F0.038
I100
I100
tp48
sg9
F243.5598659515381
sg10
I100
sg11
I300
sa(dp49
g7
(F0.176
F0.64
F0.038
I100
I100
tp50
sg9
F328.9762749671936
sg10
I100
sg11
I400
sa(dp51
g7
(F0.177
F0.609
F0.038
I100
I100
tp52
sg9
F411.7216899394989
sg10
I100
sg11
I500
satp53
Rp54
(dp55
g25
I01
sg26
g31
sg32
(lp56
I3
aI5
aI31
aI9
asg34
I6
sg35
g36
(g3
tp57
Rp58
sbsS'SPEA2'
p59
g2
(g3
g4
(lp60
(dp61
g7
(I0
I0
I0
I0
I0
tp62
sg9
F0.043733835220336914
sg10
I100
sg11
I0
sa(dp63
g7
g62
sg9
F95.15237379074097
sg10
I100
sg11
I100
sa(dp64
g7
g62
sg9
F219.4736340045929
sg10
I100
sg11
I200
sa(dp65
g7
g62
sg9
F341.6624310016632
sg10
I100
sg11
I300
sa(dp66
g7
g62
sg9
F471.3537759780884
sg10
I100
sg11
I400
sa(dp67
g7
g62
sg9
F600.8769738674164
sg10
I100
sg11
I500
satp68
Rp69
(dp70
g25
I01
sg26
g31
sg32
(lp71
I3
aI5
aI30
aI9
asg34
I6
sg35
g36
(g3
tp72
Rp73
sbsS'IBEA-PEN'
p74
g2
(g3
g4
(lp75
(dp76
g7
(F0.137
F0.763
F0.026
I36
I76
tp77
sg9
F0.2102060317993164
sg10
I100
sg11
I0
sa(dp78
g7
g62
sg9
F9.101922035217285
sg10
I100
sg11
I100
sa(dp79
g7
(F0.008
F2.718
F0.026
I1
I1
tp80
sg9
F17.898837089538574
sg10
I100
sg11
I200
sa(dp81
g7
(F0.007
F0.996
F0.034
I2
I2
tp82
sg9
F26.718653917312622
sg10
I100
sg11
I300
sa(dp83
g7
(F0.007
F2.745
F0.022
I1
I1
tp84
sg9
F35.55003309249878
sg10
I100
sg11
I400
sa(dp85
g7
(F0.01
F0.993
F0.021
I2
I2
tp86
sg9
F44.41672110557556
sg10
I100
sg11
I500
satp87
Rp88
(dp89
g25
I01
sg26
g31
sg32
(lp90
I3
aI5
aI30
aI9
asg34
I6
sg35
g36
(g3
tp91
Rp92
sbsS'IBEA'
p93
g2
(g3
g4
(lp94
(dp95
g7
g62
sg9
F0.04251980781555176
sg10
I100
sg11
I0
sa(dp96
g7
g62
sg9
F8.665838956832886
sg10
I100
sg11
I100
sa(dp97
g7
g62
sg9
F17.399281978607178
sg10
I100
sg11
I200
sa(dp98
g7
g62
sg9
F26.144464015960693
sg10
I100
sg11
I300
sa(dp99
g7
g62
sg9
F34.89845299720764
sg10
I100
sg11
I400
sa(dp100
g7
g62
sg9
F43.671820878982544
sg10
I100
sg11
I500
satp101
Rp102
(dp103
g25
I01
sg26
g31
sg32
(lp104
I3
aI5
aI30
aI9
asg34
I6
sg35
g36
(g3
tp105
Rp106
sbsS'NSGA2'
p107
g2
(g3
g4
(lp108
(dp109
g7
g62
sg9
F0.04233193397521973
sg10
I100
sg11
I0
sa(dp110
g7
g62
sg9
F12.595453023910522
sg10
I100
sg11
I100
sa(dp111
g7
g62
sg9
F25.194679975509644
sg10
I100
sg11
I200
sa(dp112
g7
g62
sg9
F37.75859594345093
sg10
I100
sg11
I300
sa(dp113
g7
g62
sg9
F50.35511112213135
sg10
I100
sg11
I400
sa(dp114
g7
g62
sg9
F62.814186096191406
sg10
I100
sg11
I500
satp115
Rp116
(dp117
g25
I01
sg26
g31
sg32
(lp118
I3
aI5
aI30
aI9
asg34
I6
sg35
g36
(g3
tp119
Rp120
sbsS'IBEA-SIP'
p121
g2
(g3
g4
(lp122
(dp123
g7
(F0.111
F0.824
F0.03
I19
I32
tp124
sg9
F0.07954788208007812
sg10
I100
sg11
I0
sa(dp125
g7
(F0.174
F0.718
F0.035
I64
I100
tp126
sg9
F8.359618902206421
sg10
I100
sg11
I100
sa(dp127
g7
(F0.173
F0.671
F0.038
I70
I100
tp128
sg9
F16.813380002975464
sg10
I100
sg11
I200
sa(dp129
g7
(F0.172
F0.627
F0.034
I58
I100
tp130
sg9
F25.198036909103394
sg10
I100
sg11
I300
sa(dp131
g7
(F0.172
F0.705
F0.035
I66
I100
tp132
sg9
F33.63552498817444
sg10
I100
sg11
I400
sa(dp133
g7
(F0.173
F0.634
F0.036
I61
I100
tp134
sg9
F41.9870388507843
sg10
I100
sg11
I500
satp135
Rp136
(dp137
g25
I01
sg26
g31
sg32
(lp138
I3
aI5
aI30
aI9
asg34
I6
sg35
g36
(g3
tp139
Rp140
sbs.