(dp0
S'NSGA2-SIP'
p1
ccopy_reg
_reconstructor
p2
(cdeap.tools.support
Logbook
p3
c__builtin__
list
p4
(lp5
(dp6
S'hv|spread|igd|frontier#|valid#'
p7
(F0.103
F0.778
F0.029
I16
I24
tp8
sS'timestamp'
p9
F0.062317848205566406
sS'evals'
p10
I100
sS'gen'
p11
I0
sa(dp12
g7
(F0.172
F0.648
F0.033
I96
I100
tp13
sg9
F9.76487398147583
sg10
I100
sg11
I100
sa(dp14
g7
(F0.176
F0.653
F0.035
I97
I100
tp15
sg9
F19.782675981521606
sg10
I100
sg11
I200
sa(dp16
g7
(F0.178
F0.66
F0.035
I96
I100
tp17
sg9
F29.727524042129517
sg10
I100
sg11
I300
sa(dp18
g7
(F0.178
F0.597
F0.036
I96
I100
tp19
sg9
F39.628350019454956
sg10
I100
sg11
I400
sa(dp20
g7
(F0.181
F0.623
F0.038
I96
I100
tp21
sg9
F49.621328830718994
sg10
I100
sg11
I500
satp22
Rp23
(dp24
S'log_header'
p25
I01
sS'header'
p26
(S'gen'
p27
S'evals'
p28
S'hv|spread|igd|frontier#|valid#'
p29
S'timestamp'
p30
tp31
sS'columns_len'
p32
(lp33
I3
aI5
aI30
aI9
asS'buffindex'
p34
I6
sS'chapters'
p35
ccollections
defaultdict
p36
(g3
tp37
Rp38
sbsS'SPEA2-SIP'
p39
g2
(g3
g4
(lp40
(dp41
g7
(F0.1
F0.838
F0.039
I18
I22
tp42
sg9
F0.06865191459655762
sg10
I100
sg11
I0
sa(dp43
g7
(F0.165
F0.813
F0.036
I100
I100
tp44
sg9
F72.44388484954834
sg10
I100
sg11
I100
sa(dp45
g7
(F0.169
F0.644
F0.037
I100
I100
tp46
sg9
F149.61681389808655
sg10
I100
sg11
I200
sa(dp47
g7
(F0.17
F0.641
F0.037
I100
I100
tp48
sg9
F228.5325310230255
sg10
I100
sg11
I300
sa(dp49
g7
(F0.171
F0.63
F0.037
I100
I100
tp50
sg9
F306.42102003097534
sg10
I100
sg11
I400
sa(dp51
g7
(F0.173
F0.565
F0.037
I100
I100
tp52
sg9
F384.07181096076965
sg10
I100
sg11
I500
satp53
Rp54
(dp55
g25
I01
sg26
g31
sg32
(lp56
I3
aI5
aI31
aI9
asg34
I6
sg35
g36
(g3
tp57
Rp58
sbsS'SPEA2'
p59
g2
(g3
g4
(lp60
(dp61
g7
(I0
I0
I0
I0
I0
tp62
sg9
F0.03798389434814453
sg10
I100
sg11
I0
sa(dp63
g7
g62
sg9
F91.56695294380188
sg10
I100
sg11
I100
sa(dp64
g7
g62
sg9
F206.239266872406
sg10
I100
sg11
I200
sa(dp65
g7
g62
sg9
F324.51637983322144
sg10
I100
sg11
I300
sa(dp66
g7
g62
sg9
F447.95419788360596
sg10
I100
sg11
I400
sa(dp67
g7
g62
sg9
F570.7141759395599
sg10
I100
sg11
I500
satp68
Rp69
(dp70
g25
I01
sg26
g31
sg32
(lp71
I3
aI5
aI30
aI9
asg34
I6
sg35
g36
(g3
tp72
Rp73
sbsS'IBEA-PEN'
p74
g2
(g3
g4
(lp75
(dp76
g7
(F0.144
F0.713
F0.03
I42
I66
tp77
sg9
F0.2094728946685791
sg10
I100
sg11
I0
sa(dp78
g7
(F0.008
F2.691
F0.017
I1
I1
tp79
sg9
F8.575591087341309
sg10
I100
sg11
I100
sa(dp80
g7
(F0.008
F2.691
F0.017
I1
I1
tp81
sg9
F16.998167037963867
sg10
I100
sg11
I200
sa(dp82
g7
g62
sg9
F25.44292902946472
sg10
I100
sg11
I300
sa(dp83
g7
g62
sg9
F33.85510492324829
sg10
I100
sg11
I400
sa(dp84
g7
g62
sg9
F42.28133511543274
sg10
I100
sg11
I500
satp85
Rp86
(dp87
g25
I01
sg26
g31
sg32
(lp88
I3
aI5
aI30
aI9
asg34
I6
sg35
g36
(g3
tp89
Rp90
sbsS'IBEA'
p91
g2
(g3
g4
(lp92
(dp93
g7
g62
sg9
F0.037966012954711914
sg10
I100
sg11
I0
sa(dp94
g7
g62
sg9
F8.275262117385864
sg10
I100
sg11
I100
sa(dp95
g7
g62
sg9
F16.566691160202026
sg10
I100
sg11
I200
sa(dp96
g7
g62
sg9
F24.868357181549072
sg10
I100
sg11
I300
sa(dp97
g7
g62
sg9
F33.18911409378052
sg10
I100
sg11
I400
sa(dp98
g7
g62
sg9
F41.506561040878296
sg10
I100
sg11
I500
satp99
Rp100
(dp101
g25
I01
sg26
g31
sg32
(lp102
I3
aI5
aI30
aI9
asg34
I6
sg35
g36
(g3
tp103
Rp104
sbsS'NSGA2'
p105
g2
(g3
g4
(lp106
(dp107
g7
g62
sg9
F0.03777194023132324
sg10
I100
sg11
I0
sa(dp108
g7
g62
sg9
F11.116071939468384
sg10
I100
sg11
I100
sa(dp109
g7
g62
sg9
F22.211992025375366
sg10
I100
sg11
I200
sa(dp110
g7
g62
sg9
F33.30932688713074
sg10
I100
sg11
I300
sa(dp111
g7
g62
sg9
F44.418853998184204
sg10
I100
sg11
I400
sa(dp112
g7
g62
sg9
F55.27594304084778
sg10
I100
sg11
I500
satp113
Rp114
(dp115
g25
I01
sg26
g31
sg32
(lp116
I3
aI5
aI30
aI9
asg34
I6
sg35
g36
(g3
tp117
Rp118
sbsS'IBEA-SIP'
p119
g2
(g3
g4
(lp120
(dp121
g7
(F0.104
F0.823
F0.035
I16
I23
tp122
sg9
F0.06354999542236328
sg10
I100
sg11
I0
sa(dp123
g7
(F0.171
F0.691
F0.035
I63
I100
tp124
sg9
F7.9927709102630615
sg10
I100
sg11
I100
sa(dp125
g7
(F0.172
F0.656
F0.034
I70
I100
tp126
sg9
F16.0452938079834
sg10
I100
sg11
I200
sa(dp127
g7
(F0.175
F0.79
F0.039
I75
I100
tp128
sg9
F24.193633794784546
sg10
I100
sg11
I300
sa(dp129
g7
(F0.171
F0.705
F0.035
I66
I100
tp130
sg9
F32.23560380935669
sg10
I100
sg11
I400
sa(dp131
g7
(F0.177
F0.733
F0.033
I76
I100
tp132
sg9
F40.339725971221924
sg10
I100
sg11
I500
satp133
Rp134
(dp135
g25
I01
sg26
g31
sg32
(lp136
I3
aI5
aI30
aI9
asg34
I6
sg35
g36
(g3
tp137
Rp138
sbs.