(dp0
S'NSGA2-SIP'
p1
ccopy_reg
_reconstructor
p2
(cdeap.tools.support
Logbook
p3
c__builtin__
list
p4
(lp5
(dp6
S'hv|spread|igd|frontier#|valid#'
p7
(F0.108
F0.811
F0.042
I17
I27
tp8
sS'timestamp'
p9
F0.0731658935546875
sS'evals'
p10
I100
sS'gen'
p11
I0
sa(dp12
g7
(F0.17
F0.606
F0.034
I93
I100
tp13
sg9
F10.725225925445557
sg10
I100
sg11
I100
sa(dp14
g7
(F0.176
F0.662
F0.036
I95
I100
tp15
sg9
F21.739022970199585
sg10
I100
sg11
I200
sa(dp16
g7
(F0.179
F0.59
F0.037
I97
I100
tp17
sg9
F32.85393786430359
sg10
I100
sg11
I300
sa(dp18
g7
(F0.181
F0.575
F0.038
I98
I100
tp19
sg9
F44.18065404891968
sg10
I100
sg11
I400
sa(dp20
g7
(F0.182
F0.565
F0.036
I99
I100
tp21
sg9
F55.662883043289185
sg10
I100
sg11
I500
satp22
Rp23
(dp24
S'log_header'
p25
I01
sS'header'
p26
(S'gen'
p27
S'evals'
p28
S'hv|spread|igd|frontier#|valid#'
p29
S'timestamp'
p30
tp31
sS'columns_len'
p32
(lp33
I3
aI5
aI30
aI9
asS'buffindex'
p34
I6
sS'chapters'
p35
ccollections
defaultdict
p36
(g3
tp37
Rp38
sbsS'SPEA2-SIP'
p39
g2
(g3
g4
(lp40
(dp41
g7
(F0.098
F0.887
F0.04
I12
I21
tp42
sg9
F0.05858612060546875
sg10
I100
sg11
I0
sa(dp43
g7
(F0.168
F0.607
F0.033
I100
I100
tp44
sg9
F76.98215699195862
sg10
I100
sg11
I100
sa(dp45
g7
(F0.171
F0.639
F0.034
I100
I100
tp46
sg9
F158.07444596290588
sg10
I100
sg11
I200
sa(dp47
g7
(F0.171
F0.664
F0.035
I100
I100
tp48
sg9
F236.72532606124878
sg10
I100
sg11
I300
sa(dp49
g7
(F0.172
F0.625
F0.036
I100
I100
tp50
sg9
F318.4286370277405
sg10
I100
sg11
I400
sa(dp51
g7
(F0.174
F0.599
F0.037
I100
I100
tp52
sg9
F402.3013300895691
sg10
I100
sg11
I500
satp53
Rp54
(dp55
g25
I01
sg26
g31
sg32
(lp56
I3
aI5
aI31
aI9
asg34
I6
sg35
g36
(g3
tp57
Rp58
sbsS'SPEA2'
p59
g2
(g3
g4
(lp60
(dp61
g7
(I0
I0
I0
I0
I0
tp62
sg9
F0.042932987213134766
sg10
I100
sg11
I0
sa(dp63
g7
g62
sg9
F102.8199999332428
sg10
I100
sg11
I100
sa(dp64
g7
g62
sg9
F225.75500798225403
sg10
I100
sg11
I200
sa(dp65
g7
g62
sg9
F353.2393090724945
sg10
I100
sg11
I300
sa(dp66
g7
g62
sg9
F484.3990709781647
sg10
I100
sg11
I400
sa(dp67
g7
g62
sg9
F620.3158600330353
sg10
I100
sg11
I500
satp68
Rp69
(dp70
g25
I01
sg26
g31
sg32
(lp71
I3
aI5
aI30
aI9
asg34
I6
sg35
g36
(g3
tp72
Rp73
sbsS'IBEA-PEN'
p74
g2
(g3
g4
(lp75
(dp76
g7
(F0.134
F0.771
F0.023
I25
I76
tp77
sg9
F0.16837406158447266
sg10
I100
sg11
I0
sa(dp78
g7
g62
sg9
F9.041374206542969
sg10
I100
sg11
I100
sa(dp79
g7
g62
sg9
F17.835227012634277
sg10
I100
sg11
I200
sa(dp80
g7
(F0.0
F2.8
F0.112
I1
I1
tp81
sg9
F26.646916151046753
sg10
I100
sg11
I300
sa(dp82
g7
g62
sg9
F35.46747303009033
sg10
I100
sg11
I400
sa(dp83
g7
g62
sg9
F44.393922090530396
sg10
I100
sg11
I500
satp84
Rp85
(dp86
g25
I01
sg26
g31
sg32
(lp87
I3
aI5
aI30
aI9
asg34
I6
sg35
g36
(g3
tp88
Rp89
sbsS'IBEA'
p90
g2
(g3
g4
(lp91
(dp92
g7
g62
sg9
F0.04278922080993652
sg10
I100
sg11
I0
sa(dp93
g7
g62
sg9
F8.653086185455322
sg10
I100
sg11
I100
sa(dp94
g7
g62
sg9
F17.311180114746094
sg10
I100
sg11
I200
sa(dp95
g7
g62
sg9
F25.98006510734558
sg10
I100
sg11
I300
sa(dp96
g7
g62
sg9
F34.72874307632446
sg10
I100
sg11
I400
sa(dp97
g7
g62
sg9
F43.5256872177124
sg10
I100
sg11
I500
satp98
Rp99
(dp100
g25
I01
sg26
g31
sg32
(lp101
I3
aI5
aI30
aI9
asg34
I6
sg35
g36
(g3
tp102
Rp103
sbsS'NSGA2'
p104
g2
(g3
g4
(lp105
(dp106
g7
g62
sg9
F0.042424917221069336
sg10
I100
sg11
I0
sa(dp107
g7
g62
sg9
F12.776580810546875
sg10
I100
sg11
I100
sa(dp108
g7
g62
sg9
F25.45622682571411
sg10
I100
sg11
I200
sa(dp109
g7
g62
sg9
F38.10206890106201
sg10
I100
sg11
I300
sa(dp110
g7
g62
sg9
F50.66290497779846
sg10
I100
sg11
I400
sa(dp111
g7
g62
sg9
F63.25408887863159
sg10
I100
sg11
I500
satp112
Rp113
(dp114
g25
I01
sg26
g31
sg32
(lp115
I3
aI5
aI30
aI9
asg34
I6
sg35
g36
(g3
tp116
Rp117
sbsS'IBEA-SIP'
p118
g2
(g3
g4
(lp119
(dp120
g7
(F0.115
F0.753
F0.03
I17
I29
tp121
sg9
F0.07395601272583008
sg10
I100
sg11
I0
sa(dp122
g7
(F0.173
F0.699
F0.036
I72
I100
tp123
sg9
F8.406378984451294
sg10
I100
sg11
I100
sa(dp124
g7
(F0.166
F0.657
F0.037
I67
I100
tp125
sg9
F16.797950983047485
sg10
I100
sg11
I200
sa(dp126
g7
(F0.172
F0.718
F0.038
I62
I100
tp127
sg9
F25.23464584350586
sg10
I100
sg11
I300
sa(dp128
g7
(F0.169
F0.667
F0.036
I57
I100
tp129
sg9
F33.599977016448975
sg10
I100
sg11
I400
sa(dp130
g7
(F0.175
F0.738
F0.035
I65
I100
tp131
sg9
F42.00566601753235
sg10
I100
sg11
I500
satp132
Rp133
(dp134
g25
I01
sg26
g31
sg32
(lp135
I3
aI5
aI30
aI9
asg34
I6
sg35
g36
(g3
tp136
Rp137
sbs.