(dp0
S'NSGA2-SIP'
p1
ccopy_reg
_reconstructor
p2
(cdeap.tools.support
Logbook
p3
c__builtin__
list
p4
(lp5
(dp6
S'hv|spread|igd|frontier#|valid#'
p7
(F0.12
F0.882
F0.034
I18
I23
tp8
sS'timestamp'
p9
F0.06688213348388672
sS'evals'
p10
I100
sS'gen'
p11
I0
sa(dp12
g7
(F0.175
F0.643
F0.035
I96
I100
tp13
sg9
F9.54930305480957
sg10
I100
sg11
I100
sa(dp14
g7
(F0.177
F0.639
F0.034
I94
I100
tp15
sg9
F19.390331029891968
sg10
I100
sg11
I200
sa(dp16
g7
(F0.177
F0.567
F0.036
I98
I100
tp17
sg9
F29.390074968338013
sg10
I100
sg11
I300
sa(dp18
g7
(F0.18
F0.607
F0.036
I96
I100
tp19
sg9
F39.427409172058105
sg10
I100
sg11
I400
sa(dp20
g7
(F0.181
F0.579
F0.036
I98
I100
tp21
sg9
F49.60186219215393
sg10
I100
sg11
I500
satp22
Rp23
(dp24
S'log_header'
p25
I01
sS'header'
p26
(S'gen'
p27
S'evals'
p28
S'hv|spread|igd|frontier#|valid#'
p29
S'timestamp'
p30
tp31
sS'columns_len'
p32
(lp33
I3
aI5
aI30
aI9
asS'buffindex'
p34
I6
sS'chapters'
p35
ccollections
defaultdict
p36
(g3
tp37
Rp38
sbsS'SPEA2-SIP'
p39
g2
(g3
g4
(lp40
(dp41
g7
(F0.102
F0.746
F0.035
I17
I22
tp42
sg9
F0.06435108184814453
sg10
I100
sg11
I0
sa(dp43
g7
(F0.166
F0.677
F0.035
I100
I100
tp44
sg9
F73.69633197784424
sg10
I100
sg11
I100
sa(dp45
g7
(F0.17
F0.649
F0.038
I100
I100
tp46
sg9
F151.2802290916443
sg10
I100
sg11
I200
sa(dp47
g7
(F0.171
F0.691
F0.038
I100
I100
tp48
sg9
F229.34185910224915
sg10
I100
sg11
I300
sa(dp49
g7
(F0.171
F0.637
F0.038
I100
I100
tp50
sg9
F306.00531911849976
sg10
I100
sg11
I400
sa(dp51
g7
(F0.171
F0.632
F0.038
I100
I100
tp52
sg9
F382.23993015289307
sg10
I100
sg11
I500
satp53
Rp54
(dp55
g25
I01
sg26
g31
sg32
(lp56
I3
aI5
aI31
aI9
asg34
I6
sg35
g36
(g3
tp57
Rp58
sbsS'SPEA2'
p59
g2
(g3
g4
(lp60
(dp61
g7
(I0
I0
I0
I0
I0
tp62
sg9
F0.03867793083190918
sg10
I100
sg11
I0
sa(dp63
g7
g62
sg9
F89.2588279247284
sg10
I100
sg11
I100
sa(dp64
g7
g62
sg9
F202.70742988586426
sg10
I100
sg11
I200
sa(dp65
g7
g62
sg9
F321.0035889148712
sg10
I100
sg11
I300
sa(dp66
g7
g62
sg9
F441.85616183280945
sg10
I100
sg11
I400
sa(dp67
g7
g62
sg9
F565.6380200386047
sg10
I100
sg11
I500
satp68
Rp69
(dp70
g25
I01
sg26
g31
sg32
(lp71
I3
aI5
aI30
aI9
asg34
I6
sg35
g36
(g3
tp72
Rp73
sbsS'IBEA-PEN'
p74
g2
(g3
g4
(lp75
(dp76
g7
(F0.124
F0.752
F0.031
I23
I60
tp77
sg9
F0.12911105155944824
sg10
I100
sg11
I0
sa(dp78
g7
(F0.165
F0.736
F0.036
I54
I90
tp79
sg9
F10.145862102508545
sg10
I100
sg11
I100
sa(dp80
g7
(F0.167
F0.657
F0.033
I57
I89
tp81
sg9
F20.28159999847412
sg10
I100
sg11
I200
sa(dp82
g7
(F0.166
F0.775
F0.028
I49
I90
tp83
sg9
F30.407663106918335
sg10
I100
sg11
I300
sa(dp84
g7
(F0.165
F0.629
F0.032
I52
I91
tp85
sg9
F40.526013135910034
sg10
I100
sg11
I400
sa(dp86
g7
(F0.165
F0.627
F0.031
I53
I89
tp87
sg9
F50.68964600563049
sg10
I100
sg11
I500
satp88
Rp89
(dp90
g25
I01
sg26
g31
sg32
(lp91
I3
aI5
aI30
aI9
asg34
I6
sg35
g36
(g3
tp92
Rp93
sbsS'IBEA'
p94
g2
(g3
g4
(lp95
(dp96
g7
g62
sg9
F0.038368940353393555
sg10
I100
sg11
I0
sa(dp97
g7
g62
sg9
F8.23937201499939
sg10
I100
sg11
I100
sa(dp98
g7
g62
sg9
F16.519317865371704
sg10
I100
sg11
I200
sa(dp99
g7
g62
sg9
F24.798587799072266
sg10
I100
sg11
I300
sa(dp100
g7
g62
sg9
F33.095515966415405
sg10
I100
sg11
I400
sa(dp101
g7
g62
sg9
F41.39849901199341
sg10
I100
sg11
I500
satp102
Rp103
(dp104
g25
I01
sg26
g31
sg32
(lp105
I3
aI5
aI30
aI9
asg34
I6
sg35
g36
(g3
tp106
Rp107
sbsS'NSGA2'
p108
g2
(g3
g4
(lp109
(dp110
g7
g62
sg9
F0.03856301307678223
sg10
I100
sg11
I0
sa(dp111
g7
g62
sg9
F11.172745943069458
sg10
I100
sg11
I100
sa(dp112
g7
g62
sg9
F22.255604028701782
sg10
I100
sg11
I200
sa(dp113
g7
g62
sg9
F33.30631399154663
sg10
I100
sg11
I300
sa(dp114
g7
g62
sg9
F44.3937828540802
sg10
I100
sg11
I400
sa(dp115
g7
g62
sg9
F55.515279054641724
sg10
I100
sg11
I500
satp116
Rp117
(dp118
g25
I01
sg26
g31
sg32
(lp119
I3
aI5
aI30
aI9
asg34
I6
sg35
g36
(g3
tp120
Rp121
sbsS'IBEA-SIP'
p122
g2
(g3
g4
(lp123
(dp124
g7
(F0.097
F0.898
F0.038
I12
I17
tp125
sg9
F0.05114293098449707
sg10
I100
sg11
I0
sa(dp126
g7
(F0.171
F0.717
F0.036
I58
I100
tp127
sg9
F7.826032876968384
sg10
I100
sg11
I100
sa(dp128
g7
(F0.17
F0.661
F0.036
I72
I100
tp129
sg9
F16.010107040405273
sg10
I100
sg11
I200
sa(dp130
g7
(F0.17
F0.678
F0.036
I66
I100
tp131
sg9
F24.090764045715332
sg10
I100
sg11
I300
sa(dp132
g7
(F0.172
F0.652
F0.038
I59
I100
tp133
sg9
F32.152586936950684
sg10
I100
sg11
I400
sa(dp134
g7
(F0.168
F0.657
F0.037
I65
I100
tp135
sg9
F40.230748891830444
sg10
I100
sg11
I500
satp136
Rp137
(dp138
g25
I01
sg26
g31
sg32
(lp139
I3
aI5
aI30
aI9
asg34
I6
sg35
g36
(g3
tp140
Rp141
sbs.