(dp0
S'NSGA2-SIP'
p1
ccopy_reg
_reconstructor
p2
(cdeap.tools.support
Logbook
p3
c__builtin__
list
p4
(lp5
(dp6
S'hv|spread|igd|frontier#|valid#'
p7
(F0.091
F0.867
F0.036
I13
I20
tp8
sS'timestamp'
p9
F0.06064295768737793
sS'evals'
p10
I100
sS'gen'
p11
I0
sa(dp12
g7
(F0.172
F0.657
F0.033
I94
I100
tp13
sg9
F10.90867805480957
sg10
I100
sg11
I100
sa(dp14
g7
(F0.174
F0.609
F0.035
I98
I100
tp15
sg9
F21.99246907234192
sg10
I100
sg11
I200
sa(dp16
g7
(F0.179
F0.644
F0.034
I94
I100
tp17
sg9
F33.21737599372864
sg10
I100
sg11
I300
sa(dp18
g7
(F0.179
F0.604
F0.038
I96
I100
tp19
sg9
F44.36721897125244
sg10
I100
sg11
I400
sa(dp20
g7
(F0.18
F0.611
F0.037
I96
I100
tp21
sg9
F55.48181200027466
sg10
I100
sg11
I500
satp22
Rp23
(dp24
S'log_header'
p25
I01
sS'header'
p26
(S'gen'
p27
S'evals'
p28
S'hv|spread|igd|frontier#|valid#'
p29
S'timestamp'
p30
tp31
sS'columns_len'
p32
(lp33
I3
aI5
aI30
aI9
asS'buffindex'
p34
I6
sS'chapters'
p35
ccollections
defaultdict
p36
(g3
tp37
Rp38
sbsS'SPEA2-SIP'
p39
g2
(g3
g4
(lp40
(dp41
g7
(F0.103
F0.818
F0.032
I11
I23
tp42
sg9
F0.0560460090637207
sg10
I100
sg11
I0
sa(dp43
g7
(F0.168
F0.596
F0.034
I100
I100
tp44
sg9
F77.52717113494873
sg10
I100
sg11
I100
sa(dp45
g7
(F0.17
F0.579
F0.036
I100
I100
tp46
sg9
F161.85155200958252
sg10
I100
sg11
I200
sa(dp47
g7
(F0.17
F0.647
F0.036
I100
I100
tp48
sg9
F247.07632493972778
sg10
I100
sg11
I300
sa(dp49
g7
(F0.174
F0.627
F0.035
I100
I100
tp50
sg9
F332.7114109992981
sg10
I100
sg11
I400
sa(dp51
g7
(F0.176
F0.649
F0.037
I100
I100
tp52
sg9
F416.9859139919281
sg10
I100
sg11
I500
satp53
Rp54
(dp55
g25
I01
sg26
g31
sg32
(lp56
I3
aI5
aI31
aI9
asg34
I6
sg35
g36
(g3
tp57
Rp58
sbsS'SPEA2'
p59
g2
(g3
g4
(lp60
(dp61
g7
(I0
I0
I0
I0
I0
tp62
sg9
F0.04227590560913086
sg10
I100
sg11
I0
sa(dp63
g7
g62
sg9
F108.70192384719849
sg10
I100
sg11
I100
sa(dp64
g7
g62
sg9
F241.89090204238892
sg10
I100
sg11
I200
sa(dp65
g7
g62
sg9
F386.847993850708
sg10
I100
sg11
I300
sa(dp66
g7
g62
sg9
F537.8646540641785
sg10
I100
sg11
I400
sa(dp67
g7
g62
sg9
F683.8703000545502
sg10
I100
sg11
I500
satp68
Rp69
(dp70
g25
I01
sg26
g31
sg32
(lp71
I3
aI5
aI30
aI9
asg34
I6
sg35
g36
(g3
tp72
Rp73
sbsS'IBEA-PEN'
p74
g2
(g3
g4
(lp75
(dp76
g7
(F0.126
F0.748
F0.033
I31
I65
tp77
sg9
F0.17927098274230957
sg10
I100
sg11
I0
sa(dp78
g7
(F0.01
F2.651
F0.014
I1
I1
tp79
sg9
F9.138335943222046
sg10
I100
sg11
I100
sa(dp80
g7
(F0.01
F2.651
F0.014
I1
I1
tp81
sg9
F18.149024963378906
sg10
I100
sg11
I200
sa(dp82
g7
g62
sg9
F27.152411937713623
sg10
I100
sg11
I300
sa(dp83
g7
g62
sg9
F36.191468954086304
sg10
I100
sg11
I400
sa(dp84
g7
g62
sg9
F45.2281608581543
sg10
I100
sg11
I500
satp85
Rp86
(dp87
g25
I01
sg26
g31
sg32
(lp88
I3
aI5
aI30
aI9
asg34
I6
sg35
g36
(g3
tp89
Rp90
sbsS'IBEA'
p91
g2
(g3
g4
(lp92
(dp93
g7
g62
sg9
F0.04236912727355957
sg10
I100
sg11
I0
sa(dp94
g7
g62
sg9
F8.666200160980225
sg10
I100
sg11
I100
sa(dp95
g7
g62
sg9
F17.339293003082275
sg10
I100
sg11
I200
sa(dp96
g7
g62
sg9
F26.05312418937683
sg10
I100
sg11
I300
sa(dp97
g7
g62
sg9
F34.79823303222656
sg10
I100
sg11
I400
sa(dp98
g7
g62
sg9
F43.53851008415222
sg10
I100
sg11
I500
satp99
Rp100
(dp101
g25
I01
sg26
g31
sg32
(lp102
I3
aI5
aI30
aI9
asg34
I6
sg35
g36
(g3
tp103
Rp104
sbsS'NSGA2'
p105
g2
(g3
g4
(lp106
(dp107
g7
g62
sg9
F0.04191994667053223
sg10
I100
sg11
I0
sa(dp108
g7
g62
sg9
F12.657197952270508
sg10
I100
sg11
I100
sa(dp109
g7
g62
sg9
F25.2860369682312
sg10
I100
sg11
I200
sa(dp110
g7
g62
sg9
F37.9313759803772
sg10
I100
sg11
I300
sa(dp111
g7
g62
sg9
F50.52187705039978
sg10
I100
sg11
I400
sa(dp112
g7
g62
sg9
F63.04897093772888
sg10
I100
sg11
I500
satp113
Rp114
(dp115
g25
I01
sg26
g31
sg32
(lp116
I3
aI5
aI30
aI9
asg34
I6
sg35
g36
(g3
tp117
Rp118
sbsS'IBEA-SIP'
p119
g2
(g3
g4
(lp120
(dp121
g7
(F0.093
F0.869
F0.039
I12
I17
tp122
sg9
F0.05728602409362793
sg10
I100
sg11
I0
sa(dp123
g7
(F0.162
F0.651
F0.034
I70
I100
tp124
sg9
F8.353687047958374
sg10
I100
sg11
I100
sa(dp125
g7
(F0.172
F0.608
F0.035
I72
I100
tp126
sg9
F16.827522039413452
sg10
I100
sg11
I200
sa(dp127
g7
(F0.172
F0.633
F0.036
I66
I100
tp128
sg9
F25.26592707633972
sg10
I100
sg11
I300
sa(dp129
g7
(F0.174
F0.661
F0.035
I70
I100
tp130
sg9
F33.74331593513489
sg10
I100
sg11
I400
sa(dp131
g7
(F0.169
F0.654
F0.036
I61
I100
tp132
sg9
F42.14262104034424
sg10
I100
sg11
I500
satp133
Rp134
(dp135
g25
I01
sg26
g31
sg32
(lp136
I3
aI5
aI30
aI9
asg34
I6
sg35
g36
(g3
tp137
Rp138
sbs.