(dp0
S'NSGA2-SIP'
p1
ccopy_reg
_reconstructor
p2
(cdeap.tools.support
Logbook
p3
c__builtin__
list
p4
(lp5
(dp6
S'hv|spread|igd|frontier#|valid#'
p7
(F0.109
F0.855
F0.035
I11
I26
tp8
sS'timestamp'
p9
F0.0570521354675293
sS'evals'
p10
I100
sS'gen'
p11
I0
sa(dp12
g7
(F0.171
F0.736
F0.033
I94
I100
tp13
sg9
F10.786350011825562
sg10
I100
sg11
I100
sa(dp14
g7
(F0.176
F0.572
F0.034
I98
I100
tp15
sg9
F21.89171314239502
sg10
I100
sg11
I200
sa(dp16
g7
(F0.177
F0.587
F0.038
I99
I100
tp17
sg9
F33.22416710853577
sg10
I100
sg11
I300
sa(dp18
g7
(F0.179
F0.562
F0.038
I97
I100
tp19
sg9
F44.472673177719116
sg10
I100
sg11
I400
sa(dp20
g7
(F0.18
F0.597
F0.037
I98
I100
tp21
sg9
F55.78422498703003
sg10
I100
sg11
I500
satp22
Rp23
(dp24
S'log_header'
p25
I01
sS'header'
p26
(S'gen'
p27
S'evals'
p28
S'hv|spread|igd|frontier#|valid#'
p29
S'timestamp'
p30
tp31
sS'columns_len'
p32
(lp33
I3
aI5
aI30
aI9
asS'buffindex'
p34
I6
sS'chapters'
p35
ccollections
defaultdict
p36
(g3
tp37
Rp38
sbsS'SPEA2-SIP'
p39
g2
(g3
g4
(lp40
(dp41
g7
(F0.095
F0.848
F0.036
I17
I27
tp42
sg9
F0.07283592224121094
sg10
I100
sg11
I0
sa(dp43
g7
(F0.169
F0.655
F0.037
I100
I100
tp44
sg9
F75.29755687713623
sg10
I100
sg11
I100
sa(dp45
g7
(F0.171
F0.614
F0.038
I100
I100
tp46
sg9
F159.84572887420654
sg10
I100
sg11
I200
sa(dp47
g7
(F0.173
F0.602
F0.037
I100
I100
tp48
sg9
F245.68463587760925
sg10
I100
sg11
I300
sa(dp49
g7
(F0.174
F0.607
F0.037
I100
I100
tp50
sg9
F330.8344669342041
sg10
I100
sg11
I400
sa(dp51
g7
(F0.176
F0.621
F0.038
I100
I100
tp52
sg9
F413.87473797798157
sg10
I100
sg11
I500
satp53
Rp54
(dp55
g25
I01
sg26
g31
sg32
(lp56
I3
aI5
aI31
aI9
asg34
I6
sg35
g36
(g3
tp57
Rp58
sbsS'SPEA2'
p59
g2
(g3
g4
(lp60
(dp61
g7
(I0
I0
I0
I0
I0
tp62
sg9
F0.042968034744262695
sg10
I100
sg11
I0
sa(dp63
g7
g62
sg9
F102.46780395507812
sg10
I100
sg11
I100
sa(dp64
g7
g62
sg9
F234.713317155838
sg10
I100
sg11
I200
sa(dp65
g7
g62
sg9
F362.9793710708618
sg10
I100
sg11
I300
sa(dp66
g7
g62
sg9
F494.706885099411
sg10
I100
sg11
I400
sa(dp67
g7
g62
sg9
F630.0107231140137
sg10
I100
sg11
I500
satp68
Rp69
(dp70
g25
I01
sg26
g31
sg32
(lp71
I3
aI5
aI30
aI9
asg34
I6
sg35
g36
(g3
tp72
Rp73
sbsS'IBEA-PEN'
p74
g2
(g3
g4
(lp75
(dp76
g7
(F0.124
F0.746
F0.03
I26
I68
tp77
sg9
F0.16890597343444824
sg10
I100
sg11
I0
sa(dp78
g7
g62
sg9
F9.040045976638794
sg10
I100
sg11
I100
sa(dp79
g7
g62
sg9
F17.849339962005615
sg10
I100
sg11
I200
sa(dp80
g7
g62
sg9
F26.692420959472656
sg10
I100
sg11
I300
sa(dp81
g7
g62
sg9
F35.59866404533386
sg10
I100
sg11
I400
sa(dp82
g7
g62
sg9
F44.57718205451965
sg10
I100
sg11
I500
satp83
Rp84
(dp85
g25
I01
sg26
g31
sg32
(lp86
I3
aI5
aI30
aI9
asg34
I6
sg35
g36
(g3
tp87
Rp88
sbsS'IBEA'
p89
g2
(g3
g4
(lp90
(dp91
g7
g62
sg9
F0.042704105377197266
sg10
I100
sg11
I0
sa(dp92
g7
g62
sg9
F8.586750984191895
sg10
I100
sg11
I100
sa(dp93
g7
g62
sg9
F17.205615997314453
sg10
I100
sg11
I200
sa(dp94
g7
g62
sg9
F25.903669118881226
sg10
I100
sg11
I300
sa(dp95
g7
(F0.003
F2.759
F0.035
I1
I1
tp96
sg9
F34.65900421142578
sg10
I100
sg11
I400
sa(dp97
g7
(F0.003
F2.759
F0.045
I1
I1
tp98
sg9
F43.42810320854187
sg10
I100
sg11
I500
satp99
Rp100
(dp101
g25
I01
sg26
g31
sg32
(lp102
I3
aI5
aI30
aI9
asg34
I6
sg35
g36
(g3
tp103
Rp104
sbsS'NSGA2'
p105
g2
(g3
g4
(lp106
(dp107
g7
g62
sg9
F0.042429208755493164
sg10
I100
sg11
I0
sa(dp108
g7
g62
sg9
F12.448628187179565
sg10
I100
sg11
I100
sa(dp109
g7
g62
sg9
F24.8245050907135
sg10
I100
sg11
I200
sa(dp110
g7
g62
sg9
F37.24598503112793
sg10
I100
sg11
I300
sa(dp111
g7
g62
sg9
F49.71214509010315
sg10
I100
sg11
I400
sa(dp112
g7
g62
sg9
F62.050950050354004
sg10
I100
sg11
I500
satp113
Rp114
(dp115
g25
I01
sg26
g31
sg32
(lp116
I3
aI5
aI30
aI9
asg34
I6
sg35
g36
(g3
tp117
Rp118
sbsS'IBEA-SIP'
p119
g2
(g3
g4
(lp120
(dp121
g7
(F0.093
F0.932
F0.03
I11
I25
tp122
sg9
F0.05646395683288574
sg10
I100
sg11
I0
sa(dp123
g7
(F0.173
F0.75
F0.033
I59
I100
tp124
sg9
F8.229085922241211
sg10
I100
sg11
I100
sa(dp125
g7
(F0.175
F0.636
F0.038
I78
I100
tp126
sg9
F16.747917890548706
sg10
I100
sg11
I200
sa(dp127
g7
(F0.176
F0.617
F0.033
I70
I100
tp128
sg9
F25.168500900268555
sg10
I100
sg11
I300
sa(dp129
g7
(F0.165
F0.718
F0.036
I72
I100
tp130
sg9
F33.63188886642456
sg10
I100
sg11
I400
sa(dp131
g7
(F0.173
F0.698
F0.034
I72
I100
tp132
sg9
F42.09051585197449
sg10
I100
sg11
I500
satp133
Rp134
(dp135
g25
I01
sg26
g31
sg32
(lp136
I3
aI5
aI30
aI9
asg34
I6
sg35
g36
(g3
tp137
Rp138
sbs.