(dp0
S'NSGA2-SIP'
p1
ccopy_reg
_reconstructor
p2
(cdeap.tools.support
Logbook
p3
c__builtin__
list
p4
(lp5
(dp6
S'hv|spread|igd|frontier#|valid#'
p7
(F0.096
F0.693
F0.033
I17
I30
tp8
sS'timestamp'
p9
F0.06775689125061035
sS'evals'
p10
I100
sS'gen'
p11
I0
sa(dp12
g7
(F0.171
F0.635
F0.035
I94
I100
tp13
sg9
F8.955449104309082
sg10
I100
sg11
I100
sa(dp14
g7
(F0.177
F0.644
F0.035
I97
I100
tp15
sg9
F17.87244701385498
sg10
I100
sg11
I200
sa(dp16
g7
(F0.178
F0.629
F0.034
I97
I100
tp17
sg9
F26.92728590965271
sg10
I100
sg11
I300
sa(dp18
g7
(F0.18
F0.711
F0.036
I98
I100
tp19
sg9
F35.96099591255188
sg10
I100
sg11
I400
sa(dp20
g7
(F0.181
F0.604
F0.037
I99
I100
tp21
sg9
F45.07359004020691
sg10
I100
sg11
I500
satp22
Rp23
(dp24
S'log_header'
p25
I01
sS'header'
p26
(S'gen'
p27
S'evals'
p28
S'hv|spread|igd|frontier#|valid#'
p29
S'timestamp'
p30
tp31
sS'columns_len'
p32
(lp33
I3
aI5
aI30
aI9
asS'buffindex'
p34
I6
sS'chapters'
p35
ccollections
defaultdict
p36
(g3
tp37
Rp38
sbsS'SPEA2-SIP'
p39
g2
(g3
g4
(lp40
(dp41
g7
(F0.091
F0.843
F0.043
I18
I26
tp42
sg9
F0.06930899620056152
sg10
I100
sg11
I0
sa(dp43
g7
(F0.168
F0.674
F0.034
I100
I100
tp44
sg9
F61.980205059051514
sg10
I100
sg11
I100
sa(dp45
g7
(F0.17
F0.638
F0.035
I100
I100
tp46
sg9
F132.66445016860962
sg10
I100
sg11
I200
sa(dp47
g7
(F0.173
F0.658
F0.039
I100
I100
tp48
sg9
F203.66682195663452
sg10
I100
sg11
I300
sa(dp49
g7
(F0.175
F0.665
F0.039
I100
I100
tp50
sg9
F277.5474970340729
sg10
I100
sg11
I400
sa(dp51
g7
(F0.177
F0.639
F0.038
I100
I100
tp52
sg9
F350.13161516189575
sg10
I100
sg11
I500
satp53
Rp54
(dp55
g25
I01
sg26
g31
sg32
(lp56
I3
aI5
aI31
aI9
asg34
I6
sg35
g36
(g3
tp57
Rp58
sbsS'SPEA2'
p59
g2
(g3
g4
(lp60
(dp61
g7
(I0
I0
I0
I0
I0
tp62
sg9
F0.038787126541137695
sg10
I100
sg11
I0
sa(dp63
g7
g62
sg9
F81.85490298271179
sg10
I100
sg11
I100
sa(dp64
g7
g62
sg9
F187.28622007369995
sg10
I100
sg11
I200
sa(dp65
g7
g62
sg9
F297.1626880168915
sg10
I100
sg11
I300
sa(dp66
g7
g62
sg9
F410.1895670890808
sg10
I100
sg11
I400
sa(dp67
g7
g62
sg9
F520.5294909477234
sg10
I100
sg11
I500
satp68
Rp69
(dp70
g25
I01
sg26
g31
sg32
(lp71
I3
aI5
aI30
aI9
asg34
I6
sg35
g36
(g3
tp72
Rp73
sbsS'IBEA'
p74
g2
(g3
g4
(lp75
(dp76
g7
g62
sg9
F0.05574202537536621
sg10
I100
sg11
I0
sa(dp77
g7
g62
sg9
F7.760546922683716
sg10
I100
sg11
I100
sa(dp78
g7
g62
sg9
F15.326987981796265
sg10
I100
sg11
I200
sa(dp79
g7
g62
sg9
F22.919379949569702
sg10
I100
sg11
I300
sa(dp80
g7
g62
sg9
F30.50454092025757
sg10
I100
sg11
I400
sa(dp81
g7
g62
sg9
F38.132483959198
sg10
I100
sg11
I500
satp82
Rp83
(dp84
g25
I01
sg26
g31
sg32
(lp85
I3
aI5
aI30
aI9
asg34
I6
sg35
g36
(g3
tp86
Rp87
sbsS'NSGA2'
p88
g2
(g3
g4
(lp89
(dp90
g7
g62
sg9
F0.0384678840637207
sg10
I100
sg11
I0
sa(dp91
g7
g62
sg9
F10.176400899887085
sg10
I100
sg11
I100
sa(dp92
g7
g62
sg9
F20.082522869110107
sg10
I100
sg11
I200
sa(dp93
g7
g62
sg9
F30.006752014160156
sg10
I100
sg11
I300
sa(dp94
g7
g62
sg9
F40.134100914001465
sg10
I100
sg11
I400
sa(dp95
g7
g62
sg9
F50.0292010307312
sg10
I100
sg11
I500
satp96
Rp97
(dp98
g25
I01
sg26
g31
sg32
(lp99
I3
aI5
aI30
aI9
asg34
I6
sg35
g36
(g3
tp100
Rp101
sbsS'IBEA-SIP'
p102
g2
(g3
g4
(lp103
(dp104
g7
(F0.106
F0.615
F0.027
I15
I30
tp105
sg9
F0.06284594535827637
sg10
I100
sg11
I0
sa(dp106
g7
(F0.173
F0.731
F0.036
I70
I100
tp107
sg9
F7.419339895248413
sg10
I100
sg11
I100
sa(dp108
g7
(F0.172
F0.597
F0.037
I71
I100
tp109
sg9
F14.74044394493103
sg10
I100
sg11
I200
sa(dp110
g7
(F0.169
F0.688
F0.035
I81
I100
tp111
sg9
F22.165223836898804
sg10
I100
sg11
I300
sa(dp112
g7
(F0.172
F0.636
F0.03
I71
I100
tp113
sg9
F29.51268482208252
sg10
I100
sg11
I400
sa(dp114
g7
(F0.172
F0.722
F0.035
I65
I100
tp115
sg9
F36.816521883010864
sg10
I100
sg11
I500
satp116
Rp117
(dp118
g25
I01
sg26
g31
sg32
(lp119
I3
aI5
aI30
aI9
asg34
I6
sg35
g36
(g3
tp120
Rp121
sbs.