(dp0
S'NSGA2-SIP'
p1
ccopy_reg
_reconstructor
p2
(cdeap.tools.support
Logbook
p3
c__builtin__
list
p4
(lp5
(dp6
S'hv|spread|igd|frontier#|valid#'
p7
(F0.101
F0.786
F0.042
I13
I24
tp8
sS'timestamp'
p9
F0.0617218017578125
sS'evals'
p10
I100
sS'gen'
p11
I0
sa(dp12
g7
(F0.17
F0.622
F0.034
I96
I100
tp13
sg9
F10.947575807571411
sg10
I100
sg11
I100
sa(dp14
g7
(F0.173
F0.626
F0.035
I97
I100
tp15
sg9
F21.949123859405518
sg10
I100
sg11
I200
sa(dp16
g7
(F0.175
F0.649
F0.038
I93
I100
tp17
sg9
F32.896230936050415
sg10
I100
sg11
I300
sa(dp18
g7
(F0.175
F0.758
F0.038
I95
I100
tp19
sg9
F43.9311158657074
sg10
I100
sg11
I400
sa(dp20
g7
(F0.175
F0.702
F0.036
I92
I100
tp21
sg9
F54.97321796417236
sg10
I100
sg11
I500
satp22
Rp23
(dp24
S'log_header'
p25
I01
sS'header'
p26
(S'gen'
p27
S'evals'
p28
S'hv|spread|igd|frontier#|valid#'
p29
S'timestamp'
p30
tp31
sS'columns_len'
p32
(lp33
I3
aI5
aI30
aI9
asS'buffindex'
p34
I6
sS'chapters'
p35
ccollections
defaultdict
p36
(g3
tp37
Rp38
sbsS'SPEA2-SIP'
p39
g2
(g3
g4
(lp40
(dp41
g7
(F0.089
F0.878
F0.037
I11
I14
tp42
sg9
F0.05381512641906738
sg10
I100
sg11
I0
sa(dp43
g7
(F0.165
F0.615
F0.036
I100
I100
tp44
sg9
F79.28737211227417
sg10
I100
sg11
I100
sa(dp45
g7
(F0.169
F0.623
F0.037
I100
I100
tp46
sg9
F165.79550290107727
sg10
I100
sg11
I200
sa(dp47
g7
(F0.171
F0.609
F0.038
I100
I100
tp48
sg9
F252.25203108787537
sg10
I100
sg11
I300
sa(dp49
g7
(F0.174
F0.675
F0.039
I100
I100
tp50
sg9
F340.0480709075928
sg10
I100
sg11
I400
sa(dp51
g7
(F0.174
F0.667
F0.038
I100
I100
tp52
sg9
F425.66758704185486
sg10
I100
sg11
I500
satp53
Rp54
(dp55
g25
I01
sg26
g31
sg32
(lp56
I3
aI5
aI31
aI9
asg34
I6
sg35
g36
(g3
tp57
Rp58
sbsS'SPEA2'
p59
g2
(g3
g4
(lp60
(dp61
g7
(I0
I0
I0
I0
I0
tp62
sg9
F0.04274392127990723
sg10
I100
sg11
I0
sa(dp63
g7
g62
sg9
F103.64709496498108
sg10
I100
sg11
I100
sa(dp64
g7
g62
sg9
F229.89151191711426
sg10
I100
sg11
I200
sa(dp65
g7
g62
sg9
F355.2507059574127
sg10
I100
sg11
I300
sa(dp66
g7
g62
sg9
F479.8508610725403
sg10
I100
sg11
I400
sa(dp67
g7
g62
sg9
F615.9551720619202
sg10
I100
sg11
I500
satp68
Rp69
(dp70
g25
I01
sg26
g31
sg32
(lp71
I3
aI5
aI30
aI9
asg34
I6
sg35
g36
(g3
tp72
Rp73
sbsS'IBEA-PEN'
p74
g2
(g3
g4
(lp75
(dp76
g7
(F0.139
F0.789
F0.027
I32
I71
tp77
sg9
F0.19025492668151855
sg10
I100
sg11
I0
sa(dp78
g7
(F0.02
F2.599
F0.032
I1
I1
tp79
sg9
F8.95325493812561
sg10
I100
sg11
I100
sa(dp80
g7
g62
sg9
F17.704441785812378
sg10
I100
sg11
I200
sa(dp81
g7
g62
sg9
F26.42725682258606
sg10
I100
sg11
I300
sa(dp82
g7
g62
sg9
F35.23703479766846
sg10
I100
sg11
I400
sa(dp83
g7
g62
sg9
F44.10272288322449
sg10
I100
sg11
I500
satp84
Rp85
(dp86
g25
I01
sg26
g31
sg32
(lp87
I3
aI5
aI30
aI9
asg34
I6
sg35
g36
(g3
tp88
Rp89
sbsS'IBEA'
p90
g2
(g3
g4
(lp91
(dp92
g7
g62
sg9
F0.042183876037597656
sg10
I100
sg11
I0
sa(dp93
g7
g62
sg9
F8.582787990570068
sg10
I100
sg11
I100
sa(dp94
g7
g62
sg9
F17.218488931655884
sg10
I100
sg11
I200
sa(dp95
g7
g62
sg9
F25.852593898773193
sg10
I100
sg11
I300
sa(dp96
g7
g62
sg9
F34.48155498504639
sg10
I100
sg11
I400
sa(dp97
g7
g62
sg9
F43.11644887924194
sg10
I100
sg11
I500
satp98
Rp99
(dp100
g25
I01
sg26
g31
sg32
(lp101
I3
aI5
aI30
aI9
asg34
I6
sg35
g36
(g3
tp102
Rp103
sbsS'NSGA2'
p104
g2
(g3
g4
(lp105
(dp106
g7
g62
sg9
F0.04226112365722656
sg10
I100
sg11
I0
sa(dp107
g7
g62
sg9
F12.716686010360718
sg10
I100
sg11
I100
sa(dp108
g7
g62
sg9
F25.30538511276245
sg10
I100
sg11
I200
sa(dp109
g7
g62
sg9
F37.781652212142944
sg10
I100
sg11
I300
sa(dp110
g7
g62
sg9
F50.37573599815369
sg10
I100
sg11
I400
sa(dp111
g7
g62
sg9
F63.00121307373047
sg10
I100
sg11
I500
satp112
Rp113
(dp114
g25
I01
sg26
g31
sg32
(lp115
I3
aI5
aI30
aI9
asg34
I6
sg35
g36
(g3
tp116
Rp117
sbsS'IBEA-SIP'
p118
g2
(g3
g4
(lp119
(dp120
g7
(F0.094
F0.851
F0.035
I16
I30
tp121
sg9
F0.07145285606384277
sg10
I100
sg11
I0
sa(dp122
g7
(F0.172
F0.772
F0.034
I66
I100
tp123
sg9
F8.376191854476929
sg10
I100
sg11
I100
sa(dp124
g7
(F0.174
F0.677
F0.032
I73
I100
tp125
sg9
F16.792381048202515
sg10
I100
sg11
I200
sa(dp126
g7
(F0.17
F0.645
F0.034
I67
I100
tp127
sg9
F25.171061038970947
sg10
I100
sg11
I300
sa(dp128
g7
(F0.175
F0.588
F0.032
I70
I100
tp129
sg9
F33.634690046310425
sg10
I100
sg11
I400
sa(dp130
g7
(F0.171
F0.746
F0.034
I67
I100
tp131
sg9
F42.017005920410156
sg10
I100
sg11
I500
satp132
Rp133
(dp134
g25
I01
sg26
g31
sg32
(lp135
I3
aI5
aI30
aI9
asg34
I6
sg35
g36
(g3
tp136
Rp137
sbs.