(dp0
S'NSGA2-SIP'
p1
ccopy_reg
_reconstructor
p2
(cdeap.tools.support
Logbook
p3
c__builtin__
list
p4
(lp5
(dp6
S'hv|spread|igd|frontier#|valid#'
p7
(F0.105
F0.747
F0.03
I14
I30
tp8
sS'timestamp'
p9
F0.06050586700439453
sS'evals'
p10
I100
sS'gen'
p11
I0
sa(dp12
g7
(F0.177
F0.597
F0.033
I94
I100
tp13
sg9
F9.135466814041138
sg10
I100
sg11
I100
sa(dp14
g7
(F0.178
F0.599
F0.033
I96
I100
tp15
sg9
F18.026668787002563
sg10
I100
sg11
I200
sa(dp16
g7
(F0.179
F0.628
F0.034
I98
I100
tp17
sg9
F27.006857872009277
sg10
I100
sg11
I300
sa(dp18
g7
(F0.181
F0.629
F0.035
I98
I100
tp19
sg9
F36.03123879432678
sg10
I100
sg11
I400
sa(dp20
g7
(F0.182
F0.587
F0.036
I97
I100
tp21
sg9
F45.13644790649414
sg10
I100
sg11
I500
satp22
Rp23
(dp24
S'log_header'
p25
I01
sS'header'
p26
(S'gen'
p27
S'evals'
p28
S'hv|spread|igd|frontier#|valid#'
p29
S'timestamp'
p30
tp31
sS'columns_len'
p32
(lp33
I3
aI5
aI30
aI9
asS'buffindex'
p34
I6
sS'chapters'
p35
ccollections
defaultdict
p36
(g3
tp37
Rp38
sbsS'SPEA2-SIP'
p39
g2
(g3
g4
(lp40
(dp41
g7
(F0.093
F0.849
F0.035
I10
I16
tp42
sg9
F0.047261953353881836
sg10
I100
sg11
I0
sa(dp43
g7
(F0.171
F0.638
F0.035
I100
I100
tp44
sg9
F66.01166105270386
sg10
I100
sg11
I100
sa(dp45
g7
(F0.173
F0.641
F0.037
I100
I100
tp46
sg9
F135.9263050556183
sg10
I100
sg11
I200
sa(dp47
g7
(F0.174
F0.635
F0.037
I100
I100
tp48
sg9
F206.43764114379883
sg10
I100
sg11
I300
sa(dp49
g7
(F0.175
F0.617
F0.039
I100
I100
tp50
sg9
F278.69565200805664
sg10
I100
sg11
I400
sa(dp51
g7
(F0.176
F0.731
F0.039
I100
I100
tp52
sg9
F350.3925030231476
sg10
I100
sg11
I500
satp53
Rp54
(dp55
g25
I01
sg26
g31
sg32
(lp56
I3
aI5
aI31
aI9
asg34
I6
sg35
g36
(g3
tp57
Rp58
sbsS'SPEA2'
p59
g2
(g3
g4
(lp60
(dp61
g7
(I0
I0
I0
I0
I0
tp62
sg9
F0.038877010345458984
sg10
I100
sg11
I0
sa(dp63
g7
g62
sg9
F83.57243490219116
sg10
I100
sg11
I100
sa(dp64
g7
g62
sg9
F186.6465039253235
sg10
I100
sg11
I200
sa(dp65
g7
g62
sg9
F293.91473293304443
sg10
I100
sg11
I300
sa(dp66
g7
g62
sg9
F401.5845990180969
sg10
I100
sg11
I400
sa(dp67
g7
g62
sg9
F513.8788928985596
sg10
I100
sg11
I500
satp68
Rp69
(dp70
g25
I01
sg26
g31
sg32
(lp71
I3
aI5
aI30
aI9
asg34
I6
sg35
g36
(g3
tp72
Rp73
sbsS'IBEA-PEN'
p74
g2
(g3
g4
(lp75
(dp76
g7
(F0.145
F0.621
F0.026
I30
I76
tp77
sg9
F0.16527199745178223
sg10
I100
sg11
I0
sa(dp78
g7
(F0.009
F2.677
F0.032
I1
I1
tp79
sg9
F7.90264892578125
sg10
I100
sg11
I100
sa(dp80
g7
g62
sg9
F15.482862949371338
sg10
I100
sg11
I200
sa(dp81
g7
(F0.006
F2.745
F0.02
I1
I1
tp82
sg9
F23.061214923858643
sg10
I100
sg11
I300
sa(dp83
g7
(F0.006
F2.745
F0.02
I1
I1
tp84
sg9
F30.695379972457886
sg10
I100
sg11
I400
sa(dp85
g7
(F0.006
F2.745
F0.02
I1
I1
tp86
sg9
F38.374961853027344
sg10
I100
sg11
I500
satp87
Rp88
(dp89
g25
I01
sg26
g31
sg32
(lp90
I3
aI5
aI30
aI9
asg34
I6
sg35
g36
(g3
tp91
Rp92
sbsS'IBEA'
p93
g2
(g3
g4
(lp94
(dp95
g7
g62
sg9
F0.0544888973236084
sg10
I100
sg11
I0
sa(dp96
g7
g62
sg9
F7.627454996109009
sg10
I100
sg11
I100
sa(dp97
g7
g62
sg9
F15.054193019866943
sg10
I100
sg11
I200
sa(dp98
g7
g62
sg9
F22.50437903404236
sg10
I100
sg11
I300
sa(dp99
g7
g62
sg9
F29.964871883392334
sg10
I100
sg11
I400
sa(dp100
g7
g62
sg9
F37.428995847702026
sg10
I100
sg11
I500
satp101
Rp102
(dp103
g25
I01
sg26
g31
sg32
(lp104
I3
aI5
aI30
aI9
asg34
I6
sg35
g36
(g3
tp105
Rp106
sbsS'NSGA2'
p107
g2
(g3
g4
(lp108
(dp109
g7
g62
sg9
F0.038450002670288086
sg10
I100
sg11
I0
sa(dp110
g7
g62
sg9
F10.200569868087769
sg10
I100
sg11
I100
sa(dp111
g7
g62
sg9
F20.171066999435425
sg10
I100
sg11
I200
sa(dp112
g7
g62
sg9
F30.141807794570923
sg10
I100
sg11
I300
sa(dp113
g7
g62
sg9
F40.07954692840576
sg10
I100
sg11
I400
sa(dp114
g7
g62
sg9
F50.01761984825134
sg10
I100
sg11
I500
satp115
Rp116
(dp117
g25
I01
sg26
g31
sg32
(lp118
I3
aI5
aI30
aI9
asg34
I6
sg35
g36
(g3
tp119
Rp120
sbsS'IBEA-SIP'
p121
g2
(g3
g4
(lp122
(dp123
g7
(F0.101
F0.874
F0.035
I16
I22
tp124
sg9
F0.062439918518066406
sg10
I100
sg11
I0
sa(dp125
g7
(F0.173
F0.693
F0.038
I68
I100
tp126
sg9
F7.309939861297607
sg10
I100
sg11
I100
sa(dp127
g7
(F0.174
F0.724
F0.033
I65
I100
tp128
sg9
F14.547482013702393
sg10
I100
sg11
I200
sa(dp129
g7
(F0.177
F0.585
F0.036
I69
I100
tp130
sg9
F21.706873893737793
sg10
I100
sg11
I300
sa(dp131
g7
(F0.173
F0.7
F0.038
I63
I100
tp132
sg9
F28.874363899230957
sg10
I100
sg11
I400
sa(dp133
g7
(F0.174
F0.605
F0.035
I65
I100
tp134
sg9
F36.070570945739746
sg10
I100
sg11
I500
satp135
Rp136
(dp137
g25
I01
sg26
g31
sg32
(lp138
I3
aI5
aI30
aI9
asg34
I6
sg35
g36
(g3
tp139
Rp140
sbs.