(dp0
S'NSGA2-SIP'
p1
ccopy_reg
_reconstructor
p2
(cdeap.tools.support
Logbook
p3
c__builtin__
list
p4
(lp5
(dp6
S'hv|spread|igd|frontier#|valid#'
p7
(F0.091
F0.794
F0.037
I10
I20
tp8
sS'timestamp'
p9
F0.04833483695983887
sS'evals'
p10
I100
sS'gen'
p11
I0
sa(dp12
g7
(F0.173
F0.676
F0.032
I90
I100
tp13
sg9
F9.598148822784424
sg10
I100
sg11
I100
sa(dp14
g7
(F0.175
F0.688
F0.034
I95
I100
tp15
sg9
F19.425282955169678
sg10
I100
sg11
I200
sa(dp16
g7
(F0.178
F0.653
F0.033
I99
I100
tp17
sg9
F29.55386996269226
sg10
I100
sg11
I300
sa(dp18
g7
(F0.18
F0.65
F0.035
I97
I100
tp19
sg9
F39.79040288925171
sg10
I100
sg11
I400
sa(dp20
g7
(F0.182
F0.615
F0.034
I98
I100
tp21
sg9
F50.053810834884644
sg10
I100
sg11
I500
satp22
Rp23
(dp24
S'log_header'
p25
I01
sS'header'
p26
(S'gen'
p27
S'evals'
p28
g7
S'timestamp'
p29
tp30
sS'columns_len'
p31
(lp32
I3
aI5
aI30
aI9
asS'buffindex'
p33
I6
sS'chapters'
p34
ccollections
defaultdict
p35
(g3
tp36
Rp37
sbsS'SPEA2-SIP'
p38
g2
(g3
g4
(lp39
(dp40
g7
(F0.094
F0.833
F0.033
I16
I25
tp41
sg9
F0.06495118141174316
sg10
I100
sg11
I0
sa(dp42
g7
(F0.172
F0.609
F0.035
I100
I100
tp43
sg9
F77.26262617111206
sg10
I100
sg11
I100
sa(dp44
g7
(F0.174
F0.608
F0.036
I100
I100
tp45
sg9
F159.12662601470947
sg10
I100
sg11
I200
sa(dp46
g7
(F0.174
F0.605
F0.038
I100
I100
tp47
sg9
F241.41251516342163
sg10
I100
sg11
I300
sa(dp48
g7
(F0.175
F0.648
F0.038
I100
I100
tp49
sg9
F324.69954800605774
sg10
I100
sg11
I400
sa(dp50
g7
(F0.177
F0.583
F0.038
I100
I100
tp51
sg9
F410.2567410469055
sg10
I100
sg11
I500
satp52
Rp53
(dp54
g25
I01
sg26
g30
sg31
(lp55
I3
aI5
aI31
aI9
asg33
I6
sg34
g35
(g3
tp56
Rp57
sbsS'SPEA2'
p58
g2
(g3
g4
(lp59
(dp60
g7
(I0
I0
I0
I0
I0
tp61
sg9
F0.039649009704589844
sg10
I100
sg11
I0
sa(dp62
g7
g61
sg9
F101.10185194015503
sg10
I100
sg11
I100
sa(dp63
g7
g61
sg9
F212.7538080215454
sg10
I100
sg11
I200
sa(dp64
g7
g61
sg9
F326.68812584877014
sg10
I100
sg11
I300
sa(dp65
g7
g61
sg9
F436.94480085372925
sg10
I100
sg11
I400
sa(dp66
g7
g61
sg9
F556.4321999549866
sg10
I100
sg11
I500
satp67
Rp68
(dp69
g25
I01
sg26
g30
sg31
(lp70
I3
aI5
aI30
aI9
asg33
I6
sg34
g35
(g3
tp71
Rp72
sbsS'IBEA'
p73
g2
(g3
g4
(lp74
(dp75
g7
g61
sg9
F0.039489030838012695
sg10
I100
sg11
I0
sa(dp76
g7
g61
sg9
F8.50316596031189
sg10
I100
sg11
I100
sa(dp77
g7
g61
sg9
F17.027796983718872
sg10
I100
sg11
I200
sa(dp78
g7
g61
sg9
F25.584903955459595
sg10
I100
sg11
I300
sa(dp79
g7
g61
sg9
F34.17263698577881
sg10
I100
sg11
I400
sa(dp80
g7
g61
sg9
F42.69868612289429
sg10
I100
sg11
I500
satp81
Rp82
(dp83
g25
I01
sg26
g30
sg31
(lp84
I3
aI5
aI30
aI9
asg33
I6
sg34
g35
(g3
tp85
Rp86
sbsS'NSGA2'
p87
g2
(g3
g4
(lp88
(dp89
g7
g61
sg9
F0.03918123245239258
sg10
I100
sg11
I0
sa(dp90
g7
g61
sg9
F11.352397203445435
sg10
I100
sg11
I100
sa(dp91
g7
g61
sg9
F22.598239183425903
sg10
I100
sg11
I200
sa(dp92
g7
g61
sg9
F33.867629051208496
sg10
I100
sg11
I300
sa(dp93
g7
g61
sg9
F45.106810092926025
sg10
I100
sg11
I400
sa(dp94
g7
g61
sg9
F56.340588092803955
sg10
I100
sg11
I500
satp95
Rp96
(dp97
g25
I01
sg26
g30
sg31
(lp98
I3
aI5
aI30
aI9
asg33
I6
sg34
g35
(g3
tp99
Rp100
sbsS'IBEA-SIP'
p101
g2
(g3
g4
(lp102
(dp103
g7
(F0.087
F0.923
F0.042
I12
I20
tp104
sg9
F0.05366802215576172
sg10
I100
sg11
I0
sa(dp105
g7
(F0.172
F0.689
F0.034
I70
I100
tp106
sg9
F8.189864158630371
sg10
I100
sg11
I100
sa(dp107
g7
(F0.172
F0.737
F0.035
I78
I100
tp108
sg9
F16.481768131256104
sg10
I100
sg11
I200
sa(dp109
g7
(F0.174
F0.667
F0.036
I76
I100
tp110
sg9
F24.71329402923584
sg10
I100
sg11
I300
sa(dp111
g7
(F0.173
F0.717
F0.036
I64
I100
tp112
sg9
F32.88864803314209
sg10
I100
sg11
I400
sa(dp113
g7
(F0.173
F0.699
F0.037
I68
I100
tp114
sg9
F41.09325814247131
sg10
I100
sg11
I500
satp115
Rp116
(dp117
g25
I01
sg26
g30
sg31
(lp118
I3
aI5
aI30
aI9
asg33
I6
sg34
g35
(g3
tp119
Rp120
sbs.