(dp0
S'NSGA2-SIP'
p1
ccopy_reg
_reconstructor
p2
(cdeap.tools.support
Logbook
p3
c__builtin__
list
p4
(lp5
(dp6
S'hv|spread|igd|frontier#|valid#'
p7
(F0.107
F0.84
F0.041
I14
I16
tp8
sS'timestamp'
p9
F0.06474900245666504
sS'evals'
p10
I100
sS'gen'
p11
I0
sa(dp12
g7
(F0.2
F0.678
F0.029
I97
I100
tp13
sg9
F8.529990196228027
sg10
I100
sg11
I100
sa(dp14
g7
(F0.202
F0.572
F0.031
I98
I100
tp15
sg9
F16.896462202072144
sg10
I100
sg11
I200
sa(dp16
g7
(F0.203
F0.592
F0.03
I96
I100
tp17
sg9
F25.285503149032593
sg10
I100
sg11
I300
sa(dp18
g7
(F0.204
F0.61
F0.03
I97
I100
tp19
sg9
F33.650511026382446
sg10
I100
sg11
I400
sa(dp20
g7
(F0.207
F0.646
F0.033
I98
I100
tp21
sg9
F41.93311619758606
sg10
I100
sg11
I500
satp22
Rp23
(dp24
S'log_header'
p25
I01
sS'header'
p26
(S'gen'
p27
S'evals'
p28
S'hv|spread|igd|frontier#|valid#'
p29
S'timestamp'
p30
tp31
sS'columns_len'
p32
(lp33
I3
aI5
aI30
aI9
asS'buffindex'
p34
I6
sS'chapters'
p35
ccollections
defaultdict
p36
(g3
tp37
Rp38
sbsS'SPEA2-SIP'
p39
g2
(g3
g4
(lp40
(dp41
g7
(F0.108
F0.71
F0.036
I16
I21
tp42
sg9
F0.07235598564147949
sg10
I100
sg11
I0
sa(dp43
g7
(F0.202
F0.66
F0.033
I100
I100
tp44
sg9
F74.35906600952148
sg10
I100
sg11
I100
sa(dp45
g7
(F0.204
F0.583
F0.033
I100
I100
tp46
sg9
F153.87830209732056
sg10
I100
sg11
I200
sa(dp47
g7
(F0.207
F0.671
F0.035
I100
I100
tp48
sg9
F231.63722896575928
sg10
I100
sg11
I300
sa(dp49
g7
(F0.208
F0.603
F0.036
I100
I100
tp50
sg9
F310.31166100502014
sg10
I100
sg11
I400
sa(dp51
g7
(F0.208
F0.644
F0.035
I100
I100
tp52
sg9
F390.1999599933624
sg10
I100
sg11
I500
satp53
Rp54
(dp55
g25
I01
sg26
g31
sg32
(lp56
I3
aI5
aI31
aI9
asg34
I6
sg35
g36
(g3
tp57
Rp58
sbsS'SPEA2'
p59
g2
(g3
g4
(lp60
(dp61
g7
(I0
I0
I0
I0
I0
tp62
sg9
F0.03083515167236328
sg10
I100
sg11
I0
sa(dp63
g7
g62
sg9
F102.81025505065918
sg10
I100
sg11
I100
sa(dp64
g7
g62
sg9
F223.35587215423584
sg10
I100
sg11
I200
sa(dp65
g7
g62
sg9
F341.9935381412506
sg10
I100
sg11
I300
sa(dp66
g7
g62
sg9
F455.078644990921
sg10
I100
sg11
I400
sa(dp67
g7
g62
sg9
F567.9814732074738
sg10
I100
sg11
I500
satp68
Rp69
(dp70
g25
I01
sg26
g31
sg32
(lp71
I3
aI5
aI30
aI9
asg34
I6
sg35
g36
(g3
tp72
Rp73
sbsS'IBEA'
p74
g2
(g3
g4
(lp75
(dp76
g7
g62
sg9
F0.030781984329223633
sg10
I100
sg11
I0
sa(dp77
g7
g62
sg9
F7.207098960876465
sg10
I100
sg11
I100
sa(dp78
g7
(F0.077
F2.407
F0.071
I1
I1
tp79
sg9
F14.46939992904663
sg10
I100
sg11
I200
sa(dp80
g7
(F0.083
F2.385
F0.048
I1
I1
tp81
sg9
F21.712144136428833
sg10
I100
sg11
I300
sa(dp82
g7
g62
sg9
F28.94868493080139
sg10
I100
sg11
I400
sa(dp83
g7
g62
sg9
F36.188740968704224
sg10
I100
sg11
I500
satp84
Rp85
(dp86
g25
I01
sg26
g31
sg32
(lp87
I3
aI5
aI30
aI9
asg34
I6
sg35
g36
(g3
tp88
Rp89
sbsS'NSGA2'
p90
g2
(g3
g4
(lp91
(dp92
g7
g62
sg9
F0.031579017639160156
sg10
I100
sg11
I0
sa(dp93
g7
g62
sg9
F9.689169883728027
sg10
I100
sg11
I100
sa(dp94
g7
g62
sg9
F19.24302387237549
sg10
I100
sg11
I200
sa(dp95
g7
g62
sg9
F28.742258071899414
sg10
I100
sg11
I300
sa(dp96
g7
g62
sg9
F38.28349494934082
sg10
I100
sg11
I400
sa(dp97
g7
g62
sg9
F47.80746793746948
sg10
I100
sg11
I500
satp98
Rp99
(dp100
g25
I01
sg26
g31
sg32
(lp101
I3
aI5
aI30
aI9
asg34
I6
sg35
g36
(g3
tp102
Rp103
sbsS'IBEA-SIP'
p104
g2
(g3
g4
(lp105
(dp106
g7
(F0.129
F0.607
F0.031
I14
I23
tp107
sg9
F0.06696009635925293
sg10
I100
sg11
I0
sa(dp108
g7
(F0.199
F0.709
F0.034
I67
I100
tp109
sg9
F6.724834203720093
sg10
I100
sg11
I100
sa(dp110
g7
(F0.203
F0.603
F0.039
I76
I100
tp111
sg9
F13.622511148452759
sg10
I100
sg11
I200
sa(dp112
g7
(F0.204
F0.657
F0.037
I65
I100
tp113
sg9
F20.366427183151245
sg10
I100
sg11
I300
sa(dp114
g7
(F0.203
F0.716
F0.037
I70
I100
tp115
sg9
F27.09001111984253
sg10
I100
sg11
I400
sa(dp116
g7
(F0.204
F0.68
F0.036
I63
I100
tp117
sg9
F33.79687714576721
sg10
I100
sg11
I500
satp118
Rp119
(dp120
g25
I01
sg26
g31
sg32
(lp121
I3
aI5
aI30
aI9
asg34
I6
sg35
g36
(g3
tp122
Rp123
sbs.