(dp0
S'NSGA2-SIP'
p1
ccopy_reg
_reconstructor
p2
(cdeap.tools.support
Logbook
p3
c__builtin__
list
p4
(lp5
(dp6
S'hv|spread|igd|frontier#|valid#'
p7
(F0.1
F0.875
F0.038
I10
I15
tp8
sS'timestamp'
p9
F0.062132835388183594
sS'evals'
p10
I100
sS'gen'
p11
I0
sa(dp12
g7
(F0.197
F0.574
F0.029
I98
I100
tp13
sg9
F9.71248984336853
sg10
I100
sg11
I100
sa(dp14
g7
(F0.201
F0.613
F0.029
I96
I100
tp15
sg9
F19.401177883148193
sg10
I100
sg11
I200
sa(dp16
g7
(F0.206
F0.653
F0.033
I96
I100
tp17
sg9
F29.166736841201782
sg10
I100
sg11
I300
sa(dp18
g7
(F0.206
F0.59
F0.03
I98
I100
tp19
sg9
F38.93058800697327
sg10
I100
sg11
I400
sa(dp20
g7
(F0.208
F0.548
F0.033
I99
I100
tp21
sg9
F48.74165892601013
sg10
I100
sg11
I500
satp22
Rp23
(dp24
S'log_header'
p25
I01
sS'header'
p26
(S'gen'
p27
S'evals'
p28
S'hv|spread|igd|frontier#|valid#'
p29
S'timestamp'
p30
tp31
sS'columns_len'
p32
(lp33
I3
aI5
aI30
aI9
asS'buffindex'
p34
I6
sS'chapters'
p35
ccollections
defaultdict
p36
(g3
tp37
Rp38
sbsS'SPEA2-SIP'
p39
g2
(g3
g4
(lp40
(dp41
g7
(F0.108
F0.769
F0.039
I14
I17
tp42
sg9
F0.07547497749328613
sg10
I100
sg11
I0
sa(dp43
g7
(F0.201
F0.595
F0.033
I100
I100
tp44
sg9
F82.35417008399963
sg10
I100
sg11
I100
sa(dp45
g7
(F0.203
F0.585
F0.034
I100
I100
tp46
sg9
F176.06364107131958
sg10
I100
sg11
I200
sa(dp47
g7
(F0.203
F0.644
F0.035
I100
I100
tp48
sg9
F270.17472791671753
sg10
I100
sg11
I300
sa(dp49
g7
(F0.204
F0.621
F0.035
I100
I100
tp50
sg9
F364.32246112823486
sg10
I100
sg11
I400
sa(dp51
g7
(F0.204
F0.638
F0.035
I100
I100
tp52
sg9
F456.75158405303955
sg10
I100
sg11
I500
satp53
Rp54
(dp55
g25
I01
sg26
g31
sg32
(lp56
I3
aI5
aI31
aI9
asg34
I6
sg35
g36
(g3
tp57
Rp58
sbsS'SPEA2'
p59
g2
(g3
g4
(lp60
(dp61
g7
(F0.066
F2.21
F0.024
I1
I1
tp62
sg9
F0.03962302207946777
sg10
I100
sg11
I0
sa(dp63
g7
(I0
I0
I0
I0
I0
tp64
sg9
F115.4678430557251
sg10
I100
sg11
I100
sa(dp65
g7
g64
sg9
F249.4365429878235
sg10
I100
sg11
I200
sa(dp66
g7
g64
sg9
F380.1252830028534
sg10
I100
sg11
I300
sa(dp67
g7
(F0.084
F1.22
F0.071
I1
I1
tp68
sg9
F514.8104779720306
sg10
I100
sg11
I400
sa(dp69
g7
(F0.084
F1.22
F0.071
I1
I1
tp70
sg9
F652.1787631511688
sg10
I100
sg11
I500
satp71
Rp72
(dp73
g25
I01
sg26
g31
sg32
(lp74
I3
aI5
aI30
aI9
asg34
I6
sg35
g36
(g3
tp75
Rp76
sbsS'IBEA-PEN'
p77
g2
(g3
g4
(lp78
(dp79
g7
(F0.145
F0.605
F0.025
I26
I41
tp80
sg9
F0.15307998657226562
sg10
I100
sg11
I0
sa(dp81
g7
(F0.187
F0.658
F0.036
I52
I85
tp82
sg9
F10.482609987258911
sg10
I100
sg11
I100
sa(dp83
g7
(F0.195
F0.547
F0.035
I55
I93
tp84
sg9
F20.811546087265015
sg10
I100
sg11
I200
sa(dp85
g7
(F0.197
F0.629
F0.043
I48
I88
tp86
sg9
F31.195545196533203
sg10
I100
sg11
I300
sa(dp87
g7
(F0.197
F0.639
F0.038
I56
I82
tp88
sg9
F41.62809610366821
sg10
I100
sg11
I400
sa(dp89
g7
(F0.192
F0.546
F0.035
I41
I76
tp90
sg9
F51.92372107505798
sg10
I100
sg11
I500
satp91
Rp92
(dp93
g25
I01
sg26
g31
sg32
(lp94
I3
aI5
aI30
aI9
asg34
I6
sg35
g36
(g3
tp95
Rp96
sbsS'IBEA'
p97
g2
(g3
g4
(lp98
(dp99
g7
g64
sg9
F0.036377906799316406
sg10
I100
sg11
I0
sa(dp100
g7
(F0.113
F0.925
F0.067
I2
I2
tp101
sg9
F8.309229850769043
sg10
I100
sg11
I100
sa(dp102
g7
g64
sg9
F16.709743976593018
sg10
I100
sg11
I200
sa(dp103
g7
g64
sg9
F25.14028787612915
sg10
I100
sg11
I300
sa(dp104
g7
g64
sg9
F33.574352979660034
sg10
I100
sg11
I400
sa(dp105
g7
g64
sg9
F41.90998101234436
sg10
I100
sg11
I500
satp106
Rp107
(dp108
g25
I01
sg26
g31
sg32
(lp109
I3
aI5
aI30
aI9
asg34
I6
sg35
g36
(g3
tp110
Rp111
sbsS'NSGA2'
p112
g2
(g3
g4
(lp113
(dp114
g7
(F0.064
F0.941
F0.067
I2
I3
tp115
sg9
F0.04318404197692871
sg10
I100
sg11
I0
sa(dp116
g7
g64
sg9
F11.243508100509644
sg10
I100
sg11
I100
sa(dp117
g7
g64
sg9
F22.330758094787598
sg10
I100
sg11
I200
sa(dp118
g7
g64
sg9
F33.4869339466095
sg10
I100
sg11
I300
sa(dp119
g7
g64
sg9
F44.59275794029236
sg10
I100
sg11
I400
sa(dp120
g7
g64
sg9
F55.72758507728577
sg10
I100
sg11
I500
satp121
Rp122
(dp123
g25
I01
sg26
g31
sg32
(lp124
I3
aI5
aI30
aI9
asg34
I6
sg35
g36
(g3
tp125
Rp126
sbsS'IBEA-SIP'
p127
g2
(g3
g4
(lp128
(dp129
g7
(F0.111
F0.748
F0.036
I10
I16
tp130
sg9
F0.061334848403930664
sg10
I100
sg11
I0
sa(dp131
g7
(F0.196
F0.653
F0.036
I66
I100
tp132
sg9
F7.867821931838989
sg10
I100
sg11
I100
sa(dp133
g7
(F0.204
F0.618
F0.033
I58
I100
tp134
sg9
F15.592000961303711
sg10
I100
sg11
I200
sa(dp135
g7
(F0.203
F0.672
F0.037
I64
I100
tp136
sg9
F23.45783495903015
sg10
I100
sg11
I300
sa(dp137
g7
(F0.203
F0.571
F0.038
I62
I100
tp138
sg9
F31.29652190208435
sg10
I100
sg11
I400
sa(dp139
g7
(F0.205
F0.592
F0.034
I70
I100
tp140
sg9
F39.23344898223877
sg10
I100
sg11
I500
satp141
Rp142
(dp143
g25
I01
sg26
g31
sg32
(lp144
I3
aI5
aI30
aI9
asg34
I6
sg35
g36
(g3
tp145
Rp146
sbs.