(dp0
S'NSGA2-SIP'
p1
ccopy_reg
_reconstructor
p2
(cdeap.tools.support
Logbook
p3
c__builtin__
list
p4
(lp5
(dp6
S'hv|spread|igd|frontier#|valid#'
p7
(F0.125
F0.718
F0.033
I11
I17
tp8
sS'timestamp'
p9
F0.06898307800292969
sS'evals'
p10
I100
sS'gen'
p11
I0
sa(dp12
g7
(F0.198
F0.595
F0.029
I97
I100
tp13
sg9
F10.332157135009766
sg10
I100
sg11
I100
sa(dp14
g7
(F0.201
F0.563
F0.03
I98
I100
tp15
sg9
F20.861335039138794
sg10
I100
sg11
I200
sa(dp16
g7
(F0.204
F0.621
F0.032
I99
I100
tp17
sg9
F31.40362000465393
sg10
I100
sg11
I300
sa(dp18
g7
(F0.204
F0.635
F0.032
I97
I100
tp19
sg9
F41.80483818054199
sg10
I100
sg11
I400
sa(dp20
g7
(F0.206
F0.572
F0.033
I97
I100
tp21
sg9
F52.21812915802002
sg10
I100
sg11
I500
satp22
Rp23
(dp24
S'log_header'
p25
I01
sS'header'
p26
(S'gen'
p27
S'evals'
p28
S'hv|spread|igd|frontier#|valid#'
p29
S'timestamp'
p30
tp31
sS'columns_len'
p32
(lp33
I3
aI5
aI30
aI9
asS'buffindex'
p34
I6
sS'chapters'
p35
ccollections
defaultdict
p36
(g3
tp37
Rp38
sbsS'SPEA2-SIP'
p39
g2
(g3
g4
(lp40
(dp41
g7
(F0.12
F0.781
F0.034
I15
I27
tp42
sg9
F0.0876009464263916
sg10
I100
sg11
I0
sa(dp43
g7
(F0.2
F0.653
F0.034
I100
I100
tp44
sg9
F90.37092399597168
sg10
I100
sg11
I100
sa(dp45
g7
(F0.202
F0.622
F0.035
I100
I100
tp46
sg9
F184.44158411026
sg10
I100
sg11
I200
sa(dp47
g7
(F0.203
F0.63
F0.034
I100
I100
tp48
sg9
F276.65309596061707
sg10
I100
sg11
I300
sa(dp49
g7
(F0.204
F0.601
F0.034
I100
I100
tp50
sg9
F367.4204339981079
sg10
I100
sg11
I400
sa(dp51
g7
(F0.206
F0.603
F0.035
I100
I100
tp52
sg9
F458.58259201049805
sg10
I100
sg11
I500
satp53
Rp54
(dp55
g25
I01
sg26
g31
sg32
(lp56
I3
aI5
aI31
aI9
asg34
I6
sg35
g36
(g3
tp57
Rp58
sbsS'SPEA2'
p59
g2
(g3
g4
(lp60
(dp61
g7
(F0.078
F0.963
F0.045
I2
I2
tp62
sg9
F0.046072959899902344
sg10
I100
sg11
I0
sa(dp63
g7
(I0
I0
I0
I0
I0
tp64
sg9
F111.81777501106262
sg10
I100
sg11
I100
sa(dp65
g7
g64
sg9
F242.61010885238647
sg10
I100
sg11
I200
sa(dp66
g7
g64
sg9
F378.0654249191284
sg10
I100
sg11
I300
sa(dp67
g7
g64
sg9
F516.7559008598328
sg10
I100
sg11
I400
sa(dp68
g7
g64
sg9
F652.2056210041046
sg10
I100
sg11
I500
satp69
Rp70
(dp71
g25
I01
sg26
g31
sg32
(lp72
I3
aI5
aI30
aI9
asg34
I6
sg35
g36
(g3
tp73
Rp74
sbsS'IBEA-PEN'
p75
g2
(g3
g4
(lp76
(dp77
g7
(F0.148
F0.692
F0.031
I30
I40
tp78
sg9
F0.19042587280273438
sg10
I100
sg11
I0
sa(dp79
g7
g64
sg9
F8.633264064788818
sg10
I100
sg11
I100
sa(dp80
g7
g64
sg9
F17.046443939208984
sg10
I100
sg11
I200
sa(dp81
g7
g64
sg9
F25.474337100982666
sg10
I100
sg11
I300
sa(dp82
g7
g64
sg9
F33.90417695045471
sg10
I100
sg11
I400
sa(dp83
g7
(F0.079
F1.22
F0.032
I1
I1
tp84
sg9
F42.33389401435852
sg10
I100
sg11
I500
satp85
Rp86
(dp87
g25
I01
sg26
g31
sg32
(lp88
I3
aI5
aI30
aI9
asg34
I6
sg35
g36
(g3
tp89
Rp90
sbsS'IBEA'
p91
g2
(g3
g4
(lp92
(dp93
g7
g64
sg9
F0.0384831428527832
sg10
I100
sg11
I0
sa(dp94
g7
g64
sg9
F8.245715141296387
sg10
I100
sg11
I100
sa(dp95
g7
g64
sg9
F16.5332350730896
sg10
I100
sg11
I200
sa(dp96
g7
g64
sg9
F24.862502098083496
sg10
I100
sg11
I300
sa(dp97
g7
g64
sg9
F33.194364070892334
sg10
I100
sg11
I400
sa(dp98
g7
g64
sg9
F41.485132932662964
sg10
I100
sg11
I500
satp99
Rp100
(dp101
g25
I01
sg26
g31
sg32
(lp102
I3
aI5
aI30
aI9
asg34
I6
sg35
g36
(g3
tp103
Rp104
sbsS'NSGA2'
p105
g2
(g3
g4
(lp106
(dp107
g7
(F0.056
F2.245
F0.026
I1
I1
tp108
sg9
F0.04210782051086426
sg10
I100
sg11
I0
sa(dp109
g7
g64
sg9
F12.093078851699829
sg10
I100
sg11
I100
sa(dp110
g7
g64
sg9
F24.068673849105835
sg10
I100
sg11
I200
sa(dp111
g7
g64
sg9
F36.016886949539185
sg10
I100
sg11
I300
sa(dp112
g7
(F0.068
F1.3
F0.026
I1
I1
tp113
sg9
F47.98200178146362
sg10
I100
sg11
I400
sa(dp114
g7
g64
sg9
F59.83275580406189
sg10
I100
sg11
I500
satp115
Rp116
(dp117
g25
I01
sg26
g31
sg32
(lp118
I3
aI5
aI30
aI9
asg34
I6
sg35
g36
(g3
tp119
Rp120
sbsS'IBEA-SIP'
p121
g2
(g3
g4
(lp122
(dp123
g7
(F0.11
F0.843
F0.037
I14
I23
tp124
sg9
F0.08135700225830078
sg10
I100
sg11
I0
sa(dp125
g7
(F0.199
F0.689
F0.037
I70
I100
tp126
sg9
F7.896620988845825
sg10
I100
sg11
I100
sa(dp127
g7
(F0.201
F0.709
F0.037
I72
I100
tp128
sg9
F15.753350973129272
sg10
I100
sg11
I200
sa(dp129
g7
(F0.201
F0.64
F0.035
I67
I100
tp130
sg9
F23.54879093170166
sg10
I100
sg11
I300
sa(dp131
g7
(F0.202
F0.686
F0.035
I67
I100
tp132
sg9
F31.326076984405518
sg10
I100
sg11
I400
sa(dp133
g7
(F0.203
F0.717
F0.037
I72
I100
tp134
sg9
F39.170413970947266
sg10
I100
sg11
I500
satp135
Rp136
(dp137
g25
I01
sg26
g31
sg32
(lp138
I3
aI5
aI30
aI9
asg34
I6
sg35
g36
(g3
tp139
Rp140
sbs.