(dp0
S'NSGA2-SIP'
p1
ccopy_reg
_reconstructor
p2
(cdeap.tools.support
Logbook
p3
c__builtin__
list
p4
(lp5
(dp6
S'hv|spread|igd|frontier#|valid#'
p7
(F0.109
F0.874
F0.03
I12
I23
tp8
sS'timestamp'
p9
F0.059953927993774414
sS'evals'
p10
I100
sS'gen'
p11
I0
sa(dp12
g7
(F0.199
F0.583
F0.03
I97
I100
tp13
sg9
F8.448453903198242
sg10
I100
sg11
I100
sa(dp14
g7
(F0.201
F0.545
F0.031
I99
I100
tp15
sg9
F16.858677864074707
sg10
I100
sg11
I200
sa(dp16
g7
(F0.206
F0.615
F0.032
I98
I100
tp17
sg9
F25.183831930160522
sg10
I100
sg11
I300
sa(dp18
g7
(F0.205
F0.62
F0.033
I97
I100
tp19
sg9
F33.48653984069824
sg10
I100
sg11
I400
sa(dp20
g7
(F0.205
F0.577
F0.031
I98
I100
tp21
sg9
F41.87167191505432
sg10
I100
sg11
I500
satp22
Rp23
(dp24
S'log_header'
p25
I01
sS'header'
p26
(S'gen'
p27
S'evals'
p28
S'hv|spread|igd|frontier#|valid#'
p29
S'timestamp'
p30
tp31
sS'columns_len'
p32
(lp33
I3
aI5
aI30
aI9
asS'buffindex'
p34
I6
sS'chapters'
p35
ccollections
defaultdict
p36
(g3
tp37
Rp38
sbsS'SPEA2-SIP'
p39
g2
(g3
g4
(lp40
(dp41
g7
(F0.128
F0.754
F0.036
I14
I23
tp42
sg9
F0.06564688682556152
sg10
I100
sg11
I0
sa(dp43
g7
(F0.203
F0.648
F0.033
I100
I100
tp44
sg9
F70.88220191001892
sg10
I100
sg11
I100
sa(dp45
g7
(F0.207
F0.613
F0.034
I100
I100
tp46
sg9
F150.61656594276428
sg10
I100
sg11
I200
sa(dp47
g7
(F0.208
F0.548
F0.035
I100
I100
tp48
sg9
F232.13170790672302
sg10
I100
sg11
I300
sa(dp49
g7
(F0.209
F0.596
F0.036
I100
I100
tp50
sg9
F312.3007028102875
sg10
I100
sg11
I400
sa(dp51
g7
(F0.209
F0.566
F0.035
I100
I100
tp52
sg9
F391.29816579818726
sg10
I100
sg11
I500
satp53
Rp54
(dp55
g25
I01
sg26
g31
sg32
(lp56
I3
aI5
aI31
aI9
asg34
I6
sg35
g36
(g3
tp57
Rp58
sbsS'SPEA2'
p59
g2
(g3
g4
(lp60
(dp61
g7
(I0
I0
I0
I0
I0
tp62
sg9
F0.031054019927978516
sg10
I100
sg11
I0
sa(dp63
g7
g62
sg9
F94.46631407737732
sg10
I100
sg11
I100
sa(dp64
g7
g62
sg9
F209.39173793792725
sg10
I100
sg11
I200
sa(dp65
g7
g62
sg9
F323.63414692878723
sg10
I100
sg11
I300
sa(dp66
g7
g62
sg9
F439.0020401477814
sg10
I100
sg11
I400
sa(dp67
g7
g62
sg9
F552.3784761428833
sg10
I100
sg11
I500
satp68
Rp69
(dp70
g25
I01
sg26
g31
sg32
(lp71
I3
aI5
aI30
aI9
asg34
I6
sg35
g36
(g3
tp72
Rp73
sbsS'IBEA'
p74
g2
(g3
g4
(lp75
(dp76
g7
g62
sg9
F0.03136086463928223
sg10
I100
sg11
I0
sa(dp77
g7
g62
sg9
F7.104604959487915
sg10
I100
sg11
I100
sa(dp78
g7
g62
sg9
F14.225317001342773
sg10
I100
sg11
I200
sa(dp79
g7
(F0.088
F1.3
F0.067
I1
I1
tp80
sg9
F21.325698852539062
sg10
I100
sg11
I300
sa(dp81
g7
g62
sg9
F28.430943965911865
sg10
I100
sg11
I400
sa(dp82
g7
g62
sg9
F35.545817852020264
sg10
I100
sg11
I500
satp83
Rp84
(dp85
g25
I01
sg26
g31
sg32
(lp86
I3
aI5
aI30
aI9
asg34
I6
sg35
g36
(g3
tp87
Rp88
sbsS'NSGA2'
p89
g2
(g3
g4
(lp90
(dp91
g7
g62
sg9
F0.03045487403869629
sg10
I100
sg11
I0
sa(dp92
g7
(F0.066
F1.38
F0.039
I1
I1
tp93
sg9
F9.635159969329834
sg10
I100
sg11
I100
sa(dp94
g7
g62
sg9
F19.175201892852783
sg10
I100
sg11
I200
sa(dp95
g7
g62
sg9
F28.678704977035522
sg10
I100
sg11
I300
sa(dp96
g7
g62
sg9
F38.209270000457764
sg10
I100
sg11
I400
sa(dp97
g7
(F0.03
F1.72
F0.079
I1
I1
tp98
sg9
F47.73121094703674
sg10
I100
sg11
I500
satp99
Rp100
(dp101
g25
I01
sg26
g31
sg32
(lp102
I3
aI5
aI30
aI9
asg34
I6
sg35
g36
(g3
tp103
Rp104
sbsS'IBEA-SIP'
p105
g2
(g3
g4
(lp106
(dp107
g7
(F0.109
F0.878
F0.033
I17
I23
tp108
sg9
F0.0742638111114502
sg10
I100
sg11
I0
sa(dp109
g7
(F0.201
F0.698
F0.038
I70
I100
tp110
sg9
F6.791153907775879
sg10
I100
sg11
I100
sa(dp111
g7
(F0.198
F0.656
F0.038
I69
I100
tp112
sg9
F13.535210847854614
sg10
I100
sg11
I200
sa(dp113
g7
(F0.202
F0.721
F0.037
I62
I100
tp114
sg9
F20.27141499519348
sg10
I100
sg11
I300
sa(dp115
g7
(F0.205
F0.663
F0.037
I69
I100
tp116
sg9
F27.021886825561523
sg10
I100
sg11
I400
sa(dp117
g7
(F0.206
F0.602
F0.039
I72
I100
tp118
sg9
F33.680707931518555
sg10
I100
sg11
I500
satp119
Rp120
(dp121
g25
I01
sg26
g31
sg32
(lp122
I3
aI5
aI30
aI9
asg34
I6
sg35
g36
(g3
tp123
Rp124
sbs.