(dp0
S'NSGA2-SIP'
p1
ccopy_reg
_reconstructor
p2
(cdeap.tools.support
Logbook
p3
c__builtin__
list
p4
(lp5
(dp6
S'hv|spread|igd|frontier#|valid#'
p7
(F0.112
F0.871
F0.047
I14
I16
tp8
sS'timestamp'
p9
F0.07951498031616211
sS'evals'
p10
I100
sS'gen'
p11
I0
sa(dp12
g7
(F0.197
F0.586
F0.029
I98
I100
tp13
sg9
F10.547593832015991
sg10
I100
sg11
I100
sa(dp14
g7
(F0.202
F0.584
F0.031
I97
I100
tp15
sg9
F20.8256618976593
sg10
I100
sg11
I200
sa(dp16
g7
(F0.202
F0.596
F0.031
I99
I100
tp17
sg9
F31.208866834640503
sg10
I100
sg11
I300
sa(dp18
g7
(F0.206
F0.603
F0.033
I99
I100
tp19
sg9
F41.596638917922974
sg10
I100
sg11
I400
sa(dp20
g7
(F0.205
F0.65
F0.031
I98
I100
tp21
sg9
F51.94445586204529
sg10
I100
sg11
I500
satp22
Rp23
(dp24
S'log_header'
p25
I01
sS'header'
p26
(S'gen'
p27
S'evals'
p28
S'hv|spread|igd|frontier#|valid#'
p29
S'timestamp'
p30
tp31
sS'columns_len'
p32
(lp33
I3
aI5
aI30
aI9
asS'buffindex'
p34
I6
sS'chapters'
p35
ccollections
defaultdict
p36
(g3
tp37
Rp38
sbsS'SPEA2-SIP'
p39
g2
(g3
g4
(lp40
(dp41
g7
(F0.126
F0.796
F0.04
I20
I25
tp42
sg9
F0.10685992240905762
sg10
I100
sg11
I0
sa(dp43
g7
(F0.206
F0.611
F0.034
I100
I100
tp44
sg9
F84.55999207496643
sg10
I100
sg11
I100
sa(dp45
g7
(F0.208
F0.646
F0.034
I100
I100
tp46
sg9
F179.6475911140442
sg10
I100
sg11
I200
sa(dp47
g7
(F0.209
F0.544
F0.036
I100
I100
tp48
sg9
F271.70534205436707
sg10
I100
sg11
I300
sa(dp49
g7
(F0.21
F0.62
F0.037
I100
I100
tp50
sg9
F363.73450899124146
sg10
I100
sg11
I400
sa(dp51
g7
(F0.21
F0.667
F0.037
I100
I100
tp52
sg9
F457.1510360240936
sg10
I100
sg11
I500
satp53
Rp54
(dp55
g25
I01
sg26
g31
sg32
(lp56
I3
aI5
aI31
aI9
asg34
I6
sg35
g36
(g3
tp57
Rp58
sbsS'SPEA2'
p59
g2
(g3
g4
(lp60
(dp61
g7
(F0.06
F1.14
F0.042
I1
I1
tp62
sg9
F0.04147601127624512
sg10
I100
sg11
I0
sa(dp63
g7
(I0
I0
I0
I0
I0
tp64
sg9
F113.33260703086853
sg10
I100
sg11
I100
sa(dp65
g7
(F0.041
F1.56
F0.033
I1
I1
tp66
sg9
F241.29820108413696
sg10
I100
sg11
I200
sa(dp67
g7
(F0.041
F1.56
F0.033
I1
I1
tp68
sg9
F369.3211839199066
sg10
I100
sg11
I300
sa(dp69
g7
(F0.041
F1.56
F0.033
I1
I1
tp70
sg9
F499.8186230659485
sg10
I100
sg11
I400
sa(dp71
g7
(F0.041
F1.56
F0.033
I1
I1
tp72
sg9
F625.9320869445801
sg10
I100
sg11
I500
satp73
Rp74
(dp75
g25
I01
sg26
g31
sg32
(lp76
I3
aI5
aI30
aI9
asg34
I6
sg35
g36
(g3
tp77
Rp78
sbsS'IBEA-PEN'
p79
g2
(g3
g4
(lp80
(dp81
g7
(F0.136
F0.705
F0.025
I30
I42
tp82
sg9
F0.19024896621704102
sg10
I100
sg11
I0
sa(dp83
g7
g64
sg9
F8.585222959518433
sg10
I100
sg11
I100
sa(dp84
g7
g64
sg9
F16.94561195373535
sg10
I100
sg11
I200
sa(dp85
g7
g64
sg9
F25.309988975524902
sg10
I100
sg11
I300
sa(dp86
g7
g64
sg9
F33.772550106048584
sg10
I100
sg11
I400
sa(dp87
g7
(F0.084
F1.18
F0.049
I1
I1
tp88
sg9
F42.16379499435425
sg10
I100
sg11
I500
satp89
Rp90
(dp91
g25
I01
sg26
g31
sg32
(lp92
I3
aI5
aI30
aI9
asg34
I6
sg35
g36
(g3
tp93
Rp94
sbsS'IBEA'
p95
g2
(g3
g4
(lp96
(dp97
g7
(F0.064
F0.936
F0.058
I2
I2
tp98
sg9
F0.044773101806640625
sg10
I100
sg11
I0
sa(dp99
g7
(F0.058
F1.42
F0.062
I1
I1
tp100
sg9
F8.211457967758179
sg10
I100
sg11
I100
sa(dp101
g7
g64
sg9
F16.427870988845825
sg10
I100
sg11
I200
sa(dp102
g7
g64
sg9
F24.663536071777344
sg10
I100
sg11
I300
sa(dp103
g7
g64
sg9
F32.87830710411072
sg10
I100
sg11
I400
sa(dp104
g7
g64
sg9
F41.1182861328125
sg10
I100
sg11
I500
satp105
Rp106
(dp107
g25
I01
sg26
g31
sg32
(lp108
I3
aI5
aI30
aI9
asg34
I6
sg35
g36
(g3
tp109
Rp110
sbsS'NSGA2'
p111
g2
(g3
g4
(lp112
(dp113
g7
g64
sg9
F0.037854909896850586
sg10
I100
sg11
I0
sa(dp114
g7
g64
sg9
F12.208592891693115
sg10
I100
sg11
I100
sa(dp115
g7
g64
sg9
F24.217512845993042
sg10
I100
sg11
I200
sa(dp116
g7
g64
sg9
F36.22952890396118
sg10
I100
sg11
I300
sa(dp117
g7
g64
sg9
F48.21851086616516
sg10
I100
sg11
I400
sa(dp118
g7
g64
sg9
F60.1612548828125
sg10
I100
sg11
I500
satp119
Rp120
(dp121
g25
I01
sg26
g31
sg32
(lp122
I3
aI5
aI30
aI9
asg34
I6
sg35
g36
(g3
tp123
Rp124
sbsS'IBEA-SIP'
p125
g2
(g3
g4
(lp126
(dp127
g7
(F0.123
F0.866
F0.033
I12
I17
tp128
sg9
F0.07254695892333984
sg10
I100
sg11
I0
sa(dp129
g7
(F0.199
F0.565
F0.032
I63
I100
tp130
sg9
F7.728589057922363
sg10
I100
sg11
I100
sa(dp131
g7
(F0.203
F0.549
F0.035
I71
I100
tp132
sg9
F15.677955865859985
sg10
I100
sg11
I200
sa(dp133
g7
(F0.202
F0.65
F0.036
I72
I100
tp134
sg9
F23.53507685661316
sg10
I100
sg11
I300
sa(dp135
g7
(F0.202
F0.625
F0.037
I67
I100
tp136
sg9
F31.369993925094604
sg10
I100
sg11
I400
sa(dp137
g7
(F0.205
F0.677
F0.041
I68
I100
tp138
sg9
F39.22429084777832
sg10
I100
sg11
I500
satp139
Rp140
(dp141
g25
I01
sg26
g31
sg32
(lp142
I3
aI5
aI30
aI9
asg34
I6
sg35
g36
(g3
tp143
Rp144
sbs.