(dp0
S'NSGA2-SIP'
p1
ccopy_reg
_reconstructor
p2
(cdeap.tools.support
Logbook
p3
c__builtin__
list
p4
(lp5
(dp6
S'hv|spread|igd|frontier#|valid#'
p7
(F0.122
F0.87
F0.038
I13
I18
tp8
sS'timestamp'
p9
F0.06516814231872559
sS'evals'
p10
I100
sS'gen'
p11
I0
sa(dp12
g7
(F0.2
F0.595
F0.032
I94
I100
tp13
sg9
F8.937233924865723
sg10
I100
sg11
I100
sa(dp14
g7
(F0.206
F0.651
F0.032
I99
I100
tp15
sg9
F17.672125101089478
sg10
I100
sg11
I200
sa(dp16
g7
(F0.206
F0.564
F0.032
I99
I100
tp17
sg9
F26.52363395690918
sg10
I100
sg11
I300
sa(dp18
g7
(F0.205
F0.548
F0.031
I99
I100
tp19
sg9
F35.404924154281616
sg10
I100
sg11
I400
sa(dp20
g7
(F0.206
F0.59
F0.032
I98
I100
tp21
sg9
F44.20774698257446
sg10
I100
sg11
I500
satp22
Rp23
(dp24
S'log_header'
p25
I01
sS'header'
p26
(S'gen'
p27
S'evals'
p28
S'hv|spread|igd|frontier#|valid#'
p29
S'timestamp'
p30
tp31
sS'columns_len'
p32
(lp33
I3
aI5
aI30
aI9
asS'buffindex'
p34
I6
sS'chapters'
p35
ccollections
defaultdict
p36
(g3
tp37
Rp38
sbsS'SPEA2-SIP'
p39
g2
(g3
g4
(lp40
(dp41
g7
(F0.112
F0.808
F0.031
I13
I27
tp42
sg9
F0.09116101264953613
sg10
I100
sg11
I0
sa(dp43
g7
(F0.196
F0.653
F0.032
I100
I100
tp44
sg9
F76.45075297355652
sg10
I100
sg11
I100
sa(dp45
g7
(F0.203
F0.592
F0.034
I100
I100
tp46
sg9
F162.08734393119812
sg10
I100
sg11
I200
sa(dp47
g7
(F0.209
F0.604
F0.034
I100
I100
tp48
sg9
F247.44032192230225
sg10
I100
sg11
I300
sa(dp49
g7
(F0.21
F0.657
F0.036
I100
I100
tp50
sg9
F331.3729639053345
sg10
I100
sg11
I400
sa(dp51
g7
(F0.21
F0.681
F0.036
I100
I100
tp52
sg9
F415.58388900756836
sg10
I100
sg11
I500
satp53
Rp54
(dp55
g25
I01
sg26
g31
sg32
(lp56
I3
aI5
aI31
aI9
asg34
I6
sg35
g36
(g3
tp57
Rp58
sbsS'SPEA2'
p59
g2
(g3
g4
(lp60
(dp61
g7
(I0
I0
I0
I0
I0
tp62
sg9
F0.03441905975341797
sg10
I100
sg11
I0
sa(dp63
g7
g62
sg9
F103.07454109191895
sg10
I100
sg11
I100
sa(dp64
g7
g62
sg9
F214.281583070755
sg10
I100
sg11
I200
sa(dp65
g7
g62
sg9
F332.57730507850647
sg10
I100
sg11
I300
sa(dp66
g7
g62
sg9
F455.70808005332947
sg10
I100
sg11
I400
sa(dp67
g7
g62
sg9
F569.0970330238342
sg10
I100
sg11
I500
satp68
Rp69
(dp70
g25
I01
sg26
g31
sg32
(lp71
I3
aI5
aI30
aI9
asg34
I6
sg35
g36
(g3
tp72
Rp73
sbsS'IBEA-PEN'
p74
g2
(g3
g4
(lp75
(dp76
g7
(F0.148
F0.668
F0.029
I29
I44
tp77
sg9
F0.1878669261932373
sg10
I100
sg11
I0
sa(dp78
g7
g62
sg9
F7.778108835220337
sg10
I100
sg11
I100
sa(dp79
g7
g62
sg9
F15.32858395576477
sg10
I100
sg11
I200
sa(dp80
g7
(F0.068
F2.476
F0.087
I1
I1
tp81
sg9
F22.89046883583069
sg10
I100
sg11
I300
sa(dp82
g7
g62
sg9
F30.46266484260559
sg10
I100
sg11
I400
sa(dp83
g7
g62
sg9
F38.041719913482666
sg10
I100
sg11
I500
satp84
Rp85
(dp86
g25
I01
sg26
g31
sg32
(lp87
I3
aI5
aI30
aI9
asg34
I6
sg35
g36
(g3
tp88
Rp89
sbsS'IBEA'
p90
g2
(g3
g4
(lp91
(dp92
g7
g62
sg9
F0.032423973083496094
sg10
I100
sg11
I0
sa(dp93
g7
(F0.047
F1.6
F0.062
I1
I1
tp94
sg9
F7.419896841049194
sg10
I100
sg11
I100
sa(dp95
g7
g62
sg9
F14.888615846633911
sg10
I100
sg11
I200
sa(dp96
g7
g62
sg9
F22.35872983932495
sg10
I100
sg11
I300
sa(dp97
g7
(F0.092
F1.02
F0.081
I1
I1
tp98
sg9
F29.82320284843445
sg10
I100
sg11
I400
sa(dp99
g7
g62
sg9
F37.290135860443115
sg10
I100
sg11
I500
satp100
Rp101
(dp102
g25
I01
sg26
g31
sg32
(lp103
I3
aI5
aI30
aI9
asg34
I6
sg35
g36
(g3
tp104
Rp105
sbsS'NSGA2'
p106
g2
(g3
g4
(lp107
(dp108
g7
g62
sg9
F0.032586097717285156
sg10
I100
sg11
I0
sa(dp109
g7
g62
sg9
F10.105297088623047
sg10
I100
sg11
I100
sa(dp110
g7
g62
sg9
F20.106786012649536
sg10
I100
sg11
I200
sa(dp111
g7
(F0.041
F1.64
F0.047
I1
I1
tp112
sg9
F30.13880705833435
sg10
I100
sg11
I300
sa(dp113
g7
(F0.041
F1.64
F0.047
I1
I1
tp114
sg9
F40.10742902755737
sg10
I100
sg11
I400
sa(dp115
g7
g62
sg9
F50.04364013671875
sg10
I100
sg11
I500
satp116
Rp117
(dp118
g25
I01
sg26
g31
sg32
(lp119
I3
aI5
aI30
aI9
asg34
I6
sg35
g36
(g3
tp120
Rp121
sbsS'IBEA-SIP'
p122
g2
(g3
g4
(lp123
(dp124
g7
(F0.12
F0.705
F0.033
I18
I28
tp125
sg9
F0.08288311958312988
sg10
I100
sg11
I0
sa(dp126
g7
(F0.197
F0.612
F0.034
I62
I100
tp127
sg9
F6.966003179550171
sg10
I100
sg11
I100
sa(dp128
g7
(F0.204
F0.652
F0.036
I67
I100
tp129
sg9
F14.010422229766846
sg10
I100
sg11
I200
sa(dp130
g7
(F0.201
F0.573
F0.038
I62
I100
tp131
sg9
F21.0484561920166
sg10
I100
sg11
I300
sa(dp132
g7
(F0.205
F0.696
F0.037
I71
I100
tp133
sg9
F28.060031175613403
sg10
I100
sg11
I400
sa(dp134
g7
(F0.201
F0.573
F0.035
I70
I100
tp135
sg9
F35.077407121658325
sg10
I100
sg11
I500
satp136
Rp137
(dp138
g25
I01
sg26
g31
sg32
(lp139
I3
aI5
aI30
aI9
asg34
I6
sg35
g36
(g3
tp140
Rp141
sbs.