(dp0
S'NSGA2-SIP'
p1
ccopy_reg
_reconstructor
p2
(cdeap.tools.support
Logbook
p3
c__builtin__
list
p4
(lp5
(dp6
S'hv|spread|igd|frontier#|valid#'
p7
(F0.119
F0.868
F0.03
I14
I18
tp8
sS'timestamp'
p9
F0.07180190086364746
sS'evals'
p10
I100
sS'gen'
p11
I0
sa(dp12
g7
(F0.197
F0.576
F0.03
I98
I100
tp13
sg9
F9.160686016082764
sg10
I100
sg11
I100
sa(dp14
g7
(F0.205
F0.655
F0.032
I98
I100
tp15
sg9
F18.46346688270569
sg10
I100
sg11
I200
sa(dp16
g7
(F0.204
F0.579
F0.03
I98
I100
tp17
sg9
F27.680021047592163
sg10
I100
sg11
I300
sa(dp18
g7
(F0.204
F0.591
F0.031
I98
I100
tp19
sg9
F36.92357397079468
sg10
I100
sg11
I400
sa(dp20
g7
(F0.204
F0.596
F0.031
I96
I100
tp21
sg9
F46.0416579246521
sg10
I100
sg11
I500
satp22
Rp23
(dp24
S'log_header'
p25
I01
sS'header'
p26
(S'gen'
p27
S'evals'
p28
S'hv|spread|igd|frontier#|valid#'
p29
S'timestamp'
p30
tp31
sS'columns_len'
p32
(lp33
I3
aI5
aI30
aI9
asS'buffindex'
p34
I6
sS'chapters'
p35
ccollections
defaultdict
p36
(g3
tp37
Rp38
sbsS'SPEA2-SIP'
p39
g2
(g3
g4
(lp40
(dp41
g7
(F0.123
F0.798
F0.042
I14
I22
tp42
sg9
F0.0733489990234375
sg10
I100
sg11
I0
sa(dp43
g7
(F0.199
F0.624
F0.034
I100
I100
tp44
sg9
F80.62997698783875
sg10
I100
sg11
I100
sa(dp45
g7
(F0.202
F0.628
F0.034
I100
I100
tp46
sg9
F171.57764291763306
sg10
I100
sg11
I200
sa(dp47
g7
(F0.205
F0.563
F0.036
I100
I100
tp48
sg9
F260.1352319717407
sg10
I100
sg11
I300
sa(dp49
g7
(F0.207
F0.617
F0.035
I100
I100
tp50
sg9
F347.9277949333191
sg10
I100
sg11
I400
sa(dp51
g7
(F0.207
F0.627
F0.036
I100
I100
tp52
sg9
F434.9736680984497
sg10
I100
sg11
I500
satp53
Rp54
(dp55
g25
I01
sg26
g31
sg32
(lp56
I3
aI5
aI31
aI9
asg34
I6
sg35
g36
(g3
tp57
Rp58
sbsS'SPEA2'
p59
g2
(g3
g4
(lp60
(dp61
g7
(I0
I0
I0
I0
I0
tp62
sg9
F0.033705949783325195
sg10
I100
sg11
I0
sa(dp63
g7
g62
sg9
F103.17728996276855
sg10
I100
sg11
I100
sa(dp64
g7
g62
sg9
F226.8464159965515
sg10
I100
sg11
I200
sa(dp65
g7
g62
sg9
F348.07240200042725
sg10
I100
sg11
I300
sa(dp66
g7
g62
sg9
F473.5857448577881
sg10
I100
sg11
I400
sa(dp67
g7
g62
sg9
F600.8043119907379
sg10
I100
sg11
I500
satp68
Rp69
(dp70
g25
I01
sg26
g31
sg32
(lp71
I3
aI5
aI30
aI9
asg34
I6
sg35
g36
(g3
tp72
Rp73
sbsS'IBEA'
p74
g2
(g3
g4
(lp75
(dp76
g7
(F0.053
F0.94
F0.042
I1
I1
tp77
sg9
F0.03765296936035156
sg10
I100
sg11
I0
sa(dp78
g7
(F0.082
F1.18
F0.064
I1
I1
tp79
sg9
F7.869021892547607
sg10
I100
sg11
I100
sa(dp80
g7
g62
sg9
F15.750541925430298
sg10
I100
sg11
I200
sa(dp81
g7
(F0.078
F1.26
F0.024
I1
I1
tp82
sg9
F23.631993055343628
sg10
I100
sg11
I300
sa(dp83
g7
(F0.119
F0.869
F0.044
I2
I2
tp84
sg9
F31.528680086135864
sg10
I100
sg11
I400
sa(dp85
g7
g62
sg9
F39.40755105018616
sg10
I100
sg11
I500
satp86
Rp87
(dp88
g25
I01
sg26
g31
sg32
(lp89
I3
aI5
aI30
aI9
asg34
I6
sg35
g36
(g3
tp90
Rp91
sbsS'NSGA2'
p92
g2
(g3
g4
(lp93
(dp94
g7
(F0.053
F0.98
F0.046
I1
I1
tp95
sg9
F0.036457061767578125
sg10
I100
sg11
I0
sa(dp96
g7
g62
sg9
F10.675250053405762
sg10
I100
sg11
I100
sa(dp97
g7
g62
sg9
F21.18728017807007
sg10
I100
sg11
I200
sa(dp98
g7
g62
sg9
F31.72307014465332
sg10
I100
sg11
I300
sa(dp99
g7
g62
sg9
F42.25043511390686
sg10
I100
sg11
I400
sa(dp100
g7
g62
sg9
F52.786917209625244
sg10
I100
sg11
I500
satp101
Rp102
(dp103
g25
I01
sg26
g31
sg32
(lp104
I3
aI5
aI30
aI9
asg34
I6
sg35
g36
(g3
tp105
Rp106
sbsS'IBEA-SIP'
p107
g2
(g3
g4
(lp108
(dp109
g7
(F0.119
F0.582
F0.033
I10
I17
tp110
sg9
F0.058197975158691406
sg10
I100
sg11
I0
sa(dp111
g7
(F0.197
F0.626
F0.036
I67
I100
tp112
sg9
F7.48551082611084
sg10
I100
sg11
I100
sa(dp113
g7
(F0.201
F0.644
F0.038
I76
I100
tp114
sg9
F14.975736856460571
sg10
I100
sg11
I200
sa(dp115
g7
(F0.204
F0.672
F0.037
I70
I100
tp116
sg9
F22.391692876815796
sg10
I100
sg11
I300
sa(dp117
g7
(F0.203
F0.527
F0.036
I58
I100
tp118
sg9
F29.703728914260864
sg10
I100
sg11
I400
sa(dp119
g7
(F0.206
F0.632
F0.036
I70
I100
tp120
sg9
F37.164920806884766
sg10
I100
sg11
I500
satp121
Rp122
(dp123
g25
I01
sg26
g31
sg32
(lp124
I3
aI5
aI30
aI9
asg34
I6
sg35
g36
(g3
tp125
Rp126
sbs.