(dp0
S'NSGA2-SIP'
p1
ccopy_reg
_reconstructor
p2
(cdeap.tools.support
Logbook
p3
c__builtin__
list
p4
(lp5
(dp6
S'hv|spread|igd|frontier#|valid#'
p7
(F0.116
F0.677
F0.034
I12
I24
tp8
sS'timestamp'
p9
F0.06857919692993164
sS'evals'
p10
I100
sS'gen'
p11
I0
sa(dp12
g7
(F0.196
F0.556
F0.029
I97
I100
tp13
sg9
F9.958567142486572
sg10
I100
sg11
I100
sa(dp14
g7
(F0.204
F0.588
F0.031
I96
I100
tp15
sg9
F19.600224018096924
sg10
I100
sg11
I200
sa(dp16
g7
(F0.203
F0.617
F0.031
I98
I100
tp17
sg9
F29.38338804244995
sg10
I100
sg11
I300
sa(dp18
g7
(F0.206
F0.554
F0.034
I98
I100
tp19
sg9
F39.194064140319824
sg10
I100
sg11
I400
sa(dp20
g7
(F0.205
F0.67
F0.032
I98
I100
tp21
sg9
F49.04214906692505
sg10
I100
sg11
I500
satp22
Rp23
(dp24
S'log_header'
p25
I01
sS'header'
p26
(S'gen'
p27
S'evals'
p28
S'hv|spread|igd|frontier#|valid#'
p29
S'timestamp'
p30
tp31
sS'columns_len'
p32
(lp33
I3
aI5
aI30
aI9
asS'buffindex'
p34
I6
sS'chapters'
p35
ccollections
defaultdict
p36
(g3
tp37
Rp38
sbsS'SPEA2-SIP'
p39
g2
(g3
g4
(lp40
(dp41
g7
(F0.128
F0.87
F0.039
I16
I22
tp42
sg9
F0.08079385757446289
sg10
I100
sg11
I0
sa(dp43
g7
(F0.198
F0.688
F0.033
I100
I100
tp44
sg9
F82.1594808101654
sg10
I100
sg11
I100
sa(dp45
g7
(F0.201
F0.613
F0.033
I100
I100
tp46
sg9
F170.2632977962494
sg10
I100
sg11
I200
sa(dp47
g7
(F0.202
F0.585
F0.035
I100
I100
tp48
sg9
F261.9002809524536
sg10
I100
sg11
I300
sa(dp49
g7
(F0.206
F0.659
F0.035
I100
I100
tp50
sg9
F352.0908558368683
sg10
I100
sg11
I400
sa(dp51
g7
(F0.206
F0.657
F0.035
I100
I100
tp52
sg9
F444.1837718486786
sg10
I100
sg11
I500
satp53
Rp54
(dp55
g25
I01
sg26
g31
sg32
(lp56
I3
aI5
aI31
aI9
asg34
I6
sg35
g36
(g3
tp57
Rp58
sbsS'SPEA2'
p59
g2
(g3
g4
(lp60
(dp61
g7
(I0
I0
I0
I0
I0
tp62
sg9
F0.03664994239807129
sg10
I100
sg11
I0
sa(dp63
g7
(F0.074
F1.26
F0.032
I1
I1
tp64
sg9
F119.46094584465027
sg10
I100
sg11
I100
sa(dp65
g7
g62
sg9
F249.57244205474854
sg10
I100
sg11
I200
sa(dp66
g7
g62
sg9
F384.21415400505066
sg10
I100
sg11
I300
sa(dp67
g7
g62
sg9
F517.1449549198151
sg10
I100
sg11
I400
sa(dp68
g7
g62
sg9
F652.8925089836121
sg10
I100
sg11
I500
satp69
Rp70
(dp71
g25
I01
sg26
g31
sg32
(lp72
I3
aI5
aI30
aI9
asg34
I6
sg35
g36
(g3
tp73
Rp74
sbsS'IBEA-PEN'
p75
g2
(g3
g4
(lp76
(dp77
g7
(F0.146
F0.782
F0.025
I28
I38
tp78
sg9
F0.1589360237121582
sg10
I100
sg11
I0
sa(dp79
g7
(F0.19
F0.724
F0.03
I44
I78
tp80
sg9
F10.435917139053345
sg10
I100
sg11
I100
sa(dp81
g7
(F0.194
F0.592
F0.037
I56
I86
tp82
sg9
F20.76158595085144
sg10
I100
sg11
I200
sa(dp83
g7
(F0.192
F0.546
F0.04
I53
I85
tp84
sg9
F31.07162094116211
sg10
I100
sg11
I300
sa(dp85
g7
(F0.195
F0.618
F0.043
I51
I90
tp86
sg9
F41.39141607284546
sg10
I100
sg11
I400
sa(dp87
g7
(F0.194
F0.721
F0.044
I50
I87
tp88
sg9
F51.77049708366394
sg10
I100
sg11
I500
satp89
Rp90
(dp91
g25
I01
sg26
g31
sg32
(lp92
I3
aI5
aI30
aI9
asg34
I6
sg35
g36
(g3
tp93
Rp94
sbsS'IBEA'
p95
g2
(g3
g4
(lp96
(dp97
g7
g62
sg9
F0.036128997802734375
sg10
I100
sg11
I0
sa(dp98
g7
(F0.047
F0.58
F0.02
I1
I1
tp99
sg9
F8.418524026870728
sg10
I100
sg11
I100
sa(dp100
g7
(F0.089
F1.18
F0.062
I1
I1
tp101
sg9
F16.89985489845276
sg10
I100
sg11
I200
sa(dp102
g7
g62
sg9
F25.315244913101196
sg10
I100
sg11
I300
sa(dp103
g7
g62
sg9
F33.65903997421265
sg10
I100
sg11
I400
sa(dp104
g7
g62
sg9
F42.01445007324219
sg10
I100
sg11
I500
satp105
Rp106
(dp107
g25
I01
sg26
g31
sg32
(lp108
I3
aI5
aI30
aI9
asg34
I6
sg35
g36
(g3
tp109
Rp110
sbsS'NSGA2'
p111
g2
(g3
g4
(lp112
(dp113
g7
g62
sg9
F0.03643393516540527
sg10
I100
sg11
I0
sa(dp114
g7
g62
sg9
F11.312608003616333
sg10
I100
sg11
I100
sa(dp115
g7
g62
sg9
F22.490864038467407
sg10
I100
sg11
I200
sa(dp116
g7
g62
sg9
F33.72016406059265
sg10
I100
sg11
I300
sa(dp117
g7
g62
sg9
F44.915016889572144
sg10
I100
sg11
I400
sa(dp118
g7
g62
sg9
F56.08839201927185
sg10
I100
sg11
I500
satp119
Rp120
(dp121
g25
I01
sg26
g31
sg32
(lp122
I3
aI5
aI30
aI9
asg34
I6
sg35
g36
(g3
tp123
Rp124
sbsS'IBEA-SIP'
p125
g2
(g3
g4
(lp126
(dp127
g7
(F0.127
F0.822
F0.028
I12
I24
tp128
sg9
F0.06805586814880371
sg10
I100
sg11
I0
sa(dp129
g7
(F0.201
F0.669
F0.032
I70
I100
tp130
sg9
F7.807806968688965
sg10
I100
sg11
I100
sa(dp131
g7
(F0.202
F0.541
F0.035
I64
I100
tp132
sg9
F15.602710008621216
sg10
I100
sg11
I200
sa(dp133
g7
(F0.205
F0.649
F0.036
I66
I100
tp134
sg9
F23.4860098361969
sg10
I100
sg11
I300
sa(dp135
g7
(F0.2
F0.604
F0.041
I65
I100
tp136
sg9
F31.374043941497803
sg10
I100
sg11
I400
sa(dp137
g7
(F0.203
F0.616
F0.038
I72
I100
tp138
sg9
F39.23579001426697
sg10
I100
sg11
I500
satp139
Rp140
(dp141
g25
I01
sg26
g31
sg32
(lp142
I3
aI5
aI30
aI9
asg34
I6
sg35
g36
(g3
tp143
Rp144
sbs.