(dp0
S'NSGA2-SIP'
p1
ccopy_reg
_reconstructor
p2
(cdeap.tools.support
Logbook
p3
c__builtin__
list
p4
(lp5
(dp6
S'hv|spread|igd|frontier#|valid#'
p7
(F0.094
F0.854
F0.038
I7
I13
tp8
sS'timestamp'
p9
F0.04885220527648926
sS'evals'
p10
I100
sS'gen'
p11
I0
sa(dp12
g7
(F0.196
F0.583
F0.029
I98
I100
tp13
sg9
F9.37985610961914
sg10
I100
sg11
I100
sa(dp14
g7
(F0.199
F0.576
F0.029
I97
I100
tp15
sg9
F18.68820309638977
sg10
I100
sg11
I200
sa(dp16
g7
(F0.204
F0.55
F0.031
I98
I100
tp17
sg9
F28.106990098953247
sg10
I100
sg11
I300
sa(dp18
g7
(F0.204
F0.644
F0.031
I98
I100
tp19
sg9
F37.40373921394348
sg10
I100
sg11
I400
sa(dp20
g7
(F0.205
F0.591
F0.031
I97
I100
tp21
sg9
F46.57167315483093
sg10
I100
sg11
I500
satp22
Rp23
(dp24
S'log_header'
p25
I01
sS'header'
p26
(S'gen'
p27
S'evals'
p28
S'hv|spread|igd|frontier#|valid#'
p29
S'timestamp'
p30
tp31
sS'columns_len'
p32
(lp33
I3
aI5
aI30
aI9
asS'buffindex'
p34
I6
sS'chapters'
p35
ccollections
defaultdict
p36
(g3
tp37
Rp38
sbsS'SPEA2-SIP'
p39
g2
(g3
g4
(lp40
(dp41
g7
(F0.126
F0.775
F0.038
I18
I23
tp42
sg9
F0.08699989318847656
sg10
I100
sg11
I0
sa(dp43
g7
(F0.195
F0.618
F0.032
I100
I100
tp44
sg9
F77.92363095283508
sg10
I100
sg11
I100
sa(dp45
g7
(F0.197
F0.65
F0.032
I100
I100
tp46
sg9
F165.06623005867004
sg10
I100
sg11
I200
sa(dp47
g7
(F0.202
F0.632
F0.034
I100
I100
tp48
sg9
F254.25980687141418
sg10
I100
sg11
I300
sa(dp49
g7
(F0.206
F0.559
F0.034
I100
I100
tp50
sg9
F342.8461489677429
sg10
I100
sg11
I400
sa(dp51
g7
(F0.207
F0.601
F0.036
I100
I100
tp52
sg9
F431.8344359397888
sg10
I100
sg11
I500
satp53
Rp54
(dp55
g25
I01
sg26
g31
sg32
(lp56
I3
aI5
aI31
aI9
asg34
I6
sg35
g36
(g3
tp57
Rp58
sbsS'SPEA2'
p59
g2
(g3
g4
(lp60
(dp61
g7
(I0
I0
I0
I0
I0
tp62
sg9
F0.03507399559020996
sg10
I100
sg11
I0
sa(dp63
g7
g62
sg9
F104.79283213615417
sg10
I100
sg11
I100
sa(dp64
g7
g62
sg9
F228.8560721874237
sg10
I100
sg11
I200
sa(dp65
g7
g62
sg9
F359.85025000572205
sg10
I100
sg11
I300
sa(dp66
g7
g62
sg9
F496.1355390548706
sg10
I100
sg11
I400
sa(dp67
g7
g62
sg9
F632.1908421516418
sg10
I100
sg11
I500
satp68
Rp69
(dp70
g25
I01
sg26
g31
sg32
(lp71
I3
aI5
aI30
aI9
asg34
I6
sg35
g36
(g3
tp72
Rp73
sbsS'IBEA-PEN'
p74
g2
(g3
g4
(lp75
(dp76
g7
(F0.131
F0.771
F0.028
I30
I45
tp77
sg9
F0.16392087936401367
sg10
I100
sg11
I0
sa(dp78
g7
(F0.193
F0.7
F0.034
I47
I86
tp79
sg9
F9.971899032592773
sg10
I100
sg11
I100
sa(dp80
g7
(F0.196
F0.584
F0.041
I52
I86
tp81
sg9
F19.895785808563232
sg10
I100
sg11
I200
sa(dp82
g7
(F0.192
F0.728
F0.041
I49
I80
tp83
sg9
F29.752686977386475
sg10
I100
sg11
I300
sa(dp84
g7
(F0.193
F0.616
F0.042
I50
I88
tp85
sg9
F39.61443281173706
sg10
I100
sg11
I400
sa(dp86
g7
(F0.193
F0.573
F0.041
I50
I83
tp87
sg9
F49.41196084022522
sg10
I100
sg11
I500
satp88
Rp89
(dp90
g25
I01
sg26
g31
sg32
(lp91
I3
aI5
aI30
aI9
asg34
I6
sg35
g36
(g3
tp92
Rp93
sbsS'IBEA'
p94
g2
(g3
g4
(lp95
(dp96
g7
(F0.052
F0.78
F0.024
I1
I1
tp97
sg9
F0.038320064544677734
sg10
I100
sg11
I0
sa(dp98
g7
(F0.082
F1.3
F0.054
I1
I1
tp99
sg9
F8.020272970199585
sg10
I100
sg11
I100
sa(dp100
g7
g62
sg9
F16.071681022644043
sg10
I100
sg11
I200
sa(dp101
g7
g62
sg9
F24.128570079803467
sg10
I100
sg11
I300
sa(dp102
g7
g62
sg9
F32.15453910827637
sg10
I100
sg11
I400
sa(dp103
g7
g62
sg9
F40.197962045669556
sg10
I100
sg11
I500
satp104
Rp105
(dp106
g25
I01
sg26
g31
sg32
(lp107
I3
aI5
aI30
aI9
asg34
I6
sg35
g36
(g3
tp108
Rp109
sbsS'NSGA2'
p110
g2
(g3
g4
(lp111
(dp112
g7
g62
sg9
F0.03488302230834961
sg10
I100
sg11
I0
sa(dp113
g7
g62
sg9
F10.785336971282959
sg10
I100
sg11
I100
sa(dp114
g7
g62
sg9
F21.47794198989868
sg10
I100
sg11
I200
sa(dp115
g7
(F0.036
F1.6
F0.028
I1
I1
tp116
sg9
F32.1185200214386
sg10
I100
sg11
I300
sa(dp117
g7
g62
sg9
F42.76599907875061
sg10
I100
sg11
I400
sa(dp118
g7
g62
sg9
F53.40785098075867
sg10
I100
sg11
I500
satp119
Rp120
(dp121
g25
I01
sg26
g31
sg32
(lp122
I3
aI5
aI30
aI9
asg34
I6
sg35
g36
(g3
tp123
Rp124
sbsS'IBEA-SIP'
p125
g2
(g3
g4
(lp126
(dp127
g7
(F0.118
F0.707
F0.035
I14
I22
tp128
sg9
F0.07289004325866699
sg10
I100
sg11
I0
sa(dp129
g7
(F0.195
F0.666
F0.032
I61
I100
tp130
sg9
F7.5146050453186035
sg10
I100
sg11
I100
sa(dp131
g7
(F0.203
F0.57
F0.036
I74
I100
tp132
sg9
F15.115597009658813
sg10
I100
sg11
I200
sa(dp133
g7
(F0.203
F0.706
F0.038
I64
I100
tp134
sg9
F22.5752010345459
sg10
I100
sg11
I300
sa(dp135
g7
(F0.204
F0.73
F0.039
I64
I100
tp136
sg9
F30.06132698059082
sg10
I100
sg11
I400
sa(dp137
g7
(F0.201
F0.65
F0.036
I60
I100
tp138
sg9
F37.56098818778992
sg10
I100
sg11
I500
satp139
Rp140
(dp141
g25
I01
sg26
g31
sg32
(lp142
I3
aI5
aI30
aI9
asg34
I6
sg35
g36
(g3
tp143
Rp144
sbs.