(dp0
S'NSGA2-SIP'
p1
ccopy_reg
_reconstructor
p2
(cdeap.tools.support
Logbook
p3
c__builtin__
list
p4
(lp5
(dp6
S'hv|spread|igd|frontier#|valid#'
p7
(F0.113
F0.865
F0.039
I14
I18
tp8
sS'timestamp'
p9
F0.07229495048522949
sS'evals'
p10
I100
sS'gen'
p11
I0
sa(dp12
g7
(F0.198
F0.609
F0.029
I98
I100
tp13
sg9
F9.392560958862305
sg10
I100
sg11
I100
sa(dp14
g7
(F0.201
F0.655
F0.03
I96
I100
tp15
sg9
F18.647090911865234
sg10
I100
sg11
I200
sa(dp16
g7
(F0.203
F0.525
F0.029
I98
I100
tp17
sg9
F27.866026878356934
sg10
I100
sg11
I300
sa(dp18
g7
(F0.201
F0.664
F0.03
I96
I100
tp19
sg9
F37.030290842056274
sg10
I100
sg11
I400
sa(dp20
g7
(F0.204
F0.618
F0.031
I97
I100
tp21
sg9
F46.32575702667236
sg10
I100
sg11
I500
satp22
Rp23
(dp24
S'log_header'
p25
I01
sS'header'
p26
(S'gen'
p27
S'evals'
p28
S'hv|spread|igd|frontier#|valid#'
p29
S'timestamp'
p30
tp31
sS'columns_len'
p32
(lp33
I3
aI5
aI30
aI9
asS'buffindex'
p34
I6
sS'chapters'
p35
ccollections
defaultdict
p36
(g3
tp37
Rp38
sbsS'SPEA2-SIP'
p39
g2
(g3
g4
(lp40
(dp41
g7
(F0.13
F0.858
F0.038
I15
I19
tp42
sg9
F0.0804898738861084
sg10
I100
sg11
I0
sa(dp43
g7
(F0.201
F0.614
F0.033
I100
I100
tp44
sg9
F81.1533088684082
sg10
I100
sg11
I100
sa(dp45
g7
(F0.203
F0.6
F0.035
I100
I100
tp46
sg9
F166.3734519481659
sg10
I100
sg11
I200
sa(dp47
g7
(F0.205
F0.667
F0.035
I100
I100
tp48
sg9
F252.18488192558289
sg10
I100
sg11
I300
sa(dp49
g7
(F0.206
F0.694
F0.036
I100
I100
tp50
sg9
F338.09746980667114
sg10
I100
sg11
I400
sa(dp51
g7
(F0.206
F0.605
F0.035
I100
I100
tp52
sg9
F424.40603399276733
sg10
I100
sg11
I500
satp53
Rp54
(dp55
g25
I01
sg26
g31
sg32
(lp56
I3
aI5
aI31
aI9
asg34
I6
sg35
g36
(g3
tp57
Rp58
sbsS'SPEA2'
p59
g2
(g3
g4
(lp60
(dp61
g7
(I0
I0
I0
I0
I0
tp62
sg9
F0.034709930419921875
sg10
I100
sg11
I0
sa(dp63
g7
g62
sg9
F108.73109793663025
sg10
I100
sg11
I100
sa(dp64
g7
g62
sg9
F236.08582305908203
sg10
I100
sg11
I200
sa(dp65
g7
g62
sg9
F368.0157449245453
sg10
I100
sg11
I300
sa(dp66
g7
g62
sg9
F487.5369460582733
sg10
I100
sg11
I400
sa(dp67
g7
(F0.082
F1.02
F0.02
I1
I1
tp68
sg9
F609.6143789291382
sg10
I100
sg11
I500
satp69
Rp70
(dp71
g25
I01
sg26
g31
sg32
(lp72
I3
aI5
aI30
aI9
asg34
I6
sg35
g36
(g3
tp73
Rp74
sbsS'IBEA-PEN'
p75
g2
(g3
g4
(lp76
(dp77
g7
(F0.143
F0.615
F0.029
I33
I41
tp78
sg9
F0.17309093475341797
sg10
I100
sg11
I0
sa(dp79
g7
(F0.2
F0.583
F0.037
I54
I93
tp80
sg9
F9.946209907531738
sg10
I100
sg11
I100
sa(dp81
g7
(F0.197
F0.541
F0.039
I59
I90
tp82
sg9
F19.817464113235474
sg10
I100
sg11
I200
sa(dp83
g7
(F0.187
F0.631
F0.037
I50
I86
tp84
sg9
F29.453361988067627
sg10
I100
sg11
I300
sa(dp85
g7
(F0.18
F0.554
F0.044
I44
I77
tp86
sg9
F39.18028903007507
sg10
I100
sg11
I400
sa(dp87
g7
(F0.193
F0.669
F0.041
I57
I84
tp88
sg9
F49.087207078933716
sg10
I100
sg11
I500
satp89
Rp90
(dp91
g25
I01
sg26
g31
sg32
(lp92
I3
aI5
aI30
aI9
asg34
I6
sg35
g36
(g3
tp93
Rp94
sbsS'IBEA'
p95
g2
(g3
g4
(lp96
(dp97
g7
(F0.046
F1.38
F0.014
I1
I1
tp98
sg9
F0.03783988952636719
sg10
I100
sg11
I0
sa(dp99
g7
g62
sg9
F7.84348201751709
sg10
I100
sg11
I100
sa(dp100
g7
(F0.065
F1.52
F0.088
I1
I1
tp101
sg9
F15.697618961334229
sg10
I100
sg11
I200
sa(dp102
g7
(F0.094
F0.985
F0.064
I2
I2
tp103
sg9
F23.30910301208496
sg10
I100
sg11
I300
sa(dp104
g7
g62
sg9
F31.239653825759888
sg10
I100
sg11
I400
sa(dp105
g7
(F0.017
F1.76
F0.116
I1
I1
tp106
sg9
F39.127760887145996
sg10
I100
sg11
I500
satp107
Rp108
(dp109
g25
I01
sg26
g31
sg32
(lp110
I3
aI5
aI30
aI9
asg34
I6
sg35
g36
(g3
tp111
Rp112
sbsS'NSGA2'
p113
g2
(g3
g4
(lp114
(dp115
g7
(F0.068
F1.1
F0.024
I1
I1
tp116
sg9
F0.037492990493774414
sg10
I100
sg11
I0
sa(dp117
g7
g62
sg9
F10.582515954971313
sg10
I100
sg11
I100
sa(dp118
g7
g62
sg9
F21.096785068511963
sg10
I100
sg11
I200
sa(dp119
g7
g62
sg9
F31.600714921951294
sg10
I100
sg11
I300
sa(dp120
g7
g62
sg9
F42.08124804496765
sg10
I100
sg11
I400
sa(dp121
g7
g62
sg9
F52.56267595291138
sg10
I100
sg11
I500
satp122
Rp123
(dp124
g25
I01
sg26
g31
sg32
(lp125
I3
aI5
aI30
aI9
asg34
I6
sg35
g36
(g3
tp126
Rp127
sbsS'IBEA-SIP'
p128
g2
(g3
g4
(lp129
(dp130
g7
(F0.117
F0.812
F0.035
I15
I20
tp131
sg9
F0.07519912719726562
sg10
I100
sg11
I0
sa(dp132
g7
(F0.2
F0.679
F0.034
I61
I100
tp133
sg9
F7.476473093032837
sg10
I100
sg11
I100
sa(dp134
g7
(F0.201
F0.68
F0.037
I68
I100
tp135
sg9
F14.985481977462769
sg10
I100
sg11
I200
sa(dp136
g7
(F0.203
F0.694
F0.038
I67
I100
tp137
sg9
F22.46191096305847
sg10
I100
sg11
I300
sa(dp138
g7
(F0.203
F0.726
F0.038
I70
I100
tp139
sg9
F29.705785036087036
sg10
I100
sg11
I400
sa(dp140
g7
(F0.203
F0.742
F0.035
I68
I100
tp141
sg9
F37.186294078826904
sg10
I100
sg11
I500
satp142
Rp143
(dp144
g25
I01
sg26
g31
sg32
(lp145
I3
aI5
aI30
aI9
asg34
I6
sg35
g36
(g3
tp146
Rp147
sbs.