(dp0
S'NSGA2-SIP'
p1
ccopy_reg
_reconstructor
p2
(cdeap.tools.support
Logbook
p3
c__builtin__
list
p4
(lp5
(dp6
S'hv|spread|igd|frontier#|valid#'
p7
(F0.123
F0.799
F0.034
I20
I25
tp8
sS'timestamp'
p9
F0.10478711128234863
sS'evals'
p10
I100
sS'gen'
p11
I0
sa(dp12
g7
(F0.2
F0.599
F0.03
I95
I100
tp13
sg9
F10.484907150268555
sg10
I100
sg11
I100
sa(dp14
g7
(F0.204
F0.556
F0.031
I97
I100
tp15
sg9
F20.900974988937378
sg10
I100
sg11
I200
sa(dp16
g7
(F0.205
F0.552
F0.03
I97
I100
tp17
sg9
F31.3364360332489
sg10
I100
sg11
I300
sa(dp18
g7
(F0.207
F0.634
F0.031
I97
I100
tp19
sg9
F41.79207396507263
sg10
I100
sg11
I400
sa(dp20
g7
(F0.207
F0.596
F0.032
I97
I100
tp21
sg9
F52.130258083343506
sg10
I100
sg11
I500
satp22
Rp23
(dp24
S'log_header'
p25
I01
sS'header'
p26
(S'gen'
p27
S'evals'
p28
S'hv|spread|igd|frontier#|valid#'
p29
S'timestamp'
p30
tp31
sS'columns_len'
p32
(lp33
I3
aI5
aI30
aI9
asS'buffindex'
p34
I6
sS'chapters'
p35
ccollections
defaultdict
p36
(g3
tp37
Rp38
sbsS'SPEA2-SIP'
p39
g2
(g3
g4
(lp40
(dp41
g7
(F0.127
F0.764
F0.037
I13
I22
tp42
sg9
F0.07773995399475098
sg10
I100
sg11
I0
sa(dp43
g7
(F0.195
F0.653
F0.033
I100
I100
tp44
sg9
F86.27814817428589
sg10
I100
sg11
I100
sa(dp45
g7
(F0.201
F0.592
F0.035
I100
I100
tp46
sg9
F183.46933913230896
sg10
I100
sg11
I200
sa(dp47
g7
(F0.208
F0.619
F0.035
I100
I100
tp48
sg9
F277.163458108902
sg10
I100
sg11
I300
sa(dp49
g7
(F0.209
F0.542
F0.037
I100
I100
tp50
sg9
F369.7157971858978
sg10
I100
sg11
I400
sa(dp51
g7
(F0.209
F0.552
F0.038
I100
I100
tp52
sg9
F464.1579420566559
sg10
I100
sg11
I500
satp53
Rp54
(dp55
g25
I01
sg26
g31
sg32
(lp56
I3
aI5
aI31
aI9
asg34
I6
sg35
g36
(g3
tp57
Rp58
sbsS'SPEA2'
p59
g2
(g3
g4
(lp60
(dp61
g7
(I0
I0
I0
I0
I0
tp62
sg9
F0.038439035415649414
sg10
I100
sg11
I0
sa(dp63
g7
g62
sg9
F135.40721607208252
sg10
I100
sg11
I100
sa(dp64
g7
g62
sg9
F290.8259630203247
sg10
I100
sg11
I200
sa(dp65
g7
g62
sg9
F450.68666315078735
sg10
I100
sg11
I300
sa(dp66
g7
g62
sg9
F608.4997410774231
sg10
I100
sg11
I400
sa(dp67
g7
g62
sg9
F764.7323770523071
sg10
I100
sg11
I500
satp68
Rp69
(dp70
g25
I01
sg26
g31
sg32
(lp71
I3
aI5
aI30
aI9
asg34
I6
sg35
g36
(g3
tp72
Rp73
sbsS'IBEA-PEN'
p74
g2
(g3
g4
(lp75
(dp76
g7
(F0.142
F0.584
F0.029
I26
I37
tp77
sg9
F0.17295098304748535
sg10
I100
sg11
I0
sa(dp78
g7
(F0.062
F1.46
F0.05
I1
I1
tp79
sg9
F8.648620128631592
sg10
I100
sg11
I100
sa(dp80
g7
(F0.076
F1.42
F0.085
I1
I1
tp81
sg9
F17.151764154434204
sg10
I100
sg11
I200
sa(dp82
g7
(F0.061
F2.536
F0.088
I1
I1
tp83
sg9
F25.604031085968018
sg10
I100
sg11
I300
sa(dp84
g7
(F0.061
F2.536
F0.088
I1
I1
tp85
sg9
F34.03873014450073
sg10
I100
sg11
I400
sa(dp86
g7
g62
sg9
F42.49178099632263
sg10
I100
sg11
I500
satp87
Rp88
(dp89
g25
I01
sg26
g31
sg32
(lp90
I3
aI5
aI30
aI9
asg34
I6
sg35
g36
(g3
tp91
Rp92
sbsS'IBEA'
p93
g2
(g3
g4
(lp94
(dp95
g7
g62
sg9
F0.03827214241027832
sg10
I100
sg11
I0
sa(dp96
g7
g62
sg9
F8.298673152923584
sg10
I100
sg11
I100
sa(dp97
g7
g62
sg9
F16.605370044708252
sg10
I100
sg11
I200
sa(dp98
g7
g62
sg9
F24.901957035064697
sg10
I100
sg11
I300
sa(dp99
g7
g62
sg9
F33.158942222595215
sg10
I100
sg11
I400
sa(dp100
g7
g62
sg9
F41.45146608352661
sg10
I100
sg11
I500
satp101
Rp102
(dp103
g25
I01
sg26
g31
sg32
(lp104
I3
aI5
aI30
aI9
asg34
I6
sg35
g36
(g3
tp105
Rp106
sbsS'NSGA2'
p107
g2
(g3
g4
(lp108
(dp109
g7
g62
sg9
F0.03845095634460449
sg10
I100
sg11
I0
sa(dp110
g7
g62
sg9
F12.13654112815857
sg10
I100
sg11
I100
sa(dp111
g7
(F0.034
F2.586
F0.042
I1
I1
tp112
sg9
F24.190593004226685
sg10
I100
sg11
I200
sa(dp113
g7
g62
sg9
F36.20053505897522
sg10
I100
sg11
I300
sa(dp114
g7
g62
sg9
F48.142240047454834
sg10
I100
sg11
I400
sa(dp115
g7
g62
sg9
F60.145363092422485
sg10
I100
sg11
I500
satp116
Rp117
(dp118
g25
I01
sg26
g31
sg32
(lp119
I3
aI5
aI30
aI9
asg34
I6
sg35
g36
(g3
tp120
Rp121
sbsS'IBEA-SIP'
p122
g2
(g3
g4
(lp123
(dp124
g7
(F0.131
F0.851
F0.039
I14
I19
tp125
sg9
F0.07965683937072754
sg10
I100
sg11
I0
sa(dp126
g7
(F0.201
F0.62
F0.035
I70
I100
tp127
sg9
F7.881265878677368
sg10
I100
sg11
I100
sa(dp128
g7
(F0.204
F0.606
F0.036
I70
I100
tp129
sg9
F15.76228404045105
sg10
I100
sg11
I200
sa(dp130
g7
(F0.204
F0.748
F0.038
I61
I100
tp131
sg9
F23.605738878250122
sg10
I100
sg11
I300
sa(dp132
g7
(F0.202
F0.658
F0.037
I64
I100
tp133
sg9
F31.486675024032593
sg10
I100
sg11
I400
sa(dp134
g7
(F0.201
F0.609
F0.038
I64
I100
tp135
sg9
F39.28781199455261
sg10
I100
sg11
I500
satp136
Rp137
(dp138
g25
I01
sg26
g31
sg32
(lp139
I3
aI5
aI30
aI9
asg34
I6
sg35
g36
(g3
tp140
Rp141
sbs.