(dp0
S'NSGA2-SIP'
p1
ccopy_reg
_reconstructor
p2
(cdeap.tools.support
Logbook
p3
c__builtin__
list
p4
(lp5
(dp6
S'hv|spread|igd|frontier#|valid#'
p7
(F0.119
F0.754
F0.034
I13
I18
tp8
sS'timestamp'
p9
F0.06473994255065918
sS'evals'
p10
I100
sS'gen'
p11
I0
sa(dp12
g7
(F0.202
F0.578
F0.03
I94
I100
tp13
sg9
F8.81658387184143
sg10
I100
sg11
I100
sa(dp14
g7
(F0.202
F0.581
F0.029
I98
I100
tp15
sg9
F17.504474878311157
sg10
I100
sg11
I200
sa(dp16
g7
(F0.205
F0.588
F0.032
I99
I100
tp17
sg9
F26.20586609840393
sg10
I100
sg11
I300
sa(dp18
g7
(F0.202
F0.571
F0.032
I98
I100
tp19
sg9
F34.89509701728821
sg10
I100
sg11
I400
sa(dp20
g7
(F0.207
F0.593
F0.033
I99
I100
tp21
sg9
F43.573139905929565
sg10
I100
sg11
I500
satp22
Rp23
(dp24
S'log_header'
p25
I01
sS'header'
p26
(S'gen'
p27
S'evals'
p28
S'hv|spread|igd|frontier#|valid#'
p29
S'timestamp'
p30
tp31
sS'columns_len'
p32
(lp33
I3
aI5
aI30
aI9
asS'buffindex'
p34
I6
sS'chapters'
p35
ccollections
defaultdict
p36
(g3
tp37
Rp38
sbsS'SPEA2-SIP'
p39
g2
(g3
g4
(lp40
(dp41
g7
(F0.133
F0.706
F0.032
I22
I32
tp42
sg9
F0.09717917442321777
sg10
I100
sg11
I0
sa(dp43
g7
(F0.2
F0.647
F0.034
I100
I100
tp44
sg9
F73.42322111129761
sg10
I100
sg11
I100
sa(dp45
g7
(F0.201
F0.575
F0.034
I100
I100
tp46
sg9
F161.37510418891907
sg10
I100
sg11
I200
sa(dp47
g7
(F0.203
F0.653
F0.035
I100
I100
tp48
sg9
F245.95155906677246
sg10
I100
sg11
I300
sa(dp49
g7
(F0.207
F0.672
F0.037
I100
I100
tp50
sg9
F331.36625814437866
sg10
I100
sg11
I400
sa(dp51
g7
(F0.207
F0.634
F0.036
I100
I100
tp52
sg9
F416.07127118110657
sg10
I100
sg11
I500
satp53
Rp54
(dp55
g25
I01
sg26
g31
sg32
(lp56
I3
aI5
aI31
aI9
asg34
I6
sg35
g36
(g3
tp57
Rp58
sbsS'SPEA2'
p59
g2
(g3
g4
(lp60
(dp61
g7
(F0.066
F0.98
F0.045
I1
I1
tp62
sg9
F0.03514409065246582
sg10
I100
sg11
I0
sa(dp63
g7
(I0
I0
I0
I0
I0
tp64
sg9
F105.91405200958252
sg10
I100
sg11
I100
sa(dp65
g7
g64
sg9
F227.71675515174866
sg10
I100
sg11
I200
sa(dp66
g7
g64
sg9
F349.94821310043335
sg10
I100
sg11
I300
sa(dp67
g7
g64
sg9
F468.4877631664276
sg10
I100
sg11
I400
sa(dp68
g7
g64
sg9
F591.6776101589203
sg10
I100
sg11
I500
satp69
Rp70
(dp71
g25
I01
sg26
g31
sg32
(lp72
I3
aI5
aI30
aI9
asg34
I6
sg35
g36
(g3
tp73
Rp74
sbsS'IBEA-PEN'
p75
g2
(g3
g4
(lp76
(dp77
g7
(F0.151
F0.615
F0.027
I27
I39
tp78
sg9
F0.1479032039642334
sg10
I100
sg11
I0
sa(dp79
g7
g64
sg9
F7.677356004714966
sg10
I100
sg11
I100
sa(dp80
g7
g64
sg9
F15.21435809135437
sg10
I100
sg11
I200
sa(dp81
g7
g64
sg9
F22.768020153045654
sg10
I100
sg11
I300
sa(dp82
g7
g64
sg9
F30.33774209022522
sg10
I100
sg11
I400
sa(dp83
g7
g64
sg9
F37.89597201347351
sg10
I100
sg11
I500
satp84
Rp85
(dp86
g25
I01
sg26
g31
sg32
(lp87
I3
aI5
aI30
aI9
asg34
I6
sg35
g36
(g3
tp88
Rp89
sbsS'IBEA'
p90
g2
(g3
g4
(lp91
(dp92
g7
(F0.043
F1.34
F0.035
I1
I1
tp93
sg9
F0.05353093147277832
sg10
I100
sg11
I0
sa(dp94
g7
g64
sg9
F7.4612109661102295
sg10
I100
sg11
I100
sa(dp95
g7
g64
sg9
F14.90877103805542
sg10
I100
sg11
I200
sa(dp96
g7
g64
sg9
F22.350077867507935
sg10
I100
sg11
I300
sa(dp97
g7
(F0.087
F1.06
F0.03
I1
I1
tp98
sg9
F29.78503394126892
sg10
I100
sg11
I400
sa(dp99
g7
g64
sg9
F37.2160120010376
sg10
I100
sg11
I500
satp100
Rp101
(dp102
g25
I01
sg26
g31
sg32
(lp103
I3
aI5
aI30
aI9
asg34
I6
sg35
g36
(g3
tp104
Rp105
sbsS'NSGA2'
p106
g2
(g3
g4
(lp107
(dp108
g7
g64
sg9
F0.032243967056274414
sg10
I100
sg11
I0
sa(dp109
g7
g64
sg9
F10.07277512550354
sg10
I100
sg11
I100
sa(dp110
g7
g64
sg9
F20.072956085205078
sg10
I100
sg11
I200
sa(dp111
g7
g64
sg9
F30.02065110206604
sg10
I100
sg11
I300
sa(dp112
g7
g64
sg9
F39.96054196357727
sg10
I100
sg11
I400
sa(dp113
g7
(F0.084
F1.1
F0.035
I1
I1
tp114
sg9
F49.90114498138428
sg10
I100
sg11
I500
satp115
Rp116
(dp117
g25
I01
sg26
g31
sg32
(lp118
I3
aI5
aI30
aI9
asg34
I6
sg35
g36
(g3
tp119
Rp120
sbsS'IBEA-SIP'
p121
g2
(g3
g4
(lp122
(dp123
g7
(F0.13
F0.667
F0.038
I19
I26
tp124
sg9
F0.10874581336975098
sg10
I100
sg11
I0
sa(dp125
g7
(F0.2
F0.673
F0.033
I75
I100
tp126
sg9
F7.106393814086914
sg10
I100
sg11
I100
sa(dp127
g7
(F0.199
F0.637
F0.035
I60
I100
tp128
sg9
F14.135451793670654
sg10
I100
sg11
I200
sa(dp129
g7
(F0.2
F0.603
F0.036
I62
I100
tp130
sg9
F21.11048984527588
sg10
I100
sg11
I300
sa(dp131
g7
(F0.203
F0.649
F0.037
I65
I100
tp132
sg9
F28.085752964019775
sg10
I100
sg11
I400
sa(dp133
g7
(F0.201
F0.755
F0.035
I61
I100
tp134
sg9
F34.99743890762329
sg10
I100
sg11
I500
satp135
Rp136
(dp137
g25
I01
sg26
g31
sg32
(lp138
I3
aI5
aI30
aI9
asg34
I6
sg35
g36
(g3
tp139
Rp140
sbs.