(dp0
S'NSGA2-SIP'
p1
ccopy_reg
_reconstructor
p2
(cdeap.tools.support
Logbook
p3
c__builtin__
list
p4
(lp5
(dp6
S'hv|spread|igd|frontier#|valid#'
p7
(F0.117
F0.785
F0.038
I12
I24
tp8
sS'timestamp'
p9
F0.06070208549499512
sS'evals'
p10
I100
sS'gen'
p11
I0
sa(dp12
g7
(F0.198
F0.569
F0.029
I98
I100
tp13
sg9
F8.653624057769775
sg10
I100
sg11
I100
sa(dp14
g7
(F0.204
F0.574
F0.031
I97
I100
tp15
sg9
F17.063848972320557
sg10
I100
sg11
I200
sa(dp16
g7
(F0.207
F0.692
F0.033
I98
I100
tp17
sg9
F25.5316219329834
sg10
I100
sg11
I300
sa(dp18
g7
(F0.206
F0.548
F0.031
I97
I100
tp19
sg9
F33.94541907310486
sg10
I100
sg11
I400
sa(dp20
g7
(F0.207
F0.552
F0.034
I97
I100
tp21
sg9
F42.362459897994995
sg10
I100
sg11
I500
satp22
Rp23
(dp24
S'log_header'
p25
I01
sS'header'
p26
(S'gen'
p27
S'evals'
p28
S'hv|spread|igd|frontier#|valid#'
p29
S'timestamp'
p30
tp31
sS'columns_len'
p32
(lp33
I3
aI5
aI30
aI9
asS'buffindex'
p34
I6
sS'chapters'
p35
ccollections
defaultdict
p36
(g3
tp37
Rp38
sbsS'SPEA2-SIP'
p39
g2
(g3
g4
(lp40
(dp41
g7
(F0.111
F0.819
F0.036
I12
I12
tp42
sg9
F0.05921506881713867
sg10
I100
sg11
I0
sa(dp43
g7
(F0.2
F0.529
F0.031
I100
I100
tp44
sg9
F72.54402804374695
sg10
I100
sg11
I100
sa(dp45
g7
(F0.202
F0.57
F0.033
I100
I100
tp46
sg9
F151.77222204208374
sg10
I100
sg11
I200
sa(dp47
g7
(F0.204
F0.609
F0.034
I100
I100
tp48
sg9
F230.84533596038818
sg10
I100
sg11
I300
sa(dp49
g7
(F0.204
F0.637
F0.034
I100
I100
tp50
sg9
F309.30115509033203
sg10
I100
sg11
I400
sa(dp51
g7
(F0.206
F0.665
F0.036
I100
I100
tp52
sg9
F388.50425004959106
sg10
I100
sg11
I500
satp53
Rp54
(dp55
g25
I01
sg26
g31
sg32
(lp56
I3
aI5
aI31
aI9
asg34
I6
sg35
g36
(g3
tp57
Rp58
sbsS'SPEA2'
p59
g2
(g3
g4
(lp60
(dp61
g7
(I0
I0
I0
I0
I0
tp62
sg9
F0.03174996376037598
sg10
I100
sg11
I0
sa(dp63
g7
g62
sg9
F97.186763048172
sg10
I100
sg11
I100
sa(dp64
g7
g62
sg9
F215.672611951828
sg10
I100
sg11
I200
sa(dp65
g7
g62
sg9
F336.06664514541626
sg10
I100
sg11
I300
sa(dp66
g7
g62
sg9
F454.6932489871979
sg10
I100
sg11
I400
sa(dp67
g7
g62
sg9
F572.4466619491577
sg10
I100
sg11
I500
satp68
Rp69
(dp70
g25
I01
sg26
g31
sg32
(lp71
I3
aI5
aI30
aI9
asg34
I6
sg35
g36
(g3
tp72
Rp73
sbsS'IBEA'
p74
g2
(g3
g4
(lp75
(dp76
g7
(F0.053
F1.02
F0.077
I1
I1
tp77
sg9
F0.03412294387817383
sg10
I100
sg11
I0
sa(dp78
g7
g62
sg9
F7.18896484375
sg10
I100
sg11
I100
sa(dp79
g7
(F0.074
F1.3
F0.042
I1
I1
tp80
sg9
F14.465175867080688
sg10
I100
sg11
I200
sa(dp81
g7
(F0.113
F0.901
F0.045
I2
I2
tp82
sg9
F21.766216039657593
sg10
I100
sg11
I300
sa(dp83
g7
(F0.087
F1.14
F0.071
I1
I1
tp84
sg9
F29.060817003250122
sg10
I100
sg11
I400
sa(dp85
g7
(F0.095
F0.909
F0.06
I2
I3
tp86
sg9
F36.343331813812256
sg10
I100
sg11
I500
satp87
Rp88
(dp89
g25
I01
sg26
g31
sg32
(lp90
I3
aI5
aI30
aI9
asg34
I6
sg35
g36
(g3
tp91
Rp92
sbsS'NSGA2'
p93
g2
(g3
g4
(lp94
(dp95
g7
(F0.059
F0.94
F0.047
I1
I1
tp96
sg9
F0.034004926681518555
sg10
I100
sg11
I0
sa(dp97
g7
g62
sg9
F9.747941970825195
sg10
I100
sg11
I100
sa(dp98
g7
g62
sg9
F19.444684982299805
sg10
I100
sg11
I200
sa(dp99
g7
g62
sg9
F29.10658288002014
sg10
I100
sg11
I300
sa(dp100
g7
g62
sg9
F38.73579001426697
sg10
I100
sg11
I400
sa(dp101
g7
g62
sg9
F48.35164189338684
sg10
I100
sg11
I500
satp102
Rp103
(dp104
g25
I01
sg26
g31
sg32
(lp105
I3
aI5
aI30
aI9
asg34
I6
sg35
g36
(g3
tp106
Rp107
sbsS'IBEA-SIP'
p108
g2
(g3
g4
(lp109
(dp110
g7
(F0.13
F0.716
F0.04
I19
I23
tp111
sg9
F0.08260107040405273
sg10
I100
sg11
I0
sa(dp112
g7
(F0.202
F0.569
F0.033
I65
I100
tp113
sg9
F6.782029151916504
sg10
I100
sg11
I100
sa(dp114
g7
(F0.199
F0.664
F0.039
I70
I100
tp115
sg9
F13.603167057037354
sg10
I100
sg11
I200
sa(dp116
g7
(F0.202
F0.65
F0.037
I70
I100
tp117
sg9
F20.429720163345337
sg10
I100
sg11
I300
sa(dp118
g7
(F0.203
F0.64
F0.039
I67
I100
tp119
sg9
F27.233952045440674
sg10
I100
sg11
I400
sa(dp120
g7
(F0.204
F0.563
F0.037
I64
I100
tp121
sg9
F34.00097298622131
sg10
I100
sg11
I500
satp122
Rp123
(dp124
g25
I01
sg26
g31
sg32
(lp125
I3
aI5
aI30
aI9
asg34
I6
sg35
g36
(g3
tp126
Rp127
sbs.