(dp0
S'NSGA2-SIP'
p1
ccopy_reg
_reconstructor
p2
(cdeap.tools.support
Logbook
p3
c__builtin__
list
p4
(lp5
(dp6
S'hv|spread|igd|frontier#|valid#'
p7
(F0.107
F0.953
F0.037
I14
I20
tp8
sS'timestamp'
p9
F0.07248711585998535
sS'evals'
p10
I100
sS'gen'
p11
I0
sa(dp12
g7
(F0.195
F0.616
F0.03
I98
I100
tp13
sg9
F9.36557912826538
sg10
I100
sg11
I100
sa(dp14
g7
(F0.199
F0.575
F0.031
I96
I100
tp15
sg9
F18.615214109420776
sg10
I100
sg11
I200
sa(dp16
g7
(F0.203
F0.596
F0.03
I99
I100
tp17
sg9
F27.94115710258484
sg10
I100
sg11
I300
sa(dp18
g7
(F0.205
F0.618
F0.032
I98
I100
tp19
sg9
F37.28175711631775
sg10
I100
sg11
I400
sa(dp20
g7
(F0.206
F0.61
F0.032
I97
I100
tp21
sg9
F46.54549813270569
sg10
I100
sg11
I500
satp22
Rp23
(dp24
S'log_header'
p25
I01
sS'header'
p26
(S'gen'
p27
S'evals'
p28
S'hv|spread|igd|frontier#|valid#'
p29
S'timestamp'
p30
tp31
sS'columns_len'
p32
(lp33
I3
aI5
aI30
aI9
asS'buffindex'
p34
I6
sS'chapters'
p35
ccollections
defaultdict
p36
(g3
tp37
Rp38
sbsS'SPEA2-SIP'
p39
g2
(g3
g4
(lp40
(dp41
g7
(F0.132
F0.851
F0.034
I15
I23
tp42
sg9
F0.07661199569702148
sg10
I100
sg11
I0
sa(dp43
g7
(F0.205
F0.603
F0.032
I100
I100
tp44
sg9
F84.77429604530334
sg10
I100
sg11
I100
sa(dp45
g7
(F0.208
F0.628
F0.034
I100
I100
tp46
sg9
F175.5223560333252
sg10
I100
sg11
I200
sa(dp47
g7
(F0.209
F0.629
F0.035
I100
I100
tp48
sg9
F264.94758105278015
sg10
I100
sg11
I300
sa(dp49
g7
(F0.209
F0.639
F0.036
I100
I100
tp50
sg9
F353.1547939777374
sg10
I100
sg11
I400
sa(dp51
g7
(F0.21
F0.635
F0.036
I100
I100
tp52
sg9
F442.1124429702759
sg10
I100
sg11
I500
satp53
Rp54
(dp55
g25
I01
sg26
g31
sg32
(lp56
I3
aI5
aI31
aI9
asg34
I6
sg35
g36
(g3
tp57
Rp58
sbsS'SPEA2'
p59
g2
(g3
g4
(lp60
(dp61
g7
(F0.056
F0.78
F0.041
I1
I1
tp62
sg9
F0.03831219673156738
sg10
I100
sg11
I0
sa(dp63
g7
(I0
I0
I0
I0
I0
tp64
sg9
F111.44347810745239
sg10
I100
sg11
I100
sa(dp65
g7
g64
sg9
F235.79049110412598
sg10
I100
sg11
I200
sa(dp66
g7
(F0.065
F1.34
F0.037
I1
I1
tp67
sg9
F362.90526008605957
sg10
I100
sg11
I300
sa(dp68
g7
g64
sg9
F488.7708601951599
sg10
I100
sg11
I400
sa(dp69
g7
g64
sg9
F614.721009016037
sg10
I100
sg11
I500
satp70
Rp71
(dp72
g25
I01
sg26
g31
sg32
(lp73
I3
aI5
aI30
aI9
asg34
I6
sg35
g36
(g3
tp74
Rp75
sbsS'IBEA'
p76
g2
(g3
g4
(lp77
(dp78
g7
(F0.057
F0.78
F0.035
I1
I1
tp79
sg9
F0.03766012191772461
sg10
I100
sg11
I0
sa(dp80
g7
(F0.034
F1.64
F0.046
I1
I1
tp81
sg9
F7.904138088226318
sg10
I100
sg11
I100
sa(dp82
g7
(F0.091
F1.02
F0.062
I1
I1
tp83
sg9
F15.843009948730469
sg10
I100
sg11
I200
sa(dp84
g7
g64
sg9
F23.785134077072144
sg10
I100
sg11
I300
sa(dp85
g7
g64
sg9
F31.735270977020264
sg10
I100
sg11
I400
sa(dp86
g7
g64
sg9
F39.78019309043884
sg10
I100
sg11
I500
satp87
Rp88
(dp89
g25
I01
sg26
g31
sg32
(lp90
I3
aI5
aI30
aI9
asg34
I6
sg35
g36
(g3
tp91
Rp92
sbsS'NSGA2'
p93
g2
(g3
g4
(lp94
(dp95
g7
(F0.071
F1.02
F0.024
I1
I1
tp96
sg9
F0.03760480880737305
sg10
I100
sg11
I0
sa(dp97
g7
g64
sg9
F10.698102951049805
sg10
I100
sg11
I100
sa(dp98
g7
g64
sg9
F21.249945878982544
sg10
I100
sg11
I200
sa(dp99
g7
g64
sg9
F31.8297119140625
sg10
I100
sg11
I300
sa(dp100
g7
g64
sg9
F42.35541796684265
sg10
I100
sg11
I400
sa(dp101
g7
g64
sg9
F52.92898488044739
sg10
I100
sg11
I500
satp102
Rp103
(dp104
g25
I01
sg26
g31
sg32
(lp105
I3
aI5
aI30
aI9
asg34
I6
sg35
g36
(g3
tp106
Rp107
sbsS'IBEA-SIP'
p108
g2
(g3
g4
(lp109
(dp110
g7
(F0.109
F0.807
F0.032
I10
I24
tp111
sg9
F0.061109066009521484
sg10
I100
sg11
I0
sa(dp112
g7
(F0.197
F0.677
F0.036
I66
I100
tp113
sg9
F7.4551050662994385
sg10
I100
sg11
I100
sa(dp114
g7
(F0.199
F0.688
F0.039
I68
I100
tp115
sg9
F14.981678009033203
sg10
I100
sg11
I200
sa(dp116
g7
(F0.204
F0.583
F0.037
I67
I100
tp117
sg9
F22.49847102165222
sg10
I100
sg11
I300
sa(dp118
g7
(F0.203
F0.633
F0.038
I67
I100
tp119
sg9
F29.976802110671997
sg10
I100
sg11
I400
sa(dp120
g7
(F0.201
F0.571
F0.033
I68
I100
tp121
sg9
F37.45648694038391
sg10
I100
sg11
I500
satp122
Rp123
(dp124
g25
I01
sg26
g31
sg32
(lp125
I3
aI5
aI30
aI9
asg34
I6
sg35
g36
(g3
tp126
Rp127
sbs.