(dp0
S'NSGA2-SIP'
p1
ccopy_reg
_reconstructor
p2
(cdeap.tools.support
Logbook
p3
c__builtin__
list
p4
(lp5
(dp6
S'hv|spread|igd|frontier#|valid#'
p7
(F0.117
F0.869
F0.032
I11
I16
tp8
sS'timestamp'
p9
F0.062293052673339844
sS'evals'
p10
I100
sS'gen'
p11
I0
sa(dp12
g7
(F0.199
F0.642
F0.029
I97
I100
tp13
sg9
F9.452628135681152
sg10
I100
sg11
I100
sa(dp14
g7
(F0.2
F0.587
F0.03
I98
I100
tp15
sg9
F18.750072956085205
sg10
I100
sg11
I200
sa(dp16
g7
(F0.203
F0.576
F0.032
I98
I100
tp17
sg9
F28.12347912788391
sg10
I100
sg11
I300
sa(dp18
g7
(F0.204
F0.545
F0.032
I97
I100
tp19
sg9
F37.49423098564148
sg10
I100
sg11
I400
sa(dp20
g7
(F0.203
F0.552
F0.031
I97
I100
tp21
sg9
F46.82826900482178
sg10
I100
sg11
I500
satp22
Rp23
(dp24
S'log_header'
p25
I01
sS'header'
p26
(S'gen'
p27
S'evals'
p28
S'hv|spread|igd|frontier#|valid#'
p29
S'timestamp'
p30
tp31
sS'columns_len'
p32
(lp33
I3
aI5
aI30
aI9
asS'buffindex'
p34
I6
sS'chapters'
p35
ccollections
defaultdict
p36
(g3
tp37
Rp38
sbsS'SPEA2-SIP'
p39
g2
(g3
g4
(lp40
(dp41
g7
(F0.11
F0.861
F0.04
I13
I18
tp42
sg9
F0.06879901885986328
sg10
I100
sg11
I0
sa(dp43
g7
(F0.193
F0.637
F0.033
I100
I100
tp44
sg9
F81.36763191223145
sg10
I100
sg11
I100
sa(dp45
g7
(F0.2
F0.654
F0.034
I100
I100
tp46
sg9
F169.14363598823547
sg10
I100
sg11
I200
sa(dp47
g7
(F0.2
F0.633
F0.034
I100
I100
tp48
sg9
F255.50407004356384
sg10
I100
sg11
I300
sa(dp49
g7
(F0.201
F0.57
F0.034
I100
I100
tp50
sg9
F342.66725611686707
sg10
I100
sg11
I400
sa(dp51
g7
(F0.204
F0.64
F0.036
I100
I100
tp52
sg9
F431.80575704574585
sg10
I100
sg11
I500
satp53
Rp54
(dp55
g25
I01
sg26
g31
sg32
(lp56
I3
aI5
aI31
aI9
asg34
I6
sg35
g36
(g3
tp57
Rp58
sbsS'SPEA2'
p59
g2
(g3
g4
(lp60
(dp61
g7
(F0.056
F1.02
F0.063
I1
I1
tp62
sg9
F0.03751111030578613
sg10
I100
sg11
I0
sa(dp63
g7
(I0
I0
I0
I0
I0
tp64
sg9
F107.5214900970459
sg10
I100
sg11
I100
sa(dp65
g7
g64
sg9
F227.86546111106873
sg10
I100
sg11
I200
sa(dp66
g7
g64
sg9
F351.44996404647827
sg10
I100
sg11
I300
sa(dp67
g7
g64
sg9
F471.332435131073
sg10
I100
sg11
I400
sa(dp68
g7
g64
sg9
F598.765114068985
sg10
I100
sg11
I500
satp69
Rp70
(dp71
g25
I01
sg26
g31
sg32
(lp72
I3
aI5
aI30
aI9
asg34
I6
sg35
g36
(g3
tp73
Rp74
sbsS'IBEA-PEN'
p75
g2
(g3
g4
(lp76
(dp77
g7
(F0.13
F0.695
F0.027
I27
I43
tp78
sg9
F0.15285897254943848
sg10
I100
sg11
I0
sa(dp79
g7
(F0.197
F0.608
F0.035
I49
I86
tp80
sg9
F9.968533039093018
sg10
I100
sg11
I100
sa(dp81
g7
(F0.195
F0.554
F0.036
I53
I84
tp82
sg9
F19.978468894958496
sg10
I100
sg11
I200
sa(dp83
g7
(F0.2
F0.6
F0.038
I54
I92
tp84
sg9
F29.96562910079956
sg10
I100
sg11
I300
sa(dp85
g7
(F0.192
F0.667
F0.037
I47
I77
tp86
sg9
F39.900810956954956
sg10
I100
sg11
I400
sa(dp87
g7
(F0.199
F0.58
F0.042
I57
I94
tp88
sg9
F49.76164388656616
sg10
I100
sg11
I500
satp89
Rp90
(dp91
g25
I01
sg26
g31
sg32
(lp92
I3
aI5
aI30
aI9
asg34
I6
sg35
g36
(g3
tp93
Rp94
sbsS'IBEA'
p95
g2
(g3
g4
(lp96
(dp97
g7
g64
sg9
F0.03418898582458496
sg10
I100
sg11
I0
sa(dp98
g7
g64
sg9
F8.078429937362671
sg10
I100
sg11
I100
sa(dp99
g7
g64
sg9
F16.19336700439453
sg10
I100
sg11
I200
sa(dp100
g7
g64
sg9
F24.313256978988647
sg10
I100
sg11
I300
sa(dp101
g7
g64
sg9
F32.43406295776367
sg10
I100
sg11
I400
sa(dp102
g7
g64
sg9
F40.5596239566803
sg10
I100
sg11
I500
satp103
Rp104
(dp105
g25
I01
sg26
g31
sg32
(lp106
I3
aI5
aI30
aI9
asg34
I6
sg35
g36
(g3
tp107
Rp108
sbsS'NSGA2'
p109
g2
(g3
g4
(lp110
(dp111
g7
(F0.057
F1.1
F0.03
I1
I1
tp112
sg9
F0.03729391098022461
sg10
I100
sg11
I0
sa(dp113
g7
g64
sg9
F10.731935024261475
sg10
I100
sg11
I100
sa(dp114
g7
g64
sg9
F21.338363885879517
sg10
I100
sg11
I200
sa(dp115
g7
g64
sg9
F31.990471839904785
sg10
I100
sg11
I300
sa(dp116
g7
(F0.048
F1.56
F0.068
I1
I1
tp117
sg9
F42.58726096153259
sg10
I100
sg11
I400
sa(dp118
g7
g64
sg9
F53.20286798477173
sg10
I100
sg11
I500
satp119
Rp120
(dp121
g25
I01
sg26
g31
sg32
(lp122
I3
aI5
aI30
aI9
asg34
I6
sg35
g36
(g3
tp123
Rp124
sbsS'IBEA-SIP'
p125
g2
(g3
g4
(lp126
(dp127
g7
(F0.116
F0.749
F0.037
I13
I15
tp128
sg9
F0.06814002990722656
sg10
I100
sg11
I0
sa(dp129
g7
(F0.197
F0.6
F0.033
I64
I100
tp130
sg9
F7.413702011108398
sg10
I100
sg11
I100
sa(dp131
g7
(F0.201
F0.637
F0.037
I69
I100
tp132
sg9
F14.836349964141846
sg10
I100
sg11
I200
sa(dp133
g7
(F0.203
F0.645
F0.039
I71
I100
tp134
sg9
F22.48480796813965
sg10
I100
sg11
I300
sa(dp135
g7
(F0.204
F0.58
F0.037
I65
I100
tp136
sg9
F30.035964965820312
sg10
I100
sg11
I400
sa(dp137
g7
(F0.203
F0.62
F0.034
I73
I100
tp138
sg9
F37.60833501815796
sg10
I100
sg11
I500
satp139
Rp140
(dp141
g25
I01
sg26
g31
sg32
(lp142
I3
aI5
aI30
aI9
asg34
I6
sg35
g36
(g3
tp143
Rp144
sbs.