(dp0
S'NSGA2-SIP'
p1
ccopy_reg
_reconstructor
p2
(cdeap.tools.support
Logbook
p3
c__builtin__
list
p4
(lp5
(dp6
S'hv|spread|igd|frontier#|valid#'
p7
(F0.118
F0.882
F0.041
I16
I21
tp8
sS'timestamp'
p9
F0.0855398178100586
sS'evals'
p10
I100
sS'gen'
p11
I0
sa(dp12
g7
(F0.203
F0.656
F0.03
I98
I100
tp13
sg9
F10.102536916732788
sg10
I100
sg11
I100
sa(dp14
g7
(F0.203
F0.62
F0.031
I97
I100
tp15
sg9
F19.98933696746826
sg10
I100
sg11
I200
sa(dp16
g7
(F0.207
F0.651
F0.033
I99
I100
tp17
sg9
F29.92596983909607
sg10
I100
sg11
I300
sa(dp18
g7
(F0.204
F0.656
F0.032
I97
I100
tp19
sg9
F39.910836935043335
sg10
I100
sg11
I400
sa(dp20
g7
(F0.206
F0.654
F0.032
I98
I100
tp21
sg9
F49.86531186103821
sg10
I100
sg11
I500
satp22
Rp23
(dp24
S'log_header'
p25
I01
sS'header'
p26
(S'gen'
p27
S'evals'
p28
S'hv|spread|igd|frontier#|valid#'
p29
S'timestamp'
p30
tp31
sS'columns_len'
p32
(lp33
I3
aI5
aI30
aI9
asS'buffindex'
p34
I6
sS'chapters'
p35
ccollections
defaultdict
p36
(g3
tp37
Rp38
sbsS'SPEA2-SIP'
p39
g2
(g3
g4
(lp40
(dp41
g7
(F0.12
F0.822
F0.035
I15
I24
tp42
sg9
F0.0828099250793457
sg10
I100
sg11
I0
sa(dp43
g7
(F0.202
F0.666
F0.032
I100
I100
tp44
sg9
F85.32457304000854
sg10
I100
sg11
I100
sa(dp45
g7
(F0.205
F0.57
F0.033
I100
I100
tp46
sg9
F179.38014888763428
sg10
I100
sg11
I200
sa(dp47
g7
(F0.205
F0.59
F0.035
I100
I100
tp48
sg9
F272.9821150302887
sg10
I100
sg11
I300
sa(dp49
g7
(F0.209
F0.615
F0.036
I100
I100
tp50
sg9
F364.5088310241699
sg10
I100
sg11
I400
sa(dp51
g7
(F0.213
F0.541
F0.037
I100
I100
tp52
sg9
F457.20368003845215
sg10
I100
sg11
I500
satp53
Rp54
(dp55
g25
I01
sg26
g31
sg32
(lp56
I3
aI5
aI31
aI9
asg34
I6
sg35
g36
(g3
tp57
Rp58
sbsS'SPEA2'
p59
g2
(g3
g4
(lp60
(dp61
g7
(F0.051
F1.1
F0.041
I1
I1
tp62
sg9
F0.03985095024108887
sg10
I100
sg11
I0
sa(dp63
g7
(I0
I0
I0
I0
I0
tp64
sg9
F113.66239404678345
sg10
I100
sg11
I100
sa(dp65
g7
g64
sg9
F239.777489900589
sg10
I100
sg11
I200
sa(dp66
g7
g64
sg9
F373.49769496917725
sg10
I100
sg11
I300
sa(dp67
g7
g64
sg9
F516.5098898410797
sg10
I100
sg11
I400
sa(dp68
g7
g64
sg9
F653.0454649925232
sg10
I100
sg11
I500
satp69
Rp70
(dp71
g25
I01
sg26
g31
sg32
(lp72
I3
aI5
aI30
aI9
asg34
I6
sg35
g36
(g3
tp73
Rp74
sbsS'IBEA-PEN'
p75
g2
(g3
g4
(lp76
(dp77
g7
(F0.152
F0.713
F0.031
I23
I41
tp78
sg9
F0.14653682708740234
sg10
I100
sg11
I0
sa(dp79
g7
(F0.197
F0.626
F0.036
I49
I82
tp80
sg9
F10.590559959411621
sg10
I100
sg11
I100
sa(dp81
g7
(F0.194
F0.737
F0.042
I45
I86
tp82
sg9
F21.128039836883545
sg10
I100
sg11
I200
sa(dp83
g7
(F0.19
F0.687
F0.037
I46
I83
tp84
sg9
F31.660213947296143
sg10
I100
sg11
I300
sa(dp85
g7
(F0.199
F0.641
F0.041
I51
I89
tp86
sg9
F42.131494998931885
sg10
I100
sg11
I400
sa(dp87
g7
(F0.196
F0.651
F0.037
I52
I90
tp88
sg9
F52.691396951675415
sg10
I100
sg11
I500
satp89
Rp90
(dp91
g25
I01
sg26
g31
sg32
(lp92
I3
aI5
aI30
aI9
asg34
I6
sg35
g36
(g3
tp93
Rp94
sbsS'IBEA'
p95
g2
(g3
g4
(lp96
(dp97
g7
g64
sg9
F0.03607797622680664
sg10
I100
sg11
I0
sa(dp98
g7
g64
sg9
F8.48633098602295
sg10
I100
sg11
I100
sa(dp99
g7
g64
sg9
F16.996639013290405
sg10
I100
sg11
I200
sa(dp100
g7
g64
sg9
F25.56380796432495
sg10
I100
sg11
I300
sa(dp101
g7
g64
sg9
F34.09356713294983
sg10
I100
sg11
I400
sa(dp102
g7
g64
sg9
F42.59923315048218
sg10
I100
sg11
I500
satp103
Rp104
(dp105
g25
I01
sg26
g31
sg32
(lp106
I3
aI5
aI30
aI9
asg34
I6
sg35
g36
(g3
tp107
Rp108
sbsS'NSGA2'
p109
g2
(g3
g4
(lp110
(dp111
g7
(F0.056
F2.283
F0.054
I1
I1
tp112
sg9
F0.04058694839477539
sg10
I100
sg11
I0
sa(dp113
g7
g64
sg9
F11.441329002380371
sg10
I100
sg11
I100
sa(dp114
g7
g64
sg9
F22.79452896118164
sg10
I100
sg11
I200
sa(dp115
g7
g64
sg9
F34.13792395591736
sg10
I100
sg11
I300
sa(dp116
g7
g64
sg9
F45.48528814315796
sg10
I100
sg11
I400
sa(dp117
g7
g64
sg9
F56.79755115509033
sg10
I100
sg11
I500
satp118
Rp119
(dp120
g25
I01
sg26
g31
sg32
(lp121
I3
aI5
aI30
aI9
asg34
I6
sg35
g36
(g3
tp122
Rp123
sbsS'IBEA-SIP'
p124
g2
(g3
g4
(lp125
(dp126
g7
(F0.123
F0.866
F0.029
I15
I25
tp127
sg9
F0.08329296112060547
sg10
I100
sg11
I0
sa(dp128
g7
(F0.198
F0.617
F0.035
I64
I100
tp129
sg9
F8.121399879455566
sg10
I100
sg11
I100
sa(dp130
g7
(F0.199
F0.753
F0.038
I64
I100
tp131
sg9
F16.168566942214966
sg10
I100
sg11
I200
sa(dp132
g7
(F0.199
F0.541
F0.036
I64
I100
tp133
sg9
F24.181245803833008
sg10
I100
sg11
I300
sa(dp134
g7
(F0.203
F0.659
F0.038
I67
I100
tp135
sg9
F32.26921796798706
sg10
I100
sg11
I400
sa(dp136
g7
(F0.204
F0.609
F0.037
I71
I100
tp137
sg9
F40.27636194229126
sg10
I100
sg11
I500
satp138
Rp139
(dp140
g25
I01
sg26
g31
sg32
(lp141
I3
aI5
aI30
aI9
asg34
I6
sg35
g36
(g3
tp142
Rp143
sbs.