(dp0
S'NSGA2-SIP'
p1
ccopy_reg
_reconstructor
p2
(cdeap.tools.support
Logbook
p3
c__builtin__
list
p4
(lp5
(dp6
S'hv|spread|igd|frontier#|valid#'
p7
(F0.126
F0.857
F0.034
I16
I25
tp8
sS'timestamp'
p9
F0.07329106330871582
sS'evals'
p10
I100
sS'gen'
p11
I0
sa(dp12
g7
(F0.2
F0.672
F0.031
I96
I100
tp13
sg9
F8.436643123626709
sg10
I100
sg11
I100
sa(dp14
g7
(F0.205
F0.597
F0.032
I96
I100
tp15
sg9
F16.68511199951172
sg10
I100
sg11
I200
sa(dp16
g7
(F0.206
F0.642
F0.033
I98
I100
tp17
sg9
F25.055862188339233
sg10
I100
sg11
I300
sa(dp18
g7
(F0.206
F0.603
F0.032
I96
I100
tp19
sg9
F33.300740003585815
sg10
I100
sg11
I400
sa(dp20
g7
(F0.207
F0.563
F0.034
I98
I100
tp21
sg9
F41.72151207923889
sg10
I100
sg11
I500
satp22
Rp23
(dp24
S'log_header'
p25
I01
sS'header'
p26
(S'gen'
p27
S'evals'
p28
S'hv|spread|igd|frontier#|valid#'
p29
S'timestamp'
p30
tp31
sS'columns_len'
p32
(lp33
I3
aI5
aI30
aI9
asS'buffindex'
p34
I6
sS'chapters'
p35
ccollections
defaultdict
p36
(g3
tp37
Rp38
sbsS'SPEA2-SIP'
p39
g2
(g3
g4
(lp40
(dp41
g7
(F0.131
F0.762
F0.036
I18
I23
tp42
sg9
F0.08655905723571777
sg10
I100
sg11
I0
sa(dp43
g7
(F0.206
F0.604
F0.034
I100
I100
tp44
sg9
F78.33029913902283
sg10
I100
sg11
I100
sa(dp45
g7
(F0.209
F0.64
F0.035
I100
I100
tp46
sg9
F162.66412806510925
sg10
I100
sg11
I200
sa(dp47
g7
(F0.208
F0.63
F0.034
I100
I100
tp48
sg9
F244.38315510749817
sg10
I100
sg11
I300
sa(dp49
g7
(F0.213
F0.645
F0.036
I100
I100
tp50
sg9
F324.9446060657501
sg10
I100
sg11
I400
sa(dp51
g7
(F0.213
F0.576
F0.036
I100
I100
tp52
sg9
F401.1785891056061
sg10
I100
sg11
I500
satp53
Rp54
(dp55
g25
I01
sg26
g31
sg32
(lp56
I3
aI5
aI31
aI9
asg34
I6
sg35
g36
(g3
tp57
Rp58
sbsS'SPEA2'
p59
g2
(g3
g4
(lp60
(dp61
g7
(I0
I0
I0
I0
I0
tp62
sg9
F0.03121805191040039
sg10
I100
sg11
I0
sa(dp63
g7
g62
sg9
F95.61147212982178
sg10
I100
sg11
I100
sa(dp64
g7
g62
sg9
F210.60511803627014
sg10
I100
sg11
I200
sa(dp65
g7
g62
sg9
F321.73843216896057
sg10
I100
sg11
I300
sa(dp66
g7
g62
sg9
F431.27555894851685
sg10
I100
sg11
I400
sa(dp67
g7
g62
sg9
F540.4623429775238
sg10
I100
sg11
I500
satp68
Rp69
(dp70
g25
I01
sg26
g31
sg32
(lp71
I3
aI5
aI30
aI9
asg34
I6
sg35
g36
(g3
tp72
Rp73
sbsS'IBEA'
p74
g2
(g3
g4
(lp75
(dp76
g7
g62
sg9
F0.03074193000793457
sg10
I100
sg11
I0
sa(dp77
g7
(F0.068
F1.22
F0.028
I1
I1
tp78
sg9
F7.568910837173462
sg10
I100
sg11
I100
sa(dp79
g7
(F0.076
F1.22
F0.022
I1
I1
tp80
sg9
F15.278256893157959
sg10
I100
sg11
I200
sa(dp81
g7
(F0.083
F1.18
F0.093
I1
I1
tp82
sg9
F22.818248987197876
sg10
I100
sg11
I300
sa(dp83
g7
g62
sg9
F30.135965824127197
sg10
I100
sg11
I400
sa(dp84
g7
g62
sg9
F37.37144494056702
sg10
I100
sg11
I500
satp85
Rp86
(dp87
g25
I01
sg26
g31
sg32
(lp88
I3
aI5
aI30
aI9
asg34
I6
sg35
g36
(g3
tp89
Rp90
sbsS'NSGA2'
p91
g2
(g3
g4
(lp92
(dp93
g7
g62
sg9
F0.031207799911499023
sg10
I100
sg11
I0
sa(dp94
g7
(F0.083
F1.26
F0.058
I1
I1
tp95
sg9
F9.745108842849731
sg10
I100
sg11
I100
sa(dp96
g7
g62
sg9
F19.600209951400757
sg10
I100
sg11
I200
sa(dp97
g7
g62
sg9
F29.28272581100464
sg10
I100
sg11
I300
sa(dp98
g7
g62
sg9
F39.22690176963806
sg10
I100
sg11
I400
sa(dp99
g7
g62
sg9
F48.721099853515625
sg10
I100
sg11
I500
satp100
Rp101
(dp102
g25
I01
sg26
g31
sg32
(lp103
I3
aI5
aI30
aI9
asg34
I6
sg35
g36
(g3
tp104
Rp105
sbsS'IBEA-SIP'
p106
g2
(g3
g4
(lp107
(dp108
g7
(F0.108
F0.828
F0.034
I10
I17
tp109
sg9
F0.0532228946685791
sg10
I100
sg11
I0
sa(dp110
g7
(F0.199
F0.679
F0.035
I62
I100
tp111
sg9
F6.753053903579712
sg10
I100
sg11
I100
sa(dp112
g7
(F0.201
F0.62
F0.037
I65
I100
tp113
sg9
F13.537881851196289
sg10
I100
sg11
I200
sa(dp114
g7
(F0.205
F0.668
F0.041
I64
I100
tp115
sg9
F20.327330827713013
sg10
I100
sg11
I300
sa(dp116
g7
(F0.2
F0.673
F0.037
I64
I100
tp117
sg9
F27.09283685684204
sg10
I100
sg11
I400
sa(dp118
g7
(F0.206
F0.649
F0.037
I71
I100
tp119
sg9
F33.913185834884644
sg10
I100
sg11
I500
satp120
Rp121
(dp122
g25
I01
sg26
g31
sg32
(lp123
I3
aI5
aI30
aI9
asg34
I6
sg35
g36
(g3
tp124
Rp125
sbs.