(dp0
S'NSGA2-SIP'
p1
ccopy_reg
_reconstructor
p2
(cdeap.tools.support
Logbook
p3
c__builtin__
list
p4
(lp5
(dp6
S'hv|spread|igd|frontier#|valid#'
p7
(F0.141
F0.752
F0.033
I20
I28
tp8
sS'timestamp'
p9
F0.10640406608581543
sS'evals'
p10
I100
sS'gen'
p11
I0
sa(dp12
g7
(F0.201
F0.586
F0.029
I97
I100
tp13
sg9
F10.643876075744629
sg10
I100
sg11
I100
sa(dp14
g7
(F0.202
F0.592
F0.029
I99
I100
tp15
sg9
F21.18479084968567
sg10
I100
sg11
I200
sa(dp16
g7
(F0.204
F0.572
F0.028
I96
I100
tp17
sg9
F31.801589965820312
sg10
I100
sg11
I300
sa(dp18
g7
(F0.203
F0.561
F0.031
I97
I100
tp19
sg9
F42.37358593940735
sg10
I100
sg11
I400
sa(dp20
g7
(F0.204
F0.541
F0.031
I97
I100
tp21
sg9
F53.01360106468201
sg10
I100
sg11
I500
satp22
Rp23
(dp24
S'log_header'
p25
I01
sS'header'
p26
(S'gen'
p27
S'evals'
p28
S'hv|spread|igd|frontier#|valid#'
p29
S'timestamp'
p30
tp31
sS'columns_len'
p32
(lp33
I3
aI5
aI30
aI9
asS'buffindex'
p34
I6
sS'chapters'
p35
ccollections
defaultdict
p36
(g3
tp37
Rp38
sbsS'SPEA2-SIP'
p39
g2
(g3
g4
(lp40
(dp41
g7
(F0.117
F0.796
F0.037
I12
I19
tp42
sg9
F0.07325291633605957
sg10
I100
sg11
I0
sa(dp43
g7
(F0.203
F0.591
F0.034
I100
I100
tp44
sg9
F86.47303605079651
sg10
I100
sg11
I100
sa(dp45
g7
(F0.206
F0.63
F0.034
I100
I100
tp46
sg9
F181.64189195632935
sg10
I100
sg11
I200
sa(dp47
g7
(F0.206
F0.601
F0.035
I100
I100
tp48
sg9
F278.7248740196228
sg10
I100
sg11
I300
sa(dp49
g7
(F0.208
F0.59
F0.036
I100
I100
tp50
sg9
F373.06811690330505
sg10
I100
sg11
I400
sa(dp51
g7
(F0.209
F0.661
F0.036
I100
I100
tp52
sg9
F464.437029838562
sg10
I100
sg11
I500
satp53
Rp54
(dp55
g25
I01
sg26
g31
sg32
(lp56
I3
aI5
aI31
aI9
asg34
I6
sg35
g36
(g3
tp57
Rp58
sbsS'SPEA2'
p59
g2
(g3
g4
(lp60
(dp61
g7
(I0
I0
I0
I0
I0
tp62
sg9
F0.03797316551208496
sg10
I100
sg11
I0
sa(dp63
g7
g62
sg9
F116.26102113723755
sg10
I100
sg11
I100
sa(dp64
g7
g62
sg9
F245.8628911972046
sg10
I100
sg11
I200
sa(dp65
g7
g62
sg9
F372.0830931663513
sg10
I100
sg11
I300
sa(dp66
g7
(F0.081
F1.14
F0.042
I1
I1
tp67
sg9
F498.2090950012207
sg10
I100
sg11
I400
sa(dp68
g7
g62
sg9
F628.3897349834442
sg10
I100
sg11
I500
satp69
Rp70
(dp71
g25
I01
sg26
g31
sg32
(lp72
I3
aI5
aI30
aI9
asg34
I6
sg35
g36
(g3
tp73
Rp74
sbsS'IBEA-PEN'
p75
g2
(g3
g4
(lp76
(dp77
g7
(F0.155
F0.714
F0.026
I37
I44
tp78
sg9
F0.22534799575805664
sg10
I100
sg11
I0
sa(dp79
g7
g62
sg9
F8.683748006820679
sg10
I100
sg11
I100
sa(dp80
g7
g62
sg9
F17.10715103149414
sg10
I100
sg11
I200
sa(dp81
g7
g62
sg9
F25.541471004486084
sg10
I100
sg11
I300
sa(dp82
g7
g62
sg9
F33.99056315422058
sg10
I100
sg11
I400
sa(dp83
g7
(F0.072
F2.453
F0.072
I1
I1
tp84
sg9
F42.43022799491882
sg10
I100
sg11
I500
satp85
Rp86
(dp87
g25
I01
sg26
g31
sg32
(lp88
I3
aI5
aI30
aI9
asg34
I6
sg35
g36
(g3
tp89
Rp90
sbsS'IBEA'
p91
g2
(g3
g4
(lp92
(dp93
g7
g62
sg9
F0.03777480125427246
sg10
I100
sg11
I0
sa(dp94
g7
(F0.048
F1.56
F0.047
I1
I1
tp95
sg9
F8.262691020965576
sg10
I100
sg11
I100
sa(dp96
g7
(F0.052
F1.6
F0.081
I1
I1
tp97
sg9
F16.540520906448364
sg10
I100
sg11
I200
sa(dp98
g7
(F0.089
F1.22
F0.104
I1
I1
tp99
sg9
F24.830528020858765
sg10
I100
sg11
I300
sa(dp100
g7
g62
sg9
F33.105002880096436
sg10
I100
sg11
I400
sa(dp101
g7
(F0.023
F1.72
F0.087
I1
I1
tp102
sg9
F41.40171980857849
sg10
I100
sg11
I500
satp103
Rp104
(dp105
g25
I01
sg26
g31
sg32
(lp106
I3
aI5
aI30
aI9
asg34
I6
sg35
g36
(g3
tp107
Rp108
sbsS'NSGA2'
p109
g2
(g3
g4
(lp110
(dp111
g7
(F0.049
F2.302
F0.07
I1
I1
tp112
sg9
F0.04152703285217285
sg10
I100
sg11
I0
sa(dp113
g7
g62
sg9
F12.259968042373657
sg10
I100
sg11
I100
sa(dp114
g7
g62
sg9
F24.424985885620117
sg10
I100
sg11
I200
sa(dp115
g7
g62
sg9
F36.562422037124634
sg10
I100
sg11
I300
sa(dp116
g7
g62
sg9
F48.720603942871094
sg10
I100
sg11
I400
sa(dp117
g7
g62
sg9
F60.82486295700073
sg10
I100
sg11
I500
satp118
Rp119
(dp120
g25
I01
sg26
g31
sg32
(lp121
I3
aI5
aI30
aI9
asg34
I6
sg35
g36
(g3
tp122
Rp123
sbsS'IBEA-SIP'
p124
g2
(g3
g4
(lp125
(dp126
g7
(F0.116
F0.768
F0.037
I13
I18
tp127
sg9
F0.07626605033874512
sg10
I100
sg11
I0
sa(dp128
g7
(F0.193
F0.763
F0.035
I67
I100
tp129
sg9
F8.01519513130188
sg10
I100
sg11
I100
sa(dp130
g7
(F0.203
F0.597
F0.036
I67
I100
tp131
sg9
F15.95671010017395
sg10
I100
sg11
I200
sa(dp132
g7
(F0.201
F0.607
F0.037
I70
I100
tp133
sg9
F23.89922308921814
sg10
I100
sg11
I300
sa(dp134
g7
(F0.203
F0.713
F0.038
I60
I100
tp135
sg9
F31.74801802635193
sg10
I100
sg11
I400
sa(dp136
g7
(F0.205
F0.581
F0.038
I71
I100
tp137
sg9
F39.82732796669006
sg10
I100
sg11
I500
satp138
Rp139
(dp140
g25
I01
sg26
g31
sg32
(lp141
I3
aI5
aI30
aI9
asg34
I6
sg35
g36
(g3
tp142
Rp143
sbs.