(dp0
S'NSGA2-SIP'
p1
ccopy_reg
_reconstructor
p2
(cdeap.tools.support
Logbook
p3
c__builtin__
list
p4
(lp5
(dp6
S'hv|spread|igd|frontier#|valid#'
p7
(F0.129
F0.77
F0.033
I18
I29
tp8
sS'timestamp'
p9
F0.0892338752746582
sS'evals'
p10
I100
sS'gen'
p11
I0
sa(dp12
g7
(F0.197
F0.545
F0.029
I98
I100
tp13
sg9
F8.623363018035889
sg10
I100
sg11
I100
sa(dp14
g7
(F0.2
F0.63
F0.032
I99
I100
tp15
sg9
F16.931581020355225
sg10
I100
sg11
I200
sa(dp16
g7
(F0.201
F0.643
F0.031
I98
I100
tp17
sg9
F25.09982395172119
sg10
I100
sg11
I300
sa(dp18
g7
(F0.203
F0.601
F0.033
I96
I100
tp19
sg9
F33.28004193305969
sg10
I100
sg11
I400
sa(dp20
g7
(F0.202
F0.609
F0.032
I99
I100
tp21
sg9
F41.57633399963379
sg10
I100
sg11
I500
satp22
Rp23
(dp24
S'log_header'
p25
I01
sS'header'
p26
(S'gen'
p27
S'evals'
p28
S'hv|spread|igd|frontier#|valid#'
p29
S'timestamp'
p30
tp31
sS'columns_len'
p32
(lp33
I3
aI5
aI30
aI9
asS'buffindex'
p34
I6
sS'chapters'
p35
ccollections
defaultdict
p36
(g3
tp37
Rp38
sbsS'SPEA2-SIP'
p39
g2
(g3
g4
(lp40
(dp41
g7
(F0.127
F0.73
F0.037
I20
I25
tp42
sg9
F0.11498093605041504
sg10
I100
sg11
I0
sa(dp43
g7
(F0.206
F0.62
F0.034
I100
I100
tp44
sg9
F76.42622399330139
sg10
I100
sg11
I100
sa(dp45
g7
(F0.206
F0.623
F0.034
I100
I100
tp46
sg9
F157.50689506530762
sg10
I100
sg11
I200
sa(dp47
g7
(F0.209
F0.612
F0.036
I100
I100
tp48
sg9
F234.52211689949036
sg10
I100
sg11
I300
sa(dp49
g7
(F0.208
F0.626
F0.036
I100
I100
tp50
sg9
F312.0685570240021
sg10
I100
sg11
I400
sa(dp51
g7
(F0.209
F0.634
F0.035
I100
I100
tp52
sg9
F390.8256239891052
sg10
I100
sg11
I500
satp53
Rp54
(dp55
g25
I01
sg26
g31
sg32
(lp56
I3
aI5
aI31
aI9
asg34
I6
sg35
g36
(g3
tp57
Rp58
sbsS'SPEA2'
p59
g2
(g3
g4
(lp60
(dp61
g7
(I0
I0
I0
I0
I0
tp62
sg9
F0.034004926681518555
sg10
I100
sg11
I0
sa(dp63
g7
g62
sg9
F99.77572202682495
sg10
I100
sg11
I100
sa(dp64
g7
g62
sg9
F217.38408589363098
sg10
I100
sg11
I200
sa(dp65
g7
g62
sg9
F332.78086400032043
sg10
I100
sg11
I300
sa(dp66
g7
g62
sg9
F445.87563395500183
sg10
I100
sg11
I400
sa(dp67
g7
g62
sg9
F559.395427942276
sg10
I100
sg11
I500
satp68
Rp69
(dp70
g25
I01
sg26
g31
sg32
(lp71
I3
aI5
aI30
aI9
asg34
I6
sg35
g36
(g3
tp72
Rp73
sbsS'IBEA-PEN'
p74
g2
(g3
g4
(lp75
(dp76
g7
(F0.141
F0.698
F0.027
I26
I39
tp77
sg9
F0.1780259609222412
sg10
I100
sg11
I0
sa(dp78
g7
g62
sg9
F7.555370092391968
sg10
I100
sg11
I100
sa(dp79
g7
g62
sg9
F14.769186019897461
sg10
I100
sg11
I200
sa(dp80
g7
g62
sg9
F21.97524905204773
sg10
I100
sg11
I300
sa(dp81
g7
g62
sg9
F29.171387910842896
sg10
I100
sg11
I400
sa(dp82
g7
g62
sg9
F36.37612199783325
sg10
I100
sg11
I500
satp83
Rp84
(dp85
g25
I01
sg26
g31
sg32
(lp86
I3
aI5
aI30
aI9
asg34
I6
sg35
g36
(g3
tp87
Rp88
sbsS'IBEA'
p89
g2
(g3
g4
(lp90
(dp91
g7
g62
sg9
F0.034232139587402344
sg10
I100
sg11
I0
sa(dp92
g7
g62
sg9
F7.272582054138184
sg10
I100
sg11
I100
sa(dp93
g7
(F0.033
F1.6
F0.03
I1
I1
tp94
sg9
F14.382086992263794
sg10
I100
sg11
I200
sa(dp95
g7
g62
sg9
F21.49202013015747
sg10
I100
sg11
I300
sa(dp96
g7
g62
sg9
F28.609028100967407
sg10
I100
sg11
I400
sa(dp97
g7
g62
sg9
F35.71624207496643
sg10
I100
sg11
I500
satp98
Rp99
(dp100
g25
I01
sg26
g31
sg32
(lp101
I3
aI5
aI30
aI9
asg34
I6
sg35
g36
(g3
tp102
Rp103
sbsS'NSGA2'
p104
g2
(g3
g4
(lp105
(dp106
g7
(F0.064
F0.98
F0.04
I1
I1
tp107
sg9
F0.037245988845825195
sg10
I100
sg11
I0
sa(dp108
g7
g62
sg9
F10.021000146865845
sg10
I100
sg11
I100
sa(dp109
g7
g62
sg9
F19.507548093795776
sg10
I100
sg11
I200
sa(dp110
g7
g62
sg9
F28.98287320137024
sg10
I100
sg11
I300
sa(dp111
g7
(F0.082
F2.364
F0.03
I1
I1
tp112
sg9
F38.38087797164917
sg10
I100
sg11
I400
sa(dp113
g7
g62
sg9
F47.72762203216553
sg10
I100
sg11
I500
satp114
Rp115
(dp116
g25
I01
sg26
g31
sg32
(lp117
I3
aI5
aI30
aI9
asg34
I6
sg35
g36
(g3
tp118
Rp119
sbsS'IBEA-SIP'
p120
g2
(g3
g4
(lp121
(dp122
g7
(F0.117
F0.78
F0.038
I13
I16
tp123
sg9
F0.06839585304260254
sg10
I100
sg11
I0
sa(dp124
g7
(F0.198
F0.61
F0.036
I78
I100
tp125
sg9
F6.9340879917144775
sg10
I100
sg11
I100
sa(dp126
g7
(F0.205
F0.692
F0.033
I74
I100
tp127
sg9
F13.719220876693726
sg10
I100
sg11
I200
sa(dp128
g7
(F0.206
F0.651
F0.038
I60
I100
tp129
sg9
F20.358959913253784
sg10
I100
sg11
I300
sa(dp130
g7
(F0.201
F0.638
F0.04
I68
I100
tp131
sg9
F27.054452896118164
sg10
I100
sg11
I400
sa(dp132
g7
(F0.208
F0.628
F0.039
I73
I100
tp133
sg9
F33.78814697265625
sg10
I100
sg11
I500
satp134
Rp135
(dp136
g25
I01
sg26
g31
sg32
(lp137
I3
aI5
aI30
aI9
asg34
I6
sg35
g36
(g3
tp138
Rp139
sbs.