(dp0
S'NSGA2-SIP'
p1
ccopy_reg
_reconstructor
p2
(cdeap.tools.support
Logbook
p3
c__builtin__
list
p4
(lp5
(dp6
S'hv|spread|igd|frontier#|valid#'
p7
(F0.114
F0.726
F0.035
I11
I13
tp8
sS'timestamp'
p9
F0.05778098106384277
sS'evals'
p10
I100
sS'gen'
p11
I0
sa(dp12
g7
(F0.202
F0.708
F0.03
I96
I100
tp13
sg9
F9.110069990158081
sg10
I100
sg11
I100
sa(dp14
g7
(F0.206
F0.593
F0.032
I98
I100
tp15
sg9
F18.207993984222412
sg10
I100
sg11
I200
sa(dp16
g7
(F0.205
F0.594
F0.033
I97
I100
tp17
sg9
F27.421849012374878
sg10
I100
sg11
I300
sa(dp18
g7
(F0.204
F0.603
F0.031
I98
I100
tp19
sg9
F36.67106890678406
sg10
I100
sg11
I400
sa(dp20
g7
(F0.206
F0.608
F0.031
I98
I100
tp21
sg9
F45.954248905181885
sg10
I100
sg11
I500
satp22
Rp23
(dp24
S'log_header'
p25
I01
sS'header'
p26
(S'gen'
p27
S'evals'
p28
S'hv|spread|igd|frontier#|valid#'
p29
S'timestamp'
p30
tp31
sS'columns_len'
p32
(lp33
I3
aI5
aI30
aI9
asS'buffindex'
p34
I6
sS'chapters'
p35
ccollections
defaultdict
p36
(g3
tp37
Rp38
sbsS'SPEA2-SIP'
p39
g2
(g3
g4
(lp40
(dp41
g7
(F0.117
F0.836
F0.034
I15
I25
tp42
sg9
F0.07801508903503418
sg10
I100
sg11
I0
sa(dp43
g7
(F0.201
F0.612
F0.032
I100
I100
tp44
sg9
F78.7371461391449
sg10
I100
sg11
I100
sa(dp45
g7
(F0.202
F0.611
F0.035
I100
I100
tp46
sg9
F171.09319710731506
sg10
I100
sg11
I200
sa(dp47
g7
(F0.203
F0.573
F0.035
I100
I100
tp48
sg9
F260.51829504966736
sg10
I100
sg11
I300
sa(dp49
g7
(F0.205
F0.642
F0.035
I100
I100
tp50
sg9
F349.5174779891968
sg10
I100
sg11
I400
sa(dp51
g7
(F0.206
F0.618
F0.036
I100
I100
tp52
sg9
F438.21097016334534
sg10
I100
sg11
I500
satp53
Rp54
(dp55
g25
I01
sg26
g31
sg32
(lp56
I3
aI5
aI31
aI9
asg34
I6
sg35
g36
(g3
tp57
Rp58
sbsS'SPEA2'
p59
g2
(g3
g4
(lp60
(dp61
g7
(I0
I0
I0
I0
I0
tp62
sg9
F0.03471207618713379
sg10
I100
sg11
I0
sa(dp63
g7
g62
sg9
F106.33398795127869
sg10
I100
sg11
I100
sa(dp64
g7
g62
sg9
F227.6395299434662
sg10
I100
sg11
I200
sa(dp65
g7
g62
sg9
F356.1329970359802
sg10
I100
sg11
I300
sa(dp66
g7
g62
sg9
F482.9885718822479
sg10
I100
sg11
I400
sa(dp67
g7
g62
sg9
F611.3973269462585
sg10
I100
sg11
I500
satp68
Rp69
(dp70
g25
I01
sg26
g31
sg32
(lp71
I3
aI5
aI30
aI9
asg34
I6
sg35
g36
(g3
tp72
Rp73
sbsS'IBEA-PEN'
p74
g2
(g3
g4
(lp75
(dp76
g7
(F0.126
F0.786
F0.031
I29
I44
tp77
sg9
F0.1605517864227295
sg10
I100
sg11
I0
sa(dp78
g7
(F0.195
F0.682
F0.034
I55
I91
tp79
sg9
F9.78638482093811
sg10
I100
sg11
I100
sa(dp80
g7
(F0.198
F0.565
F0.034
I55
I91
tp81
sg9
F19.57495093345642
sg10
I100
sg11
I200
sa(dp82
g7
(F0.196
F0.675
F0.038
I56
I89
tp83
sg9
F29.391687870025635
sg10
I100
sg11
I300
sa(dp84
g7
(F0.192
F0.587
F0.03
I54
I84
tp85
sg9
F39.19573783874512
sg10
I100
sg11
I400
sa(dp86
g7
(F0.196
F0.572
F0.034
I58
I83
tp87
sg9
F48.96269989013672
sg10
I100
sg11
I500
satp88
Rp89
(dp90
g25
I01
sg26
g31
sg32
(lp91
I3
aI5
aI30
aI9
asg34
I6
sg35
g36
(g3
tp92
Rp93
sbsS'IBEA'
p94
g2
(g3
g4
(lp95
(dp96
g7
g62
sg9
F0.0341489315032959
sg10
I100
sg11
I0
sa(dp97
g7
(F0.094
F1.14
F0.075
I1
I1
tp98
sg9
F7.927241086959839
sg10
I100
sg11
I100
sa(dp99
g7
g62
sg9
F15.86635708808899
sg10
I100
sg11
I200
sa(dp100
g7
g62
sg9
F23.82324504852295
sg10
I100
sg11
I300
sa(dp101
g7
g62
sg9
F31.796053886413574
sg10
I100
sg11
I400
sa(dp102
g7
g62
sg9
F39.76358699798584
sg10
I100
sg11
I500
satp103
Rp104
(dp105
g25
I01
sg26
g31
sg32
(lp106
I3
aI5
aI30
aI9
asg34
I6
sg35
g36
(g3
tp107
Rp108
sbsS'NSGA2'
p109
g2
(g3
g4
(lp110
(dp111
g7
g62
sg9
F0.03412795066833496
sg10
I100
sg11
I0
sa(dp112
g7
g62
sg9
F10.630549907684326
sg10
I100
sg11
I100
sa(dp113
g7
g62
sg9
F21.169506072998047
sg10
I100
sg11
I200
sa(dp114
g7
g62
sg9
F31.67982006072998
sg10
I100
sg11
I300
sa(dp115
g7
g62
sg9
F42.1734459400177
sg10
I100
sg11
I400
sa(dp116
g7
g62
sg9
F52.14209794998169
sg10
I100
sg11
I500
satp117
Rp118
(dp119
g25
I01
sg26
g31
sg32
(lp120
I3
aI5
aI30
aI9
asg34
I6
sg35
g36
(g3
tp121
Rp122
sbsS'IBEA-SIP'
p123
g2
(g3
g4
(lp124
(dp125
g7
(F0.119
F0.757
F0.032
I14
I22
tp126
sg9
F0.07331395149230957
sg10
I100
sg11
I0
sa(dp127
g7
(F0.2
F0.752
F0.033
I75
I100
tp128
sg9
F7.533519983291626
sg10
I100
sg11
I100
sa(dp129
g7
(F0.203
F0.647
F0.037
I70
I100
tp130
sg9
F15.03048300743103
sg10
I100
sg11
I200
sa(dp131
g7
(F0.2
F0.661
F0.037
I65
I100
tp132
sg9
F22.428067922592163
sg10
I100
sg11
I300
sa(dp133
g7
(F0.203
F0.635
F0.033
I77
I100
tp134
sg9
F29.95497179031372
sg10
I100
sg11
I400
sa(dp135
g7
(F0.203
F0.65
F0.035
I69
I100
tp136
sg9
F37.42239689826965
sg10
I100
sg11
I500
satp137
Rp138
(dp139
g25
I01
sg26
g31
sg32
(lp140
I3
aI5
aI30
aI9
asg34
I6
sg35
g36
(g3
tp141
Rp142
sbs.