(dp0
S'NSGA2-SIP'
p1
ccopy_reg
_reconstructor
p2
(cdeap.tools.support
Logbook
p3
c__builtin__
list
p4
(lp5
(dp6
S'hv|spread|igd|frontier#|valid#'
p7
(F0.109
F0.829
F0.049
I15
I17
tp8
sS'timestamp'
p9
F0.07492995262145996
sS'evals'
p10
I100
sS'gen'
p11
I0
sa(dp12
g7
(F0.203
F0.567
F0.031
I96
I100
tp13
sg9
F9.245970010757446
sg10
I100
sg11
I100
sa(dp14
g7
(F0.203
F0.577
F0.031
I99
I100
tp15
sg9
F18.350188970565796
sg10
I100
sg11
I200
sa(dp16
g7
(F0.206
F0.6
F0.033
I97
I100
tp17
sg9
F27.52617383003235
sg10
I100
sg11
I300
sa(dp18
g7
(F0.205
F0.543
F0.032
I95
I100
tp19
sg9
F36.70485591888428
sg10
I100
sg11
I400
sa(dp20
g7
(F0.208
F0.552
F0.033
I98
I100
tp21
sg9
F45.885488986968994
sg10
I100
sg11
I500
satp22
Rp23
(dp24
S'log_header'
p25
I01
sS'header'
p26
(S'gen'
p27
S'evals'
p28
S'hv|spread|igd|frontier#|valid#'
p29
S'timestamp'
p30
tp31
sS'columns_len'
p32
(lp33
I3
aI5
aI30
aI9
asS'buffindex'
p34
I6
sS'chapters'
p35
ccollections
defaultdict
p36
(g3
tp37
Rp38
sbsS'SPEA2-SIP'
p39
g2
(g3
g4
(lp40
(dp41
g7
(F0.124
F0.72
F0.042
I14
I20
tp42
sg9
F0.07265496253967285
sg10
I100
sg11
I0
sa(dp43
g7
(F0.199
F0.594
F0.034
I100
I100
tp44
sg9
F82.32345485687256
sg10
I100
sg11
I100
sa(dp45
g7
(F0.205
F0.615
F0.035
I100
I100
tp46
sg9
F172.83642077445984
sg10
I100
sg11
I200
sa(dp47
g7
(F0.207
F0.57
F0.036
I100
I100
tp48
sg9
F262.5451078414917
sg10
I100
sg11
I300
sa(dp49
g7
(F0.208
F0.61
F0.036
I100
I100
tp50
sg9
F347.28009486198425
sg10
I100
sg11
I400
sa(dp51
g7
(F0.209
F0.596
F0.035
I100
I100
tp52
sg9
F433.36008882522583
sg10
I100
sg11
I500
satp53
Rp54
(dp55
g25
I01
sg26
g31
sg32
(lp56
I3
aI5
aI31
aI9
asg34
I6
sg35
g36
(g3
tp57
Rp58
sbsS'SPEA2'
p59
g2
(g3
g4
(lp60
(dp61
g7
(I0
I0
I0
I0
I0
tp62
sg9
F0.03438305854797363
sg10
I100
sg11
I0
sa(dp63
g7
g62
sg9
F110.83581495285034
sg10
I100
sg11
I100
sa(dp64
g7
g62
sg9
F242.72966599464417
sg10
I100
sg11
I200
sa(dp65
g7
g62
sg9
F374.2071979045868
sg10
I100
sg11
I300
sa(dp66
g7
g62
sg9
F503.46071195602417
sg10
I100
sg11
I400
sa(dp67
g7
g62
sg9
F630.616986989975
sg10
I100
sg11
I500
satp68
Rp69
(dp70
g25
I01
sg26
g31
sg32
(lp71
I3
aI5
aI30
aI9
asg34
I6
sg35
g36
(g3
tp72
Rp73
sbsS'IBEA'
p74
g2
(g3
g4
(lp75
(dp76
g7
g62
sg9
F0.0343480110168457
sg10
I100
sg11
I0
sa(dp77
g7
(F0.07
F1.42
F0.067
I1
I1
tp78
sg9
F7.866477966308594
sg10
I100
sg11
I100
sa(dp79
g7
(F0.087
F1.18
F0.091
I1
I1
tp80
sg9
F15.842029809951782
sg10
I100
sg11
I200
sa(dp81
g7
g62
sg9
F23.82951593399048
sg10
I100
sg11
I300
sa(dp82
g7
g62
sg9
F31.76812195777893
sg10
I100
sg11
I400
sa(dp83
g7
g62
sg9
F39.67753291130066
sg10
I100
sg11
I500
satp84
Rp85
(dp86
g25
I01
sg26
g31
sg32
(lp87
I3
aI5
aI30
aI9
asg34
I6
sg35
g36
(g3
tp88
Rp89
sbsS'NSGA2'
p90
g2
(g3
g4
(lp91
(dp92
g7
(F0.065
F1.18
F0.032
I1
I1
tp93
sg9
F0.03694295883178711
sg10
I100
sg11
I0
sa(dp94
g7
(F0.088
F1.14
F0.055
I1
I1
tp95
sg9
F10.63833498954773
sg10
I100
sg11
I100
sa(dp96
g7
g62
sg9
F21.17358899116516
sg10
I100
sg11
I200
sa(dp97
g7
g62
sg9
F31.61609697341919
sg10
I100
sg11
I300
sa(dp98
g7
g62
sg9
F42.13176703453064
sg10
I100
sg11
I400
sa(dp99
g7
g62
sg9
F52.60500502586365
sg10
I100
sg11
I500
satp100
Rp101
(dp102
g25
I01
sg26
g31
sg32
(lp103
I3
aI5
aI30
aI9
asg34
I6
sg35
g36
(g3
tp104
Rp105
sbsS'IBEA-SIP'
p106
g2
(g3
g4
(lp107
(dp108
g7
(F0.104
F0.819
F0.034
I9
I19
tp109
sg9
F0.05617809295654297
sg10
I100
sg11
I0
sa(dp110
g7
(F0.2
F0.656
F0.037
I63
I100
tp111
sg9
F7.462598085403442
sg10
I100
sg11
I100
sa(dp112
g7
(F0.202
F0.657
F0.039
I60
I100
tp113
sg9
F14.952895879745483
sg10
I100
sg11
I200
sa(dp114
g7
(F0.204
F0.639
F0.037
I69
I100
tp115
sg9
F22.425213098526
sg10
I100
sg11
I300
sa(dp116
g7
(F0.203
F0.693
F0.038
I70
I100
tp117
sg9
F29.869492053985596
sg10
I100
sg11
I400
sa(dp118
g7
(F0.203
F0.668
F0.038
I69
I100
tp119
sg9
F37.31029510498047
sg10
I100
sg11
I500
satp120
Rp121
(dp122
g25
I01
sg26
g31
sg32
(lp123
I3
aI5
aI30
aI9
asg34
I6
sg35
g36
(g3
tp124
Rp125
sbs.