(dp0
S'NSGA2-SIP'
p1
ccopy_reg
_reconstructor
p2
(cdeap.tools.support
Logbook
p3
c__builtin__
list
p4
(lp5
(dp6
S'hv|spread|igd|frontier#|valid#'
p7
(F0.121
F0.654
F0.036
I15
I18
tp8
sS'timestamp'
p9
F0.07568502426147461
sS'evals'
p10
I100
sS'gen'
p11
I0
sa(dp12
g7
(F0.201
F0.598
F0.03
I97
I100
tp13
sg9
F9.36114501953125
sg10
I100
sg11
I100
sa(dp14
g7
(F0.202
F0.613
F0.03
I98
I100
tp15
sg9
F18.61053705215454
sg10
I100
sg11
I200
sa(dp16
g7
(F0.207
F0.634
F0.031
I97
I100
tp17
sg9
F27.888519048690796
sg10
I100
sg11
I300
sa(dp18
g7
(F0.206
F0.572
F0.031
I98
I100
tp19
sg9
F37.053386926651
sg10
I100
sg11
I400
sa(dp20
g7
(F0.205
F0.662
F0.031
I96
I100
tp21
sg9
F46.26450300216675
sg10
I100
sg11
I500
satp22
Rp23
(dp24
S'log_header'
p25
I01
sS'header'
p26
(S'gen'
p27
S'evals'
p28
S'hv|spread|igd|frontier#|valid#'
p29
S'timestamp'
p30
tp31
sS'columns_len'
p32
(lp33
I3
aI5
aI30
aI9
asS'buffindex'
p34
I6
sS'chapters'
p35
ccollections
defaultdict
p36
(g3
tp37
Rp38
sbsS'SPEA2-SIP'
p39
g2
(g3
g4
(lp40
(dp41
g7
(F0.1
F0.691
F0.033
I12
I18
tp42
sg9
F0.06502699851989746
sg10
I100
sg11
I0
sa(dp43
g7
(F0.194
F0.587
F0.033
I100
I100
tp44
sg9
F79.75760293006897
sg10
I100
sg11
I100
sa(dp45
g7
(F0.197
F0.658
F0.035
I100
I100
tp46
sg9
F168.6205539703369
sg10
I100
sg11
I200
sa(dp47
g7
(F0.203
F0.634
F0.035
I100
I100
tp48
sg9
F256.26038694381714
sg10
I100
sg11
I300
sa(dp49
g7
(F0.206
F0.577
F0.035
I100
I100
tp50
sg9
F346.3247129917145
sg10
I100
sg11
I400
sa(dp51
g7
(F0.206
F0.57
F0.036
I100
I100
tp52
sg9
F433.9757778644562
sg10
I100
sg11
I500
satp53
Rp54
(dp55
g25
I01
sg26
g31
sg32
(lp56
I3
aI5
aI31
aI9
asg34
I6
sg35
g36
(g3
tp57
Rp58
sbsS'SPEA2'
p59
g2
(g3
g4
(lp60
(dp61
g7
(I0
I0
I0
I0
I0
tp62
sg9
F0.03441286087036133
sg10
I100
sg11
I0
sa(dp63
g7
g62
sg9
F102.15504598617554
sg10
I100
sg11
I100
sa(dp64
g7
g62
sg9
F221.68750381469727
sg10
I100
sg11
I200
sa(dp65
g7
g62
sg9
F348.32946491241455
sg10
I100
sg11
I300
sa(dp66
g7
g62
sg9
F476.25363183021545
sg10
I100
sg11
I400
sa(dp67
g7
g62
sg9
F600.361181974411
sg10
I100
sg11
I500
satp68
Rp69
(dp70
g25
I01
sg26
g31
sg32
(lp71
I3
aI5
aI30
aI9
asg34
I6
sg35
g36
(g3
tp72
Rp73
sbsS'IBEA'
p74
g2
(g3
g4
(lp75
(dp76
g7
g62
sg9
F0.058827877044677734
sg10
I100
sg11
I0
sa(dp77
g7
g62
sg9
F7.8611650466918945
sg10
I100
sg11
I100
sa(dp78
g7
g62
sg9
F15.800816059112549
sg10
I100
sg11
I200
sa(dp79
g7
g62
sg9
F23.72786784172058
sg10
I100
sg11
I300
sa(dp80
g7
g62
sg9
F31.61622190475464
sg10
I100
sg11
I400
sa(dp81
g7
(F0.105
F0.959
F0.065
I2
I2
tp82
sg9
F39.597769021987915
sg10
I100
sg11
I500
satp83
Rp84
(dp85
g25
I01
sg26
g31
sg32
(lp86
I3
aI5
aI30
aI9
asg34
I6
sg35
g36
(g3
tp87
Rp88
sbsS'NSGA2'
p89
g2
(g3
g4
(lp90
(dp91
g7
(F0.052
F1.22
F0.036
I1
I1
tp92
sg9
F0.037216901779174805
sg10
I100
sg11
I0
sa(dp93
g7
g62
sg9
F10.700187921524048
sg10
I100
sg11
I100
sa(dp94
g7
g62
sg9
F21.274641036987305
sg10
I100
sg11
I200
sa(dp95
g7
g62
sg9
F31.852375984191895
sg10
I100
sg11
I300
sa(dp96
g7
g62
sg9
F42.433127880096436
sg10
I100
sg11
I400
sa(dp97
g7
g62
sg9
F53.00143384933472
sg10
I100
sg11
I500
satp98
Rp99
(dp100
g25
I01
sg26
g31
sg32
(lp101
I3
aI5
aI30
aI9
asg34
I6
sg35
g36
(g3
tp102
Rp103
sbsS'IBEA-SIP'
p104
g2
(g3
g4
(lp105
(dp106
g7
(F0.105
F0.834
F0.036
I13
I23
tp107
sg9
F0.06935596466064453
sg10
I100
sg11
I0
sa(dp108
g7
(F0.195
F0.67
F0.033
I60
I100
tp109
sg9
F7.364086866378784
sg10
I100
sg11
I100
sa(dp110
g7
(F0.203
F0.631
F0.035
I74
I100
tp111
sg9
F14.859253883361816
sg10
I100
sg11
I200
sa(dp112
g7
(F0.203
F0.674
F0.037
I70
I100
tp113
sg9
F22.33969283103943
sg10
I100
sg11
I300
sa(dp114
g7
(F0.197
F0.624
F0.04
I67
I100
tp115
sg9
F29.808043003082275
sg10
I100
sg11
I400
sa(dp116
g7
(F0.205
F0.647
F0.045
I64
I100
tp117
sg9
F37.19574594497681
sg10
I100
sg11
I500
satp118
Rp119
(dp120
g25
I01
sg26
g31
sg32
(lp121
I3
aI5
aI30
aI9
asg34
I6
sg35
g36
(g3
tp122
Rp123
sbs.