(dp0
S'NSGA2-SIP'
p1
ccopy_reg
_reconstructor
p2
(cdeap.tools.support
Logbook
p3
c__builtin__
list
p4
(lp5
(dp6
S'hv|spread|igd|frontier#|valid#'
p7
(F0.13
F0.743
F0.033
I15
I24
tp8
sS'timestamp'
p9
F0.08149409294128418
sS'evals'
p10
I100
sS'gen'
p11
I0
sa(dp12
g7
(F0.202
F0.602
F0.032
I98
I100
tp13
sg9
F10.040061950683594
sg10
I100
sg11
I100
sa(dp14
g7
(F0.203
F0.604
F0.031
I98
I100
tp15
sg9
F19.970006942749023
sg10
I100
sg11
I200
sa(dp16
g7
(F0.203
F0.595
F0.03
I99
I100
tp17
sg9
F29.939126014709473
sg10
I100
sg11
I300
sa(dp18
g7
(F0.205
F0.613
F0.032
I98
I100
tp19
sg9
F39.91504096984863
sg10
I100
sg11
I400
sa(dp20
g7
(F0.205
F0.555
F0.031
I97
I100
tp21
sg9
F49.95252203941345
sg10
I100
sg11
I500
satp22
Rp23
(dp24
S'log_header'
p25
I01
sS'header'
p26
(S'gen'
p27
S'evals'
p28
S'hv|spread|igd|frontier#|valid#'
p29
S'timestamp'
p30
tp31
sS'columns_len'
p32
(lp33
I3
aI5
aI30
aI9
asS'buffindex'
p34
I6
sS'chapters'
p35
ccollections
defaultdict
p36
(g3
tp37
Rp38
sbsS'SPEA2-SIP'
p39
g2
(g3
g4
(lp40
(dp41
g7
(F0.117
F0.808
F0.035
I12
I23
tp42
sg9
F0.0713040828704834
sg10
I100
sg11
I0
sa(dp43
g7
(F0.203
F0.57
F0.033
I100
I100
tp44
sg9
F86.22966313362122
sg10
I100
sg11
I100
sa(dp45
g7
(F0.205
F0.529
F0.035
I100
I100
tp46
sg9
F180.26031112670898
sg10
I100
sg11
I200
sa(dp47
g7
(F0.208
F0.567
F0.035
I100
I100
tp48
sg9
F277.4773371219635
sg10
I100
sg11
I300
sa(dp49
g7
(F0.208
F0.59
F0.035
I100
I100
tp50
sg9
F372.18457293510437
sg10
I100
sg11
I400
sa(dp51
g7
(F0.209
F0.629
F0.036
I100
I100
tp52
sg9
F465.9634130001068
sg10
I100
sg11
I500
satp53
Rp54
(dp55
g25
I01
sg26
g31
sg32
(lp56
I3
aI5
aI31
aI9
asg34
I6
sg35
g36
(g3
tp57
Rp58
sbsS'SPEA2'
p59
g2
(g3
g4
(lp60
(dp61
g7
(F0.057
F2.264
F0.042
I1
I1
tp62
sg9
F0.040025949478149414
sg10
I100
sg11
I0
sa(dp63
g7
(I0
I0
I0
I0
I0
tp64
sg9
F118.95051693916321
sg10
I100
sg11
I100
sa(dp65
g7
g64
sg9
F259.745157957077
sg10
I100
sg11
I200
sa(dp66
g7
g64
sg9
F397.2828140258789
sg10
I100
sg11
I300
sa(dp67
g7
g64
sg9
F531.530946969986
sg10
I100
sg11
I400
sa(dp68
g7
g64
sg9
F665.2149529457092
sg10
I100
sg11
I500
satp69
Rp70
(dp71
g25
I01
sg26
g31
sg32
(lp72
I3
aI5
aI30
aI9
asg34
I6
sg35
g36
(g3
tp73
Rp74
sbsS'IBEA'
p75
g2
(g3
g4
(lp76
(dp77
g7
(F0.06
F1.22
F0.03
I1
I1
tp78
sg9
F0.044836997985839844
sg10
I100
sg11
I0
sa(dp79
g7
g64
sg9
F8.549538850784302
sg10
I100
sg11
I100
sa(dp80
g7
(F0.094
F1.06
F0.05
I1
I1
tp81
sg9
F17.03985095024109
sg10
I100
sg11
I200
sa(dp82
g7
g64
sg9
F25.511371850967407
sg10
I100
sg11
I300
sa(dp83
g7
(F0.076
F1.34
F0.041
I1
I1
tp84
sg9
F33.985838890075684
sg10
I100
sg11
I400
sa(dp85
g7
g64
sg9
F42.44832801818848
sg10
I100
sg11
I500
satp86
Rp87
(dp88
g25
I01
sg26
g31
sg32
(lp89
I3
aI5
aI30
aI9
asg34
I6
sg35
g36
(g3
tp90
Rp91
sbsS'NSGA2'
p92
g2
(g3
g4
(lp93
(dp94
g7
g64
sg9
F0.03684687614440918
sg10
I100
sg11
I0
sa(dp95
g7
(F0.062
F1.34
F0.024
I1
I1
tp96
sg9
F11.42316198348999
sg10
I100
sg11
I100
sa(dp97
g7
g64
sg9
F22.730894088745117
sg10
I100
sg11
I200
sa(dp98
g7
g64
sg9
F34.033726930618286
sg10
I100
sg11
I300
sa(dp99
g7
g64
sg9
F45.25416588783264
sg10
I100
sg11
I400
sa(dp100
g7
g64
sg9
F56.50252890586853
sg10
I100
sg11
I500
satp101
Rp102
(dp103
g25
I01
sg26
g31
sg32
(lp104
I3
aI5
aI30
aI9
asg34
I6
sg35
g36
(g3
tp105
Rp106
sbsS'IBEA-SIP'
p107
g2
(g3
g4
(lp108
(dp109
g7
(F0.122
F0.843
F0.043
I16
I19
tp110
sg9
F0.08388304710388184
sg10
I100
sg11
I0
sa(dp111
g7
(F0.202
F0.603
F0.034
I72
I100
tp112
sg9
F7.936824083328247
sg10
I100
sg11
I100
sa(dp113
g7
(F0.2
F0.618
F0.034
I69
I100
tp114
sg9
F15.984507083892822
sg10
I100
sg11
I200
sa(dp115
g7
(F0.2
F0.6
F0.036
I69
I100
tp116
sg9
F24.12821912765503
sg10
I100
sg11
I300
sa(dp117
g7
(F0.203
F0.624
F0.038
I71
I100
tp118
sg9
F32.18198919296265
sg10
I100
sg11
I400
sa(dp119
g7
(F0.201
F0.603
F0.035
I72
I100
tp120
sg9
F40.2710280418396
sg10
I100
sg11
I500
satp121
Rp122
(dp123
g25
I01
sg26
g31
sg32
(lp124
I3
aI5
aI30
aI9
asg34
I6
sg35
g36
(g3
tp125
Rp126
sbs.