(dp0
S'NSGA2-SIP'
p1
ccopy_reg
_reconstructor
p2
(cdeap.tools.support
Logbook
p3
c__builtin__
list
p4
(lp5
(dp6
S'hv|spread|igd|frontier#|valid#'
p7
(F0.105
F0.766
F0.037
I10
I18
tp8
sS'timestamp'
p9
F0.05344510078430176
sS'evals'
p10
I100
sS'gen'
p11
I0
sa(dp12
g7
(F0.192
F0.581
F0.028
I97
I100
tp13
sg9
F8.58407711982727
sg10
I100
sg11
I100
sa(dp14
g7
(F0.2
F0.598
F0.032
I97
I100
tp15
sg9
F17.068729162216187
sg10
I100
sg11
I200
sa(dp16
g7
(F0.202
F0.629
F0.032
I98
I100
tp17
sg9
F25.53553009033203
sg10
I100
sg11
I300
sa(dp18
g7
(F0.205
F0.586
F0.031
I98
I100
tp19
sg9
F33.942803144454956
sg10
I100
sg11
I400
sa(dp20
g7
(F0.206
F0.692
F0.033
I98
I100
tp21
sg9
F42.364601135253906
sg10
I100
sg11
I500
satp22
Rp23
(dp24
S'log_header'
p25
I01
sS'header'
p26
(S'gen'
p27
S'evals'
p28
S'hv|spread|igd|frontier#|valid#'
p29
S'timestamp'
p30
tp31
sS'columns_len'
p32
(lp33
I3
aI5
aI30
aI9
asS'buffindex'
p34
I6
sS'chapters'
p35
ccollections
defaultdict
p36
(g3
tp37
Rp38
sbsS'SPEA2-SIP'
p39
g2
(g3
g4
(lp40
(dp41
g7
(F0.111
F0.771
F0.033
I15
I24
tp42
sg9
F0.0699000358581543
sg10
I100
sg11
I0
sa(dp43
g7
(F0.198
F0.69
F0.033
I100
I100
tp44
sg9
F74.86314487457275
sg10
I100
sg11
I100
sa(dp45
g7
(F0.199
F0.626
F0.034
I100
I100
tp46
sg9
F158.54037499427795
sg10
I100
sg11
I200
sa(dp47
g7
(F0.203
F0.613
F0.034
I100
I100
tp48
sg9
F242.29474091529846
sg10
I100
sg11
I300
sa(dp49
g7
(F0.204
F0.631
F0.035
I100
I100
tp50
sg9
F323.09509897232056
sg10
I100
sg11
I400
sa(dp51
g7
(F0.206
F0.571
F0.036
I100
I100
tp52
sg9
F404.21152091026306
sg10
I100
sg11
I500
satp53
Rp54
(dp55
g25
I01
sg26
g31
sg32
(lp56
I3
aI5
aI31
aI9
asg34
I6
sg35
g36
(g3
tp57
Rp58
sbsS'SPEA2'
p59
g2
(g3
g4
(lp60
(dp61
g7
(I0
I0
I0
I0
I0
tp62
sg9
F0.03167891502380371
sg10
I100
sg11
I0
sa(dp63
g7
g62
sg9
F95.14459300041199
sg10
I100
sg11
I100
sa(dp64
g7
g62
sg9
F197.93977689743042
sg10
I100
sg11
I200
sa(dp65
g7
g62
sg9
F309.1984360218048
sg10
I100
sg11
I300
sa(dp66
g7
g62
sg9
F419.14064502716064
sg10
I100
sg11
I400
sa(dp67
g7
g62
sg9
F539.6901390552521
sg10
I100
sg11
I500
satp68
Rp69
(dp70
g25
I01
sg26
g31
sg32
(lp71
I3
aI5
aI30
aI9
asg34
I6
sg35
g36
(g3
tp72
Rp73
sbsS'IBEA'
p74
g2
(g3
g4
(lp75
(dp76
g7
g62
sg9
F0.03166604042053223
sg10
I100
sg11
I0
sa(dp77
g7
(F0.092
F0.918
F0.044
I2
I2
tp78
sg9
F7.352204084396362
sg10
I100
sg11
I100
sa(dp79
g7
(F0.082
F1.34
F0.051
I1
I1
tp80
sg9
F14.735002040863037
sg10
I100
sg11
I200
sa(dp81
g7
g62
sg9
F22.11010718345642
sg10
I100
sg11
I300
sa(dp82
g7
g62
sg9
F29.488954067230225
sg10
I100
sg11
I400
sa(dp83
g7
g62
sg9
F36.86410307884216
sg10
I100
sg11
I500
satp84
Rp85
(dp86
g25
I01
sg26
g31
sg32
(lp87
I3
aI5
aI30
aI9
asg34
I6
sg35
g36
(g3
tp88
Rp89
sbsS'NSGA2'
p90
g2
(g3
g4
(lp91
(dp92
g7
g62
sg9
F0.031625986099243164
sg10
I100
sg11
I0
sa(dp93
g7
g62
sg9
F9.74855899810791
sg10
I100
sg11
I100
sa(dp94
g7
g62
sg9
F19.389241933822632
sg10
I100
sg11
I200
sa(dp95
g7
g62
sg9
F29.00865888595581
sg10
I100
sg11
I300
sa(dp96
g7
g62
sg9
F38.591492891311646
sg10
I100
sg11
I400
sa(dp97
g7
g62
sg9
F48.20885396003723
sg10
I100
sg11
I500
satp98
Rp99
(dp100
g25
I01
sg26
g31
sg32
(lp101
I3
aI5
aI30
aI9
asg34
I6
sg35
g36
(g3
tp102
Rp103
sbsS'IBEA-SIP'
p104
g2
(g3
g4
(lp105
(dp106
g7
(F0.12
F0.77
F0.028
I13
I22
tp107
sg9
F0.06285500526428223
sg10
I100
sg11
I0
sa(dp108
g7
(F0.202
F0.669
F0.037
I70
I100
tp109
sg9
F6.948628902435303
sg10
I100
sg11
I100
sa(dp110
g7
(F0.204
F0.638
F0.038
I67
I100
tp111
sg9
F13.807558059692383
sg10
I100
sg11
I200
sa(dp112
g7
(F0.205
F0.638
F0.038
I72
I100
tp113
sg9
F20.723402976989746
sg10
I100
sg11
I300
sa(dp114
g7
(F0.206
F0.66
F0.041
I65
I100
tp115
sg9
F27.574568033218384
sg10
I100
sg11
I400
sa(dp116
g7
(F0.202
F0.676
F0.041
I62
I100
tp117
sg9
F34.38389587402344
sg10
I100
sg11
I500
satp118
Rp119
(dp120
g25
I01
sg26
g31
sg32
(lp121
I3
aI5
aI30
aI9
asg34
I6
sg35
g36
(g3
tp122
Rp123
sbs.