(dp0
S'NSGA2-SIP'
p1
ccopy_reg
_reconstructor
p2
(cdeap.tools.support
Logbook
p3
c__builtin__
list
p4
(lp5
(dp6
S'hv|spread|igd|frontier#|valid#'
p7
(F0.107
F0.778
F0.038
I14
I18
tp8
sS'timestamp'
p9
F0.0726311206817627
sS'evals'
p10
I100
sS'gen'
p11
I0
sa(dp12
g7
(F0.199
F0.604
F0.03
I98
I100
tp13
sg9
F9.413628101348877
sg10
I100
sg11
I100
sa(dp14
g7
(F0.202
F0.605
F0.031
I97
I100
tp15
sg9
F18.6892409324646
sg10
I100
sg11
I200
sa(dp16
g7
(F0.202
F0.549
F0.03
I96
I100
tp17
sg9
F27.913751125335693
sg10
I100
sg11
I300
sa(dp18
g7
(F0.205
F0.54
F0.033
I98
I100
tp19
sg9
F37.16315007209778
sg10
I100
sg11
I400
sa(dp20
g7
(F0.206
F0.596
F0.031
I99
I100
tp21
sg9
F46.432186126708984
sg10
I100
sg11
I500
satp22
Rp23
(dp24
S'log_header'
p25
I01
sS'header'
p26
(S'gen'
p27
S'evals'
p28
S'hv|spread|igd|frontier#|valid#'
p29
S'timestamp'
p30
tp31
sS'columns_len'
p32
(lp33
I3
aI5
aI30
aI9
asS'buffindex'
p34
I6
sS'chapters'
p35
ccollections
defaultdict
p36
(g3
tp37
Rp38
sbsS'SPEA2-SIP'
p39
g2
(g3
g4
(lp40
(dp41
g7
(F0.113
F0.92
F0.032
I8
I20
tp42
sg9
F0.05265092849731445
sg10
I100
sg11
I0
sa(dp43
g7
(F0.202
F0.555
F0.034
I100
I100
tp44
sg9
F80.71623182296753
sg10
I100
sg11
I100
sa(dp45
g7
(F0.205
F0.639
F0.034
I100
I100
tp46
sg9
F169.87673091888428
sg10
I100
sg11
I200
sa(dp47
g7
(F0.207
F0.622
F0.035
I100
I100
tp48
sg9
F257.1891210079193
sg10
I100
sg11
I300
sa(dp49
g7
(F0.207
F0.635
F0.036
I100
I100
tp50
sg9
F348.60432386398315
sg10
I100
sg11
I400
sa(dp51
g7
(F0.209
F0.623
F0.036
I100
I100
tp52
sg9
F438.8409478664398
sg10
I100
sg11
I500
satp53
Rp54
(dp55
g25
I01
sg26
g31
sg32
(lp56
I3
aI5
aI31
aI9
asg34
I6
sg35
g36
(g3
tp57
Rp58
sbsS'SPEA2'
p59
g2
(g3
g4
(lp60
(dp61
g7
(I0
I0
I0
I0
I0
tp62
sg9
F0.034069061279296875
sg10
I100
sg11
I0
sa(dp63
g7
g62
sg9
F103.78187608718872
sg10
I100
sg11
I100
sa(dp64
g7
g62
sg9
F232.043044090271
sg10
I100
sg11
I200
sa(dp65
g7
g62
sg9
F362.32617115974426
sg10
I100
sg11
I300
sa(dp66
g7
g62
sg9
F497.11810302734375
sg10
I100
sg11
I400
sa(dp67
g7
g62
sg9
F633.7485899925232
sg10
I100
sg11
I500
satp68
Rp69
(dp70
g25
I01
sg26
g31
sg32
(lp71
I3
aI5
aI30
aI9
asg34
I6
sg35
g36
(g3
tp72
Rp73
sbsS'IBEA-PEN'
p74
g2
(g3
g4
(lp75
(dp76
g7
(F0.146
F0.782
F0.031
I25
I32
tp77
sg9
F0.13236212730407715
sg10
I100
sg11
I0
sa(dp78
g7
(F0.195
F0.66
F0.037
I52
I88
tp79
sg9
F9.553960084915161
sg10
I100
sg11
I100
sa(dp80
g7
(F0.195
F0.613
F0.033
I53
I81
tp81
sg9
F19.336661100387573
sg10
I100
sg11
I200
sa(dp82
g7
(F0.202
F0.663
F0.035
I54
I86
tp83
sg9
F29.15154504776001
sg10
I100
sg11
I300
sa(dp84
g7
(F0.194
F0.647
F0.042
I55
I92
tp85
sg9
F38.973438024520874
sg10
I100
sg11
I400
sa(dp86
g7
(F0.196
F0.639
F0.034
I49
I81
tp87
sg9
F48.73428416252136
sg10
I100
sg11
I500
satp88
Rp89
(dp90
g25
I01
sg26
g31
sg32
(lp91
I3
aI5
aI30
aI9
asg34
I6
sg35
g36
(g3
tp92
Rp93
sbsS'IBEA'
p94
g2
(g3
g4
(lp95
(dp96
g7
g62
sg9
F0.034133195877075195
sg10
I100
sg11
I0
sa(dp97
g7
g62
sg9
F7.857874155044556
sg10
I100
sg11
I100
sa(dp98
g7
g62
sg9
F15.648868083953857
sg10
I100
sg11
I200
sa(dp99
g7
g62
sg9
F23.57941699028015
sg10
I100
sg11
I300
sa(dp100
g7
g62
sg9
F31.50625705718994
sg10
I100
sg11
I400
sa(dp101
g7
(F0.078
F0.9
F0.026
I1
I1
tp102
sg9
F39.54364013671875
sg10
I100
sg11
I500
satp103
Rp104
(dp105
g25
I01
sg26
g31
sg32
(lp106
I3
aI5
aI30
aI9
asg34
I6
sg35
g36
(g3
tp107
Rp108
sbsS'NSGA2'
p109
g2
(g3
g4
(lp110
(dp111
g7
g62
sg9
F0.03440690040588379
sg10
I100
sg11
I0
sa(dp112
g7
g62
sg9
F10.660101890563965
sg10
I100
sg11
I100
sa(dp113
g7
(F0.061
F1.52
F0.073
I1
I1
tp114
sg9
F21.21216583251953
sg10
I100
sg11
I200
sa(dp115
g7
g62
sg9
F31.799746990203857
sg10
I100
sg11
I300
sa(dp116
g7
g62
sg9
F42.35224986076355
sg10
I100
sg11
I400
sa(dp117
g7
g62
sg9
F52.892268896102905
sg10
I100
sg11
I500
satp118
Rp119
(dp120
g25
I01
sg26
g31
sg32
(lp121
I3
aI5
aI30
aI9
asg34
I6
sg35
g36
(g3
tp122
Rp123
sbsS'IBEA-SIP'
p124
g2
(g3
g4
(lp125
(dp126
g7
(F0.107
F0.833
F0.034
I14
I25
tp127
sg9
F0.07396602630615234
sg10
I100
sg11
I0
sa(dp128
g7
(F0.199
F0.576
F0.033
I68
I100
tp129
sg9
F7.597758054733276
sg10
I100
sg11
I100
sa(dp130
g7
(F0.204
F0.595
F0.034
I73
I100
tp131
sg9
F15.218102931976318
sg10
I100
sg11
I200
sa(dp132
g7
(F0.198
F0.548
F0.038
I63
I100
tp133
sg9
F22.64236307144165
sg10
I100
sg11
I300
sa(dp134
g7
(F0.204
F0.539
F0.039
I69
I100
tp135
sg9
F30.2014000415802
sg10
I100
sg11
I400
sa(dp136
g7
(F0.202
F0.655
F0.036
I68
I100
tp137
sg9
F37.65773391723633
sg10
I100
sg11
I500
satp138
Rp139
(dp140
g25
I01
sg26
g31
sg32
(lp141
I3
aI5
aI30
aI9
asg34
I6
sg35
g36
(g3
tp142
Rp143
sbs.