(dp0
S'NSGA2-SIP'
p1
ccopy_reg
_reconstructor
p2
(cdeap.tools.support
Logbook
p3
c__builtin__
list
p4
(lp5
(dp6
S'hv|spread|igd|frontier#|valid#'
p7
(F0.11
F0.723
F0.04
I16
I20
tp8
sS'timestamp'
p9
F0.07115697860717773
sS'evals'
p10
I100
sS'gen'
p11
I0
sa(dp12
g7
(F0.202
F0.594
F0.03
I97
I100
tp13
sg9
F8.546731948852539
sg10
I100
sg11
I100
sa(dp14
g7
(F0.202
F0.552
F0.031
I96
I100
tp15
sg9
F17.02346897125244
sg10
I100
sg11
I200
sa(dp16
g7
(F0.205
F0.562
F0.031
I98
I100
tp17
sg9
F25.469671964645386
sg10
I100
sg11
I300
sa(dp18
g7
(F0.206
F0.633
F0.029
I97
I100
tp19
sg9
F33.919145822525024
sg10
I100
sg11
I400
sa(dp20
g7
(F0.207
F0.622
F0.032
I96
I100
tp21
sg9
F42.4107608795166
sg10
I100
sg11
I500
satp22
Rp23
(dp24
S'log_header'
p25
I01
sS'header'
p26
(S'gen'
p27
S'evals'
p28
S'hv|spread|igd|frontier#|valid#'
p29
S'timestamp'
p30
tp31
sS'columns_len'
p32
(lp33
I3
aI5
aI30
aI9
asS'buffindex'
p34
I6
sS'chapters'
p35
ccollections
defaultdict
p36
(g3
tp37
Rp38
sbsS'SPEA2-SIP'
p39
g2
(g3
g4
(lp40
(dp41
g7
(F0.111
F0.895
F0.042
I15
I17
tp42
sg9
F0.06810402870178223
sg10
I100
sg11
I0
sa(dp43
g7
(F0.199
F0.629
F0.031
I100
I100
tp44
sg9
F74.00516605377197
sg10
I100
sg11
I100
sa(dp45
g7
(F0.201
F0.602
F0.033
I100
I100
tp46
sg9
F156.46610188484192
sg10
I100
sg11
I200
sa(dp47
g7
(F0.202
F0.624
F0.034
I100
I100
tp48
sg9
F235.67050886154175
sg10
I100
sg11
I300
sa(dp49
g7
(F0.206
F0.583
F0.034
I100
I100
tp50
sg9
F315.0491099357605
sg10
I100
sg11
I400
sa(dp51
g7
(F0.206
F0.621
F0.034
I100
I100
tp52
sg9
F395.4969470500946
sg10
I100
sg11
I500
satp53
Rp54
(dp55
g25
I01
sg26
g31
sg32
(lp56
I3
aI5
aI31
aI9
asg34
I6
sg35
g36
(g3
tp57
Rp58
sbsS'SPEA2'
p59
g2
(g3
g4
(lp60
(dp61
g7
(I0
I0
I0
I0
I0
tp62
sg9
F0.031594038009643555
sg10
I100
sg11
I0
sa(dp63
g7
g62
sg9
F101.96817517280579
sg10
I100
sg11
I100
sa(dp64
g7
g62
sg9
F216.82518410682678
sg10
I100
sg11
I200
sa(dp65
g7
g62
sg9
F331.7640972137451
sg10
I100
sg11
I300
sa(dp66
g7
g62
sg9
F448.0477840900421
sg10
I100
sg11
I400
sa(dp67
g7
g62
sg9
F565.1125991344452
sg10
I100
sg11
I500
satp68
Rp69
(dp70
g25
I01
sg26
g31
sg32
(lp71
I3
aI5
aI30
aI9
asg34
I6
sg35
g36
(g3
tp72
Rp73
sbsS'IBEA'
p74
g2
(g3
g4
(lp75
(dp76
g7
g62
sg9
F0.03130292892456055
sg10
I100
sg11
I0
sa(dp77
g7
g62
sg9
F7.27678108215332
sg10
I100
sg11
I100
sa(dp78
g7
g62
sg9
F14.660563945770264
sg10
I100
sg11
I200
sa(dp79
g7
g62
sg9
F21.984872102737427
sg10
I100
sg11
I300
sa(dp80
g7
g62
sg9
F29.265395879745483
sg10
I100
sg11
I400
sa(dp81
g7
g62
sg9
F36.52540588378906
sg10
I100
sg11
I500
satp82
Rp83
(dp84
g25
I01
sg26
g31
sg32
(lp85
I3
aI5
aI30
aI9
asg34
I6
sg35
g36
(g3
tp86
Rp87
sbsS'NSGA2'
p88
g2
(g3
g4
(lp89
(dp90
g7
g62
sg9
F0.03189516067504883
sg10
I100
sg11
I0
sa(dp91
g7
(F0.054
F2.476
F0.036
I1
I1
tp92
sg9
F9.745218992233276
sg10
I100
sg11
I100
sa(dp93
g7
(F0.078
F1.22
F0.022
I1
I1
tp94
sg9
F19.42958903312683
sg10
I100
sg11
I200
sa(dp95
g7
g62
sg9
F29.093607187271118
sg10
I100
sg11
I300
sa(dp96
g7
g62
sg9
F38.78338408470154
sg10
I100
sg11
I400
sa(dp97
g7
g62
sg9
F48.44301509857178
sg10
I100
sg11
I500
satp98
Rp99
(dp100
g25
I01
sg26
g31
sg32
(lp101
I3
aI5
aI30
aI9
asg34
I6
sg35
g36
(g3
tp102
Rp103
sbsS'IBEA-SIP'
p104
g2
(g3
g4
(lp105
(dp106
g7
(F0.107
F0.853
F0.034
I12
I19
tp107
sg9
F0.05956602096557617
sg10
I100
sg11
I0
sa(dp108
g7
(F0.198
F0.704
F0.036
I63
I100
tp109
sg9
F6.789139032363892
sg10
I100
sg11
I100
sa(dp110
g7
(F0.201
F0.674
F0.036
I68
I100
tp111
sg9
F13.623547077178955
sg10
I100
sg11
I200
sa(dp112
g7
(F0.206
F0.612
F0.04
I69
I100
tp113
sg9
F20.550010919570923
sg10
I100
sg11
I300
sa(dp114
g7
(F0.199
F0.655
F0.039
I65
I100
tp115
sg9
F27.367635011672974
sg10
I100
sg11
I400
sa(dp116
g7
(F0.205
F0.555
F0.037
I70
I100
tp117
sg9
F34.20884299278259
sg10
I100
sg11
I500
satp118
Rp119
(dp120
g25
I01
sg26
g31
sg32
(lp121
I3
aI5
aI30
aI9
asg34
I6
sg35
g36
(g3
tp122
Rp123
sbs.