(dp0
S'NSGA2-SIP'
p1
ccopy_reg
_reconstructor
p2
(cdeap.tools.support
Logbook
p3
c__builtin__
list
p4
(lp5
(dp6
S'hv|spread|igd|frontier#|valid#'
p7
(F0.132
F0.704
F0.031
I19
I23
tp8
sS'timestamp'
p9
F0.09048604965209961
sS'evals'
p10
I100
sS'gen'
p11
I0
sa(dp12
g7
(F0.201
F0.604
F0.03
I96
I100
tp13
sg9
F9.395498991012573
sg10
I100
sg11
I100
sa(dp14
g7
(F0.203
F0.529
F0.031
I97
I100
tp15
sg9
F18.61265802383423
sg10
I100
sg11
I200
sa(dp16
g7
(F0.203
F0.59
F0.031
I97
I100
tp17
sg9
F27.98941397666931
sg10
I100
sg11
I300
sa(dp18
g7
(F0.205
F0.655
F0.031
I96
I100
tp19
sg9
F37.294240951538086
sg10
I100
sg11
I400
sa(dp20
g7
(F0.204
F0.577
F0.031
I98
I100
tp21
sg9
F46.55320405960083
sg10
I100
sg11
I500
satp22
Rp23
(dp24
S'log_header'
p25
I01
sS'header'
p26
(S'gen'
p27
S'evals'
p28
S'hv|spread|igd|frontier#|valid#'
p29
S'timestamp'
p30
tp31
sS'columns_len'
p32
(lp33
I3
aI5
aI30
aI9
asS'buffindex'
p34
I6
sS'chapters'
p35
ccollections
defaultdict
p36
(g3
tp37
Rp38
sbsS'SPEA2-SIP'
p39
g2
(g3
g4
(lp40
(dp41
g7
(F0.123
F0.872
F0.035
I9
I17
tp42
sg9
F0.05552506446838379
sg10
I100
sg11
I0
sa(dp43
g7
(F0.201
F0.692
F0.032
I100
I100
tp44
sg9
F80.27249002456665
sg10
I100
sg11
I100
sa(dp45
g7
(F0.204
F0.594
F0.033
I100
I100
tp46
sg9
F168.16947484016418
sg10
I100
sg11
I200
sa(dp47
g7
(F0.207
F0.599
F0.034
I100
I100
tp48
sg9
F256.2037558555603
sg10
I100
sg11
I300
sa(dp49
g7
(F0.207
F0.69
F0.035
I100
I100
tp50
sg9
F346.1438419818878
sg10
I100
sg11
I400
sa(dp51
g7
(F0.208
F0.607
F0.035
I100
I100
tp52
sg9
F432.85443806648254
sg10
I100
sg11
I500
satp53
Rp54
(dp55
g25
I01
sg26
g31
sg32
(lp56
I3
aI5
aI31
aI9
asg34
I6
sg35
g36
(g3
tp57
Rp58
sbsS'SPEA2'
p59
g2
(g3
g4
(lp60
(dp61
g7
(I0
I0
I0
I0
I0
tp62
sg9
F0.034729957580566406
sg10
I100
sg11
I0
sa(dp63
g7
g62
sg9
F103.89661502838135
sg10
I100
sg11
I100
sa(dp64
g7
g62
sg9
F225.02516102790833
sg10
I100
sg11
I200
sa(dp65
g7
g62
sg9
F350.1569838523865
sg10
I100
sg11
I300
sa(dp66
g7
g62
sg9
F480.5844638347626
sg10
I100
sg11
I400
sa(dp67
g7
g62
sg9
F608.456836938858
sg10
I100
sg11
I500
satp68
Rp69
(dp70
g25
I01
sg26
g31
sg32
(lp71
I3
aI5
aI30
aI9
asg34
I6
sg35
g36
(g3
tp72
Rp73
sbsS'IBEA'
p74
g2
(g3
g4
(lp75
(dp76
g7
(F0.066
F1.0
F0.038
I3
I3
tp77
sg9
F0.04362607002258301
sg10
I100
sg11
I0
sa(dp78
g7
(F0.059
F1.52
F0.056
I1
I1
tp79
sg9
F8.000010013580322
sg10
I100
sg11
I100
sa(dp80
g7
g62
sg9
F16.004878997802734
sg10
I100
sg11
I200
sa(dp81
g7
g62
sg9
F24.006195068359375
sg10
I100
sg11
I300
sa(dp82
g7
(F0.083
F1.14
F0.05
I1
I1
tp83
sg9
F32.01625108718872
sg10
I100
sg11
I400
sa(dp84
g7
g62
sg9
F40.01632499694824
sg10
I100
sg11
I500
satp85
Rp86
(dp87
g25
I01
sg26
g31
sg32
(lp88
I3
aI5
aI30
aI9
asg34
I6
sg35
g36
(g3
tp89
Rp90
sbsS'NSGA2'
p91
g2
(g3
g4
(lp92
(dp93
g7
(F0.058
F2.177
F0.053
I1
I1
tp94
sg9
F0.03792285919189453
sg10
I100
sg11
I0
sa(dp95
g7
g62
sg9
F10.826350927352905
sg10
I100
sg11
I100
sa(dp96
g7
g62
sg9
F21.52402687072754
sg10
I100
sg11
I200
sa(dp97
g7
g62
sg9
F32.12193179130554
sg10
I100
sg11
I300
sa(dp98
g7
g62
sg9
F42.792240858078
sg10
I100
sg11
I400
sa(dp99
g7
g62
sg9
F53.49249291419983
sg10
I100
sg11
I500
satp100
Rp101
(dp102
g25
I01
sg26
g31
sg32
(lp103
I3
aI5
aI30
aI9
asg34
I6
sg35
g36
(g3
tp104
Rp105
sbsS'IBEA-SIP'
p106
g2
(g3
g4
(lp107
(dp108
g7
(F0.123
F0.697
F0.037
I15
I22
tp109
sg9
F0.07645797729492188
sg10
I100
sg11
I0
sa(dp110
g7
(F0.202
F0.665
F0.034
I70
I100
tp111
sg9
F7.553405046463013
sg10
I100
sg11
I100
sa(dp112
g7
(F0.201
F0.718
F0.036
I64
I100
tp113
sg9
F15.1109299659729
sg10
I100
sg11
I200
sa(dp114
g7
(F0.204
F0.602
F0.035
I66
I100
tp115
sg9
F22.604462146759033
sg10
I100
sg11
I300
sa(dp116
g7
(F0.202
F0.516
F0.035
I61
I100
tp117
sg9
F30.05446195602417
sg10
I100
sg11
I400
sa(dp118
g7
(F0.206
F0.681
F0.038
I67
I100
tp119
sg9
F37.59617495536804
sg10
I100
sg11
I500
satp120
Rp121
(dp122
g25
I01
sg26
g31
sg32
(lp123
I3
aI5
aI30
aI9
asg34
I6
sg35
g36
(g3
tp124
Rp125
sbs.