(dp0
S'NSGA2-SIP'
p1
ccopy_reg
_reconstructor
p2
(cdeap.tools.support
Logbook
p3
c__builtin__
list
p4
(lp5
(dp6
S'hv|spread|igd|frontier#|valid#'
p7
(F0.138
F0.678
F0.034
I18
I23
tp8
sS'timestamp'
p9
F0.08801102638244629
sS'evals'
p10
I100
sS'gen'
p11
I0
sa(dp12
g7
(F0.204
F0.604
F0.029
I96
I100
tp13
sg9
F9.226526975631714
sg10
I100
sg11
I100
sa(dp14
g7
(F0.207
F0.587
F0.033
I98
I100
tp15
sg9
F18.359805822372437
sg10
I100
sg11
I200
sa(dp16
g7
(F0.207
F0.603
F0.032
I97
I100
tp17
sg9
F27.584024906158447
sg10
I100
sg11
I300
sa(dp18
g7
(F0.204
F0.634
F0.03
I98
I100
tp19
sg9
F36.59306192398071
sg10
I100
sg11
I400
sa(dp20
g7
(F0.206
F0.56
F0.031
I97
I100
tp21
sg9
F45.692445039749146
sg10
I100
sg11
I500
satp22
Rp23
(dp24
S'log_header'
p25
I01
sS'header'
p26
(S'gen'
p27
S'evals'
p28
S'hv|spread|igd|frontier#|valid#'
p29
S'timestamp'
p30
tp31
sS'columns_len'
p32
(lp33
I3
aI5
aI30
aI9
asS'buffindex'
p34
I6
sS'chapters'
p35
ccollections
defaultdict
p36
(g3
tp37
Rp38
sbsS'SPEA2-SIP'
p39
g2
(g3
g4
(lp40
(dp41
g7
(F0.108
F0.971
F0.028
I14
I22
tp42
sg9
F0.07256507873535156
sg10
I100
sg11
I0
sa(dp43
g7
(F0.197
F0.601
F0.032
I100
I100
tp44
sg9
F79.15055012702942
sg10
I100
sg11
I100
sa(dp45
g7
(F0.207
F0.6
F0.035
I100
I100
tp46
sg9
F168.20552396774292
sg10
I100
sg11
I200
sa(dp47
g7
(F0.207
F0.633
F0.036
I100
I100
tp48
sg9
F255.1711940765381
sg10
I100
sg11
I300
sa(dp49
g7
(F0.207
F0.612
F0.035
I100
I100
tp50
sg9
F344.9869270324707
sg10
I100
sg11
I400
sa(dp51
g7
(F0.208
F0.67
F0.036
I100
I100
tp52
sg9
F432.6860990524292
sg10
I100
sg11
I500
satp53
Rp54
(dp55
g25
I01
sg26
g31
sg32
(lp56
I3
aI5
aI31
aI9
asg34
I6
sg35
g36
(g3
tp57
Rp58
sbsS'SPEA2'
p59
g2
(g3
g4
(lp60
(dp61
g7
(I0
I0
I0
I0
I0
tp62
sg9
F0.03422212600708008
sg10
I100
sg11
I0
sa(dp63
g7
g62
sg9
F115.83654308319092
sg10
I100
sg11
I100
sa(dp64
g7
g62
sg9
F240.92416095733643
sg10
I100
sg11
I200
sa(dp65
g7
g62
sg9
F369.8354640007019
sg10
I100
sg11
I300
sa(dp66
g7
g62
sg9
F494.4405391216278
sg10
I100
sg11
I400
sa(dp67
g7
g62
sg9
F621.0086050033569
sg10
I100
sg11
I500
satp68
Rp69
(dp70
g25
I01
sg26
g31
sg32
(lp71
I3
aI5
aI30
aI9
asg34
I6
sg35
g36
(g3
tp72
Rp73
sbsS'IBEA'
p74
g2
(g3
g4
(lp75
(dp76
g7
g62
sg9
F0.034233808517456055
sg10
I100
sg11
I0
sa(dp77
g7
(F0.071
F1.3
F0.042
I1
I1
tp78
sg9
F7.928066968917847
sg10
I100
sg11
I100
sa(dp79
g7
g62
sg9
F15.828919887542725
sg10
I100
sg11
I200
sa(dp80
g7
(F0.086
F0.945
F0.06
I2
I2
tp81
sg9
F23.732268810272217
sg10
I100
sg11
I300
sa(dp82
g7
(F0.089
F1.22
F0.081
I1
I1
tp83
sg9
F31.682292938232422
sg10
I100
sg11
I400
sa(dp84
g7
g62
sg9
F39.62653994560242
sg10
I100
sg11
I500
satp85
Rp86
(dp87
g25
I01
sg26
g31
sg32
(lp88
I3
aI5
aI30
aI9
asg34
I6
sg35
g36
(g3
tp89
Rp90
sbsS'NSGA2'
p91
g2
(g3
g4
(lp92
(dp93
g7
(F0.088
F0.902
F0.031
I2
I2
tp94
sg9
F0.04075288772583008
sg10
I100
sg11
I0
sa(dp95
g7
g62
sg9
F10.597661018371582
sg10
I100
sg11
I100
sa(dp96
g7
g62
sg9
F21.04173493385315
sg10
I100
sg11
I200
sa(dp97
g7
g62
sg9
F31.37261199951172
sg10
I100
sg11
I300
sa(dp98
g7
g62
sg9
F41.83566498756409
sg10
I100
sg11
I400
sa(dp99
g7
g62
sg9
F52.31682205200195
sg10
I100
sg11
I500
satp100
Rp101
(dp102
g25
I01
sg26
g31
sg32
(lp103
I3
aI5
aI30
aI9
asg34
I6
sg35
g36
(g3
tp104
Rp105
sbsS'IBEA-SIP'
p106
g2
(g3
g4
(lp107
(dp108
g7
(F0.112
F0.708
F0.035
I16
I24
tp109
sg9
F0.07941412925720215
sg10
I100
sg11
I0
sa(dp110
g7
(F0.199
F0.67
F0.034
I65
I100
tp111
sg9
F7.341909170150757
sg10
I100
sg11
I100
sa(dp112
g7
(F0.2
F0.607
F0.035
I68
I100
tp113
sg9
F14.88933801651001
sg10
I100
sg11
I200
sa(dp114
g7
(F0.201
F0.669
F0.036
I69
I100
tp115
sg9
F22.347655057907104
sg10
I100
sg11
I300
sa(dp116
g7
(F0.203
F0.6
F0.038
I64
I100
tp117
sg9
F29.703920125961304
sg10
I100
sg11
I400
sa(dp118
g7
(F0.204
F0.656
F0.037
I64
I100
tp119
sg9
F37.120426177978516
sg10
I100
sg11
I500
satp120
Rp121
(dp122
g25
I01
sg26
g31
sg32
(lp123
I3
aI5
aI30
aI9
asg34
I6
sg35
g36
(g3
tp124
Rp125
sbs.