(dp0
S'NSGA2-SIP'
p1
ccopy_reg
_reconstructor
p2
(cdeap.tools.support
Logbook
p3
c__builtin__
list
p4
(lp5
(dp6
S'hv|spread|igd|frontier#|valid#'
p7
(F0.124
F0.896
F0.033
I12
I17
tp8
sS'timestamp'
p9
F0.06522297859191895
sS'evals'
p10
I100
sS'gen'
p11
I0
sa(dp12
g7
(F0.199
F0.688
F0.028
I96
I100
tp13
sg9
F9.299658060073853
sg10
I100
sg11
I100
sa(dp14
g7
(F0.203
F0.572
F0.03
I98
I100
tp15
sg9
F18.574140071868896
sg10
I100
sg11
I200
sa(dp16
g7
(F0.203
F0.554
F0.031
I98
I100
tp17
sg9
F27.8501238822937
sg10
I100
sg11
I300
sa(dp18
g7
(F0.206
F0.526
F0.031
I98
I100
tp19
sg9
F37.10555410385132
sg10
I100
sg11
I400
sa(dp20
g7
(F0.206
F0.571
F0.031
I98
I100
tp21
sg9
F46.49172902107239
sg10
I100
sg11
I500
satp22
Rp23
(dp24
S'log_header'
p25
I01
sS'header'
p26
(S'gen'
p27
S'evals'
p28
S'hv|spread|igd|frontier#|valid#'
p29
S'timestamp'
p30
tp31
sS'columns_len'
p32
(lp33
I3
aI5
aI30
aI9
asS'buffindex'
p34
I6
sS'chapters'
p35
ccollections
defaultdict
p36
(g3
tp37
Rp38
sbsS'SPEA2-SIP'
p39
g2
(g3
g4
(lp40
(dp41
g7
(F0.117
F0.863
F0.038
I18
I21
tp42
sg9
F0.08748602867126465
sg10
I100
sg11
I0
sa(dp43
g7
(F0.202
F0.655
F0.032
I100
I100
tp44
sg9
F83.24143409729004
sg10
I100
sg11
I100
sa(dp45
g7
(F0.207
F0.711
F0.036
I100
I100
tp46
sg9
F172.57727003097534
sg10
I100
sg11
I200
sa(dp47
g7
(F0.208
F0.631
F0.036
I100
I100
tp48
sg9
F262.15373706817627
sg10
I100
sg11
I300
sa(dp49
g7
(F0.208
F0.582
F0.036
I100
I100
tp50
sg9
F352.30205512046814
sg10
I100
sg11
I400
sa(dp51
g7
(F0.208
F0.67
F0.037
I100
I100
tp52
sg9
F441.99710297584534
sg10
I100
sg11
I500
satp53
Rp54
(dp55
g25
I01
sg26
g31
sg32
(lp56
I3
aI5
aI31
aI9
asg34
I6
sg35
g36
(g3
tp57
Rp58
sbsS'SPEA2'
p59
g2
(g3
g4
(lp60
(dp61
g7
(I0
I0
I0
I0
I0
tp62
sg9
F0.03514409065246582
sg10
I100
sg11
I0
sa(dp63
g7
g62
sg9
F103.62533211708069
sg10
I100
sg11
I100
sa(dp64
g7
g62
sg9
F229.75007891654968
sg10
I100
sg11
I200
sa(dp65
g7
g62
sg9
F360.29176211357117
sg10
I100
sg11
I300
sa(dp66
g7
g62
sg9
F488.44929695129395
sg10
I100
sg11
I400
sa(dp67
g7
g62
sg9
F614.8974161148071
sg10
I100
sg11
I500
satp68
Rp69
(dp70
g25
I01
sg26
g31
sg32
(lp71
I3
aI5
aI30
aI9
asg34
I6
sg35
g36
(g3
tp72
Rp73
sbsS'IBEA-PEN'
p74
g2
(g3
g4
(lp75
(dp76
g7
(F0.124
F0.667
F0.029
I32
I44
tp77
sg9
F0.1725919246673584
sg10
I100
sg11
I0
sa(dp78
g7
(F0.193
F0.649
F0.033
I47
I79
tp79
sg9
F10.01533579826355
sg10
I100
sg11
I100
sa(dp80
g7
(F0.201
F0.634
F0.038
I59
I93
tp81
sg9
F20.035247802734375
sg10
I100
sg11
I200
sa(dp82
g7
(F0.197
F0.696
F0.035
I49
I82
tp83
sg9
F29.972980976104736
sg10
I100
sg11
I300
sa(dp84
g7
(F0.196
F0.589
F0.042
I42
I81
tp85
sg9
F39.848413944244385
sg10
I100
sg11
I400
sa(dp86
g7
(F0.199
F0.701
F0.043
I56
I87
tp87
sg9
F49.842145919799805
sg10
I100
sg11
I500
satp88
Rp89
(dp90
g25
I01
sg26
g31
sg32
(lp91
I3
aI5
aI30
aI9
asg34
I6
sg35
g36
(g3
tp92
Rp93
sbsS'IBEA'
p94
g2
(g3
g4
(lp95
(dp96
g7
g62
sg9
F0.034464120864868164
sg10
I100
sg11
I0
sa(dp97
g7
g62
sg9
F7.990545988082886
sg10
I100
sg11
I100
sa(dp98
g7
(F0.045
F1.6
F0.057
I1
I1
tp99
sg9
F16.048120975494385
sg10
I100
sg11
I200
sa(dp100
g7
g62
sg9
F24.058212995529175
sg10
I100
sg11
I300
sa(dp101
g7
g62
sg9
F32.01514005661011
sg10
I100
sg11
I400
sa(dp102
g7
(F0.045
F2.586
F0.063
I1
I1
tp103
sg9
F40.05833911895752
sg10
I100
sg11
I500
satp104
Rp105
(dp106
g25
I01
sg26
g31
sg32
(lp107
I3
aI5
aI30
aI9
asg34
I6
sg35
g36
(g3
tp108
Rp109
sbsS'NSGA2'
p110
g2
(g3
g4
(lp111
(dp112
g7
g62
sg9
F0.03467702865600586
sg10
I100
sg11
I0
sa(dp113
g7
g62
sg9
F10.726903915405273
sg10
I100
sg11
I100
sa(dp114
g7
g62
sg9
F21.32331895828247
sg10
I100
sg11
I200
sa(dp115
g7
g62
sg9
F31.925745964050293
sg10
I100
sg11
I300
sa(dp116
g7
g62
sg9
F42.56033682823181
sg10
I100
sg11
I400
sa(dp117
g7
g62
sg9
F53.17205786705017
sg10
I100
sg11
I500
satp118
Rp119
(dp120
g25
I01
sg26
g31
sg32
(lp121
I3
aI5
aI30
aI9
asg34
I6
sg35
g36
(g3
tp122
Rp123
sbsS'IBEA-SIP'
p124
g2
(g3
g4
(lp125
(dp126
g7
(F0.108
F0.891
F0.041
I15
I20
tp127
sg9
F0.07546806335449219
sg10
I100
sg11
I0
sa(dp128
g7
(F0.201
F0.732
F0.036
I69
I100
tp129
sg9
F7.52214503288269
sg10
I100
sg11
I100
sa(dp130
g7
(F0.204
F0.624
F0.039
I67
I100
tp131
sg9
F14.9496910572052
sg10
I100
sg11
I200
sa(dp132
g7
(F0.204
F0.613
F0.04
I62
I100
tp133
sg9
F22.3537700176239
sg10
I100
sg11
I300
sa(dp134
g7
(F0.202
F0.664
F0.039
I64
I100
tp135
sg9
F29.78812313079834
sg10
I100
sg11
I400
sa(dp136
g7
(F0.205
F0.666
F0.04
I63
I100
tp137
sg9
F37.285057067871094
sg10
I100
sg11
I500
satp138
Rp139
(dp140
g25
I01
sg26
g31
sg32
(lp141
I3
aI5
aI30
aI9
asg34
I6
sg35
g36
(g3
tp142
Rp143
sbs.