(dp0
S'NSGA2-SIP'
p1
ccopy_reg
_reconstructor
p2
(cdeap.tools.support
Logbook
p3
c__builtin__
list
p4
(lp5
(dp6
S'hv|spread|igd|frontier#|valid#'
p7
(F0.115
F0.866
F0.039
I14
I16
tp8
sS'timestamp'
p9
F0.07134509086608887
sS'evals'
p10
I100
sS'gen'
p11
I0
sa(dp12
g7
(F0.2
F0.623
F0.03
I96
I100
tp13
sg9
F9.393027067184448
sg10
I100
sg11
I100
sa(dp14
g7
(F0.207
F0.587
F0.033
I99
I100
tp15
sg9
F18.511317014694214
sg10
I100
sg11
I200
sa(dp16
g7
(F0.208
F0.619
F0.032
I97
I100
tp17
sg9
F27.637773036956787
sg10
I100
sg11
I300
sa(dp18
g7
(F0.206
F0.613
F0.03
I97
I100
tp19
sg9
F36.74109101295471
sg10
I100
sg11
I400
sa(dp20
g7
(F0.207
F0.658
F0.033
I96
I100
tp21
sg9
F45.71634101867676
sg10
I100
sg11
I500
satp22
Rp23
(dp24
S'log_header'
p25
I01
sS'header'
p26
(S'gen'
p27
S'evals'
p28
S'hv|spread|igd|frontier#|valid#'
p29
S'timestamp'
p30
tp31
sS'columns_len'
p32
(lp33
I3
aI5
aI30
aI9
asS'buffindex'
p34
I6
sS'chapters'
p35
ccollections
defaultdict
p36
(g3
tp37
Rp38
sbsS'SPEA2-SIP'
p39
g2
(g3
g4
(lp40
(dp41
g7
(F0.102
F0.773
F0.042
I14
I17
tp42
sg9
F0.07165884971618652
sg10
I100
sg11
I0
sa(dp43
g7
(F0.202
F0.635
F0.033
I100
I100
tp44
sg9
F83.53236889839172
sg10
I100
sg11
I100
sa(dp45
g7
(F0.203
F0.609
F0.033
I100
I100
tp46
sg9
F175.07089281082153
sg10
I100
sg11
I200
sa(dp47
g7
(F0.209
F0.636
F0.036
I100
I100
tp48
sg9
F262.42907881736755
sg10
I100
sg11
I300
sa(dp49
g7
(F0.209
F0.598
F0.035
I100
I100
tp50
sg9
F348.62909388542175
sg10
I100
sg11
I400
sa(dp51
g7
(F0.209
F0.581
F0.037
I100
I100
tp52
sg9
F435.2601099014282
sg10
I100
sg11
I500
satp53
Rp54
(dp55
g25
I01
sg26
g31
sg32
(lp56
I3
aI5
aI31
aI9
asg34
I6
sg35
g36
(g3
tp57
Rp58
sbsS'SPEA2'
p59
g2
(g3
g4
(lp60
(dp61
g7
(F0.061
F1.1
F0.024
I1
I1
tp62
sg9
F0.03742718696594238
sg10
I100
sg11
I0
sa(dp63
g7
(I0
I0
I0
I0
I0
tp64
sg9
F108.66753602027893
sg10
I100
sg11
I100
sa(dp65
g7
g64
sg9
F238.1404950618744
sg10
I100
sg11
I200
sa(dp66
g7
g64
sg9
F368.72092604637146
sg10
I100
sg11
I300
sa(dp67
g7
g64
sg9
F497.7840201854706
sg10
I100
sg11
I400
sa(dp68
g7
g64
sg9
F626.5301351547241
sg10
I100
sg11
I500
satp69
Rp70
(dp71
g25
I01
sg26
g31
sg32
(lp72
I3
aI5
aI30
aI9
asg34
I6
sg35
g36
(g3
tp73
Rp74
sbsS'IBEA-PEN'
p75
g2
(g3
g4
(lp76
(dp77
g7
(F0.149
F0.657
F0.029
I31
I43
tp78
sg9
F0.16380810737609863
sg10
I100
sg11
I0
sa(dp79
g7
(F0.2
F0.696
F0.037
I53
I89
tp80
sg9
F9.747688055038452
sg10
I100
sg11
I100
sa(dp81
g7
(F0.198
F0.646
F0.045
I56
I92
tp82
sg9
F19.470674991607666
sg10
I100
sg11
I200
sa(dp83
g7
(F0.194
F0.7
F0.043
I48
I78
tp84
sg9
F29.125483989715576
sg10
I100
sg11
I300
sa(dp85
g7
(F0.198
F0.679
F0.04
I63
I90
tp86
sg9
F38.91888618469238
sg10
I100
sg11
I400
sa(dp87
g7
(F0.196
F0.632
F0.035
I48
I89
tp88
sg9
F48.46591520309448
sg10
I100
sg11
I500
satp89
Rp90
(dp91
g25
I01
sg26
g31
sg32
(lp92
I3
aI5
aI30
aI9
asg34
I6
sg35
g36
(g3
tp93
Rp94
sbsS'IBEA'
p95
g2
(g3
g4
(lp96
(dp97
g7
(F0.053
F2.264
F0.055
I1
I1
tp98
sg9
F0.036524057388305664
sg10
I100
sg11
I0
sa(dp99
g7
g64
sg9
F7.815730094909668
sg10
I100
sg11
I100
sa(dp100
g7
(F0.099
F0.884
F0.048
I2
I2
tp101
sg9
F15.657041072845459
sg10
I100
sg11
I200
sa(dp102
g7
g64
sg9
F23.496376037597656
sg10
I100
sg11
I300
sa(dp103
g7
(F0.075
F1.38
F0.052
I1
I1
tp104
sg9
F31.351433038711548
sg10
I100
sg11
I400
sa(dp105
g7
g64
sg9
F39.19939208030701
sg10
I100
sg11
I500
satp106
Rp107
(dp108
g25
I01
sg26
g31
sg32
(lp109
I3
aI5
aI30
aI9
asg34
I6
sg35
g36
(g3
tp110
Rp111
sbsS'NSGA2'
p112
g2
(g3
g4
(lp113
(dp114
g7
g64
sg9
F0.033911943435668945
sg10
I100
sg11
I0
sa(dp115
g7
g64
sg9
F10.533927917480469
sg10
I100
sg11
I100
sa(dp116
g7
(F0.074
F1.1
F0.024
I1
I1
tp117
sg9
F20.96698784828186
sg10
I100
sg11
I200
sa(dp118
g7
g64
sg9
F31.293633937835693
sg10
I100
sg11
I300
sa(dp119
g7
g64
sg9
F41.656760931015015
sg10
I100
sg11
I400
sa(dp120
g7
g64
sg9
F52.06341290473938
sg10
I100
sg11
I500
satp121
Rp122
(dp123
g25
I01
sg26
g31
sg32
(lp124
I3
aI5
aI30
aI9
asg34
I6
sg35
g36
(g3
tp125
Rp126
sbsS'IBEA-SIP'
p127
g2
(g3
g4
(lp128
(dp129
g7
(F0.119
F0.735
F0.033
I13
I17
tp130
sg9
F0.06896519660949707
sg10
I100
sg11
I0
sa(dp131
g7
(F0.203
F0.675
F0.035
I69
I100
tp132
sg9
F7.313160181045532
sg10
I100
sg11
I100
sa(dp133
g7
(F0.197
F0.664
F0.037
I69
I100
tp134
sg9
F14.663061141967773
sg10
I100
sg11
I200
sa(dp135
g7
(F0.2
F0.637
F0.038
I70
I100
tp136
sg9
F22.05203413963318
sg10
I100
sg11
I300
sa(dp137
g7
(F0.2
F0.698
F0.037
I75
I100
tp138
sg9
F29.466008186340332
sg10
I100
sg11
I400
sa(dp139
g7
(F0.205
F0.718
F0.039
I70
I100
tp140
sg9
F36.77497720718384
sg10
I100
sg11
I500
satp141
Rp142
(dp143
g25
I01
sg26
g31
sg32
(lp144
I3
aI5
aI30
aI9
asg34
I6
sg35
g36
(g3
tp145
Rp146
sbs.