(dp0
S'NSGA2-SIP'
p1
ccopy_reg
_reconstructor
p2
(cdeap.tools.support
Logbook
p3
c__builtin__
list
p4
(lp5
(dp6
S'hv|spread|igd|frontier#|valid#'
p7
(F0.108
F0.903
F0.038
I15
I20
tp8
sS'timestamp'
p9
F0.06876206398010254
sS'evals'
p10
I100
sS'gen'
p11
I0
sa(dp12
g7
(F0.2
F0.611
F0.03
I98
I100
tp13
sg9
F8.76297402381897
sg10
I100
sg11
I100
sa(dp14
g7
(F0.205
F0.596
F0.031
I98
I100
tp15
sg9
F17.21075415611267
sg10
I100
sg11
I200
sa(dp16
g7
(F0.202
F0.709
F0.032
I95
I100
tp17
sg9
F25.496289014816284
sg10
I100
sg11
I300
sa(dp18
g7
(F0.206
F0.609
F0.032
I97
I100
tp19
sg9
F33.900843143463135
sg10
I100
sg11
I400
sa(dp20
g7
(F0.207
F0.573
F0.032
I98
I100
tp21
sg9
F42.42230200767517
sg10
I100
sg11
I500
satp22
Rp23
(dp24
S'log_header'
p25
I01
sS'header'
p26
(S'gen'
p27
S'evals'
p28
g7
S'timestamp'
p29
tp30
sS'columns_len'
p31
(lp32
I3
aI5
aI30
aI9
asS'buffindex'
p33
I6
sS'chapters'
p34
ccollections
defaultdict
p35
(g3
tp36
Rp37
sbsS'SPEA2-SIP'
p38
g2
(g3
g4
(lp39
(dp40
g7
(F0.124
F0.828
F0.031
I16
I24
tp41
sg9
F0.0738379955291748
sg10
I100
sg11
I0
sa(dp42
g7
(F0.206
F0.648
F0.034
I100
I100
tp43
sg9
F74.36853384971619
sg10
I100
sg11
I100
sa(dp44
g7
(F0.208
F0.614
F0.036
I100
I100
tp45
sg9
F156.700092792511
sg10
I100
sg11
I200
sa(dp46
g7
(F0.209
F0.598
F0.036
I100
I100
tp47
sg9
F236.80349683761597
sg10
I100
sg11
I300
sa(dp48
g7
(F0.209
F0.554
F0.035
I100
I100
tp49
sg9
F318.71385383605957
sg10
I100
sg11
I400
sa(dp50
g7
(F0.209
F0.631
F0.036
I100
I100
tp51
sg9
F399.63166880607605
sg10
I100
sg11
I500
satp52
Rp53
(dp54
g25
I01
sg26
g30
sg31
(lp55
I3
aI5
aI31
aI9
asg33
I6
sg34
g35
(g3
tp56
Rp57
sbsS'SPEA2'
p58
g2
(g3
g4
(lp59
(dp60
g7
(I0
I0
I0
I0
I0
tp61
sg9
F0.03142905235290527
sg10
I100
sg11
I0
sa(dp62
g7
g61
sg9
F98.7907509803772
sg10
I100
sg11
I100
sa(dp63
g7
g61
sg9
F214.9434370994568
sg10
I100
sg11
I200
sa(dp64
g7
g61
sg9
F324.59057807922363
sg10
I100
sg11
I300
sa(dp65
g7
g61
sg9
F437.5127820968628
sg10
I100
sg11
I400
sa(dp66
g7
g61
sg9
F557.8375389575958
sg10
I100
sg11
I500
satp67
Rp68
(dp69
g25
I01
sg26
g30
sg31
(lp70
I3
aI5
aI30
aI9
asg33
I6
sg34
g35
(g3
tp71
Rp72
sbsS'IBEA'
p73
g2
(g3
g4
(lp74
(dp75
g7
g61
sg9
F0.031196117401123047
sg10
I100
sg11
I0
sa(dp76
g7
(F0.027
F1.68
F0.057
I1
I1
tp77
sg9
F7.238594055175781
sg10
I100
sg11
I100
sa(dp78
g7
g61
sg9
F14.451929092407227
sg10
I100
sg11
I200
sa(dp79
g7
g61
sg9
F21.63465905189514
sg10
I100
sg11
I300
sa(dp80
g7
g61
sg9
F28.81206703186035
sg10
I100
sg11
I400
sa(dp81
g7
g61
sg9
F35.9808030128479
sg10
I100
sg11
I500
satp82
Rp83
(dp84
g25
I01
sg26
g30
sg31
(lp85
I3
aI5
aI30
aI9
asg33
I6
sg34
g35
(g3
tp86
Rp87
sbsS'NSGA2'
p88
g2
(g3
g4
(lp89
(dp90
g7
(F0.066
F0.98
F0.045
I1
I1
tp91
sg9
F0.03451395034790039
sg10
I100
sg11
I0
sa(dp92
g7
g61
sg9
F9.771160125732422
sg10
I100
sg11
I100
sa(dp93
g7
g61
sg9
F19.435328006744385
sg10
I100
sg11
I200
sa(dp94
g7
g61
sg9
F29.067009925842285
sg10
I100
sg11
I300
sa(dp95
g7
g61
sg9
F38.66463303565979
sg10
I100
sg11
I400
sa(dp96
g7
(F0.053
F1.56
F0.061
I1
I1
tp97
sg9
F48.275113105773926
sg10
I100
sg11
I500
satp98
Rp99
(dp100
g25
I01
sg26
g30
sg31
(lp101
I3
aI5
aI30
aI9
asg33
I6
sg34
g35
(g3
tp102
Rp103
sbsS'IBEA-SIP'
p104
g2
(g3
g4
(lp105
(dp106
g7
(F0.091
F0.866
F0.034
I10
I16
tp107
sg9
F0.05301189422607422
sg10
I100
sg11
I0
sa(dp108
g7
(F0.199
F0.656
F0.033
I61
I100
tp109
sg9
F6.623503923416138
sg10
I100
sg11
I100
sa(dp110
g7
(F0.196
F0.649
F0.037
I72
I100
tp111
sg9
F13.383477926254272
sg10
I100
sg11
I200
sa(dp112
g7
(F0.204
F0.683
F0.038
I73
I100
tp113
sg9
F20.205815076828003
sg10
I100
sg11
I300
sa(dp114
g7
(F0.2
F0.725
F0.034
I69
I100
tp115
sg9
F26.952064037322998
sg10
I100
sg11
I400
sa(dp116
g7
(F0.196
F0.697
F0.038
I65
I100
tp117
sg9
F33.675734996795654
sg10
I100
sg11
I500
satp118
Rp119
(dp120
g25
I01
sg26
g30
sg31
(lp121
I3
aI5
aI30
aI9
asg33
I6
sg34
g35
(g3
tp122
Rp123
sbs.