(dp0
S'NSGA2-SIP'
p1
ccopy_reg
_reconstructor
p2
(cdeap.tools.support
Logbook
p3
c__builtin__
list
p4
(lp5
(dp6
S'hv|spread|igd|frontier#|valid#'
p7
(F0.099
F0.953
F0.035
I9
I14
tp8
sS'timestamp'
p9
F0.0560297966003418
sS'evals'
p10
I100
sS'gen'
p11
I0
sa(dp12
g7
(F0.202
F0.616
F0.031
I97
I100
tp13
sg9
F9.279214859008789
sg10
I100
sg11
I100
sa(dp14
g7
(F0.203
F0.616
F0.03
I99
I100
tp15
sg9
F18.696715831756592
sg10
I100
sg11
I200
sa(dp16
g7
(F0.207
F0.64
F0.031
I96
I100
tp17
sg9
F28.021784782409668
sg10
I100
sg11
I300
sa(dp18
g7
(F0.206
F0.634
F0.031
I99
I100
tp19
sg9
F37.490285873413086
sg10
I100
sg11
I400
sa(dp20
g7
(F0.207
F0.648
F0.031
I98
I100
tp21
sg9
F46.79326581954956
sg10
I100
sg11
I500
satp22
Rp23
(dp24
S'log_header'
p25
I01
sS'header'
p26
(S'gen'
p27
S'evals'
p28
g7
S'timestamp'
p29
tp30
sS'columns_len'
p31
(lp32
I3
aI5
aI30
aI9
asS'buffindex'
p33
I6
sS'chapters'
p34
ccollections
defaultdict
p35
(g3
tp36
Rp37
sbsS'SPEA2-SIP'
p38
g2
(g3
g4
(lp39
(dp40
g7
(F0.113
F0.828
F0.037
I17
I25
tp41
sg9
F0.08468794822692871
sg10
I100
sg11
I0
sa(dp42
g7
(F0.198
F0.614
F0.034
I100
I100
tp43
sg9
F81.57604789733887
sg10
I100
sg11
I100
sa(dp44
g7
(F0.2
F0.623
F0.035
I100
I100
tp45
sg9
F168.7247929573059
sg10
I100
sg11
I200
sa(dp46
g7
(F0.202
F0.603
F0.035
I100
I100
tp47
sg9
F260.539577960968
sg10
I100
sg11
I300
sa(dp48
g7
(F0.201
F0.54
F0.035
I100
I100
tp49
sg9
F350.66031289100647
sg10
I100
sg11
I400
sa(dp50
g7
(F0.204
F0.591
F0.035
I100
I100
tp51
sg9
F440.406583070755
sg10
I100
sg11
I500
satp52
Rp53
(dp54
g25
I01
sg26
g30
sg31
(lp55
I3
aI5
aI31
aI9
asg33
I6
sg34
g35
(g3
tp56
Rp57
sbsS'SPEA2'
p58
g2
(g3
g4
(lp59
(dp60
g7
(F0.06
F2.177
F0.033
I1
I1
tp61
sg9
F0.0388789176940918
sg10
I100
sg11
I0
sa(dp62
g7
(I0
I0
I0
I0
I0
tp63
sg9
F108.98781991004944
sg10
I100
sg11
I100
sa(dp64
g7
g63
sg9
F233.77301502227783
sg10
I100
sg11
I200
sa(dp65
g7
g63
sg9
F359.2552399635315
sg10
I100
sg11
I300
sa(dp66
g7
g63
sg9
F486.57361793518066
sg10
I100
sg11
I400
sa(dp67
g7
g63
sg9
F609.534038066864
sg10
I100
sg11
I500
satp68
Rp69
(dp70
g25
I01
sg26
g30
sg31
(lp71
I3
aI5
aI30
aI9
asg33
I6
sg34
g35
(g3
tp72
Rp73
sbsS'IBEA-PEN'
p74
g2
(g3
g4
(lp75
(dp76
g7
(F0.128
F0.608
F0.025
I24
I35
tp77
sg9
F0.13944602012634277
sg10
I100
sg11
I0
sa(dp78
g7
(F0.196
F0.66
F0.033
I56
I90
tp79
sg9
F10.179569005966187
sg10
I100
sg11
I100
sa(dp80
g7
(F0.195
F0.682
F0.037
I47
I88
tp81
sg9
F20.236851930618286
sg10
I100
sg11
I200
sa(dp82
g7
(F0.191
F0.621
F0.037
I50
I92
tp83
sg9
F30.28192400932312
sg10
I100
sg11
I300
sa(dp84
g7
(F0.201
F0.588
F0.039
I57
I95
tp85
sg9
F40.42485308647156
sg10
I100
sg11
I400
sa(dp86
g7
(F0.191
F0.649
F0.038
I49
I86
tp87
sg9
F50.505616903305054
sg10
I100
sg11
I500
satp88
Rp89
(dp90
g25
I01
sg26
g30
sg31
(lp91
I3
aI5
aI30
aI9
asg33
I6
sg34
g35
(g3
tp92
Rp93
sbsS'IBEA'
p94
g2
(g3
g4
(lp95
(dp96
g7
g63
sg9
F0.03568696975708008
sg10
I100
sg11
I0
sa(dp97
g7
(F0.06
F0.981
F0.05
I2
I2
tp98
sg9
F8.16881799697876
sg10
I100
sg11
I100
sa(dp99
g7
(F0.058
F2.512
F0.077
I1
I1
tp100
sg9
F16.37712597846985
sg10
I100
sg11
I200
sa(dp101
g7
(F0.073
F1.42
F0.081
I1
I1
tp102
sg9
F24.542256116867065
sg10
I100
sg11
I300
sa(dp103
g7
(F0.07
F1.46
F0.081
I1
I1
tp104
sg9
F32.7210750579834
sg10
I100
sg11
I400
sa(dp105
g7
g63
sg9
F40.905231952667236
sg10
I100
sg11
I500
satp106
Rp107
(dp108
g25
I01
sg26
g30
sg31
(lp109
I3
aI5
aI30
aI9
asg33
I6
sg34
g35
(g3
tp110
Rp111
sbsS'NSGA2'
p112
g2
(g3
g4
(lp113
(dp114
g7
g63
sg9
F0.035015106201171875
sg10
I100
sg11
I0
sa(dp115
g7
g63
sg9
F10.839982986450195
sg10
I100
sg11
I100
sa(dp116
g7
g63
sg9
F21.56974506378174
sg10
I100
sg11
I200
sa(dp117
g7
g63
sg9
F32.31158709526062
sg10
I100
sg11
I300
sa(dp118
g7
g63
sg9
F43.09483313560486
sg10
I100
sg11
I400
sa(dp119
g7
(F0.04
F2.561
F0.05
I1
I1
tp120
sg9
F53.901957988739014
sg10
I100
sg11
I500
satp121
Rp122
(dp123
g25
I01
sg26
g30
sg31
(lp124
I3
aI5
aI30
aI9
asg33
I6
sg34
g35
(g3
tp125
Rp126
sbsS'IBEA-SIP'
p127
g2
(g3
g4
(lp128
(dp129
g7
(F0.131
F0.674
F0.034
I17
I23
tp130
sg9
F0.0842440128326416
sg10
I100
sg11
I0
sa(dp131
g7
(F0.2
F0.705
F0.038
I70
I100
tp132
sg9
F7.770280122756958
sg10
I100
sg11
I100
sa(dp133
g7
(F0.2
F0.658
F0.037
I60
I100
tp134
sg9
F15.411379098892212
sg10
I100
sg11
I200
sa(dp135
g7
(F0.196
F0.591
F0.035
I61
I100
tp136
sg9
F23.10308599472046
sg10
I100
sg11
I300
sa(dp137
g7
(F0.197
F0.724
F0.036
I59
I100
tp138
sg9
F30.6212739944458
sg10
I100
sg11
I400
sa(dp139
g7
(F0.204
F0.582
F0.039
I74
I100
tp140
sg9
F38.387819051742554
sg10
I100
sg11
I500
satp141
Rp142
(dp143
g25
I01
sg26
g30
sg31
(lp144
I3
aI5
aI30
aI9
asg33
I6
sg34
g35
(g3
tp145
Rp146
sbs.