(dp0
S'NSGA2-SIP'
p1
ccopy_reg
_reconstructor
p2
(cdeap.tools.support
Logbook
p3
c__builtin__
list
p4
(lp5
(dp6
S'hv|spread|igd|frontier#|valid#'
p7
(F0.126
F0.789
F0.032
I15
I25
tp8
sS'timestamp'
p9
F0.07744908332824707
sS'evals'
p10
I100
sS'gen'
p11
I0
sa(dp12
g7
(F0.201
F0.669
F0.03
I97
I100
tp13
sg9
F9.617522954940796
sg10
I100
sg11
I100
sa(dp14
g7
(F0.204
F0.627
F0.031
I96
I100
tp15
sg9
F19.06821608543396
sg10
I100
sg11
I200
sa(dp16
g7
(F0.209
F0.463
F0.033
I99
I100
tp17
sg9
F28.479548931121826
sg10
I100
sg11
I300
sa(dp18
g7
(F0.208
F0.615
F0.033
I98
I100
tp19
sg9
F37.974937915802
sg10
I100
sg11
I400
sa(dp20
g7
(F0.207
F0.597
F0.033
I96
I100
tp21
sg9
F47.3281409740448
sg10
I100
sg11
I500
satp22
Rp23
(dp24
S'log_header'
p25
I01
sS'header'
p26
(S'gen'
p27
S'evals'
p28
S'hv|spread|igd|frontier#|valid#'
p29
S'timestamp'
p30
tp31
sS'columns_len'
p32
(lp33
I3
aI5
aI30
aI9
asS'buffindex'
p34
I6
sS'chapters'
p35
ccollections
defaultdict
p36
(g3
tp37
Rp38
sbsS'SPEA2-SIP'
p39
g2
(g3
g4
(lp40
(dp41
g7
(F0.106
F0.753
F0.041
I12
I18
tp42
sg9
F0.06551790237426758
sg10
I100
sg11
I0
sa(dp43
g7
(F0.2
F0.614
F0.034
I100
I100
tp44
sg9
F81.2501130104065
sg10
I100
sg11
I100
sa(dp45
g7
(F0.201
F0.592
F0.033
I100
I100
tp46
sg9
F170.53121995925903
sg10
I100
sg11
I200
sa(dp47
g7
(F0.204
F0.581
F0.034
I100
I100
tp48
sg9
F259.9325280189514
sg10
I100
sg11
I300
sa(dp49
g7
(F0.205
F0.615
F0.035
I100
I100
tp50
sg9
F351.14857006073
sg10
I100
sg11
I400
sa(dp51
g7
(F0.209
F0.638
F0.037
I100
I100
tp52
sg9
F441.8918559551239
sg10
I100
sg11
I500
satp53
Rp54
(dp55
g25
I01
sg26
g31
sg32
(lp56
I3
aI5
aI31
aI9
asg34
I6
sg35
g36
(g3
tp57
Rp58
sbsS'SPEA2'
p59
g2
(g3
g4
(lp60
(dp61
g7
(I0
I0
I0
I0
I0
tp62
sg9
F0.03551912307739258
sg10
I100
sg11
I0
sa(dp63
g7
g62
sg9
F104.51489019393921
sg10
I100
sg11
I100
sa(dp64
g7
g62
sg9
F229.55927205085754
sg10
I100
sg11
I200
sa(dp65
g7
g62
sg9
F358.89525413513184
sg10
I100
sg11
I300
sa(dp66
g7
g62
sg9
F490.74370408058167
sg10
I100
sg11
I400
sa(dp67
g7
g62
sg9
F616.4808351993561
sg10
I100
sg11
I500
satp68
Rp69
(dp70
g25
I01
sg26
g31
sg32
(lp71
I3
aI5
aI30
aI9
asg34
I6
sg35
g36
(g3
tp72
Rp73
sbsS'IBEA-PEN'
p74
g2
(g3
g4
(lp75
(dp76
g7
(F0.14
F0.637
F0.028
I27
I42
tp77
sg9
F0.15323114395141602
sg10
I100
sg11
I0
sa(dp78
g7
(F0.189
F0.651
F0.033
I57
I78
tp79
sg9
F10.041425943374634
sg10
I100
sg11
I100
sa(dp80
g7
(F0.194
F0.586
F0.035
I44
I79
tp81
sg9
F19.930618047714233
sg10
I100
sg11
I200
sa(dp82
g7
(F0.19
F0.646
F0.034
I55
I90
tp83
sg9
F29.896048069000244
sg10
I100
sg11
I300
sa(dp84
g7
(F0.194
F0.647
F0.032
I51
I84
tp85
sg9
F39.8147611618042
sg10
I100
sg11
I400
sa(dp86
g7
(F0.19
F0.678
F0.039
I41
I78
tp87
sg9
F49.673912048339844
sg10
I100
sg11
I500
satp88
Rp89
(dp90
g25
I01
sg26
g31
sg32
(lp91
I3
aI5
aI30
aI9
asg34
I6
sg35
g36
(g3
tp92
Rp93
sbsS'IBEA'
p94
g2
(g3
g4
(lp95
(dp96
g7
g62
sg9
F0.03414201736450195
sg10
I100
sg11
I0
sa(dp97
g7
(F0.031
F1.64
F0.036
I1
I1
tp98
sg9
F7.994328022003174
sg10
I100
sg11
I100
sa(dp99
g7
g62
sg9
F16.017236948013306
sg10
I100
sg11
I200
sa(dp100
g7
g62
sg9
F24.073626041412354
sg10
I100
sg11
I300
sa(dp101
g7
g62
sg9
F32.18588900566101
sg10
I100
sg11
I400
sa(dp102
g7
g62
sg9
F40.31324481964111
sg10
I100
sg11
I500
satp103
Rp104
(dp105
g25
I01
sg26
g31
sg32
(lp106
I3
aI5
aI30
aI9
asg34
I6
sg35
g36
(g3
tp107
Rp108
sbsS'NSGA2'
p109
g2
(g3
g4
(lp110
(dp111
g7
(F0.068
F0.86
F0.02
I1
I1
tp112
sg9
F0.03880882263183594
sg10
I100
sg11
I0
sa(dp113
g7
g62
sg9
F10.807935953140259
sg10
I100
sg11
I100
sa(dp114
g7
g62
sg9
F21.638182878494263
sg10
I100
sg11
I200
sa(dp115
g7
g62
sg9
F32.36004185676575
sg10
I100
sg11
I300
sa(dp116
g7
g62
sg9
F42.99838399887085
sg10
I100
sg11
I400
sa(dp117
g7
g62
sg9
F53.6459698677063
sg10
I100
sg11
I500
satp118
Rp119
(dp120
g25
I01
sg26
g31
sg32
(lp121
I3
aI5
aI30
aI9
asg34
I6
sg35
g36
(g3
tp122
Rp123
sbsS'IBEA-SIP'
p124
g2
(g3
g4
(lp125
(dp126
g7
(F0.109
F0.807
F0.029
I11
I20
tp127
sg9
F0.06391000747680664
sg10
I100
sg11
I0
sa(dp128
g7
(F0.195
F0.632
F0.034
I66
I100
tp129
sg9
F7.621135950088501
sg10
I100
sg11
I100
sa(dp130
g7
(F0.199
F0.556
F0.036
I67
I100
tp131
sg9
F15.234946966171265
sg10
I100
sg11
I200
sa(dp132
g7
(F0.207
F0.686
F0.038
I72
I100
tp133
sg9
F22.897770881652832
sg10
I100
sg11
I300
sa(dp134
g7
(F0.201
F0.667
F0.04
I61
I100
tp135
sg9
F30.4964919090271
sg10
I100
sg11
I400
sa(dp136
g7
(F0.202
F0.669
F0.037
I70
I100
tp137
sg9
F38.0708589553833
sg10
I100
sg11
I500
satp138
Rp139
(dp140
g25
I01
sg26
g31
sg32
(lp141
I3
aI5
aI30
aI9
asg34
I6
sg35
g36
(g3
tp142
Rp143
sbs.