(dp0
S'NSGA2-SIP'
p1
ccopy_reg
_reconstructor
p2
(cdeap.tools.support
Logbook
p3
c__builtin__
list
p4
(lp5
(dp6
S'hv|spread|igd|frontier#|valid#'
p7
(F0.115
F0.72
F0.031
I14
I18
tp8
sS'timestamp'
p9
F0.08013391494750977
sS'evals'
p10
I100
sS'gen'
p11
I0
sa(dp12
g7
(F0.203
F0.573
F0.03
I97
I100
tp13
sg9
F10.536634922027588
sg10
I100
sg11
I100
sa(dp14
g7
(F0.206
F0.631
F0.032
I98
I100
tp15
sg9
F21.08922290802002
sg10
I100
sg11
I200
sa(dp16
g7
(F0.207
F0.648
F0.031
I98
I100
tp17
sg9
F31.507694959640503
sg10
I100
sg11
I300
sa(dp18
g7
(F0.205
F0.666
F0.03
I98
I100
tp19
sg9
F42.00755286216736
sg10
I100
sg11
I400
sa(dp20
g7
(F0.206
F0.621
F0.032
I96
I100
tp21
sg9
F52.41098380088806
sg10
I100
sg11
I500
satp22
Rp23
(dp24
S'log_header'
p25
I01
sS'header'
p26
(S'gen'
p27
S'evals'
p28
S'hv|spread|igd|frontier#|valid#'
p29
S'timestamp'
p30
tp31
sS'columns_len'
p32
(lp33
I3
aI5
aI30
aI9
asS'buffindex'
p34
I6
sS'chapters'
p35
ccollections
defaultdict
p36
(g3
tp37
Rp38
sbsS'SPEA2-SIP'
p39
g2
(g3
g4
(lp40
(dp41
g7
(F0.133
F0.769
F0.033
I14
I21
tp42
sg9
F0.0805051326751709
sg10
I100
sg11
I0
sa(dp43
g7
(F0.2
F0.581
F0.032
I100
I100
tp44
sg9
F86.92403602600098
sg10
I100
sg11
I100
sa(dp45
g7
(F0.203
F0.569
F0.034
I100
I100
tp46
sg9
F183.0262529850006
sg10
I100
sg11
I200
sa(dp47
g7
(F0.204
F0.667
F0.035
I100
I100
tp48
sg9
F279.30838418006897
sg10
I100
sg11
I300
sa(dp49
g7
(F0.205
F0.614
F0.035
I100
I100
tp50
sg9
F374.1597921848297
sg10
I100
sg11
I400
sa(dp51
g7
(F0.205
F0.65
F0.036
I100
I100
tp52
sg9
F471.2504529953003
sg10
I100
sg11
I500
satp53
Rp54
(dp55
g25
I01
sg26
g31
sg32
(lp56
I3
aI5
aI31
aI9
asg34
I6
sg35
g36
(g3
tp57
Rp58
sbsS'SPEA2'
p59
g2
(g3
g4
(lp60
(dp61
g7
(I0
I0
I0
I0
I0
tp62
sg9
F0.0387721061706543
sg10
I100
sg11
I0
sa(dp63
g7
g62
sg9
F116.04342412948608
sg10
I100
sg11
I100
sa(dp64
g7
g62
sg9
F247.77814507484436
sg10
I100
sg11
I200
sa(dp65
g7
g62
sg9
F381.32390117645264
sg10
I100
sg11
I300
sa(dp66
g7
g62
sg9
F517.2621471881866
sg10
I100
sg11
I400
sa(dp67
g7
g62
sg9
F651.782870054245
sg10
I100
sg11
I500
satp68
Rp69
(dp70
g25
I01
sg26
g31
sg32
(lp71
I3
aI5
aI30
aI9
asg34
I6
sg35
g36
(g3
tp72
Rp73
sbsS'IBEA-PEN'
p74
g2
(g3
g4
(lp75
(dp76
g7
(F0.134
F0.731
F0.031
I34
I46
tp77
sg9
F0.21411395072937012
sg10
I100
sg11
I0
sa(dp78
g7
(F0.064
F1.42
F0.051
I1
I1
tp79
sg9
F8.70389199256897
sg10
I100
sg11
I100
sa(dp80
g7
g62
sg9
F17.213337898254395
sg10
I100
sg11
I200
sa(dp81
g7
(F0.088
F0.98
F0.075
I1
I1
tp82
sg9
F25.736053943634033
sg10
I100
sg11
I300
sa(dp83
g7
(F0.05
F2.561
F0.075
I1
I1
tp84
sg9
F34.228638887405396
sg10
I100
sg11
I400
sa(dp85
g7
(F0.09
F0.972
F0.059
I3
I3
tp86
sg9
F42.72737789154053
sg10
I100
sg11
I500
satp87
Rp88
(dp89
g25
I01
sg26
g31
sg32
(lp90
I3
aI5
aI30
aI9
asg34
I6
sg35
g36
(g3
tp91
Rp92
sbsS'IBEA'
p93
g2
(g3
g4
(lp94
(dp95
g7
g62
sg9
F0.03787088394165039
sg10
I100
sg11
I0
sa(dp96
g7
g62
sg9
F8.331080913543701
sg10
I100
sg11
I100
sa(dp97
g7
(F0.058
F1.42
F0.051
I1
I1
tp98
sg9
F16.716166973114014
sg10
I100
sg11
I200
sa(dp99
g7
g62
sg9
F25.108426094055176
sg10
I100
sg11
I300
sa(dp100
g7
g62
sg9
F33.46309208869934
sg10
I100
sg11
I400
sa(dp101
g7
g62
sg9
F41.824445962905884
sg10
I100
sg11
I500
satp102
Rp103
(dp104
g25
I01
sg26
g31
sg32
(lp105
I3
aI5
aI30
aI9
asg34
I6
sg35
g36
(g3
tp106
Rp107
sbsS'NSGA2'
p108
g2
(g3
g4
(lp109
(dp110
g7
(F0.072
F0.988
F0.032
I2
I2
tp111
sg9
F0.0452728271484375
sg10
I100
sg11
I0
sa(dp112
g7
g62
sg9
F12.06423282623291
sg10
I100
sg11
I100
sa(dp113
g7
g62
sg9
F24.08024287223816
sg10
I100
sg11
I200
sa(dp114
g7
g62
sg9
F36.03105902671814
sg10
I100
sg11
I300
sa(dp115
g7
g62
sg9
F47.99414396286011
sg10
I100
sg11
I400
sa(dp116
g7
g62
sg9
F59.901813983917236
sg10
I100
sg11
I500
satp117
Rp118
(dp119
g25
I01
sg26
g31
sg32
(lp120
I3
aI5
aI30
aI9
asg34
I6
sg35
g36
(g3
tp121
Rp122
sbsS'IBEA-SIP'
p123
g2
(g3
g4
(lp124
(dp125
g7
(F0.119
F0.63
F0.039
I14
I28
tp126
sg9
F0.0821540355682373
sg10
I100
sg11
I0
sa(dp127
g7
(F0.197
F0.634
F0.035
I63
I100
tp128
sg9
F7.819895029067993
sg10
I100
sg11
I100
sa(dp129
g7
(F0.201
F0.703
F0.038
I63
I100
tp130
sg9
F15.715585947036743
sg10
I100
sg11
I200
sa(dp131
g7
(F0.2
F0.649
F0.037
I66
I100
tp132
sg9
F23.528815984725952
sg10
I100
sg11
I300
sa(dp133
g7
(F0.197
F0.648
F0.038
I60
I100
tp134
sg9
F31.32310199737549
sg10
I100
sg11
I400
sa(dp135
g7
(F0.203
F0.677
F0.037
I67
I100
tp136
sg9
F39.119271993637085
sg10
I100
sg11
I500
satp137
Rp138
(dp139
g25
I01
sg26
g31
sg32
(lp140
I3
aI5
aI30
aI9
asg34
I6
sg35
g36
(g3
tp141
Rp142
sbs.