(dp0
S'NSGA2-SIP'
p1
ccopy_reg
_reconstructor
p2
(cdeap.tools.support
Logbook
p3
c__builtin__
list
p4
(lp5
(dp6
S'hv|spread|igd|frontier#|valid#'
p7
(F0.093
F0.848
F0.033
I10
I20
tp8
sS'timestamp'
p9
F0.053730010986328125
sS'evals'
p10
I100
sS'gen'
p11
I0
sa(dp12
g7
(F0.199
F0.658
F0.028
I98
I100
tp13
sg9
F8.458038091659546
sg10
I100
sg11
I100
sa(dp14
g7
(F0.202
F0.664
F0.03
I97
I100
tp15
sg9
F16.818176984786987
sg10
I100
sg11
I200
sa(dp16
g7
(F0.205
F0.64
F0.031
I99
I100
tp17
sg9
F25.158453941345215
sg10
I100
sg11
I300
sa(dp18
g7
(F0.206
F0.612
F0.033
I98
I100
tp19
sg9
F33.50317096710205
sg10
I100
sg11
I400
sa(dp20
g7
(F0.207
F0.578
F0.032
I99
I100
tp21
sg9
F41.94696402549744
sg10
I100
sg11
I500
satp22
Rp23
(dp24
S'log_header'
p25
I01
sS'header'
p26
(S'gen'
p27
S'evals'
p28
S'hv|spread|igd|frontier#|valid#'
p29
S'timestamp'
p30
tp31
sS'columns_len'
p32
(lp33
I3
aI5
aI30
aI9
asS'buffindex'
p34
I6
sS'chapters'
p35
ccollections
defaultdict
p36
(g3
tp37
Rp38
sbsS'SPEA2-SIP'
p39
g2
(g3
g4
(lp40
(dp41
g7
(F0.126
F0.78
F0.033
I18
I28
tp42
sg9
F0.07988810539245605
sg10
I100
sg11
I0
sa(dp43
g7
(F0.198
F0.527
F0.032
I100
I100
tp44
sg9
F73.00054717063904
sg10
I100
sg11
I100
sa(dp45
g7
(F0.204
F0.663
F0.034
I100
I100
tp46
sg9
F153.03552103042603
sg10
I100
sg11
I200
sa(dp47
g7
(F0.207
F0.647
F0.036
I100
I100
tp48
sg9
F233.27365899085999
sg10
I100
sg11
I300
sa(dp49
g7
(F0.208
F0.576
F0.036
I100
I100
tp50
sg9
F311.66608214378357
sg10
I100
sg11
I400
sa(dp51
g7
(F0.21
F0.61
F0.036
I100
I100
tp52
sg9
F390.2859342098236
sg10
I100
sg11
I500
satp53
Rp54
(dp55
g25
I01
sg26
g31
sg32
(lp56
I3
aI5
aI31
aI9
asg34
I6
sg35
g36
(g3
tp57
Rp58
sbsS'SPEA2'
p59
g2
(g3
g4
(lp60
(dp61
g7
(I0
I0
I0
I0
I0
tp62
sg9
F0.031246185302734375
sg10
I100
sg11
I0
sa(dp63
g7
g62
sg9
F97.30894613265991
sg10
I100
sg11
I100
sa(dp64
g7
g62
sg9
F211.6170151233673
sg10
I100
sg11
I200
sa(dp65
g7
g62
sg9
F327.02233505249023
sg10
I100
sg11
I300
sa(dp66
g7
g62
sg9
F444.65055418014526
sg10
I100
sg11
I400
sa(dp67
g7
g62
sg9
F560.887374162674
sg10
I100
sg11
I500
satp68
Rp69
(dp70
g25
I01
sg26
g31
sg32
(lp71
I3
aI5
aI30
aI9
asg34
I6
sg35
g36
(g3
tp72
Rp73
sbsS'IBEA'
p74
g2
(g3
g4
(lp75
(dp76
g7
g62
sg9
F0.03200101852416992
sg10
I100
sg11
I0
sa(dp77
g7
g62
sg9
F7.269341945648193
sg10
I100
sg11
I100
sa(dp78
g7
g62
sg9
F14.537545919418335
sg10
I100
sg11
I200
sa(dp79
g7
g62
sg9
F21.8037691116333
sg10
I100
sg11
I300
sa(dp80
g7
g62
sg9
F29.056936979293823
sg10
I100
sg11
I400
sa(dp81
g7
(F0.084
F1.26
F0.032
I1
I1
tp82
sg9
F36.22208094596863
sg10
I100
sg11
I500
satp83
Rp84
(dp85
g25
I01
sg26
g31
sg32
(lp86
I3
aI5
aI30
aI9
asg34
I6
sg35
g36
(g3
tp87
Rp88
sbsS'NSGA2'
p89
g2
(g3
g4
(lp90
(dp91
g7
g62
sg9
F0.0310821533203125
sg10
I100
sg11
I0
sa(dp92
g7
g62
sg9
F9.649667978286743
sg10
I100
sg11
I100
sa(dp93
g7
g62
sg9
F19.175116062164307
sg10
I100
sg11
I200
sa(dp94
g7
g62
sg9
F28.696153163909912
sg10
I100
sg11
I300
sa(dp95
g7
g62
sg9
F38.25221300125122
sg10
I100
sg11
I400
sa(dp96
g7
g62
sg9
F47.81326413154602
sg10
I100
sg11
I500
satp97
Rp98
(dp99
g25
I01
sg26
g31
sg32
(lp100
I3
aI5
aI30
aI9
asg34
I6
sg35
g36
(g3
tp101
Rp102
sbsS'IBEA-SIP'
p103
g2
(g3
g4
(lp104
(dp105
g7
(F0.136
F0.642
F0.037
I20
I24
tp106
sg9
F0.08522820472717285
sg10
I100
sg11
I0
sa(dp107
g7
(F0.194
F0.689
F0.033
I61
I100
tp108
sg9
F6.800654172897339
sg10
I100
sg11
I100
sa(dp109
g7
(F0.205
F0.76
F0.038
I70
I100
tp110
sg9
F13.513236999511719
sg10
I100
sg11
I200
sa(dp111
g7
(F0.197
F0.656
F0.036
I57
I100
tp112
sg9
F20.23513412475586
sg10
I100
sg11
I300
sa(dp113
g7
(F0.202
F0.749
F0.038
I58
I100
tp114
sg9
F26.829212188720703
sg10
I100
sg11
I400
sa(dp115
g7
(F0.205
F0.716
F0.039
I67
I100
tp116
sg9
F33.49240517616272
sg10
I100
sg11
I500
satp117
Rp118
(dp119
g25
I01
sg26
g31
sg32
(lp120
I3
aI5
aI30
aI9
asg34
I6
sg35
g36
(g3
tp121
Rp122
sbs.