(dp0
S'NSGA2-SIP'
p1
ccopy_reg
_reconstructor
p2
(cdeap.tools.support
Logbook
p3
c__builtin__
list
p4
(lp5
(dp6
S'hv|spread|igd|frontier#|valid#'
p7
(F0.132
F0.851
F0.036
I15
I21
tp8
sS'timestamp'
p9
F0.07774496078491211
sS'evals'
p10
I100
sS'gen'
p11
I0
sa(dp12
g7
(F0.2
F0.541
F0.031
I95
I100
tp13
sg9
F9.497782945632935
sg10
I100
sg11
I100
sa(dp14
g7
(F0.2
F0.619
F0.031
I98
I100
tp15
sg9
F18.880263090133667
sg10
I100
sg11
I200
sa(dp16
g7
(F0.202
F0.634
F0.031
I95
I100
tp17
sg9
F28.235167980194092
sg10
I100
sg11
I300
sa(dp18
g7
(F0.202
F0.488
F0.031
I96
I100
tp19
sg9
F37.55852794647217
sg10
I100
sg11
I400
sa(dp20
g7
(F0.201
F0.585
F0.03
I98
I100
tp21
sg9
F47.0319709777832
sg10
I100
sg11
I500
satp22
Rp23
(dp24
S'log_header'
p25
I01
sS'header'
p26
(S'gen'
p27
S'evals'
p28
g7
S'timestamp'
p29
tp30
sS'columns_len'
p31
(lp32
I3
aI5
aI30
aI9
asS'buffindex'
p33
I6
sS'chapters'
p34
ccollections
defaultdict
p35
(g3
tp36
Rp37
sbsS'SPEA2-SIP'
p38
g2
(g3
g4
(lp39
(dp40
g7
(F0.123
F0.827
F0.032
I15
I28
tp41
sg9
F0.07935810089111328
sg10
I100
sg11
I0
sa(dp42
g7
(F0.198
F0.56
F0.031
I100
I100
tp43
sg9
F83.01357316970825
sg10
I100
sg11
I100
sa(dp44
g7
(F0.202
F0.618
F0.033
I100
I100
tp45
sg9
F174.09968900680542
sg10
I100
sg11
I200
sa(dp46
g7
(F0.203
F0.615
F0.034
I100
I100
tp47
sg9
F264.4080309867859
sg10
I100
sg11
I300
sa(dp48
g7
(F0.206
F0.683
F0.034
I100
I100
tp49
sg9
F358.20146918296814
sg10
I100
sg11
I400
sa(dp50
g7
(F0.208
F0.57
F0.036
I100
I100
tp51
sg9
F450.4480290412903
sg10
I100
sg11
I500
satp52
Rp53
(dp54
g25
I01
sg26
g30
sg31
(lp55
I3
aI5
aI31
aI9
asg33
I6
sg34
g35
(g3
tp56
Rp57
sbsS'SPEA2'
p58
g2
(g3
g4
(lp59
(dp60
g7
(I0
I0
I0
I0
I0
tp61
sg9
F0.035588979721069336
sg10
I100
sg11
I0
sa(dp62
g7
g61
sg9
F107.66993403434753
sg10
I100
sg11
I100
sa(dp63
g7
(F0.075
F0.82
F0.036
I1
I1
tp64
sg9
F237.71984887123108
sg10
I100
sg11
I200
sa(dp65
g7
g61
sg9
F366.2933540344238
sg10
I100
sg11
I300
sa(dp66
g7
g61
sg9
F491.9749479293823
sg10
I100
sg11
I400
sa(dp67
g7
g61
sg9
F620.3333790302277
sg10
I100
sg11
I500
satp68
Rp69
(dp70
g25
I01
sg26
g30
sg31
(lp71
I3
aI5
aI30
aI9
asg33
I6
sg34
g35
(g3
tp72
Rp73
sbsS'IBEA'
p74
g2
(g3
g4
(lp75
(dp76
g7
g61
sg9
F0.034832000732421875
sg10
I100
sg11
I0
sa(dp77
g7
g61
sg9
F8.167225122451782
sg10
I100
sg11
I100
sa(dp78
g7
(F0.049
F1.6
F0.065
I1
I1
tp79
sg9
F16.34441900253296
sg10
I100
sg11
I200
sa(dp80
g7
(F0.056
F2.536
F0.088
I1
I1
tp81
sg9
F24.483930110931396
sg10
I100
sg11
I300
sa(dp82
g7
g61
sg9
F32.57302713394165
sg10
I100
sg11
I400
sa(dp83
g7
g61
sg9
F40.73841309547424
sg10
I100
sg11
I500
satp84
Rp85
(dp86
g25
I01
sg26
g30
sg31
(lp87
I3
aI5
aI30
aI9
asg33
I6
sg34
g35
(g3
tp88
Rp89
sbsS'NSGA2'
p90
g2
(g3
g4
(lp91
(dp92
g7
(F0.069
F2.245
F0.036
I1
I1
tp93
sg9
F0.03678011894226074
sg10
I100
sg11
I0
sa(dp94
g7
(F0.054
F0.62
F0.05
I1
I1
tp95
sg9
F10.853906154632568
sg10
I100
sg11
I100
sa(dp96
g7
g61
sg9
F21.61207604408264
sg10
I100
sg11
I200
sa(dp97
g7
g61
sg9
F32.29976010322571
sg10
I100
sg11
I300
sa(dp98
g7
g61
sg9
F42.99107503890991
sg10
I100
sg11
I400
sa(dp99
g7
g61
sg9
F53.71087408065796
sg10
I100
sg11
I500
satp100
Rp101
(dp102
g25
I01
sg26
g30
sg31
(lp103
I3
aI5
aI30
aI9
asg33
I6
sg34
g35
(g3
tp104
Rp105
sbsS'IBEA-SIP'
p106
g2
(g3
g4
(lp107
(dp108
g7
(F0.11
F0.688
F0.033
I12
I20
tp109
sg9
F0.06721901893615723
sg10
I100
sg11
I0
sa(dp110
g7
(F0.2
F0.778
F0.037
I70
I100
tp111
sg9
F7.614936113357544
sg10
I100
sg11
I100
sa(dp112
g7
(F0.202
F0.68
F0.036
I68
I100
tp113
sg9
F15.229593992233276
sg10
I100
sg11
I200
sa(dp114
g7
(F0.202
F0.681
F0.036
I76
I100
tp115
sg9
F22.953286170959473
sg10
I100
sg11
I300
sa(dp116
g7
(F0.201
F0.703
F0.038
I70
I100
tp117
sg9
F30.608105182647705
sg10
I100
sg11
I400
sa(dp118
g7
(F0.202
F0.657
F0.037
I68
I100
tp119
sg9
F38.285256147384644
sg10
I100
sg11
I500
satp120
Rp121
(dp122
g25
I01
sg26
g30
sg31
(lp123
I3
aI5
aI30
aI9
asg33
I6
sg34
g35
(g3
tp124
Rp125
sbs.