(dp0
S'NSGA2-SIP'
p1
ccopy_reg
_reconstructor
p2
(cdeap.tools.support
Logbook
p3
c__builtin__
list
p4
(lp5
(dp6
S'hv|spread|igd|frontier#|valid#'
p7
(F0.125
F0.782
F0.031
I16
I24
tp8
sS'timestamp'
p9
F0.08037900924682617
sS'evals'
p10
I100
sS'gen'
p11
I0
sa(dp12
g7
(F0.198
F0.641
F0.029
I98
I100
tp13
sg9
F9.4325270652771
sg10
I100
sg11
I100
sa(dp14
g7
(F0.202
F0.534
F0.031
I99
I100
tp15
sg9
F18.84175992012024
sg10
I100
sg11
I200
sa(dp16
g7
(F0.205
F0.592
F0.033
I98
I100
tp17
sg9
F28.164700031280518
sg10
I100
sg11
I300
sa(dp18
g7
(F0.205
F0.551
F0.03
I98
I100
tp19
sg9
F37.48441505432129
sg10
I100
sg11
I400
sa(dp20
g7
(F0.207
F0.659
F0.034
I97
I100
tp21
sg9
F46.81991195678711
sg10
I100
sg11
I500
satp22
Rp23
(dp24
S'log_header'
p25
I01
sS'header'
p26
(S'gen'
p27
S'evals'
p28
S'hv|spread|igd|frontier#|valid#'
p29
S'timestamp'
p30
tp31
sS'columns_len'
p32
(lp33
I3
aI5
aI30
aI9
asS'buffindex'
p34
I6
sS'chapters'
p35
ccollections
defaultdict
p36
(g3
tp37
Rp38
sbsS'SPEA2-SIP'
p39
g2
(g3
g4
(lp40
(dp41
g7
(F0.128
F0.823
F0.035
I19
I27
tp42
sg9
F0.09190607070922852
sg10
I100
sg11
I0
sa(dp43
g7
(F0.202
F0.639
F0.034
I100
I100
tp44
sg9
F83.05000400543213
sg10
I100
sg11
I100
sa(dp45
g7
(F0.205
F0.558
F0.035
I100
I100
tp46
sg9
F171.93809509277344
sg10
I100
sg11
I200
sa(dp47
g7
(F0.207
F0.597
F0.034
I100
I100
tp48
sg9
F261.229022026062
sg10
I100
sg11
I300
sa(dp49
g7
(F0.208
F0.578
F0.036
I100
I100
tp50
sg9
F349.7666611671448
sg10
I100
sg11
I400
sa(dp51
g7
(F0.21
F0.669
F0.037
I100
I100
tp52
sg9
F439.8270502090454
sg10
I100
sg11
I500
satp53
Rp54
(dp55
g25
I01
sg26
g31
sg32
(lp56
I3
aI5
aI31
aI9
asg34
I6
sg35
g36
(g3
tp57
Rp58
sbsS'SPEA2'
p59
g2
(g3
g4
(lp60
(dp61
g7
(I0
I0
I0
I0
I0
tp62
sg9
F0.03304409980773926
sg10
I100
sg11
I0
sa(dp63
g7
g62
sg9
F114.58694195747375
sg10
I100
sg11
I100
sa(dp64
g7
g62
sg9
F249.99349999427795
sg10
I100
sg11
I200
sa(dp65
g7
g62
sg9
F376.2606749534607
sg10
I100
sg11
I300
sa(dp66
g7
g62
sg9
F500.1163761615753
sg10
I100
sg11
I400
sa(dp67
g7
g62
sg9
F623.1536810398102
sg10
I100
sg11
I500
satp68
Rp69
(dp70
g25
I01
sg26
g31
sg32
(lp71
I3
aI5
aI30
aI9
asg34
I6
sg35
g36
(g3
tp72
Rp73
sbsS'IBEA-PEN'
p74
g2
(g3
g4
(lp75
(dp76
g7
(F0.114
F0.712
F0.028
I23
I31
tp77
sg9
F0.13218307495117188
sg10
I100
sg11
I0
sa(dp78
g7
(F0.194
F0.726
F0.031
I51
I86
tp79
sg9
F9.81868600845337
sg10
I100
sg11
I100
sa(dp80
g7
(F0.197
F0.651
F0.038
I49
I92
tp81
sg9
F19.721646070480347
sg10
I100
sg11
I200
sa(dp82
g7
(F0.2
F0.628
F0.037
I49
I89
tp83
sg9
F29.730217218399048
sg10
I100
sg11
I300
sa(dp84
g7
(F0.198
F0.648
F0.042
I47
I84
tp85
sg9
F39.68577814102173
sg10
I100
sg11
I400
sa(dp86
g7
(F0.2
F0.673
F0.039
I54
I89
tp87
sg9
F49.62176704406738
sg10
I100
sg11
I500
satp88
Rp89
(dp90
g25
I01
sg26
g31
sg32
(lp91
I3
aI5
aI30
aI9
asg34
I6
sg35
g36
(g3
tp92
Rp93
sbsS'IBEA'
p94
g2
(g3
g4
(lp95
(dp96
g7
g62
sg9
F0.03449082374572754
sg10
I100
sg11
I0
sa(dp97
g7
(F0.085
F1.14
F0.07
I1
I1
tp98
sg9
F7.993311882019043
sg10
I100
sg11
I100
sa(dp99
g7
(F0.047
F1.56
F0.056
I1
I1
tp100
sg9
F16.032867908477783
sg10
I100
sg11
I200
sa(dp101
g7
(F0.062
F1.52
F0.076
I1
I1
tp102
sg9
F24.04716396331787
sg10
I100
sg11
I300
sa(dp103
g7
g62
sg9
F32.0670850276947
sg10
I100
sg11
I400
sa(dp104
g7
(F0.028
F2.638
F0.088
I1
I1
tp105
sg9
F40.08905386924744
sg10
I100
sg11
I500
satp106
Rp107
(dp108
g25
I01
sg26
g31
sg32
(lp109
I3
aI5
aI30
aI9
asg34
I6
sg35
g36
(g3
tp110
Rp111
sbsS'NSGA2'
p112
g2
(g3
g4
(lp113
(dp114
g7
g62
sg9
F0.034609079360961914
sg10
I100
sg11
I0
sa(dp115
g7
g62
sg9
F10.761867046356201
sg10
I100
sg11
I100
sa(dp116
g7
g62
sg9
F21.465516090393066
sg10
I100
sg11
I200
sa(dp117
g7
g62
sg9
F32.12843894958496
sg10
I100
sg11
I300
sa(dp118
g7
g62
sg9
F42.77347111701965
sg10
I100
sg11
I400
sa(dp119
g7
g62
sg9
F53.426021099090576
sg10
I100
sg11
I500
satp120
Rp121
(dp122
g25
I01
sg26
g31
sg32
(lp123
I3
aI5
aI30
aI9
asg34
I6
sg35
g36
(g3
tp124
Rp125
sbsS'IBEA-SIP'
p126
g2
(g3
g4
(lp127
(dp128
g7
(F0.115
F0.879
F0.039
I13
I16
tp129
sg9
F0.06870603561401367
sg10
I100
sg11
I0
sa(dp130
g7
(F0.191
F0.657
F0.034
I56
I100
tp131
sg9
F7.563316822052002
sg10
I100
sg11
I100
sa(dp132
g7
(F0.201
F0.598
F0.033
I65
I100
tp133
sg9
F15.166477918624878
sg10
I100
sg11
I200
sa(dp134
g7
(F0.203
F0.638
F0.037
I79
I100
tp135
sg9
F22.874938011169434
sg10
I100
sg11
I300
sa(dp136
g7
(F0.204
F0.693
F0.04
I72
I100
tp137
sg9
F30.530935049057007
sg10
I100
sg11
I400
sa(dp138
g7
(F0.199
F0.676
F0.033
I63
I100
tp139
sg9
F38.10048794746399
sg10
I100
sg11
I500
satp140
Rp141
(dp142
g25
I01
sg26
g31
sg32
(lp143
I3
aI5
aI30
aI9
asg34
I6
sg35
g36
(g3
tp144
Rp145
sbs.