(dp0
S'NSGA2-SIP'
p1
ccopy_reg
_reconstructor
p2
(cdeap.tools.support
Logbook
p3
c__builtin__
list
p4
(lp5
(dp6
S'hv|spread|igd|frontier#|valid#'
p7
(F0.112
F0.73
F0.037
I15
I18
tp8
sS'timestamp'
p9
F0.07236599922180176
sS'evals'
p10
I100
sS'gen'
p11
I0
sa(dp12
g7
(F0.197
F0.653
F0.031
I96
I100
tp13
sg9
F9.146087884902954
sg10
I100
sg11
I100
sa(dp14
g7
(F0.201
F0.578
F0.031
I96
I100
tp15
sg9
F18.376673936843872
sg10
I100
sg11
I200
sa(dp16
g7
(F0.206
F0.55
F0.031
I96
I100
tp17
sg9
F27.61920690536499
sg10
I100
sg11
I300
sa(dp18
g7
(F0.207
F0.601
F0.032
I99
I100
tp19
sg9
F36.861936807632446
sg10
I100
sg11
I400
sa(dp20
g7
(F0.207
F0.618
F0.032
I98
I100
tp21
sg9
F46.061808824539185
sg10
I100
sg11
I500
satp22
Rp23
(dp24
S'log_header'
p25
I01
sS'header'
p26
(S'gen'
p27
S'evals'
p28
S'hv|spread|igd|frontier#|valid#'
p29
S'timestamp'
p30
tp31
sS'columns_len'
p32
(lp33
I3
aI5
aI30
aI9
asS'buffindex'
p34
I6
sS'chapters'
p35
ccollections
defaultdict
p36
(g3
tp37
Rp38
sbsS'SPEA2-SIP'
p39
g2
(g3
g4
(lp40
(dp41
g7
(F0.123
F0.626
F0.028
I13
I18
tp42
sg9
F0.06931805610656738
sg10
I100
sg11
I0
sa(dp43
g7
(F0.192
F0.622
F0.033
I100
I100
tp44
sg9
F80.00036311149597
sg10
I100
sg11
I100
sa(dp45
g7
(F0.193
F0.66
F0.033
I100
I100
tp46
sg9
F166.95546293258667
sg10
I100
sg11
I200
sa(dp47
g7
(F0.195
F0.542
F0.033
I100
I100
tp48
sg9
F255.09081506729126
sg10
I100
sg11
I300
sa(dp49
g7
(F0.199
F0.668
F0.033
I100
I100
tp50
sg9
F343.48616909980774
sg10
I100
sg11
I400
sa(dp51
g7
(F0.199
F0.619
F0.033
I100
I100
tp52
sg9
F430.65220499038696
sg10
I100
sg11
I500
satp53
Rp54
(dp55
g25
I01
sg26
g31
sg32
(lp56
I3
aI5
aI31
aI9
asg34
I6
sg35
g36
(g3
tp57
Rp58
sbsS'SPEA2'
p59
g2
(g3
g4
(lp60
(dp61
g7
(I0
I0
I0
I0
I0
tp62
sg9
F0.03492999076843262
sg10
I100
sg11
I0
sa(dp63
g7
g62
sg9
F113.60544109344482
sg10
I100
sg11
I100
sa(dp64
g7
g62
sg9
F243.38741612434387
sg10
I100
sg11
I200
sa(dp65
g7
g62
sg9
F372.20744919776917
sg10
I100
sg11
I300
sa(dp66
g7
g62
sg9
F499.09425806999207
sg10
I100
sg11
I400
sa(dp67
g7
g62
sg9
F622.7971119880676
sg10
I100
sg11
I500
satp68
Rp69
(dp70
g25
I01
sg26
g31
sg32
(lp71
I3
aI5
aI30
aI9
asg34
I6
sg35
g36
(g3
tp72
Rp73
sbsS'IBEA-PEN'
p74
g2
(g3
g4
(lp75
(dp76
g7
(F0.145
F0.647
F0.025
I30
I46
tp77
sg9
F0.15785789489746094
sg10
I100
sg11
I0
sa(dp78
g7
(F0.194
F0.529
F0.03
I45
I69
tp79
sg9
F9.749677896499634
sg10
I100
sg11
I100
sa(dp80
g7
(F0.187
F0.753
F0.032
I47
I88
tp81
sg9
F19.446280002593994
sg10
I100
sg11
I200
sa(dp82
g7
(F0.2
F0.598
F0.034
I57
I94
tp83
sg9
F29.23761796951294
sg10
I100
sg11
I300
sa(dp84
g7
(F0.193
F0.593
F0.035
I50
I91
tp85
sg9
F39.00425887107849
sg10
I100
sg11
I400
sa(dp86
g7
(F0.191
F0.686
F0.041
I39
I73
tp87
sg9
F48.54954385757446
sg10
I100
sg11
I500
satp88
Rp89
(dp90
g25
I01
sg26
g31
sg32
(lp91
I3
aI5
aI30
aI9
asg34
I6
sg35
g36
(g3
tp92
Rp93
sbsS'IBEA'
p94
g2
(g3
g4
(lp95
(dp96
g7
g62
sg9
F0.03385591506958008
sg10
I100
sg11
I0
sa(dp97
g7
(F0.081
F1.26
F0.046
I1
I1
tp98
sg9
F7.807251930236816
sg10
I100
sg11
I100
sa(dp99
g7
g62
sg9
F15.663214921951294
sg10
I100
sg11
I200
sa(dp100
g7
g62
sg9
F23.507302045822144
sg10
I100
sg11
I300
sa(dp101
g7
g62
sg9
F31.357990980148315
sg10
I100
sg11
I400
sa(dp102
g7
g62
sg9
F39.201984882354736
sg10
I100
sg11
I500
satp103
Rp104
(dp105
g25
I01
sg26
g31
sg32
(lp106
I3
aI5
aI30
aI9
asg34
I6
sg35
g36
(g3
tp107
Rp108
sbsS'NSGA2'
p109
g2
(g3
g4
(lp110
(dp111
g7
g62
sg9
F0.03411102294921875
sg10
I100
sg11
I0
sa(dp112
g7
g62
sg9
F10.552306890487671
sg10
I100
sg11
I100
sa(dp113
g7
g62
sg9
F21.126088857650757
sg10
I100
sg11
I200
sa(dp114
g7
g62
sg9
F31.612483978271484
sg10
I100
sg11
I300
sa(dp115
g7
g62
sg9
F42.10231685638428
sg10
I100
sg11
I400
sa(dp116
g7
g62
sg9
F52.629786014556885
sg10
I100
sg11
I500
satp117
Rp118
(dp119
g25
I01
sg26
g31
sg32
(lp120
I3
aI5
aI30
aI9
asg34
I6
sg35
g36
(g3
tp121
Rp122
sbsS'IBEA-SIP'
p123
g2
(g3
g4
(lp124
(dp125
g7
(F0.118
F0.824
F0.034
I16
I25
tp126
sg9
F0.08139419555664062
sg10
I100
sg11
I0
sa(dp127
g7
(F0.198
F0.609
F0.032
I70
I100
tp128
sg9
F7.339131116867065
sg10
I100
sg11
I100
sa(dp129
g7
(F0.202
F0.612
F0.036
I61
I100
tp130
sg9
F14.703438997268677
sg10
I100
sg11
I200
sa(dp131
g7
(F0.205
F0.635
F0.035
I75
I100
tp132
sg9
F22.083064079284668
sg10
I100
sg11
I300
sa(dp133
g7
(F0.206
F0.622
F0.039
I69
I100
tp134
sg9
F29.406309127807617
sg10
I100
sg11
I400
sa(dp135
g7
(F0.205
F0.633
F0.038
I68
I100
tp136
sg9
F36.81174397468567
sg10
I100
sg11
I500
satp137
Rp138
(dp139
g25
I01
sg26
g31
sg32
(lp140
I3
aI5
aI30
aI9
asg34
I6
sg35
g36
(g3
tp141
Rp142
sbs.