(dp0
S'NSGA2-SIP'
p1
ccopy_reg
_reconstructor
p2
(cdeap.tools.support
Logbook
p3
c__builtin__
list
p4
(lp5
(dp6
S'hv|spread|igd|frontier#|valid#'
p7
(F0.101
F0.76
F0.04
I11
I15
tp8
sS'timestamp'
p9
F0.06743001937866211
sS'evals'
p10
I100
sS'gen'
p11
I0
sa(dp12
g7
(F0.2
F0.559
F0.029
I98
I100
tp13
sg9
F10.09620213508606
sg10
I100
sg11
I100
sa(dp14
g7
(F0.203
F0.607
F0.03
I98
I100
tp15
sg9
F20.144248008728027
sg10
I100
sg11
I200
sa(dp16
g7
(F0.203
F0.636
F0.032
I98
I100
tp17
sg9
F30.08161497116089
sg10
I100
sg11
I300
sa(dp18
g7
(F0.208
F0.568
F0.033
I97
I100
tp19
sg9
F40.05608892440796
sg10
I100
sg11
I400
sa(dp20
g7
(F0.205
F0.623
F0.031
I97
I100
tp21
sg9
F49.97946095466614
sg10
I100
sg11
I500
satp22
Rp23
(dp24
S'log_header'
p25
I01
sS'header'
p26
(S'gen'
p27
S'evals'
p28
S'hv|spread|igd|frontier#|valid#'
p29
S'timestamp'
p30
tp31
sS'columns_len'
p32
(lp33
I3
aI5
aI30
aI9
asS'buffindex'
p34
I6
sS'chapters'
p35
ccollections
defaultdict
p36
(g3
tp37
Rp38
sbsS'SPEA2-SIP'
p39
g2
(g3
g4
(lp40
(dp41
g7
(F0.133
F0.763
F0.033
I12
I21
tp42
sg9
F0.07212996482849121
sg10
I100
sg11
I0
sa(dp43
g7
(F0.203
F0.607
F0.032
I100
I100
tp44
sg9
F87.09924983978271
sg10
I100
sg11
I100
sa(dp45
g7
(F0.205
F0.699
F0.035
I100
I100
tp46
sg9
F181.08665800094604
sg10
I100
sg11
I200
sa(dp47
g7
(F0.205
F0.597
F0.035
I100
I100
tp48
sg9
F276.80998277664185
sg10
I100
sg11
I300
sa(dp49
g7
(F0.206
F0.587
F0.035
I100
I100
tp50
sg9
F371.7649128437042
sg10
I100
sg11
I400
sa(dp51
g7
(F0.208
F0.642
F0.035
I100
I100
tp52
sg9
F469.24307680130005
sg10
I100
sg11
I500
satp53
Rp54
(dp55
g25
I01
sg26
g31
sg32
(lp56
I3
aI5
aI31
aI9
asg34
I6
sg35
g36
(g3
tp57
Rp58
sbsS'SPEA2'
p59
g2
(g3
g4
(lp60
(dp61
g7
(I0
I0
I0
I0
I0
tp62
sg9
F0.03893899917602539
sg10
I100
sg11
I0
sa(dp63
g7
g62
sg9
F113.12070178985596
sg10
I100
sg11
I100
sa(dp64
g7
g62
sg9
F249.30819082260132
sg10
I100
sg11
I200
sa(dp65
g7
g62
sg9
F387.8974959850311
sg10
I100
sg11
I300
sa(dp66
g7
g62
sg9
F523.4291808605194
sg10
I100
sg11
I400
sa(dp67
g7
(F0.077
F1.1
F0.028
I1
I1
tp68
sg9
F660.9144899845123
sg10
I100
sg11
I500
satp69
Rp70
(dp71
g25
I01
sg26
g31
sg32
(lp72
I3
aI5
aI30
aI9
asg34
I6
sg35
g36
(g3
tp73
Rp74
sbsS'IBEA-PEN'
p75
g2
(g3
g4
(lp76
(dp77
g7
(F0.132
F0.717
F0.03
I23
I33
tp78
sg9
F0.1446230411529541
sg10
I100
sg11
I0
sa(dp79
g7
(F0.194
F0.663
F0.032
I53
I90
tp80
sg9
F10.692649841308594
sg10
I100
sg11
I100
sa(dp81
g7
(F0.197
F0.634
F0.036
I51
I87
tp82
sg9
F21.343626976013184
sg10
I100
sg11
I200
sa(dp83
g7
(F0.187
F0.708
F0.038
I48
I79
tp84
sg9
F32.020045042037964
sg10
I100
sg11
I300
sa(dp85
g7
(F0.191
F0.654
F0.033
I46
I85
tp86
sg9
F42.631747007369995
sg10
I100
sg11
I400
sa(dp87
g7
(F0.191
F0.671
F0.045
I47
I79
tp88
sg9
F53.266594886779785
sg10
I100
sg11
I500
satp89
Rp90
(dp91
g25
I01
sg26
g31
sg32
(lp92
I3
aI5
aI30
aI9
asg34
I6
sg35
g36
(g3
tp93
Rp94
sbsS'IBEA'
p95
g2
(g3
g4
(lp96
(dp97
g7
g62
sg9
F0.03659391403198242
sg10
I100
sg11
I0
sa(dp98
g7
g62
sg9
F8.633676052093506
sg10
I100
sg11
I100
sa(dp99
g7
(F0.073
F1.42
F0.081
I1
I1
tp100
sg9
F17.319000005722046
sg10
I100
sg11
I200
sa(dp101
g7
g62
sg9
F25.990104913711548
sg10
I100
sg11
I300
sa(dp102
g7
g62
sg9
F34.61784386634827
sg10
I100
sg11
I400
sa(dp103
g7
(F0.089
F1.14
F0.09
I1
I1
tp104
sg9
F43.13055086135864
sg10
I100
sg11
I500
satp105
Rp106
(dp107
g25
I01
sg26
g31
sg32
(lp108
I3
aI5
aI30
aI9
asg34
I6
sg35
g36
(g3
tp109
Rp110
sbsS'NSGA2'
p111
g2
(g3
g4
(lp112
(dp113
g7
(F0.059
F1.02
F0.054
I1
I2
tp114
sg9
F0.03988194465637207
sg10
I100
sg11
I0
sa(dp115
g7
g62
sg9
F11.5258150100708
sg10
I100
sg11
I100
sa(dp116
g7
g62
sg9
F23.03601908683777
sg10
I100
sg11
I200
sa(dp117
g7
(F0.081
F1.18
F0.041
I1
I1
tp118
sg9
F34.48168992996216
sg10
I100
sg11
I300
sa(dp119
g7
g62
sg9
F45.89912009239197
sg10
I100
sg11
I400
sa(dp120
g7
g62
sg9
F57.35425615310669
sg10
I100
sg11
I500
satp121
Rp122
(dp123
g25
I01
sg26
g31
sg32
(lp124
I3
aI5
aI30
aI9
asg34
I6
sg35
g36
(g3
tp125
Rp126
sbsS'IBEA-SIP'
p127
g2
(g3
g4
(lp128
(dp129
g7
(F0.114
F0.722
F0.034
I14
I22
tp130
sg9
F0.07865500450134277
sg10
I100
sg11
I0
sa(dp131
g7
(F0.202
F0.631
F0.034
I71
I100
tp132
sg9
F8.064468145370483
sg10
I100
sg11
I100
sa(dp133
g7
(F0.201
F0.676
F0.034
I69
I100
tp134
sg9
F16.19908308982849
sg10
I100
sg11
I200
sa(dp135
g7
(F0.203
F0.69
F0.039
I70
I100
tp136
sg9
F24.305521965026855
sg10
I100
sg11
I300
sa(dp137
g7
(F0.205
F0.68
F0.039
I65
I100
tp138
sg9
F32.2683789730072
sg10
I100
sg11
I400
sa(dp139
g7
(F0.203
F0.641
F0.036
I65
I100
tp140
sg9
F40.33242607116699
sg10
I100
sg11
I500
satp141
Rp142
(dp143
g25
I01
sg26
g31
sg32
(lp144
I3
aI5
aI30
aI9
asg34
I6
sg35
g36
(g3
tp145
Rp146
sbs.