(dp0
S'NSGA2-SIP'
p1
ccopy_reg
_reconstructor
p2
(cdeap.tools.support
Logbook
p3
c__builtin__
list
p4
(lp5
(dp6
S'hv|spread|igd|frontier#|valid#'
p7
(F0.12
F0.796
F0.04
I16
I21
tp8
sS'timestamp'
p9
F0.07544207572937012
sS'evals'
p10
I100
sS'gen'
p11
I0
sa(dp12
g7
(F0.201
F0.649
F0.029
I96
I100
tp13
sg9
F9.026710987091064
sg10
I100
sg11
I100
sa(dp14
g7
(F0.206
F0.513
F0.032
I97
I100
tp15
sg9
F18.006928205490112
sg10
I100
sg11
I200
sa(dp16
g7
(F0.206
F0.62
F0.031
I98
I100
tp17
sg9
F26.877421140670776
sg10
I100
sg11
I300
sa(dp18
g7
(F0.205
F0.563
F0.031
I97
I100
tp19
sg9
F35.812833070755005
sg10
I100
sg11
I400
sa(dp20
g7
(F0.207
F0.693
F0.033
I97
I100
tp21
sg9
F44.60280418395996
sg10
I100
sg11
I500
satp22
Rp23
(dp24
S'log_header'
p25
I01
sS'header'
p26
(S'gen'
p27
S'evals'
p28
S'hv|spread|igd|frontier#|valid#'
p29
S'timestamp'
p30
tp31
sS'columns_len'
p32
(lp33
I3
aI5
aI30
aI9
asS'buffindex'
p34
I6
sS'chapters'
p35
ccollections
defaultdict
p36
(g3
tp37
Rp38
sbsS'SPEA2-SIP'
p39
g2
(g3
g4
(lp40
(dp41
g7
(F0.111
F0.73
F0.036
I12
I17
tp42
sg9
F0.06278014183044434
sg10
I100
sg11
I0
sa(dp43
g7
(F0.189
F0.64
F0.031
I100
I100
tp44
sg9
F76.84823513031006
sg10
I100
sg11
I100
sa(dp45
g7
(F0.193
F0.593
F0.033
I100
I100
tp46
sg9
F159.86997294425964
sg10
I100
sg11
I200
sa(dp47
g7
(F0.194
F0.638
F0.033
I100
I100
tp48
sg9
F242.18799996376038
sg10
I100
sg11
I300
sa(dp49
g7
(F0.197
F0.567
F0.033
I100
I100
tp50
sg9
F325.4141619205475
sg10
I100
sg11
I400
sa(dp51
g7
(F0.2
F0.626
F0.035
I100
I100
tp52
sg9
F409.2827160358429
sg10
I100
sg11
I500
satp53
Rp54
(dp55
g25
I01
sg26
g31
sg32
(lp56
I3
aI5
aI31
aI9
asg34
I6
sg35
g36
(g3
tp57
Rp58
sbsS'SPEA2'
p59
g2
(g3
g4
(lp60
(dp61
g7
(I0
I0
I0
I0
I0
tp62
sg9
F0.033273935317993164
sg10
I100
sg11
I0
sa(dp63
g7
g62
sg9
F103.89761590957642
sg10
I100
sg11
I100
sa(dp64
g7
g62
sg9
F225.01213002204895
sg10
I100
sg11
I200
sa(dp65
g7
g62
sg9
F352.7839479446411
sg10
I100
sg11
I300
sa(dp66
g7
g62
sg9
F477.21563386917114
sg10
I100
sg11
I400
sa(dp67
g7
g62
sg9
F596.9360890388489
sg10
I100
sg11
I500
satp68
Rp69
(dp70
g25
I01
sg26
g31
sg32
(lp71
I3
aI5
aI30
aI9
asg34
I6
sg35
g36
(g3
tp72
Rp73
sbsS'IBEA'
p74
g2
(g3
g4
(lp75
(dp76
g7
g62
sg9
F0.03133797645568848
sg10
I100
sg11
I0
sa(dp77
g7
g62
sg9
F7.218017101287842
sg10
I100
sg11
I100
sa(dp78
g7
g62
sg9
F14.776575088500977
sg10
I100
sg11
I200
sa(dp79
g7
g62
sg9
F22.396632194519043
sg10
I100
sg11
I300
sa(dp80
g7
(F0.09
F1.26
F0.062
I1
I1
tp81
sg9
F30.035032987594604
sg10
I100
sg11
I400
sa(dp82
g7
(F0.087
F1.0
F0.058
I2
I2
tp83
sg9
F37.734039068222046
sg10
I100
sg11
I500
satp84
Rp85
(dp86
g25
I01
sg26
g31
sg32
(lp87
I3
aI5
aI30
aI9
asg34
I6
sg35
g36
(g3
tp88
Rp89
sbsS'NSGA2'
p90
g2
(g3
g4
(lp91
(dp92
g7
g62
sg9
F0.0333399772644043
sg10
I100
sg11
I0
sa(dp93
g7
g62
sg9
F10.23690915107727
sg10
I100
sg11
I100
sa(dp94
g7
g62
sg9
F20.400883197784424
sg10
I100
sg11
I200
sa(dp95
g7
g62
sg9
F30.50612211227417
sg10
I100
sg11
I300
sa(dp96
g7
g62
sg9
F40.63765001296997
sg10
I100
sg11
I400
sa(dp97
g7
(F0.084
F1.1
F0.032
I1
I1
tp98
sg9
F50.728586196899414
sg10
I100
sg11
I500
satp99
Rp100
(dp101
g25
I01
sg26
g31
sg32
(lp102
I3
aI5
aI30
aI9
asg34
I6
sg35
g36
(g3
tp103
Rp104
sbsS'IBEA-SIP'
p105
g2
(g3
g4
(lp106
(dp107
g7
(F0.122
F0.779
F0.035
I18
I22
tp108
sg9
F0.0830531120300293
sg10
I100
sg11
I0
sa(dp109
g7
(F0.2
F0.663
F0.035
I66
I100
tp110
sg9
F7.21855616569519
sg10
I100
sg11
I100
sa(dp111
g7
(F0.201
F0.664
F0.038
I71
I100
tp112
sg9
F14.550312995910645
sg10
I100
sg11
I200
sa(dp113
g7
(F0.205
F0.553
F0.035
I76
I100
tp114
sg9
F21.787106037139893
sg10
I100
sg11
I300
sa(dp115
g7
(F0.207
F0.693
F0.037
I72
I100
tp116
sg9
F28.997457027435303
sg10
I100
sg11
I400
sa(dp117
g7
(F0.204
F0.634
F0.035
I68
I100
tp118
sg9
F36.18488621711731
sg10
I100
sg11
I500
satp119
Rp120
(dp121
g25
I01
sg26
g31
sg32
(lp122
I3
aI5
aI30
aI9
asg34
I6
sg35
g36
(g3
tp123
Rp124
sbs.