(dp0
S'NSGA2-SIP'
p1
ccopy_reg
_reconstructor
p2
(cdeap.tools.support
Logbook
p3
c__builtin__
list
p4
(lp5
(dp6
S'hv|spread|igd|frontier#|valid#'
p7
(F0.124
F0.679
F0.034
I19
I24
tp8
sS'timestamp'
p9
F0.09524893760681152
sS'evals'
p10
I100
sS'gen'
p11
I0
sa(dp12
g7
(F0.2
F0.67
F0.031
I100
I100
tp13
sg9
F9.906944036483765
sg10
I100
sg11
I100
sa(dp14
g7
(F0.204
F0.659
F0.031
I98
I100
tp15
sg9
F19.608744859695435
sg10
I100
sg11
I200
sa(dp16
g7
(F0.205
F0.553
F0.031
I96
I100
tp17
sg9
F29.28649401664734
sg10
I100
sg11
I300
sa(dp18
g7
(F0.206
F0.62
F0.031
I94
I100
tp19
sg9
F38.88910984992981
sg10
I100
sg11
I400
sa(dp20
g7
(F0.205
F0.597
F0.032
I98
I100
tp21
sg9
F48.528111934661865
sg10
I100
sg11
I500
satp22
Rp23
(dp24
S'log_header'
p25
I01
sS'header'
p26
(S'gen'
p27
S'evals'
p28
S'hv|spread|igd|frontier#|valid#'
p29
S'timestamp'
p30
tp31
sS'columns_len'
p32
(lp33
I3
aI5
aI30
aI9
asS'buffindex'
p34
I6
sS'chapters'
p35
ccollections
defaultdict
p36
(g3
tp37
Rp38
sbsS'SPEA2-SIP'
p39
g2
(g3
g4
(lp40
(dp41
g7
(F0.128
F0.772
F0.032
I14
I20
tp42
sg9
F0.0768740177154541
sg10
I100
sg11
I0
sa(dp43
g7
(F0.2
F0.633
F0.033
I100
I100
tp44
sg9
F86.30546593666077
sg10
I100
sg11
I100
sa(dp45
g7
(F0.201
F0.589
F0.034
I100
I100
tp46
sg9
F178.63699793815613
sg10
I100
sg11
I200
sa(dp47
g7
(F0.204
F0.608
F0.036
I100
I100
tp48
sg9
F269.48149704933167
sg10
I100
sg11
I300
sa(dp49
g7
(F0.203
F0.546
F0.034
I100
I100
tp50
sg9
F361.1551730632782
sg10
I100
sg11
I400
sa(dp51
g7
(F0.204
F0.611
F0.035
I100
I100
tp52
sg9
F451.61965107917786
sg10
I100
sg11
I500
satp53
Rp54
(dp55
g25
I01
sg26
g31
sg32
(lp56
I3
aI5
aI31
aI9
asg34
I6
sg35
g36
(g3
tp57
Rp58
sbsS'SPEA2'
p59
g2
(g3
g4
(lp60
(dp61
g7
(F0.068
F2.264
F0.02
I1
I1
tp62
sg9
F0.03932499885559082
sg10
I100
sg11
I0
sa(dp63
g7
(I0
I0
I0
I0
I0
tp64
sg9
F113.48347496986389
sg10
I100
sg11
I100
sa(dp65
g7
g64
sg9
F245.5015950202942
sg10
I100
sg11
I200
sa(dp66
g7
g64
sg9
F374.02767300605774
sg10
I100
sg11
I300
sa(dp67
g7
g64
sg9
F509.90442299842834
sg10
I100
sg11
I400
sa(dp68
g7
g64
sg9
F645.6113700866699
sg10
I100
sg11
I500
satp69
Rp70
(dp71
g25
I01
sg26
g31
sg32
(lp72
I3
aI5
aI30
aI9
asg34
I6
sg35
g36
(g3
tp73
Rp74
sbsS'IBEA-PEN'
p75
g2
(g3
g4
(lp76
(dp77
g7
(F0.122
F0.861
F0.03
I23
I38
tp78
sg9
F0.14124679565429688
sg10
I100
sg11
I0
sa(dp79
g7
(F0.194
F0.677
F0.043
I53
I87
tp80
sg9
F10.409848928451538
sg10
I100
sg11
I100
sa(dp81
g7
(F0.199
F0.631
F0.042
I62
I90
tp82
sg9
F20.869606018066406
sg10
I100
sg11
I200
sa(dp83
g7
(F0.199
F0.658
F0.04
I50
I92
tp84
sg9
F31.2683207988739
sg10
I100
sg11
I300
sa(dp85
g7
(F0.193
F0.655
F0.033
I51
I87
tp86
sg9
F41.60614991188049
sg10
I100
sg11
I400
sa(dp87
g7
(F0.204
F0.611
F0.041
I56
I84
tp88
sg9
F51.92990279197693
sg10
I100
sg11
I500
satp89
Rp90
(dp91
g25
I01
sg26
g31
sg32
(lp92
I3
aI5
aI30
aI9
asg34
I6
sg35
g36
(g3
tp93
Rp94
sbsS'IBEA'
p95
g2
(g3
g4
(lp96
(dp97
g7
g64
sg9
F0.03523588180541992
sg10
I100
sg11
I0
sa(dp98
g7
g64
sg9
F8.240564823150635
sg10
I100
sg11
I100
sa(dp99
g7
g64
sg9
F16.51443886756897
sg10
I100
sg11
I200
sa(dp100
g7
(F0.087
F1.22
F0.046
I1
I1
tp101
sg9
F24.793967962265015
sg10
I100
sg11
I300
sa(dp102
g7
g64
sg9
F33.06200289726257
sg10
I100
sg11
I400
sa(dp103
g7
g64
sg9
F41.37882590293884
sg10
I100
sg11
I500
satp104
Rp105
(dp106
g25
I01
sg26
g31
sg32
(lp107
I3
aI5
aI30
aI9
asg34
I6
sg35
g36
(g3
tp108
Rp109
sbsS'NSGA2'
p110
g2
(g3
g4
(lp111
(dp112
g7
(F0.051
F2.162
F0.081
I1
I1
tp113
sg9
F0.03928089141845703
sg10
I100
sg11
I0
sa(dp114
g7
g64
sg9
F11.208866834640503
sg10
I100
sg11
I100
sa(dp115
g7
g64
sg9
F22.366679906845093
sg10
I100
sg11
I200
sa(dp116
g7
g64
sg9
F33.52160882949829
sg10
I100
sg11
I300
sa(dp117
g7
g64
sg9
F44.64038395881653
sg10
I100
sg11
I400
sa(dp118
g7
g64
sg9
F55.67986798286438
sg10
I100
sg11
I500
satp119
Rp120
(dp121
g25
I01
sg26
g31
sg32
(lp122
I3
aI5
aI30
aI9
asg34
I6
sg35
g36
(g3
tp123
Rp124
sbsS'IBEA-SIP'
p125
g2
(g3
g4
(lp126
(dp127
g7
(F0.11
F0.934
F0.034
I12
I16
tp128
sg9
F0.06853413581848145
sg10
I100
sg11
I0
sa(dp129
g7
(F0.199
F0.648
F0.036
I68
I100
tp130
sg9
F7.892925977706909
sg10
I100
sg11
I100
sa(dp131
g7
(F0.198
F0.639
F0.038
I64
I100
tp132
sg9
F15.700968980789185
sg10
I100
sg11
I200
sa(dp133
g7
(F0.202
F0.683
F0.036
I68
I100
tp134
sg9
F23.48092293739319
sg10
I100
sg11
I300
sa(dp135
g7
(F0.203
F0.671
F0.04
I72
I100
tp136
sg9
F31.376879930496216
sg10
I100
sg11
I400
sa(dp137
g7
(F0.202
F0.747
F0.039
I64
I100
tp138
sg9
F39.23059892654419
sg10
I100
sg11
I500
satp139
Rp140
(dp141
g25
I01
sg26
g31
sg32
(lp142
I3
aI5
aI30
aI9
asg34
I6
sg35
g36
(g3
tp143
Rp144
sbs.