(dp0
S'NSGA2-SIP'
p1
ccopy_reg
_reconstructor
p2
(cdeap.tools.support
Logbook
p3
c__builtin__
list
p4
(lp5
(dp6
S'hv|spread|igd|frontier#|valid#'
p7
(F0.109
F0.87
F0.038
I11
I19
tp8
sS'timestamp'
p9
F0.0656290054321289
sS'evals'
p10
I100
sS'gen'
p11
I0
sa(dp12
g7
(F0.201
F0.646
F0.03
I95
I100
tp13
sg9
F9.818058967590332
sg10
I100
sg11
I100
sa(dp14
g7
(F0.203
F0.655
F0.03
I97
I100
tp15
sg9
F19.61822485923767
sg10
I100
sg11
I200
sa(dp16
g7
(F0.205
F0.609
F0.031
I98
I100
tp17
sg9
F29.443452835083008
sg10
I100
sg11
I300
sa(dp18
g7
(F0.207
F0.673
F0.033
I97
I100
tp19
sg9
F39.2905068397522
sg10
I100
sg11
I400
sa(dp20
g7
(F0.208
F0.587
F0.032
I99
I100
tp21
sg9
F49.27113080024719
sg10
I100
sg11
I500
satp22
Rp23
(dp24
S'log_header'
p25
I01
sS'header'
p26
(S'gen'
p27
S'evals'
p28
S'hv|spread|igd|frontier#|valid#'
p29
S'timestamp'
p30
tp31
sS'columns_len'
p32
(lp33
I3
aI5
aI30
aI9
asS'buffindex'
p34
I6
sS'chapters'
p35
ccollections
defaultdict
p36
(g3
tp37
Rp38
sbsS'SPEA2-SIP'
p39
g2
(g3
g4
(lp40
(dp41
g7
(F0.108
F0.804
F0.041
I14
I26
tp42
sg9
F0.07949090003967285
sg10
I100
sg11
I0
sa(dp43
g7
(F0.198
F0.593
F0.034
I100
I100
tp44
sg9
F84.9763970375061
sg10
I100
sg11
I100
sa(dp45
g7
(F0.204
F0.566
F0.034
I100
I100
tp46
sg9
F176.08822107315063
sg10
I100
sg11
I200
sa(dp47
g7
(F0.205
F0.618
F0.035
I100
I100
tp48
sg9
F270.32625794410706
sg10
I100
sg11
I300
sa(dp49
g7
(F0.206
F0.63
F0.035
I100
I100
tp50
sg9
F364.34704995155334
sg10
I100
sg11
I400
sa(dp51
g7
(F0.206
F0.64
F0.036
I100
I100
tp52
sg9
F455.721440076828
sg10
I100
sg11
I500
satp53
Rp54
(dp55
g25
I01
sg26
g31
sg32
(lp56
I3
aI5
aI31
aI9
asg34
I6
sg35
g36
(g3
tp57
Rp58
sbsS'SPEA2'
p59
g2
(g3
g4
(lp60
(dp61
g7
(I0
I0
I0
I0
I0
tp62
sg9
F0.0370638370513916
sg10
I100
sg11
I0
sa(dp63
g7
g62
sg9
F113.61475682258606
sg10
I100
sg11
I100
sa(dp64
g7
(F0.092
F1.14
F0.076
I1
I1
tp65
sg9
F246.78272986412048
sg10
I100
sg11
I200
sa(dp66
g7
g62
sg9
F380.18409395217896
sg10
I100
sg11
I300
sa(dp67
g7
g62
sg9
F509.6432168483734
sg10
I100
sg11
I400
sa(dp68
g7
g62
sg9
F641.761855840683
sg10
I100
sg11
I500
satp69
Rp70
(dp71
g25
I01
sg26
g31
sg32
(lp72
I3
aI5
aI30
aI9
asg34
I6
sg35
g36
(g3
tp73
Rp74
sbsS'IBEA-PEN'
p75
g2
(g3
g4
(lp76
(dp77
g7
(F0.138
F0.749
F0.033
I26
I39
tp78
sg9
F0.16103386878967285
sg10
I100
sg11
I0
sa(dp79
g7
g62
sg9
F8.781377792358398
sg10
I100
sg11
I100
sa(dp80
g7
g62
sg9
F17.364606857299805
sg10
I100
sg11
I200
sa(dp81
g7
g62
sg9
F25.957515001296997
sg10
I100
sg11
I300
sa(dp82
g7
(F0.072
F1.42
F0.073
I1
I1
tp83
sg9
F34.547372817993164
sg10
I100
sg11
I400
sa(dp84
g7
g62
sg9
F43.16080689430237
sg10
I100
sg11
I500
satp85
Rp86
(dp87
g25
I01
sg26
g31
sg32
(lp88
I3
aI5
aI30
aI9
asg34
I6
sg35
g36
(g3
tp89
Rp90
sbsS'IBEA'
p91
g2
(g3
g4
(lp92
(dp93
g7
g62
sg9
F0.03635215759277344
sg10
I100
sg11
I0
sa(dp94
g7
g62
sg9
F8.450967073440552
sg10
I100
sg11
I100
sa(dp95
g7
g62
sg9
F16.92675495147705
sg10
I100
sg11
I200
sa(dp96
g7
(F0.082
F1.06
F0.024
I1
I1
tp97
sg9
F25.408692121505737
sg10
I100
sg11
I300
sa(dp98
g7
g62
sg9
F33.913217067718506
sg10
I100
sg11
I400
sa(dp99
g7
g62
sg9
F42.39189100265503
sg10
I100
sg11
I500
satp100
Rp101
(dp102
g25
I01
sg26
g31
sg32
(lp103
I3
aI5
aI30
aI9
asg34
I6
sg35
g36
(g3
tp104
Rp105
sbsS'NSGA2'
p106
g2
(g3
g4
(lp107
(dp108
g7
g62
sg9
F0.0373079776763916
sg10
I100
sg11
I0
sa(dp109
g7
g62
sg9
F11.535124778747559
sg10
I100
sg11
I100
sa(dp110
g7
g62
sg9
F22.93143081665039
sg10
I100
sg11
I200
sa(dp111
g7
g62
sg9
F34.298245906829834
sg10
I100
sg11
I300
sa(dp112
g7
g62
sg9
F45.638705015182495
sg10
I100
sg11
I400
sa(dp113
g7
g62
sg9
F56.9734468460083
sg10
I100
sg11
I500
satp114
Rp115
(dp116
g25
I01
sg26
g31
sg32
(lp117
I3
aI5
aI30
aI9
asg34
I6
sg35
g36
(g3
tp118
Rp119
sbsS'IBEA-SIP'
p120
g2
(g3
g4
(lp121
(dp122
g7
(F0.121
F0.755
F0.029
I12
I22
tp123
sg9
F0.07041406631469727
sg10
I100
sg11
I0
sa(dp124
g7
(F0.197
F0.688
F0.033
I60
I100
tp125
sg9
F7.844084978103638
sg10
I100
sg11
I100
sa(dp126
g7
(F0.203
F0.546
F0.039
I61
I100
tp127
sg9
F15.675949096679688
sg10
I100
sg11
I200
sa(dp128
g7
(F0.202
F0.716
F0.035
I66
I100
tp129
sg9
F23.52298903465271
sg10
I100
sg11
I300
sa(dp130
g7
(F0.201
F0.641
F0.035
I69
I100
tp131
sg9
F31.480955123901367
sg10
I100
sg11
I400
sa(dp132
g7
(F0.206
F0.651
F0.036
I68
I100
tp133
sg9
F39.48657703399658
sg10
I100
sg11
I500
satp134
Rp135
(dp136
g25
I01
sg26
g31
sg32
(lp137
I3
aI5
aI30
aI9
asg34
I6
sg35
g36
(g3
tp138
Rp139
sbs.