(dp0
S'NSGA2-SIP'
p1
ccopy_reg
_reconstructor
p2
(cdeap.tools.support
Logbook
p3
c__builtin__
list
p4
(lp5
(dp6
S'hv|spread|igd|frontier#|valid#'
p7
(F0.133
F0.894
F0.029
I16
I24
tp8
sS'timestamp'
p9
F0.07736706733703613
sS'evals'
p10
I100
sS'gen'
p11
I0
sa(dp12
g7
(F0.198
F0.571
F0.03
I97
I100
tp13
sg9
F8.716048002243042
sg10
I100
sg11
I100
sa(dp14
g7
(F0.202
F0.652
F0.03
I97
I100
tp15
sg9
F17.24873113632202
sg10
I100
sg11
I200
sa(dp16
g7
(F0.202
F0.566
F0.032
I99
I100
tp17
sg9
F25.952490091323853
sg10
I100
sg11
I300
sa(dp18
g7
(F0.202
F0.547
F0.031
I99
I100
tp19
sg9
F34.636394023895264
sg10
I100
sg11
I400
sa(dp20
g7
(F0.204
F0.574
F0.031
I99
I100
tp21
sg9
F43.46188998222351
sg10
I100
sg11
I500
satp22
Rp23
(dp24
S'log_header'
p25
I01
sS'header'
p26
(S'gen'
p27
S'evals'
p28
S'hv|spread|igd|frontier#|valid#'
p29
S'timestamp'
p30
tp31
sS'columns_len'
p32
(lp33
I3
aI5
aI30
aI9
asS'buffindex'
p34
I6
sS'chapters'
p35
ccollections
defaultdict
p36
(g3
tp37
Rp38
sbsS'SPEA2-SIP'
p39
g2
(g3
g4
(lp40
(dp41
g7
(F0.113
F0.772
F0.031
I12
I17
tp42
sg9
F0.06252884864807129
sg10
I100
sg11
I0
sa(dp43
g7
(F0.202
F0.66
F0.032
I100
I100
tp44
sg9
F77.55686497688293
sg10
I100
sg11
I100
sa(dp45
g7
(F0.207
F0.584
F0.034
I100
I100
tp46
sg9
F160.35964488983154
sg10
I100
sg11
I200
sa(dp47
g7
(F0.209
F0.642
F0.035
I100
I100
tp48
sg9
F241.00500082969666
sg10
I100
sg11
I300
sa(dp49
g7
(F0.21
F0.66
F0.036
I100
I100
tp50
sg9
F324.7049069404602
sg10
I100
sg11
I400
sa(dp51
g7
(F0.211
F0.55
F0.037
I100
I100
tp52
sg9
F409.0761148929596
sg10
I100
sg11
I500
satp53
Rp54
(dp55
g25
I01
sg26
g31
sg32
(lp56
I3
aI5
aI31
aI9
asg34
I6
sg35
g36
(g3
tp57
Rp58
sbsS'SPEA2'
p59
g2
(g3
g4
(lp60
(dp61
g7
(I0
I0
I0
I0
I0
tp62
sg9
F0.0317988395690918
sg10
I100
sg11
I0
sa(dp63
g7
g62
sg9
F99.04696893692017
sg10
I100
sg11
I100
sa(dp64
g7
(F0.084
F0.94
F0.067
I1
I1
tp65
sg9
F219.11274886131287
sg10
I100
sg11
I200
sa(dp66
g7
g62
sg9
F338.91531205177307
sg10
I100
sg11
I300
sa(dp67
g7
g62
sg9
F454.9503798484802
sg10
I100
sg11
I400
sa(dp68
g7
g62
sg9
F571.7782280445099
sg10
I100
sg11
I500
satp69
Rp70
(dp71
g25
I01
sg26
g31
sg32
(lp72
I3
aI5
aI30
aI9
asg34
I6
sg35
g36
(g3
tp73
Rp74
sbsS'IBEA-PEN'
p75
g2
(g3
g4
(lp76
(dp77
g7
(F0.13
F0.69
F0.026
I28
I39
tp78
sg9
F0.17208504676818848
sg10
I100
sg11
I0
sa(dp79
g7
g62
sg9
F7.6563639640808105
sg10
I100
sg11
I100
sa(dp80
g7
g62
sg9
F15.169601917266846
sg10
I100
sg11
I200
sa(dp81
g7
(F0.087
F1.02
F0.062
I1
I1
tp82
sg9
F22.656916856765747
sg10
I100
sg11
I300
sa(dp83
g7
g62
sg9
F30.155006885528564
sg10
I100
sg11
I400
sa(dp84
g7
g62
sg9
F37.64138388633728
sg10
I100
sg11
I500
satp85
Rp86
(dp87
g25
I01
sg26
g31
sg32
(lp88
I3
aI5
aI30
aI9
asg34
I6
sg35
g36
(g3
tp89
Rp90
sbsS'IBEA'
p91
g2
(g3
g4
(lp92
(dp93
g7
g62
sg9
F0.03147387504577637
sg10
I100
sg11
I0
sa(dp94
g7
g62
sg9
F7.377995014190674
sg10
I100
sg11
I100
sa(dp95
g7
(F0.014
F2.664
F0.132
I1
I2
tp96
sg9
F14.827711820602417
sg10
I100
sg11
I200
sa(dp97
g7
(F0.014
F2.664
F0.132
I1
I2
tp98
sg9
F22.323434829711914
sg10
I100
sg11
I300
sa(dp99
g7
(F0.014
F2.664
F0.132
I1
I2
tp100
sg9
F29.742626905441284
sg10
I100
sg11
I400
sa(dp101
g7
g62
sg9
F37.16726589202881
sg10
I100
sg11
I500
satp102
Rp103
(dp104
g25
I01
sg26
g31
sg32
(lp105
I3
aI5
aI30
aI9
asg34
I6
sg35
g36
(g3
tp106
Rp107
sbsS'NSGA2'
p108
g2
(g3
g4
(lp109
(dp110
g7
g62
sg9
F0.031941890716552734
sg10
I100
sg11
I0
sa(dp111
g7
g62
sg9
F10.045828819274902
sg10
I100
sg11
I100
sa(dp112
g7
g62
sg9
F20.00981092453003
sg10
I100
sg11
I200
sa(dp113
g7
g62
sg9
F29.928056001663208
sg10
I100
sg11
I300
sa(dp114
g7
g62
sg9
F39.85060381889343
sg10
I100
sg11
I400
sa(dp115
g7
g62
sg9
F49.7104389667511
sg10
I100
sg11
I500
satp116
Rp117
(dp118
g25
I01
sg26
g31
sg32
(lp119
I3
aI5
aI30
aI9
asg34
I6
sg35
g36
(g3
tp120
Rp121
sbsS'IBEA-SIP'
p122
g2
(g3
g4
(lp123
(dp124
g7
(F0.108
F0.83
F0.043
I18
I22
tp125
sg9
F0.08154606819152832
sg10
I100
sg11
I0
sa(dp126
g7
(F0.201
F0.692
F0.036
I67
I100
tp127
sg9
F7.016783952713013
sg10
I100
sg11
I100
sa(dp128
g7
(F0.194
F0.738
F0.037
I57
I100
tp129
sg9
F13.886468887329102
sg10
I100
sg11
I200
sa(dp130
g7
(F0.198
F0.672
F0.034
I64
I100
tp131
sg9
F20.827452898025513
sg10
I100
sg11
I300
sa(dp132
g7
(F0.206
F0.637
F0.04
I71
I100
tp133
sg9
F27.91202998161316
sg10
I100
sg11
I400
sa(dp134
g7
(F0.205
F0.647
F0.037
I72
I100
tp135
sg9
F34.95007109642029
sg10
I100
sg11
I500
satp136
Rp137
(dp138
g25
I01
sg26
g31
sg32
(lp139
I3
aI5
aI30
aI9
asg34
I6
sg35
g36
(g3
tp140
Rp141
sbs.