(dp0
S'NSGA2-SIP'
p1
ccopy_reg
_reconstructor
p2
(cdeap.tools.support
Logbook
p3
c__builtin__
list
p4
(lp5
(dp6
S'hv|spread|igd|frontier#|valid#'
p7
(F0.115
F0.728
F0.035
I10
I16
tp8
sS'timestamp'
p9
F0.07941102981567383
sS'evals'
p10
I100
sS'gen'
p11
I0
sa(dp12
g7
(F0.201
F0.608
F0.028
I96
I100
tp13
sg9
F9.901648044586182
sg10
I100
sg11
I100
sa(dp14
g7
(F0.202
F0.613
F0.03
I97
I100
tp15
sg9
F19.571015119552612
sg10
I100
sg11
I200
sa(dp16
g7
(F0.205
F0.565
F0.033
I99
I100
tp17
sg9
F29.38012409210205
sg10
I100
sg11
I300
sa(dp18
g7
(F0.204
F0.635
F0.031
I99
I100
tp19
sg9
F39.249526023864746
sg10
I100
sg11
I400
sa(dp20
g7
(F0.204
F0.595
F0.032
I98
I100
tp21
sg9
F49.216850996017456
sg10
I100
sg11
I500
satp22
Rp23
(dp24
S'log_header'
p25
I01
sS'header'
p26
(S'gen'
p27
S'evals'
p28
S'hv|spread|igd|frontier#|valid#'
p29
S'timestamp'
p30
tp31
sS'columns_len'
p32
(lp33
I3
aI5
aI30
aI9
asS'buffindex'
p34
I6
sS'chapters'
p35
ccollections
defaultdict
p36
(g3
tp37
Rp38
sbsS'SPEA2-SIP'
p39
g2
(g3
g4
(lp40
(dp41
g7
(F0.117
F0.763
F0.041
I20
I25
tp42
sg9
F0.11770200729370117
sg10
I100
sg11
I0
sa(dp43
g7
(F0.203
F0.606
F0.034
I100
I100
tp44
sg9
F85.14874696731567
sg10
I100
sg11
I100
sa(dp45
g7
(F0.205
F0.643
F0.034
I100
I100
tp46
sg9
F176.83852410316467
sg10
I100
sg11
I200
sa(dp47
g7
(F0.205
F0.594
F0.035
I100
I100
tp48
sg9
F269.9341630935669
sg10
I100
sg11
I300
sa(dp49
g7
(F0.207
F0.647
F0.035
I100
I100
tp50
sg9
F369.01444602012634
sg10
I100
sg11
I400
sa(dp51
g7
(F0.208
F0.604
F0.036
I100
I100
tp52
sg9
F465.5148150920868
sg10
I100
sg11
I500
satp53
Rp54
(dp55
g25
I01
sg26
g31
sg32
(lp56
I3
aI5
aI31
aI9
asg34
I6
sg35
g36
(g3
tp57
Rp58
sbsS'SPEA2'
p59
g2
(g3
g4
(lp60
(dp61
g7
(I0
I0
I0
I0
I0
tp62
sg9
F0.04728293418884277
sg10
I100
sg11
I0
sa(dp63
g7
g62
sg9
F118.80759191513062
sg10
I100
sg11
I100
sa(dp64
g7
g62
sg9
F249.57295298576355
sg10
I100
sg11
I200
sa(dp65
g7
g62
sg9
F378.61474800109863
sg10
I100
sg11
I300
sa(dp66
g7
g62
sg9
F503.35287594795227
sg10
I100
sg11
I400
sa(dp67
g7
g62
sg9
F636.8027780056
sg10
I100
sg11
I500
satp68
Rp69
(dp70
g25
I01
sg26
g31
sg32
(lp71
I3
aI5
aI30
aI9
asg34
I6
sg35
g36
(g3
tp72
Rp73
sbsS'IBEA-PEN'
p74
g2
(g3
g4
(lp75
(dp76
g7
(F0.134
F0.696
F0.027
I28
I39
tp77
sg9
F0.18939495086669922
sg10
I100
sg11
I0
sa(dp78
g7
g62
sg9
F8.595733880996704
sg10
I100
sg11
I100
sa(dp79
g7
g62
sg9
F17.021185874938965
sg10
I100
sg11
I200
sa(dp80
g7
g62
sg9
F25.45398187637329
sg10
I100
sg11
I300
sa(dp81
g7
g62
sg9
F33.865978956222534
sg10
I100
sg11
I400
sa(dp82
g7
(F0.085
F1.14
F0.042
I1
I1
tp83
sg9
F42.34576082229614
sg10
I100
sg11
I500
satp84
Rp85
(dp86
g25
I01
sg26
g31
sg32
(lp87
I3
aI5
aI30
aI9
asg34
I6
sg35
g36
(g3
tp88
Rp89
sbsS'IBEA'
p90
g2
(g3
g4
(lp91
(dp92
g7
g62
sg9
F0.038152217864990234
sg10
I100
sg11
I0
sa(dp93
g7
(F0.122
F0.902
F0.05
I3
I3
tp94
sg9
F8.401620149612427
sg10
I100
sg11
I100
sa(dp95
g7
(F0.039
F1.64
F0.041
I1
I1
tp96
sg9
F16.768659114837646
sg10
I100
sg11
I200
sa(dp97
g7
g62
sg9
F25.090774059295654
sg10
I100
sg11
I300
sa(dp98
g7
g62
sg9
F33.40360903739929
sg10
I100
sg11
I400
sa(dp99
g7
(F0.092
F1.22
F0.073
I1
I1
tp100
sg9
F41.71173715591431
sg10
I100
sg11
I500
satp101
Rp102
(dp103
g25
I01
sg26
g31
sg32
(lp104
I3
aI5
aI30
aI9
asg34
I6
sg35
g36
(g3
tp105
Rp106
sbsS'NSGA2'
p107
g2
(g3
g4
(lp108
(dp109
g7
g62
sg9
F0.036377906799316406
sg10
I100
sg11
I0
sa(dp110
g7
(F0.078
F1.18
F0.03
I1
I1
tp111
sg9
F11.307269096374512
sg10
I100
sg11
I100
sa(dp112
g7
(F0.101
F0.944
F0.048
I2
I2
tp113
sg9
F22.51830005645752
sg10
I100
sg11
I200
sa(dp114
g7
(F0.054
F2.094
F0.022
I1
I1
tp115
sg9
F33.7476909160614
sg10
I100
sg11
I300
sa(dp116
g7
g62
sg9
F44.924439907073975
sg10
I100
sg11
I400
sa(dp117
g7
(F0.06
F1.38
F0.03
I1
I1
tp118
sg9
F56.081074953079224
sg10
I100
sg11
I500
satp119
Rp120
(dp121
g25
I01
sg26
g31
sg32
(lp122
I3
aI5
aI30
aI9
asg34
I6
sg35
g36
(g3
tp123
Rp124
sbsS'IBEA-SIP'
p125
g2
(g3
g4
(lp126
(dp127
g7
(F0.116
F0.774
F0.034
I13
I17
tp128
sg9
F0.0722501277923584
sg10
I100
sg11
I0
sa(dp129
g7
(F0.191
F0.658
F0.035
I64
I100
tp130
sg9
F7.8042662143707275
sg10
I100
sg11
I100
sa(dp131
g7
(F0.199
F0.627
F0.035
I68
I100
tp132
sg9
F15.707329034805298
sg10
I100
sg11
I200
sa(dp133
g7
(F0.203
F0.661
F0.037
I73
I100
tp134
sg9
F23.631962060928345
sg10
I100
sg11
I300
sa(dp135
g7
(F0.205
F0.604
F0.037
I75
I100
tp136
sg9
F31.474253177642822
sg10
I100
sg11
I400
sa(dp137
g7
(F0.203
F0.62
F0.039
I71
I100
tp138
sg9
F39.28362703323364
sg10
I100
sg11
I500
satp139
Rp140
(dp141
g25
I01
sg26
g31
sg32
(lp142
I3
aI5
aI30
aI9
asg34
I6
sg35
g36
(g3
tp143
Rp144
sbs.