(dp0
S'NSGA2-SIP'
p1
ccopy_reg
_reconstructor
p2
(cdeap.tools.support
Logbook
p3
c__builtin__
list
p4
(lp5
(dp6
S'hv|spread|igd|frontier#|valid#'
p7
(F0.115
F0.765
F0.047
I18
I21
tp8
sS'timestamp'
p9
F0.08973217010498047
sS'evals'
p10
I100
sS'gen'
p11
I0
sa(dp12
g7
(F0.192
F0.626
F0.027
I97
I100
tp13
sg9
F9.53049111366272
sg10
I100
sg11
I100
sa(dp14
g7
(F0.199
F0.54
F0.03
I95
I100
tp15
sg9
F18.927551984786987
sg10
I100
sg11
I200
sa(dp16
g7
(F0.203
F0.579
F0.029
I99
I100
tp17
sg9
F28.290277004241943
sg10
I100
sg11
I300
sa(dp18
g7
(F0.203
F0.579
F0.031
I97
I100
tp19
sg9
F37.835659980773926
sg10
I100
sg11
I400
sa(dp20
g7
(F0.203
F0.54
F0.03
I97
I100
tp21
sg9
F47.228151082992554
sg10
I100
sg11
I500
satp22
Rp23
(dp24
S'log_header'
p25
I01
sS'header'
p26
(S'gen'
p27
S'evals'
p28
S'hv|spread|igd|frontier#|valid#'
p29
S'timestamp'
p30
tp31
sS'columns_len'
p32
(lp33
I3
aI5
aI30
aI9
asS'buffindex'
p34
I6
sS'chapters'
p35
ccollections
defaultdict
p36
(g3
tp37
Rp38
sbsS'SPEA2-SIP'
p39
g2
(g3
g4
(lp40
(dp41
g7
(F0.115
F0.753
F0.037
I11
I16
tp42
sg9
F0.06324601173400879
sg10
I100
sg11
I0
sa(dp43
g7
(F0.203
F0.637
F0.032
I100
I100
tp44
sg9
F82.3504011631012
sg10
I100
sg11
I100
sa(dp45
g7
(F0.206
F0.582
F0.034
I100
I100
tp46
sg9
F171.65194296836853
sg10
I100
sg11
I200
sa(dp47
g7
(F0.209
F0.614
F0.036
I100
I100
tp48
sg9
F260.75758695602417
sg10
I100
sg11
I300
sa(dp49
g7
(F0.21
F0.671
F0.036
I100
I100
tp50
sg9
F349.8685109615326
sg10
I100
sg11
I400
sa(dp51
g7
(F0.211
F0.659
F0.037
I100
I100
tp52
sg9
F438.79557514190674
sg10
I100
sg11
I500
satp53
Rp54
(dp55
g25
I01
sg26
g31
sg32
(lp56
I3
aI5
aI31
aI9
asg34
I6
sg35
g36
(g3
tp57
Rp58
sbsS'SPEA2'
p59
g2
(g3
g4
(lp60
(dp61
g7
(F0.07
F2.193
F0.014
I1
I1
tp62
sg9
F0.03911185264587402
sg10
I100
sg11
I0
sa(dp63
g7
(I0
I0
I0
I0
I0
tp64
sg9
F112.38031387329102
sg10
I100
sg11
I100
sa(dp65
g7
g64
sg9
F238.88127183914185
sg10
I100
sg11
I200
sa(dp66
g7
g64
sg9
F366.93823885917664
sg10
I100
sg11
I300
sa(dp67
g7
g64
sg9
F494.2273118495941
sg10
I100
sg11
I400
sa(dp68
g7
g64
sg9
F615.9102058410645
sg10
I100
sg11
I500
satp69
Rp70
(dp71
g25
I01
sg26
g31
sg32
(lp72
I3
aI5
aI30
aI9
asg34
I6
sg35
g36
(g3
tp73
Rp74
sbsS'IBEA-PEN'
p75
g2
(g3
g4
(lp76
(dp77
g7
(F0.139
F0.598
F0.024
I21
I36
tp78
sg9
F0.13703417778015137
sg10
I100
sg11
I0
sa(dp79
g7
g64
sg9
F8.353770971298218
sg10
I100
sg11
I100
sa(dp80
g7
g64
sg9
F16.581103086471558
sg10
I100
sg11
I200
sa(dp81
g7
g64
sg9
F24.81879210472107
sg10
I100
sg11
I300
sa(dp82
g7
g64
sg9
F33.08252501487732
sg10
I100
sg11
I400
sa(dp83
g7
g64
sg9
F41.31902313232422
sg10
I100
sg11
I500
satp84
Rp85
(dp86
g25
I01
sg26
g31
sg32
(lp87
I3
aI5
aI30
aI9
asg34
I6
sg35
g36
(g3
tp88
Rp89
sbsS'IBEA'
p90
g2
(g3
g4
(lp91
(dp92
g7
(F0.053
F0.86
F0.041
I1
I1
tp93
sg9
F0.03730893135070801
sg10
I100
sg11
I0
sa(dp94
g7
g64
sg9
F8.068117141723633
sg10
I100
sg11
I100
sa(dp95
g7
g64
sg9
F16.184396982192993
sg10
I100
sg11
I200
sa(dp96
g7
g64
sg9
F24.287092924118042
sg10
I100
sg11
I300
sa(dp97
g7
g64
sg9
F32.38329100608826
sg10
I100
sg11
I400
sa(dp98
g7
g64
sg9
F40.50938391685486
sg10
I100
sg11
I500
satp99
Rp100
(dp101
g25
I01
sg26
g31
sg32
(lp102
I3
aI5
aI30
aI9
asg34
I6
sg35
g36
(g3
tp103
Rp104
sbsS'NSGA2'
p105
g2
(g3
g4
(lp106
(dp107
g7
(F0.052
F0.94
F0.073
I1
I1
tp108
sg9
F0.03779101371765137
sg10
I100
sg11
I0
sa(dp109
g7
g64
sg9
F10.673387050628662
sg10
I100
sg11
I100
sa(dp110
g7
g64
sg9
F21.21259593963623
sg10
I100
sg11
I200
sa(dp111
g7
g64
sg9
F31.697943925857544
sg10
I100
sg11
I300
sa(dp112
g7
(F0.068
F1.3
F0.037
I1
I1
tp113
sg9
F42.22802495956421
sg10
I100
sg11
I400
sa(dp114
g7
g64
sg9
F52.7809419631958
sg10
I100
sg11
I500
satp115
Rp116
(dp117
g25
I01
sg26
g31
sg32
(lp118
I3
aI5
aI30
aI9
asg34
I6
sg35
g36
(g3
tp119
Rp120
sbsS'IBEA-SIP'
p121
g2
(g3
g4
(lp122
(dp123
g7
(F0.123
F0.792
F0.048
I16
I24
tp124
sg9
F0.07996296882629395
sg10
I100
sg11
I0
sa(dp125
g7
(F0.2
F0.7
F0.037
I68
I100
tp126
sg9
F7.5233399868011475
sg10
I100
sg11
I100
sa(dp127
g7
(F0.196
F0.643
F0.037
I59
I100
tp128
sg9
F14.86109709739685
sg10
I100
sg11
I200
sa(dp129
g7
(F0.205
F0.591
F0.038
I69
I100
tp130
sg9
F22.282689094543457
sg10
I100
sg11
I300
sa(dp131
g7
(F0.203
F0.71
F0.035
I62
I100
tp132
sg9
F29.717658042907715
sg10
I100
sg11
I400
sa(dp133
g7
(F0.204
F0.705
F0.038
I64
I100
tp134
sg9
F37.08634805679321
sg10
I100
sg11
I500
satp135
Rp136
(dp137
g25
I01
sg26
g31
sg32
(lp138
I3
aI5
aI30
aI9
asg34
I6
sg35
g36
(g3
tp139
Rp140
sbs.