(dp0
S'NSGA2-SIP'
p1
ccopy_reg
_reconstructor
p2
(cdeap.tools.support
Logbook
p3
c__builtin__
list
p4
(lp5
(dp6
S'hv|spread|igd|frontier#|valid#'
p7
(F0.104
F0.848
F0.036
I17
I24
tp8
sS'timestamp'
p9
F0.07953810691833496
sS'evals'
p10
I100
sS'gen'
p11
I0
sa(dp12
g7
(F0.2
F0.599
F0.03
I96
I100
tp13
sg9
F8.997473001480103
sg10
I100
sg11
I100
sa(dp14
g7
(F0.202
F0.618
F0.032
I98
I100
tp15
sg9
F17.821125984191895
sg10
I100
sg11
I200
sa(dp16
g7
(F0.203
F0.569
F0.033
I98
I100
tp17
sg9
F26.212080001831055
sg10
I100
sg11
I300
sa(dp18
g7
(F0.206
F0.517
F0.031
I98
I100
tp19
sg9
F34.6079740524292
sg10
I100
sg11
I400
sa(dp20
g7
(F0.204
F0.619
F0.031
I98
I100
tp21
sg9
F43.32320594787598
sg10
I100
sg11
I500
satp22
Rp23
(dp24
S'log_header'
p25
I01
sS'header'
p26
(S'gen'
p27
S'evals'
p28
S'hv|spread|igd|frontier#|valid#'
p29
S'timestamp'
p30
tp31
sS'columns_len'
p32
(lp33
I3
aI5
aI30
aI9
asS'buffindex'
p34
I6
sS'chapters'
p35
ccollections
defaultdict
p36
(g3
tp37
Rp38
sbsS'SPEA2-SIP'
p39
g2
(g3
g4
(lp40
(dp41
g7
(F0.122
F0.833
F0.034
I14
I21
tp42
sg9
F0.06914997100830078
sg10
I100
sg11
I0
sa(dp43
g7
(F0.203
F0.597
F0.033
I100
I100
tp44
sg9
F83.6350109577179
sg10
I100
sg11
I100
sa(dp45
g7
(F0.206
F0.648
F0.035
I100
I100
tp46
sg9
F173.13691306114197
sg10
I100
sg11
I200
sa(dp47
g7
(F0.207
F0.654
F0.035
I100
I100
tp48
sg9
F258.5587329864502
sg10
I100
sg11
I300
sa(dp49
g7
(F0.208
F0.637
F0.035
I100
I100
tp50
sg9
F343.0056929588318
sg10
I100
sg11
I400
sa(dp51
g7
(F0.207
F0.605
F0.035
I100
I100
tp52
sg9
F426.43772888183594
sg10
I100
sg11
I500
satp53
Rp54
(dp55
g25
I01
sg26
g31
sg32
(lp56
I3
aI5
aI31
aI9
asg34
I6
sg35
g36
(g3
tp57
Rp58
sbsS'SPEA2'
p59
g2
(g3
g4
(lp60
(dp61
g7
(I0
I0
I0
I0
I0
tp62
sg9
F0.03303408622741699
sg10
I100
sg11
I0
sa(dp63
g7
g62
sg9
F99.81539487838745
sg10
I100
sg11
I100
sa(dp64
g7
g62
sg9
F220.0919189453125
sg10
I100
sg11
I200
sa(dp65
g7
g62
sg9
F341.95409202575684
sg10
I100
sg11
I300
sa(dp66
g7
g62
sg9
F459.146507024765
sg10
I100
sg11
I400
sa(dp67
g7
g62
sg9
F580.8854870796204
sg10
I100
sg11
I500
satp68
Rp69
(dp70
g25
I01
sg26
g31
sg32
(lp71
I3
aI5
aI30
aI9
asg34
I6
sg35
g36
(g3
tp72
Rp73
sbsS'IBEA'
p74
g2
(g3
g4
(lp75
(dp76
g7
g62
sg9
F0.03203415870666504
sg10
I100
sg11
I0
sa(dp77
g7
g62
sg9
F7.633819103240967
sg10
I100
sg11
I100
sa(dp78
g7
g62
sg9
F15.292241096496582
sg10
I100
sg11
I200
sa(dp79
g7
g62
sg9
F22.89561700820923
sg10
I100
sg11
I300
sa(dp80
g7
(F0.084
F1.3
F0.046
I1
I1
tp81
sg9
F30.43814516067505
sg10
I100
sg11
I400
sa(dp82
g7
g62
sg9
F37.97122001647949
sg10
I100
sg11
I500
satp83
Rp84
(dp85
g25
I01
sg26
g31
sg32
(lp86
I3
aI5
aI30
aI9
asg34
I6
sg35
g36
(g3
tp87
Rp88
sbsS'NSGA2'
p89
g2
(g3
g4
(lp90
(dp91
g7
g62
sg9
F0.032360076904296875
sg10
I100
sg11
I0
sa(dp92
g7
g62
sg9
F10.13927412033081
sg10
I100
sg11
I100
sa(dp93
g7
g62
sg9
F20.23476815223694
sg10
I100
sg11
I200
sa(dp94
g7
(F0.064
F1.42
F0.046
I1
I1
tp95
sg9
F30.291319131851196
sg10
I100
sg11
I300
sa(dp96
g7
g62
sg9
F40.34621000289917
sg10
I100
sg11
I400
sa(dp97
g7
g62
sg9
F50.368452072143555
sg10
I100
sg11
I500
satp98
Rp99
(dp100
g25
I01
sg26
g31
sg32
(lp101
I3
aI5
aI30
aI9
asg34
I6
sg35
g36
(g3
tp102
Rp103
sbsS'IBEA-SIP'
p104
g2
(g3
g4
(lp105
(dp106
g7
(F0.116
F0.906
F0.032
I14
I21
tp107
sg9
F0.06923699378967285
sg10
I100
sg11
I0
sa(dp108
g7
(F0.195
F0.652
F0.033
I69
I100
tp109
sg9
F7.163520097732544
sg10
I100
sg11
I100
sa(dp110
g7
(F0.197
F0.621
F0.039
I62
I100
tp111
sg9
F14.30555009841919
sg10
I100
sg11
I200
sa(dp112
g7
(F0.196
F0.67
F0.037
I60
I100
tp113
sg9
F21.400886058807373
sg10
I100
sg11
I300
sa(dp114
g7
(F0.204
F0.635
F0.036
I69
I100
tp115
sg9
F28.597275018692017
sg10
I100
sg11
I400
sa(dp116
g7
(F0.204
F0.753
F0.037
I69
I100
tp117
sg9
F35.78008508682251
sg10
I100
sg11
I500
satp118
Rp119
(dp120
g25
I01
sg26
g31
sg32
(lp121
I3
aI5
aI30
aI9
asg34
I6
sg35
g36
(g3
tp122
Rp123
sbs.