(dp0
S'NSGA2-SIP'
p1
ccopy_reg
_reconstructor
p2
(cdeap.tools.support
Logbook
p3
c__builtin__
list
p4
(lp5
(dp6
S'hv|spread|igd|frontier#|valid#'
p7
(F0.123
F0.723
F0.033
I14
I20
tp8
sS'timestamp'
p9
F0.07286906242370605
sS'evals'
p10
I100
sS'gen'
p11
I0
sa(dp12
g7
(F0.201
F0.562
F0.031
I97
I100
tp13
sg9
F9.489382028579712
sg10
I100
sg11
I100
sa(dp14
g7
(F0.205
F0.589
F0.031
I98
I100
tp15
sg9
F18.99743390083313
sg10
I100
sg11
I200
sa(dp16
g7
(F0.204
F0.59
F0.031
I99
I100
tp17
sg9
F28.367589950561523
sg10
I100
sg11
I300
sa(dp18
g7
(F0.206
F0.547
F0.032
I98
I100
tp19
sg9
F37.76871085166931
sg10
I100
sg11
I400
sa(dp20
g7
(F0.205
F0.606
F0.032
I95
I100
tp21
sg9
F47.042840003967285
sg10
I100
sg11
I500
satp22
Rp23
(dp24
S'log_header'
p25
I01
sS'header'
p26
(S'gen'
p27
S'evals'
p28
S'hv|spread|igd|frontier#|valid#'
p29
S'timestamp'
p30
tp31
sS'columns_len'
p32
(lp33
I3
aI5
aI30
aI9
asS'buffindex'
p34
I6
sS'chapters'
p35
ccollections
defaultdict
p36
(g3
tp37
Rp38
sbsS'SPEA2-SIP'
p39
g2
(g3
g4
(lp40
(dp41
g7
(F0.105
F0.757
F0.035
I14
I24
tp42
sg9
F0.07462716102600098
sg10
I100
sg11
I0
sa(dp43
g7
(F0.196
F0.57
F0.032
I100
I100
tp44
sg9
F80.56708598136902
sg10
I100
sg11
I100
sa(dp45
g7
(F0.2
F0.598
F0.034
I100
I100
tp46
sg9
F170.4139051437378
sg10
I100
sg11
I200
sa(dp47
g7
(F0.202
F0.575
F0.034
I100
I100
tp48
sg9
F259.7188210487366
sg10
I100
sg11
I300
sa(dp49
g7
(F0.203
F0.617
F0.034
I100
I100
tp50
sg9
F348.237251996994
sg10
I100
sg11
I400
sa(dp51
g7
(F0.204
F0.599
F0.035
I100
I100
tp52
sg9
F439.01475405693054
sg10
I100
sg11
I500
satp53
Rp54
(dp55
g25
I01
sg26
g31
sg32
(lp56
I3
aI5
aI31
aI9
asg34
I6
sg35
g36
(g3
tp57
Rp58
sbsS'SPEA2'
p59
g2
(g3
g4
(lp60
(dp61
g7
(F0.07
F1.06
F0.014
I1
I1
tp62
sg9
F0.03758502006530762
sg10
I100
sg11
I0
sa(dp63
g7
(I0
I0
I0
I0
I0
tp64
sg9
F107.64730620384216
sg10
I100
sg11
I100
sa(dp65
g7
g64
sg9
F239.50537014007568
sg10
I100
sg11
I200
sa(dp66
g7
(F0.079
F0.986
F0.036
I2
I2
tp67
sg9
F366.2986741065979
sg10
I100
sg11
I300
sa(dp68
g7
g64
sg9
F491.85597801208496
sg10
I100
sg11
I400
sa(dp69
g7
g64
sg9
F618.9458870887756
sg10
I100
sg11
I500
satp70
Rp71
(dp72
g25
I01
sg26
g31
sg32
(lp73
I3
aI5
aI30
aI9
asg34
I6
sg35
g36
(g3
tp74
Rp75
sbsS'IBEA'
p76
g2
(g3
g4
(lp77
(dp78
g7
g64
sg9
F0.034377098083496094
sg10
I100
sg11
I0
sa(dp79
g7
g64
sg9
F8.01965618133545
sg10
I100
sg11
I100
sa(dp80
g7
g64
sg9
F16.041258096694946
sg10
I100
sg11
I200
sa(dp81
g7
g64
sg9
F24.05590319633484
sg10
I100
sg11
I300
sa(dp82
g7
g64
sg9
F32.0723671913147
sg10
I100
sg11
I400
sa(dp83
g7
g64
sg9
F40.065773010253906
sg10
I100
sg11
I500
satp84
Rp85
(dp86
g25
I01
sg26
g31
sg32
(lp87
I3
aI5
aI30
aI9
asg34
I6
sg35
g36
(g3
tp88
Rp89
sbsS'NSGA2'
p90
g2
(g3
g4
(lp91
(dp92
g7
g64
sg9
F0.03461408615112305
sg10
I100
sg11
I0
sa(dp93
g7
g64
sg9
F10.927397966384888
sg10
I100
sg11
I100
sa(dp94
g7
g64
sg9
F21.681876182556152
sg10
I100
sg11
I200
sa(dp95
g7
g64
sg9
F32.36424207687378
sg10
I100
sg11
I300
sa(dp96
g7
g64
sg9
F43.05345702171326
sg10
I100
sg11
I400
sa(dp97
g7
g64
sg9
F53.76270508766174
sg10
I100
sg11
I500
satp98
Rp99
(dp100
g25
I01
sg26
g31
sg32
(lp101
I3
aI5
aI30
aI9
asg34
I6
sg35
g36
(g3
tp102
Rp103
sbsS'IBEA-SIP'
p104
g2
(g3
g4
(lp105
(dp106
g7
(F0.124
F0.881
F0.034
I12
I21
tp107
sg9
F0.06689286231994629
sg10
I100
sg11
I0
sa(dp108
g7
(F0.203
F0.638
F0.038
I70
I100
tp109
sg9
F7.673878908157349
sg10
I100
sg11
I100
sa(dp110
g7
(F0.2
F0.645
F0.037
I68
I100
tp111
sg9
F15.262585878372192
sg10
I100
sg11
I200
sa(dp112
g7
(F0.2
F0.709
F0.038
I71
I100
tp113
sg9
F22.828147888183594
sg10
I100
sg11
I300
sa(dp114
g7
(F0.203
F0.671
F0.036
I60
I100
tp115
sg9
F30.495357990264893
sg10
I100
sg11
I400
sa(dp116
g7
(F0.205
F0.61
F0.04
I69
I100
tp117
sg9
F38.08416199684143
sg10
I100
sg11
I500
satp118
Rp119
(dp120
g25
I01
sg26
g31
sg32
(lp121
I3
aI5
aI30
aI9
asg34
I6
sg35
g36
(g3
tp122
Rp123
sbs.