(dp0
S'NSGA2-SIP'
p1
ccopy_reg
_reconstructor
p2
(cdeap.tools.support
Logbook
p3
c__builtin__
list
p4
(lp5
(dp6
S'hv|spread|igd|frontier#|valid#'
p7
(F0.119
F0.735
F0.035
I18
I24
tp8
sS'timestamp'
p9
F0.08843088150024414
sS'evals'
p10
I100
sS'gen'
p11
I0
sa(dp12
g7
(F0.201
F0.584
F0.029
I98
I100
tp13
sg9
F9.482208013534546
sg10
I100
sg11
I100
sa(dp14
g7
(F0.201
F0.58
F0.03
I96
I100
tp15
sg9
F18.864980936050415
sg10
I100
sg11
I200
sa(dp16
g7
(F0.205
F0.666
F0.033
I96
I100
tp17
sg9
F28.20430898666382
sg10
I100
sg11
I300
sa(dp18
g7
(F0.204
F0.603
F0.032
I97
I100
tp19
sg9
F37.48059391975403
sg10
I100
sg11
I400
sa(dp20
g7
(F0.206
F0.637
F0.032
I98
I100
tp21
sg9
F46.88099193572998
sg10
I100
sg11
I500
satp22
Rp23
(dp24
S'log_header'
p25
I01
sS'header'
p26
(S'gen'
p27
S'evals'
p28
S'hv|spread|igd|frontier#|valid#'
p29
S'timestamp'
p30
tp31
sS'columns_len'
p32
(lp33
I3
aI5
aI30
aI9
asS'buffindex'
p34
I6
sS'chapters'
p35
ccollections
defaultdict
p36
(g3
tp37
Rp38
sbsS'SPEA2-SIP'
p39
g2
(g3
g4
(lp40
(dp41
g7
(F0.11
F0.808
F0.033
I8
I13
tp42
sg9
F0.05228590965270996
sg10
I100
sg11
I0
sa(dp43
g7
(F0.205
F0.647
F0.035
I100
I100
tp44
sg9
F87.98983192443848
sg10
I100
sg11
I100
sa(dp45
g7
(F0.206
F0.631
F0.035
I100
I100
tp46
sg9
F181.57558298110962
sg10
I100
sg11
I200
sa(dp47
g7
(F0.207
F0.673
F0.036
I100
I100
tp48
sg9
F271.0464708805084
sg10
I100
sg11
I300
sa(dp49
g7
(F0.207
F0.635
F0.035
I100
I100
tp50
sg9
F362.9797999858856
sg10
I100
sg11
I400
sa(dp51
g7
(F0.207
F0.596
F0.035
I100
I100
tp52
sg9
F454.5558331012726
sg10
I100
sg11
I500
satp53
Rp54
(dp55
g25
I01
sg26
g31
sg32
(lp56
I3
aI5
aI31
aI9
asg34
I6
sg35
g36
(g3
tp57
Rp58
sbsS'SPEA2'
p59
g2
(g3
g4
(lp60
(dp61
g7
(I0
I0
I0
I0
I0
tp62
sg9
F0.03505992889404297
sg10
I100
sg11
I0
sa(dp63
g7
g62
sg9
F107.8868350982666
sg10
I100
sg11
I100
sa(dp64
g7
g62
sg9
F236.46228289604187
sg10
I100
sg11
I200
sa(dp65
g7
g62
sg9
F366.7607069015503
sg10
I100
sg11
I300
sa(dp66
g7
g62
sg9
F494.91591691970825
sg10
I100
sg11
I400
sa(dp67
g7
g62
sg9
F622.6461789608002
sg10
I100
sg11
I500
satp68
Rp69
(dp70
g25
I01
sg26
g31
sg32
(lp71
I3
aI5
aI30
aI9
asg34
I6
sg35
g36
(g3
tp72
Rp73
sbsS'IBEA'
p74
g2
(g3
g4
(lp75
(dp76
g7
(F0.068
F1.14
F0.024
I1
I1
tp77
sg9
F0.037832021713256836
sg10
I100
sg11
I0
sa(dp78
g7
g62
sg9
F8.062165021896362
sg10
I100
sg11
I100
sa(dp79
g7
g62
sg9
F16.13523507118225
sg10
I100
sg11
I200
sa(dp80
g7
(F0.084
F0.981
F0.078
I3
I3
tp81
sg9
F24.258514165878296
sg10
I100
sg11
I300
sa(dp82
g7
g62
sg9
F32.434540033340454
sg10
I100
sg11
I400
sa(dp83
g7
g62
sg9
F40.587048053741455
sg10
I100
sg11
I500
satp84
Rp85
(dp86
g25
I01
sg26
g31
sg32
(lp87
I3
aI5
aI30
aI9
asg34
I6
sg35
g36
(g3
tp88
Rp89
sbsS'NSGA2'
p90
g2
(g3
g4
(lp91
(dp92
g7
(F0.056
F2.302
F0.061
I1
I1
tp93
sg9
F0.03789186477661133
sg10
I100
sg11
I0
sa(dp94
g7
g62
sg9
F10.803640842437744
sg10
I100
sg11
I100
sa(dp95
g7
g62
sg9
F21.458878993988037
sg10
I100
sg11
I200
sa(dp96
g7
g62
sg9
F32.11259388923645
sg10
I100
sg11
I300
sa(dp97
g7
g62
sg9
F42.76361298561096
sg10
I100
sg11
I400
sa(dp98
g7
g62
sg9
F53.382712841033936
sg10
I100
sg11
I500
satp99
Rp100
(dp101
g25
I01
sg26
g31
sg32
(lp102
I3
aI5
aI30
aI9
asg34
I6
sg35
g36
(g3
tp103
Rp104
sbsS'IBEA-SIP'
p105
g2
(g3
g4
(lp106
(dp107
g7
(F0.114
F0.678
F0.036
I15
I23
tp108
sg9
F0.07754802703857422
sg10
I100
sg11
I0
sa(dp109
g7
(F0.202
F0.729
F0.035
I69
I100
tp110
sg9
F7.697521924972534
sg10
I100
sg11
I100
sa(dp111
g7
(F0.204
F0.634
F0.033
I74
I100
tp112
sg9
F15.391007900238037
sg10
I100
sg11
I200
sa(dp113
g7
(F0.201
F0.655
F0.037
I61
I100
tp114
sg9
F22.981454849243164
sg10
I100
sg11
I300
sa(dp115
g7
(F0.206
F0.709
F0.039
I67
I100
tp116
sg9
F30.57070779800415
sg10
I100
sg11
I400
sa(dp117
g7
(F0.201
F0.634
F0.042
I64
I100
tp118
sg9
F38.209429025650024
sg10
I100
sg11
I500
satp119
Rp120
(dp121
g25
I01
sg26
g31
sg32
(lp122
I3
aI5
aI30
aI9
asg34
I6
sg35
g36
(g3
tp123
Rp124
sbs.