(dp0
S'NSGA2-SIP'
p1
ccopy_reg
_reconstructor
p2
(cdeap.tools.support
Logbook
p3
c__builtin__
list
p4
(lp5
(dp6
S'hv|spread|igd|frontier#|valid#'
p7
(F0.104
F0.837
F0.041
I18
I27
tp8
sS'timestamp'
p9
F0.09750914573669434
sS'evals'
p10
I100
sS'gen'
p11
I0
sa(dp12
g7
(F0.198
F0.566
F0.029
I98
I100
tp13
sg9
F10.69706916809082
sg10
I100
sg11
I100
sa(dp14
g7
(F0.2
F0.614
F0.031
I98
I100
tp15
sg9
F21.222676038742065
sg10
I100
sg11
I200
sa(dp16
g7
(F0.204
F0.607
F0.03
I98
I100
tp17
sg9
F31.802481174468994
sg10
I100
sg11
I300
sa(dp18
g7
(F0.206
F0.631
F0.031
I98
I100
tp19
sg9
F42.21427297592163
sg10
I100
sg11
I400
sa(dp20
g7
(F0.206
F0.606
F0.03
I97
I100
tp21
sg9
F52.68204712867737
sg10
I100
sg11
I500
satp22
Rp23
(dp24
S'log_header'
p25
I01
sS'header'
p26
(S'gen'
p27
S'evals'
p28
S'hv|spread|igd|frontier#|valid#'
p29
S'timestamp'
p30
tp31
sS'columns_len'
p32
(lp33
I3
aI5
aI30
aI9
asS'buffindex'
p34
I6
sS'chapters'
p35
ccollections
defaultdict
p36
(g3
tp37
Rp38
sbsS'SPEA2-SIP'
p39
g2
(g3
g4
(lp40
(dp41
g7
(F0.13
F0.815
F0.034
I14
I21
tp42
sg9
F0.08078598976135254
sg10
I100
sg11
I0
sa(dp43
g7
(F0.206
F0.66
F0.034
I100
I100
tp44
sg9
F90.37598204612732
sg10
I100
sg11
I100
sa(dp45
g7
(F0.207
F0.631
F0.034
I100
I100
tp46
sg9
F186.59269309043884
sg10
I100
sg11
I200
sa(dp47
g7
(F0.21
F0.638
F0.036
I100
I100
tp48
sg9
F283.9648768901825
sg10
I100
sg11
I300
sa(dp49
g7
(F0.21
F0.607
F0.037
I100
I100
tp50
sg9
F379.71062302589417
sg10
I100
sg11
I400
sa(dp51
g7
(F0.212
F0.645
F0.037
I100
I100
tp52
sg9
F476.4083950519562
sg10
I100
sg11
I500
satp53
Rp54
(dp55
g25
I01
sg26
g31
sg32
(lp56
I3
aI5
aI31
aI9
asg34
I6
sg35
g36
(g3
tp57
Rp58
sbsS'SPEA2'
p59
g2
(g3
g4
(lp60
(dp61
g7
(I0
I0
I0
I0
I0
tp62
sg9
F0.039231061935424805
sg10
I100
sg11
I0
sa(dp63
g7
(F0.065
F1.3
F0.041
I1
I1
tp64
sg9
F114.0946729183197
sg10
I100
sg11
I100
sa(dp65
g7
g62
sg9
F248.34483098983765
sg10
I100
sg11
I200
sa(dp66
g7
g62
sg9
F384.8747820854187
sg10
I100
sg11
I300
sa(dp67
g7
g62
sg9
F521.457967042923
sg10
I100
sg11
I400
sa(dp68
g7
g62
sg9
F658.628888130188
sg10
I100
sg11
I500
satp69
Rp70
(dp71
g25
I01
sg26
g31
sg32
(lp72
I3
aI5
aI30
aI9
asg34
I6
sg35
g36
(g3
tp73
Rp74
sbsS'IBEA-PEN'
p75
g2
(g3
g4
(lp76
(dp77
g7
(F0.14
F0.653
F0.029
I24
I33
tp78
sg9
F0.16502809524536133
sg10
I100
sg11
I0
sa(dp79
g7
(F0.065
F2.43
F0.076
I1
I1
tp80
sg9
F8.624703884124756
sg10
I100
sg11
I100
sa(dp81
g7
g62
sg9
F17.06581211090088
sg10
I100
sg11
I200
sa(dp82
g7
(F0.088
F0.991
F0.042
I2
I2
tp83
sg9
F25.48027992248535
sg10
I100
sg11
I300
sa(dp84
g7
g62
sg9
F33.886143922805786
sg10
I100
sg11
I400
sa(dp85
g7
g62
sg9
F42.293493032455444
sg10
I100
sg11
I500
satp86
Rp87
(dp88
g25
I01
sg26
g31
sg32
(lp89
I3
aI5
aI30
aI9
asg34
I6
sg35
g36
(g3
tp90
Rp91
sbsS'IBEA'
p92
g2
(g3
g4
(lp93
(dp94
g7
(F0.07
F0.98
F0.03
I1
I1
tp95
sg9
F0.041493892669677734
sg10
I100
sg11
I0
sa(dp96
g7
(F0.078
F1.34
F0.062
I1
I1
tp97
sg9
F8.305218935012817
sg10
I100
sg11
I100
sa(dp98
g7
g62
sg9
F16.61701989173889
sg10
I100
sg11
I200
sa(dp99
g7
(F0.059
F1.46
F0.057
I1
I1
tp100
sg9
F24.883765935897827
sg10
I100
sg11
I300
sa(dp101
g7
(F0.02
F0.32
F0.022
I1
I1
tp102
sg9
F33.116142988204956
sg10
I100
sg11
I400
sa(dp103
g7
g62
sg9
F41.353322982788086
sg10
I100
sg11
I500
satp104
Rp105
(dp106
g25
I01
sg26
g31
sg32
(lp107
I3
aI5
aI30
aI9
asg34
I6
sg35
g36
(g3
tp108
Rp109
sbsS'NSGA2'
p110
g2
(g3
g4
(lp111
(dp112
g7
(F0.054
F1.14
F0.065
I1
I1
tp113
sg9
F0.04137992858886719
sg10
I100
sg11
I0
sa(dp114
g7
g62
sg9
F12.237169981002808
sg10
I100
sg11
I100
sa(dp115
g7
g62
sg9
F24.419141054153442
sg10
I100
sg11
I200
sa(dp116
g7
g62
sg9
F36.5379741191864
sg10
I100
sg11
I300
sa(dp117
g7
g62
sg9
F48.6407310962677
sg10
I100
sg11
I400
sa(dp118
g7
g62
sg9
F60.85165596008301
sg10
I100
sg11
I500
satp119
Rp120
(dp121
g25
I01
sg26
g31
sg32
(lp122
I3
aI5
aI30
aI9
asg34
I6
sg35
g36
(g3
tp123
Rp124
sbsS'IBEA-SIP'
p125
g2
(g3
g4
(lp126
(dp127
g7
(F0.133
F0.765
F0.03
I16
I23
tp128
sg9
F0.08950304985046387
sg10
I100
sg11
I0
sa(dp129
g7
(F0.195
F0.72
F0.034
I67
I100
tp130
sg9
F7.950808048248291
sg10
I100
sg11
I100
sa(dp131
g7
(F0.204
F0.612
F0.039
I65
I100
tp132
sg9
F15.800957202911377
sg10
I100
sg11
I200
sa(dp133
g7
(F0.201
F0.759
F0.038
I69
I100
tp134
sg9
F23.7019681930542
sg10
I100
sg11
I300
sa(dp135
g7
(F0.203
F0.59
F0.039
I66
I100
tp136
sg9
F31.546364068984985
sg10
I100
sg11
I400
sa(dp137
g7
(F0.199
F0.701
F0.04
I66
I100
tp138
sg9
F39.43341517448425
sg10
I100
sg11
I500
satp139
Rp140
(dp141
g25
I01
sg26
g31
sg32
(lp142
I3
aI5
aI30
aI9
asg34
I6
sg35
g36
(g3
tp143
Rp144
sbs.