(dp0
S'NSGA2-SIP'
p1
ccopy_reg
_reconstructor
p2
(cdeap.tools.support
Logbook
p3
c__builtin__
list
p4
(lp5
(dp6
S'hv|spread|igd|frontier#|valid#'
p7
(F0.108
F0.792
F0.038
I13
I21
tp8
sS'timestamp'
p9
F0.07816219329833984
sS'evals'
p10
I100
sS'gen'
p11
I0
sa(dp12
g7
(F0.199
F0.617
F0.029
I97
I100
tp13
sg9
F10.648754119873047
sg10
I100
sg11
I100
sa(dp14
g7
(F0.202
F0.618
F0.033
I96
I100
tp15
sg9
F21.092278003692627
sg10
I100
sg11
I200
sa(dp16
g7
(F0.203
F0.593
F0.031
I97
I100
tp17
sg9
F31.553707122802734
sg10
I100
sg11
I300
sa(dp18
g7
(F0.206
F0.687
F0.032
I98
I100
tp19
sg9
F41.99840712547302
sg10
I100
sg11
I400
sa(dp20
g7
(F0.209
F0.608
F0.033
I96
I100
tp21
sg9
F52.29388499259949
sg10
I100
sg11
I500
satp22
Rp23
(dp24
S'log_header'
p25
I01
sS'header'
p26
(S'gen'
p27
S'evals'
p28
S'hv|spread|igd|frontier#|valid#'
p29
S'timestamp'
p30
tp31
sS'columns_len'
p32
(lp33
I3
aI5
aI30
aI9
asS'buffindex'
p34
I6
sS'chapters'
p35
ccollections
defaultdict
p36
(g3
tp37
Rp38
sbsS'SPEA2-SIP'
p39
g2
(g3
g4
(lp40
(dp41
g7
(F0.118
F0.782
F0.037
I12
I18
tp42
sg9
F0.0733489990234375
sg10
I100
sg11
I0
sa(dp43
g7
(F0.201
F0.681
F0.032
I100
I100
tp44
sg9
F90.72974109649658
sg10
I100
sg11
I100
sa(dp45
g7
(F0.204
F0.601
F0.033
I100
I100
tp46
sg9
F187.25886917114258
sg10
I100
sg11
I200
sa(dp47
g7
(F0.205
F0.537
F0.035
I100
I100
tp48
sg9
F285.75794410705566
sg10
I100
sg11
I300
sa(dp49
g7
(F0.208
F0.599
F0.036
I100
I100
tp50
sg9
F381.1882381439209
sg10
I100
sg11
I400
sa(dp51
g7
(F0.211
F0.606
F0.036
I100
I100
tp52
sg9
F478.77503418922424
sg10
I100
sg11
I500
satp53
Rp54
(dp55
g25
I01
sg26
g31
sg32
(lp56
I3
aI5
aI31
aI9
asg34
I6
sg35
g36
(g3
tp57
Rp58
sbsS'SPEA2'
p59
g2
(g3
g4
(lp60
(dp61
g7
(I0
I0
I0
I0
I0
tp62
sg9
F0.03828287124633789
sg10
I100
sg11
I0
sa(dp63
g7
g62
sg9
F116.37687492370605
sg10
I100
sg11
I100
sa(dp64
g7
g62
sg9
F256.22592997550964
sg10
I100
sg11
I200
sa(dp65
g7
g62
sg9
F398.1006648540497
sg10
I100
sg11
I300
sa(dp66
g7
g62
sg9
F541.0309658050537
sg10
I100
sg11
I400
sa(dp67
g7
g62
sg9
F680.3547508716583
sg10
I100
sg11
I500
satp68
Rp69
(dp70
g25
I01
sg26
g31
sg32
(lp71
I3
aI5
aI30
aI9
asg34
I6
sg35
g36
(g3
tp72
Rp73
sbsS'IBEA-PEN'
p74
g2
(g3
g4
(lp75
(dp76
g7
(F0.133
F0.706
F0.026
I31
I50
tp77
sg9
F0.19823718070983887
sg10
I100
sg11
I0
sa(dp78
g7
(F0.083
F2.385
F0.042
I1
I1
tp79
sg9
F8.690535068511963
sg10
I100
sg11
I100
sa(dp80
g7
(F0.088
F1.22
F0.061
I1
I1
tp81
sg9
F17.173870086669922
sg10
I100
sg11
I200
sa(dp82
g7
g62
sg9
F25.63690495491028
sg10
I100
sg11
I300
sa(dp83
g7
(F0.077
F2.322
F0.036
I1
I1
tp84
sg9
F34.12165403366089
sg10
I100
sg11
I400
sa(dp85
g7
g62
sg9
F42.62842512130737
sg10
I100
sg11
I500
satp86
Rp87
(dp88
g25
I01
sg26
g31
sg32
(lp89
I3
aI5
aI30
aI9
asg34
I6
sg35
g36
(g3
tp90
Rp91
sbsS'IBEA'
p92
g2
(g3
g4
(lp93
(dp94
g7
g62
sg9
F0.038014888763427734
sg10
I100
sg11
I0
sa(dp95
g7
g62
sg9
F8.310755014419556
sg10
I100
sg11
I100
sa(dp96
g7
g62
sg9
F16.65004801750183
sg10
I100
sg11
I200
sa(dp97
g7
g62
sg9
F25.002118825912476
sg10
I100
sg11
I300
sa(dp98
g7
g62
sg9
F33.31273293495178
sg10
I100
sg11
I400
sa(dp99
g7
g62
sg9
F41.596537828445435
sg10
I100
sg11
I500
satp100
Rp101
(dp102
g25
I01
sg26
g31
sg32
(lp103
I3
aI5
aI30
aI9
asg34
I6
sg35
g36
(g3
tp104
Rp105
sbsS'NSGA2'
p106
g2
(g3
g4
(lp107
(dp108
g7
(F0.064
F1.02
F0.036
I1
I1
tp109
sg9
F0.041629791259765625
sg10
I100
sg11
I0
sa(dp110
g7
g62
sg9
F12.241894006729126
sg10
I100
sg11
I100
sa(dp111
g7
g62
sg9
F24.3769588470459
sg10
I100
sg11
I200
sa(dp112
g7
g62
sg9
F36.474035024642944
sg10
I100
sg11
I300
sa(dp113
g7
(F0.061
F1.34
F0.055
I1
I1
tp114
sg9
F48.577122926712036
sg10
I100
sg11
I400
sa(dp115
g7
g62
sg9
F60.715274810791016
sg10
I100
sg11
I500
satp116
Rp117
(dp118
g25
I01
sg26
g31
sg32
(lp119
I3
aI5
aI30
aI9
asg34
I6
sg35
g36
(g3
tp120
Rp121
sbsS'IBEA-SIP'
p122
g2
(g3
g4
(lp123
(dp124
g7
(F0.121
F0.767
F0.033
I13
I17
tp125
sg9
F0.0758199691772461
sg10
I100
sg11
I0
sa(dp126
g7
(F0.201
F0.686
F0.036
I69
I100
tp127
sg9
F7.944915056228638
sg10
I100
sg11
I100
sa(dp128
g7
(F0.2
F0.668
F0.038
I70
I100
tp129
sg9
F15.844938039779663
sg10
I100
sg11
I200
sa(dp130
g7
(F0.202
F0.627
F0.037
I64
I100
tp131
sg9
F23.786622047424316
sg10
I100
sg11
I300
sa(dp132
g7
(F0.202
F0.594
F0.035
I65
I100
tp133
sg9
F31.65502691268921
sg10
I100
sg11
I400
sa(dp134
g7
(F0.202
F0.664
F0.037
I68
I100
tp135
sg9
F39.61975693702698
sg10
I100
sg11
I500
satp136
Rp137
(dp138
g25
I01
sg26
g31
sg32
(lp139
I3
aI5
aI30
aI9
asg34
I6
sg35
g36
(g3
tp140
Rp141
sbs.