(dp0
S'NSGA2-SIP'
p1
ccopy_reg
_reconstructor
p2
(cdeap.tools.support
Logbook
p3
c__builtin__
list
p4
(lp5
(dp6
S'hv|spread|igd|frontier#|valid#'
p7
(F0.126
F0.779
F0.038
I16
I21
tp8
sS'timestamp'
p9
F0.08855295181274414
sS'evals'
p10
I100
sS'gen'
p11
I0
sa(dp12
g7
(F0.197
F0.645
F0.028
I98
I100
tp13
sg9
F10.640989065170288
sg10
I100
sg11
I100
sa(dp14
g7
(F0.202
F0.583
F0.033
I97
I100
tp15
sg9
F21.20168399810791
sg10
I100
sg11
I200
sa(dp16
g7
(F0.204
F0.507
F0.032
I96
I100
tp17
sg9
F31.644591093063354
sg10
I100
sg11
I300
sa(dp18
g7
(F0.205
F0.606
F0.032
I96
I100
tp19
sg9
F42.09625291824341
sg10
I100
sg11
I400
sa(dp20
g7
(F0.206
F0.592
F0.033
I98
I100
tp21
sg9
F52.760316133499146
sg10
I100
sg11
I500
satp22
Rp23
(dp24
S'log_header'
p25
I01
sS'header'
p26
(S'gen'
p27
S'evals'
p28
S'hv|spread|igd|frontier#|valid#'
p29
S'timestamp'
p30
tp31
sS'columns_len'
p32
(lp33
I3
aI5
aI30
aI9
asS'buffindex'
p34
I6
sS'chapters'
p35
ccollections
defaultdict
p36
(g3
tp37
Rp38
sbsS'SPEA2-SIP'
p39
g2
(g3
g4
(lp40
(dp41
g7
(F0.109
F0.823
F0.028
I10
I17
tp42
sg9
F0.06563210487365723
sg10
I100
sg11
I0
sa(dp43
g7
(F0.202
F0.692
F0.032
I100
I100
tp44
sg9
F95.14065098762512
sg10
I100
sg11
I100
sa(dp45
g7
(F0.206
F0.604
F0.034
I100
I100
tp46
sg9
F205.56108212471008
sg10
I100
sg11
I200
sa(dp47
g7
(F0.208
F0.601
F0.036
I100
I100
tp48
sg9
F312.69647097587585
sg10
I100
sg11
I300
sa(dp49
g7
(F0.209
F0.602
F0.036
I100
I100
tp50
sg9
F419.33177304267883
sg10
I100
sg11
I400
sa(dp51
g7
(F0.209
F0.624
F0.036
I100
I100
tp52
sg9
F525.8508570194244
sg10
I100
sg11
I500
satp53
Rp54
(dp55
g25
I01
sg26
g31
sg32
(lp56
I3
aI5
aI31
aI9
asg34
I6
sg35
g36
(g3
tp57
Rp58
sbsS'SPEA2'
p59
g2
(g3
g4
(lp60
(dp61
g7
(I0
I0
I0
I0
I0
tp62
sg9
F0.038726091384887695
sg10
I100
sg11
I0
sa(dp63
g7
g62
sg9
F115.33754897117615
sg10
I100
sg11
I100
sa(dp64
g7
(F0.074
F0.9
F0.014
I1
I1
tp65
sg9
F251.41955494880676
sg10
I100
sg11
I200
sa(dp66
g7
g62
sg9
F382.89567399024963
sg10
I100
sg11
I300
sa(dp67
g7
g62
sg9
F518.7357380390167
sg10
I100
sg11
I400
sa(dp68
g7
g62
sg9
F644.3395659923553
sg10
I100
sg11
I500
satp69
Rp70
(dp71
g25
I01
sg26
g31
sg32
(lp72
I3
aI5
aI30
aI9
asg34
I6
sg35
g36
(g3
tp73
Rp74
sbsS'IBEA-PEN'
p75
g2
(g3
g4
(lp76
(dp77
g7
(F0.135
F0.736
F0.026
I30
I38
tp78
sg9
F0.19117188453674316
sg10
I100
sg11
I0
sa(dp79
g7
g62
sg9
F8.565460920333862
sg10
I100
sg11
I100
sa(dp80
g7
g62
sg9
F16.9611599445343
sg10
I100
sg11
I200
sa(dp81
g7
g62
sg9
F25.334486961364746
sg10
I100
sg11
I300
sa(dp82
g7
g62
sg9
F33.705015897750854
sg10
I100
sg11
I400
sa(dp83
g7
g62
sg9
F42.09357786178589
sg10
I100
sg11
I500
satp84
Rp85
(dp86
g25
I01
sg26
g31
sg32
(lp87
I3
aI5
aI30
aI9
asg34
I6
sg35
g36
(g3
tp88
Rp89
sbsS'IBEA'
p90
g2
(g3
g4
(lp91
(dp92
g7
(F0.055
F0.98
F0.056
I1
I1
tp93
sg9
F0.04163002967834473
sg10
I100
sg11
I0
sa(dp94
g7
g62
sg9
F8.243252992630005
sg10
I100
sg11
I100
sa(dp95
g7
g62
sg9
F16.51133418083191
sg10
I100
sg11
I200
sa(dp96
g7
g62
sg9
F24.7660870552063
sg10
I100
sg11
I300
sa(dp97
g7
g62
sg9
F33.06527805328369
sg10
I100
sg11
I400
sa(dp98
g7
g62
sg9
F41.36316108703613
sg10
I100
sg11
I500
satp99
Rp100
(dp101
g25
I01
sg26
g31
sg32
(lp102
I3
aI5
aI30
aI9
asg34
I6
sg35
g36
(g3
tp103
Rp104
sbsS'NSGA2'
p105
g2
(g3
g4
(lp106
(dp107
g7
g62
sg9
F0.0383608341217041
sg10
I100
sg11
I0
sa(dp108
g7
g62
sg9
F12.232863903045654
sg10
I100
sg11
I100
sa(dp109
g7
g62
sg9
F24.355283975601196
sg10
I100
sg11
I200
sa(dp110
g7
(F0.067
F1.34
F0.026
I1
I1
tp111
sg9
F36.492151975631714
sg10
I100
sg11
I300
sa(dp112
g7
g62
sg9
F48.61035394668579
sg10
I100
sg11
I400
sa(dp113
g7
g62
sg9
F60.6428279876709
sg10
I100
sg11
I500
satp114
Rp115
(dp116
g25
I01
sg26
g31
sg32
(lp117
I3
aI5
aI30
aI9
asg34
I6
sg35
g36
(g3
tp118
Rp119
sbsS'IBEA-SIP'
p120
g2
(g3
g4
(lp121
(dp122
g7
(F0.126
F0.888
F0.037
I15
I18
tp123
sg9
F0.08486390113830566
sg10
I100
sg11
I0
sa(dp124
g7
(F0.199
F0.643
F0.033
I67
I100
tp125
sg9
F7.978976011276245
sg10
I100
sg11
I100
sa(dp126
g7
(F0.204
F0.712
F0.038
I60
I100
tp127
sg9
F15.871490001678467
sg10
I100
sg11
I200
sa(dp128
g7
(F0.204
F0.679
F0.035
I70
I100
tp129
sg9
F23.786006927490234
sg10
I100
sg11
I300
sa(dp130
g7
(F0.203
F0.581
F0.034
I72
I100
tp131
sg9
F31.749639987945557
sg10
I100
sg11
I400
sa(dp132
g7
(F0.2
F0.739
F0.035
I65
I100
tp133
sg9
F39.61459398269653
sg10
I100
sg11
I500
satp134
Rp135
(dp136
g25
I01
sg26
g31
sg32
(lp137
I3
aI5
aI30
aI9
asg34
I6
sg35
g36
(g3
tp138
Rp139
sbs.