(dp0
S'NSGA2-SIP'
p1
ccopy_reg
_reconstructor
p2
(cdeap.tools.support
Logbook
p3
c__builtin__
list
p4
(lp5
(dp6
S'hv|spread|igd|frontier#|valid#'
p7
(F0.109
F0.744
F0.036
I10
I15
tp8
sS'timestamp'
p9
F0.05760478973388672
sS'evals'
p10
I100
sS'gen'
p11
I0
sa(dp12
g7
(F0.198
F0.552
F0.031
I98
I100
tp13
sg9
F9.305986881256104
sg10
I100
sg11
I100
sa(dp14
g7
(F0.201
F0.59
F0.031
I97
I100
tp15
sg9
F18.155894994735718
sg10
I100
sg11
I200
sa(dp16
g7
(F0.205
F0.571
F0.03
I97
I100
tp17
sg9
F27.040761947631836
sg10
I100
sg11
I300
sa(dp18
g7
(F0.208
F0.563
F0.032
I97
I100
tp19
sg9
F36.28761887550354
sg10
I100
sg11
I400
sa(dp20
g7
(F0.206
F0.598
F0.033
I96
I100
tp21
sg9
F45.43491196632385
sg10
I100
sg11
I500
satp22
Rp23
(dp24
S'log_header'
p25
I01
sS'header'
p26
(S'gen'
p27
S'evals'
p28
S'hv|spread|igd|frontier#|valid#'
p29
S'timestamp'
p30
tp31
sS'columns_len'
p32
(lp33
I3
aI5
aI30
aI9
asS'buffindex'
p34
I6
sS'chapters'
p35
ccollections
defaultdict
p36
(g3
tp37
Rp38
sbsS'SPEA2-SIP'
p39
g2
(g3
g4
(lp40
(dp41
g7
(F0.124
F0.805
F0.038
I18
I22
tp42
sg9
F0.08590102195739746
sg10
I100
sg11
I0
sa(dp43
g7
(F0.199
F0.627
F0.033
I100
I100
tp44
sg9
F79.94497990608215
sg10
I100
sg11
I100
sa(dp45
g7
(F0.203
F0.622
F0.034
I100
I100
tp46
sg9
F168.35606002807617
sg10
I100
sg11
I200
sa(dp47
g7
(F0.206
F0.572
F0.035
I100
I100
tp48
sg9
F257.00361490249634
sg10
I100
sg11
I300
sa(dp49
g7
(F0.206
F0.585
F0.037
I100
I100
tp50
sg9
F344.4338550567627
sg10
I100
sg11
I400
sa(dp51
g7
(F0.207
F0.622
F0.036
I100
I100
tp52
sg9
F431.7938439846039
sg10
I100
sg11
I500
satp53
Rp54
(dp55
g25
I01
sg26
g31
sg32
(lp56
I3
aI5
aI31
aI9
asg34
I6
sg35
g36
(g3
tp57
Rp58
sbsS'SPEA2'
p59
g2
(g3
g4
(lp60
(dp61
g7
(I0
I0
I0
I0
I0
tp62
sg9
F0.03354787826538086
sg10
I100
sg11
I0
sa(dp63
g7
(F0.05
F1.46
F0.024
I1
I1
tp64
sg9
F102.48022484779358
sg10
I100
sg11
I100
sa(dp65
g7
g62
sg9
F228.48529601097107
sg10
I100
sg11
I200
sa(dp66
g7
g62
sg9
F355.55718183517456
sg10
I100
sg11
I300
sa(dp67
g7
g62
sg9
F488.42546701431274
sg10
I100
sg11
I400
sa(dp68
g7
g62
sg9
F618.8632209300995
sg10
I100
sg11
I500
satp69
Rp70
(dp71
g25
I01
sg26
g31
sg32
(lp72
I3
aI5
aI30
aI9
asg34
I6
sg35
g36
(g3
tp73
Rp74
sbsS'IBEA-PEN'
p75
g2
(g3
g4
(lp76
(dp77
g7
(F0.14
F0.676
F0.027
I25
I42
tp78
sg9
F0.14019393920898438
sg10
I100
sg11
I0
sa(dp79
g7
(F0.198
F0.652
F0.035
I58
I82
tp80
sg9
F9.760807991027832
sg10
I100
sg11
I100
sa(dp81
g7
(F0.192
F0.688
F0.042
I44
I80
tp82
sg9
F19.48836898803711
sg10
I100
sg11
I200
sa(dp83
g7
(F0.196
F0.67
F0.041
I48
I85
tp84
sg9
F29.309042930603027
sg10
I100
sg11
I300
sa(dp85
g7
(F0.189
F0.576
F0.041
I44
I85
tp86
sg9
F39.05128598213196
sg10
I100
sg11
I400
sa(dp87
g7
(F0.196
F0.639
F0.036
I50
I93
tp88
sg9
F48.78795886039734
sg10
I100
sg11
I500
satp89
Rp90
(dp91
g25
I01
sg26
g31
sg32
(lp92
I3
aI5
aI30
aI9
asg34
I6
sg35
g36
(g3
tp93
Rp94
sbsS'IBEA'
p95
g2
(g3
g4
(lp96
(dp97
g7
g62
sg9
F0.03328108787536621
sg10
I100
sg11
I0
sa(dp98
g7
g62
sg9
F7.818433046340942
sg10
I100
sg11
I100
sa(dp99
g7
g62
sg9
F15.531083106994629
sg10
I100
sg11
I200
sa(dp100
g7
g62
sg9
F23.462207078933716
sg10
I100
sg11
I300
sa(dp101
g7
g62
sg9
F31.416874170303345
sg10
I100
sg11
I400
sa(dp102
g7
g62
sg9
F39.283645153045654
sg10
I100
sg11
I500
satp103
Rp104
(dp105
g25
I01
sg26
g31
sg32
(lp106
I3
aI5
aI30
aI9
asg34
I6
sg35
g36
(g3
tp107
Rp108
sbsS'NSGA2'
p109
g2
(g3
g4
(lp110
(dp111
g7
(F0.057
F1.18
F0.042
I1
I1
tp112
sg9
F0.03710484504699707
sg10
I100
sg11
I0
sa(dp113
g7
g62
sg9
F10.58504581451416
sg10
I100
sg11
I100
sa(dp114
g7
g62
sg9
F21.03065800666809
sg10
I100
sg11
I200
sa(dp115
g7
g62
sg9
F31.515148878097534
sg10
I100
sg11
I300
sa(dp116
g7
g62
sg9
F41.97595500946045
sg10
I100
sg11
I400
sa(dp117
g7
g62
sg9
F52.4624969959259
sg10
I100
sg11
I500
satp118
Rp119
(dp120
g25
I01
sg26
g31
sg32
(lp121
I3
aI5
aI30
aI9
asg34
I6
sg35
g36
(g3
tp122
Rp123
sbsS'IBEA-SIP'
p124
g2
(g3
g4
(lp125
(dp126
g7
(F0.122
F0.728
F0.039
I15
I25
tp127
sg9
F0.07675504684448242
sg10
I100
sg11
I0
sa(dp128
g7
(F0.192
F0.726
F0.038
I60
I100
tp129
sg9
F7.492466926574707
sg10
I100
sg11
I100
sa(dp130
g7
(F0.204
F0.634
F0.039
I66
I100
tp131
sg9
F14.895129919052124
sg10
I100
sg11
I200
sa(dp132
g7
(F0.204
F0.725
F0.035
I69
I100
tp133
sg9
F22.274292945861816
sg10
I100
sg11
I300
sa(dp134
g7
(F0.201
F0.686
F0.035
I59
I100
tp135
sg9
F29.675091981887817
sg10
I100
sg11
I400
sa(dp136
g7
(F0.196
F0.698
F0.04
I69
I100
tp137
sg9
F37.10989999771118
sg10
I100
sg11
I500
satp138
Rp139
(dp140
g25
I01
sg26
g31
sg32
(lp141
I3
aI5
aI30
aI9
asg34
I6
sg35
g36
(g3
tp142
Rp143
sbs.