(dp0
S'NSGA2-SIP'
p1
ccopy_reg
_reconstructor
p2
(cdeap.tools.support
Logbook
p3
c__builtin__
list
p4
(lp5
(dp6
S'hv|spread|igd|frontier#|valid#'
p7
(F0.114
F0.879
F0.037
I11
I20
tp8
sS'timestamp'
p9
F0.062277793884277344
sS'evals'
p10
I100
sS'gen'
p11
I0
sa(dp12
g7
(F0.201
F0.602
F0.029
I98
I100
tp13
sg9
F8.573434829711914
sg10
I100
sg11
I100
sa(dp14
g7
(F0.201
F0.587
F0.03
I97
I100
tp15
sg9
F16.93912100791931
sg10
I100
sg11
I200
sa(dp16
g7
(F0.204
F0.617
F0.031
I96
I100
tp17
sg9
F25.251194953918457
sg10
I100
sg11
I300
sa(dp18
g7
(F0.206
F0.559
F0.032
I99
I100
tp19
sg9
F33.55238699913025
sg10
I100
sg11
I400
sa(dp20
g7
(F0.206
F0.587
F0.034
I97
I100
tp21
sg9
F41.95417594909668
sg10
I100
sg11
I500
satp22
Rp23
(dp24
S'log_header'
p25
I01
sS'header'
p26
(S'gen'
p27
S'evals'
p28
S'hv|spread|igd|frontier#|valid#'
p29
S'timestamp'
p30
tp31
sS'columns_len'
p32
(lp33
I3
aI5
aI30
aI9
asS'buffindex'
p34
I6
sS'chapters'
p35
ccollections
defaultdict
p36
(g3
tp37
Rp38
sbsS'SPEA2-SIP'
p39
g2
(g3
g4
(lp40
(dp41
g7
(F0.102
F0.727
F0.035
I10
I15
tp42
sg9
F0.07710099220275879
sg10
I100
sg11
I0
sa(dp43
g7
(F0.198
F0.566
F0.034
I100
I100
tp44
sg9
F73.87349390983582
sg10
I100
sg11
I100
sa(dp45
g7
(F0.202
F0.61
F0.034
I100
I100
tp46
sg9
F154.7268328666687
sg10
I100
sg11
I200
sa(dp47
g7
(F0.203
F0.553
F0.034
I100
I100
tp48
sg9
F233.85541486740112
sg10
I100
sg11
I300
sa(dp49
g7
(F0.205
F0.643
F0.036
I100
I100
tp50
sg9
F312.00265288352966
sg10
I100
sg11
I400
sa(dp51
g7
(F0.209
F0.63
F0.037
I100
I100
tp52
sg9
F389.7212929725647
sg10
I100
sg11
I500
satp53
Rp54
(dp55
g25
I01
sg26
g31
sg32
(lp56
I3
aI5
aI31
aI9
asg34
I6
sg35
g36
(g3
tp57
Rp58
sbsS'SPEA2'
p59
g2
(g3
g4
(lp60
(dp61
g7
(F0.055
F1.06
F0.054
I1
I1
tp62
sg9
F0.0377500057220459
sg10
I100
sg11
I0
sa(dp63
g7
(I0
I0
I0
I0
I0
tp64
sg9
F100.95285415649414
sg10
I100
sg11
I100
sa(dp65
g7
g64
sg9
F219.68922114372253
sg10
I100
sg11
I200
sa(dp66
g7
g64
sg9
F336.52832412719727
sg10
I100
sg11
I300
sa(dp67
g7
(F0.064
F1.02
F0.044
I1
I1
tp68
sg9
F452.3035180568695
sg10
I100
sg11
I400
sa(dp69
g7
(F0.064
F1.02
F0.044
I1
I1
tp70
sg9
F569.5658781528473
sg10
I100
sg11
I500
satp71
Rp72
(dp73
g25
I01
sg26
g31
sg32
(lp74
I3
aI5
aI30
aI9
asg34
I6
sg35
g36
(g3
tp75
Rp76
sbsS'IBEA-PEN'
p77
g2
(g3
g4
(lp78
(dp79
g7
(F0.13
F0.677
F0.026
I30
I45
tp80
sg9
F0.17286109924316406
sg10
I100
sg11
I0
sa(dp81
g7
(F0.071
F0.78
F0.044
I1
I1
tp82
sg9
F7.528455972671509
sg10
I100
sg11
I100
sa(dp83
g7
g64
sg9
F14.717396974563599
sg10
I100
sg11
I200
sa(dp84
g7
g64
sg9
F21.893784999847412
sg10
I100
sg11
I300
sa(dp85
g7
g64
sg9
F29.092190980911255
sg10
I100
sg11
I400
sa(dp86
g7
(F0.082
F1.3
F0.042
I1
I1
tp87
sg9
F36.30446410179138
sg10
I100
sg11
I500
satp88
Rp89
(dp90
g25
I01
sg26
g31
sg32
(lp91
I3
aI5
aI30
aI9
asg34
I6
sg35
g36
(g3
tp92
Rp93
sbsS'IBEA'
p94
g2
(g3
g4
(lp95
(dp96
g7
(F0.061
F0.82
F0.036
I1
I1
tp97
sg9
F0.03706789016723633
sg10
I100
sg11
I0
sa(dp98
g7
(F0.042
F1.56
F0.058
I1
I1
tp99
sg9
F7.250405788421631
sg10
I100
sg11
I100
sa(dp100
g7
g64
sg9
F14.379342794418335
sg10
I100
sg11
I200
sa(dp101
g7
(F0.069
F1.38
F0.041
I1
I1
tp102
sg9
F21.520864009857178
sg10
I100
sg11
I300
sa(dp103
g7
(F0.063
F1.46
F0.067
I1
I1
tp104
sg9
F28.595155000686646
sg10
I100
sg11
I400
sa(dp105
g7
(F0.063
F1.46
F0.067
I1
I1
tp106
sg9
F35.661996841430664
sg10
I100
sg11
I500
satp107
Rp108
(dp109
g25
I01
sg26
g31
sg32
(lp110
I3
aI5
aI30
aI9
asg34
I6
sg35
g36
(g3
tp111
Rp112
sbsS'NSGA2'
p113
g2
(g3
g4
(lp114
(dp115
g7
g64
sg9
F0.0337071418762207
sg10
I100
sg11
I0
sa(dp116
g7
g64
sg9
F9.698273181915283
sg10
I100
sg11
I100
sa(dp117
g7
g64
sg9
F19.063786029815674
sg10
I100
sg11
I200
sa(dp118
g7
g64
sg9
F28.496865034103394
sg10
I100
sg11
I300
sa(dp119
g7
g64
sg9
F37.91725420951843
sg10
I100
sg11
I400
sa(dp120
g7
g64
sg9
F47.36403298377991
sg10
I100
sg11
I500
satp121
Rp122
(dp123
g25
I01
sg26
g31
sg32
(lp124
I3
aI5
aI30
aI9
asg34
I6
sg35
g36
(g3
tp125
Rp126
sbsS'IBEA-SIP'
p127
g2
(g3
g4
(lp128
(dp129
g7
(F0.123
F0.746
F0.032
I15
I20
tp130
sg9
F0.07602405548095703
sg10
I100
sg11
I0
sa(dp131
g7
(F0.197
F0.707
F0.033
I69
I100
tp132
sg9
F6.919250011444092
sg10
I100
sg11
I100
sa(dp133
g7
(F0.2
F0.619
F0.036
I68
I100
tp134
sg9
F13.651227951049805
sg10
I100
sg11
I200
sa(dp135
g7
(F0.197
F0.68
F0.033
I69
I100
tp136
sg9
F20.31769108772278
sg10
I100
sg11
I300
sa(dp137
g7
(F0.202
F0.707
F0.038
I65
I100
tp138
sg9
F27.09727692604065
sg10
I100
sg11
I400
sa(dp139
g7
(F0.202
F0.62
F0.037
I70
I100
tp140
sg9
F33.79375696182251
sg10
I100
sg11
I500
satp141
Rp142
(dp143
g25
I01
sg26
g31
sg32
(lp144
I3
aI5
aI30
aI9
asg34
I6
sg35
g36
(g3
tp145
Rp146
sbs.