(dp0
S'NSGA2-SIP'
p1
ccopy_reg
_reconstructor
p2
(cdeap.tools.support
Logbook
p3
c__builtin__
list
p4
(lp5
(dp6
S'hv|spread|igd|frontier#|valid#'
p7
(F0.117
F0.847
F0.032
I13
I19
tp8
sS'timestamp'
p9
F0.06909394264221191
sS'evals'
p10
I100
sS'gen'
p11
I0
sa(dp12
g7
(F0.198
F0.622
F0.03
I99
I100
tp13
sg9
F9.357709884643555
sg10
I100
sg11
I100
sa(dp14
g7
(F0.2
F0.648
F0.031
I98
I100
tp15
sg9
F18.66124987602234
sg10
I100
sg11
I200
sa(dp16
g7
(F0.203
F0.566
F0.031
I98
I100
tp17
sg9
F28.02347993850708
sg10
I100
sg11
I300
sa(dp18
g7
(F0.205
F0.553
F0.032
I96
I100
tp19
sg9
F37.23121094703674
sg10
I100
sg11
I400
sa(dp20
g7
(F0.205
F0.551
F0.032
I96
I100
tp21
sg9
F46.36754298210144
sg10
I100
sg11
I500
satp22
Rp23
(dp24
S'log_header'
p25
I01
sS'header'
p26
(S'gen'
p27
S'evals'
p28
S'hv|spread|igd|frontier#|valid#'
p29
S'timestamp'
p30
tp31
sS'columns_len'
p32
(lp33
I3
aI5
aI30
aI9
asS'buffindex'
p34
I6
sS'chapters'
p35
ccollections
defaultdict
p36
(g3
tp37
Rp38
sbsS'SPEA2-SIP'
p39
g2
(g3
g4
(lp40
(dp41
g7
(F0.134
F0.747
F0.028
I18
I26
tp42
sg9
F0.11637997627258301
sg10
I100
sg11
I0
sa(dp43
g7
(F0.202
F0.579
F0.033
I100
I100
tp44
sg9
F76.88555097579956
sg10
I100
sg11
I100
sa(dp45
g7
(F0.203
F0.625
F0.034
I100
I100
tp46
sg9
F163.86921191215515
sg10
I100
sg11
I200
sa(dp47
g7
(F0.207
F0.608
F0.034
I100
I100
tp48
sg9
F250.53932285308838
sg10
I100
sg11
I300
sa(dp49
g7
(F0.209
F0.609
F0.036
I100
I100
tp50
sg9
F340.8001229763031
sg10
I100
sg11
I400
sa(dp51
g7
(F0.209
F0.636
F0.037
I100
I100
tp52
sg9
F429.8100519180298
sg10
I100
sg11
I500
satp53
Rp54
(dp55
g25
I01
sg26
g31
sg32
(lp56
I3
aI5
aI31
aI9
asg34
I6
sg35
g36
(g3
tp57
Rp58
sbsS'SPEA2'
p59
g2
(g3
g4
(lp60
(dp61
g7
(I0
I0
I0
I0
I0
tp62
sg9
F0.03485703468322754
sg10
I100
sg11
I0
sa(dp63
g7
g62
sg9
F109.76391792297363
sg10
I100
sg11
I100
sa(dp64
g7
g62
sg9
F237.4814579486847
sg10
I100
sg11
I200
sa(dp65
g7
g62
sg9
F361.9496419429779
sg10
I100
sg11
I300
sa(dp66
g7
g62
sg9
F481.61028599739075
sg10
I100
sg11
I400
sa(dp67
g7
(F0.064
F1.38
F0.042
I1
I1
tp68
sg9
F605.2608079910278
sg10
I100
sg11
I500
satp69
Rp70
(dp71
g25
I01
sg26
g31
sg32
(lp72
I3
aI5
aI30
aI9
asg34
I6
sg35
g36
(g3
tp73
Rp74
sbsS'IBEA-PEN'
p75
g2
(g3
g4
(lp76
(dp77
g7
(F0.151
F0.843
F0.025
I29
I45
tp78
sg9
F0.15982604026794434
sg10
I100
sg11
I0
sa(dp79
g7
(F0.196
F0.604
F0.033
I50
I82
tp80
sg9
F9.861872911453247
sg10
I100
sg11
I100
sa(dp81
g7
(F0.195
F0.749
F0.034
I54
I81
tp82
sg9
F19.68111491203308
sg10
I100
sg11
I200
sa(dp83
g7
(F0.192
F0.568
F0.042
I38
I77
tp84
sg9
F29.41931986808777
sg10
I100
sg11
I300
sa(dp85
g7
(F0.196
F0.662
F0.03
I53
I83
tp86
sg9
F39.254040002822876
sg10
I100
sg11
I400
sa(dp87
g7
(F0.199
F0.596
F0.041
I57
I81
tp88
sg9
F49.12430000305176
sg10
I100
sg11
I500
satp89
Rp90
(dp91
g25
I01
sg26
g31
sg32
(lp92
I3
aI5
aI30
aI9
asg34
I6
sg35
g36
(g3
tp93
Rp94
sbsS'IBEA'
p95
g2
(g3
g4
(lp96
(dp97
g7
g62
sg9
F0.03396487236022949
sg10
I100
sg11
I0
sa(dp98
g7
(F0.076
F0.86
F0.042
I1
I1
tp99
sg9
F7.901519060134888
sg10
I100
sg11
I100
sa(dp100
g7
(F0.069
F2.43
F0.088
I1
I1
tp101
sg9
F15.817308902740479
sg10
I100
sg11
I200
sa(dp102
g7
g62
sg9
F23.741325855255127
sg10
I100
sg11
I300
sa(dp103
g7
(F0.082
F1.18
F0.097
I1
I1
tp104
sg9
F31.670069932937622
sg10
I100
sg11
I400
sa(dp105
g7
g62
sg9
F39.604665994644165
sg10
I100
sg11
I500
satp106
Rp107
(dp108
g25
I01
sg26
g31
sg32
(lp109
I3
aI5
aI30
aI9
asg34
I6
sg35
g36
(g3
tp110
Rp111
sbsS'NSGA2'
p112
g2
(g3
g4
(lp113
(dp114
g7
g62
sg9
F0.03432297706604004
sg10
I100
sg11
I0
sa(dp115
g7
g62
sg9
F10.650810956954956
sg10
I100
sg11
I100
sa(dp116
g7
g62
sg9
F21.226881980895996
sg10
I100
sg11
I200
sa(dp117
g7
g62
sg9
F31.899170875549316
sg10
I100
sg11
I300
sa(dp118
g7
g62
sg9
F42.45289587974548
sg10
I100
sg11
I400
sa(dp119
g7
g62
sg9
F53.05761504173279
sg10
I100
sg11
I500
satp120
Rp121
(dp122
g25
I01
sg26
g31
sg32
(lp123
I3
aI5
aI30
aI9
asg34
I6
sg35
g36
(g3
tp124
Rp125
sbsS'IBEA-SIP'
p126
g2
(g3
g4
(lp127
(dp128
g7
(F0.121
F0.668
F0.037
I16
I24
tp129
sg9
F0.0808877944946289
sg10
I100
sg11
I0
sa(dp130
g7
(F0.201
F0.599
F0.034
I72
I100
tp131
sg9
F7.562665939331055
sg10
I100
sg11
I100
sa(dp132
g7
(F0.197
F0.703
F0.036
I63
I100
tp133
sg9
F15.061255931854248
sg10
I100
sg11
I200
sa(dp134
g7
(F0.203
F0.648
F0.038
I70
I100
tp135
sg9
F22.537519931793213
sg10
I100
sg11
I300
sa(dp136
g7
(F0.198
F0.685
F0.036
I65
I100
tp137
sg9
F29.956812858581543
sg10
I100
sg11
I400
sa(dp138
g7
(F0.201
F0.569
F0.036
I68
I100
tp139
sg9
F37.417032957077026
sg10
I100
sg11
I500
satp140
Rp141
(dp142
g25
I01
sg26
g31
sg32
(lp143
I3
aI5
aI30
aI9
asg34
I6
sg35
g36
(g3
tp144
Rp145
sbs.