(dp0
S'NSGA2-SIP'
p1
ccopy_reg
_reconstructor
p2
(cdeap.tools.support
Logbook
p3
c__builtin__
list
p4
(lp5
(dp6
S'hv|spread|igd|frontier#|valid#'
p7
(F0.135
F0.769
F0.037
I18
I24
tp8
sS'timestamp'
p9
F0.08913683891296387
sS'evals'
p10
I100
sS'gen'
p11
I0
sa(dp12
g7
(F0.198
F0.54
F0.031
I97
I100
tp13
sg9
F9.77375602722168
sg10
I100
sg11
I100
sa(dp14
g7
(F0.203
F0.55
F0.03
I97
I100
tp15
sg9
F19.275207996368408
sg10
I100
sg11
I200
sa(dp16
g7
(F0.205
F0.589
F0.032
I98
I100
tp17
sg9
F28.670006036758423
sg10
I100
sg11
I300
sa(dp18
g7
(F0.204
F0.668
F0.031
I97
I100
tp19
sg9
F38.043134927749634
sg10
I100
sg11
I400
sa(dp20
g7
(F0.203
F0.561
F0.031
I99
I100
tp21
sg9
F47.585124015808105
sg10
I100
sg11
I500
satp22
Rp23
(dp24
S'log_header'
p25
I01
sS'header'
p26
(S'gen'
p27
S'evals'
p28
S'hv|spread|igd|frontier#|valid#'
p29
S'timestamp'
p30
tp31
sS'columns_len'
p32
(lp33
I3
aI5
aI30
aI9
asS'buffindex'
p34
I6
sS'chapters'
p35
ccollections
defaultdict
p36
(g3
tp37
Rp38
sbsS'SPEA2-SIP'
p39
g2
(g3
g4
(lp40
(dp41
g7
(F0.122
F0.763
F0.027
I13
I23
tp42
sg9
F0.07052397727966309
sg10
I100
sg11
I0
sa(dp43
g7
(F0.202
F0.643
F0.034
I100
I100
tp44
sg9
F85.70740294456482
sg10
I100
sg11
I100
sa(dp45
g7
(F0.204
F0.584
F0.035
I100
I100
tp46
sg9
F174.02602791786194
sg10
I100
sg11
I200
sa(dp47
g7
(F0.204
F0.695
F0.034
I100
I100
tp48
sg9
F263.14192295074463
sg10
I100
sg11
I300
sa(dp49
g7
(F0.206
F0.658
F0.035
I100
I100
tp50
sg9
F350.70651507377625
sg10
I100
sg11
I400
sa(dp51
g7
(F0.207
F0.64
F0.036
I100
I100
tp52
sg9
F442.4542090892792
sg10
I100
sg11
I500
satp53
Rp54
(dp55
g25
I01
sg26
g31
sg32
(lp56
I3
aI5
aI31
aI9
asg34
I6
sg35
g36
(g3
tp57
Rp58
sbsS'SPEA2'
p59
g2
(g3
g4
(lp60
(dp61
g7
(F0.06
F1.14
F0.024
I1
I1
tp62
sg9
F0.03790998458862305
sg10
I100
sg11
I0
sa(dp63
g7
(I0
I0
I0
I0
I0
tp64
sg9
F109.67841720581055
sg10
I100
sg11
I100
sa(dp65
g7
g64
sg9
F235.83910298347473
sg10
I100
sg11
I200
sa(dp66
g7
g64
sg9
F361.17750215530396
sg10
I100
sg11
I300
sa(dp67
g7
g64
sg9
F490.6689410209656
sg10
I100
sg11
I400
sa(dp68
g7
g64
sg9
F614.3047080039978
sg10
I100
sg11
I500
satp69
Rp70
(dp71
g25
I01
sg26
g31
sg32
(lp72
I3
aI5
aI30
aI9
asg34
I6
sg35
g36
(g3
tp73
Rp74
sbsS'IBEA-PEN'
p75
g2
(g3
g4
(lp76
(dp77
g7
(F0.119
F0.666
F0.026
I23
I43
tp78
sg9
F0.1383838653564453
sg10
I100
sg11
I0
sa(dp79
g7
(F0.193
F0.686
F0.029
I52
I90
tp80
sg9
F10.146628856658936
sg10
I100
sg11
I100
sa(dp81
g7
(F0.19
F0.641
F0.038
I43
I84
tp82
sg9
F20.234280824661255
sg10
I100
sg11
I200
sa(dp83
g7
(F0.2
F0.718
F0.035
I58
I92
tp84
sg9
F30.452866792678833
sg10
I100
sg11
I300
sa(dp85
g7
(F0.194
F0.681
F0.035
I54
I82
tp86
sg9
F40.56441879272461
sg10
I100
sg11
I400
sa(dp87
g7
(F0.197
F0.638
F0.037
I48
I87
tp88
sg9
F50.70605492591858
sg10
I100
sg11
I500
satp89
Rp90
(dp91
g25
I01
sg26
g31
sg32
(lp92
I3
aI5
aI30
aI9
asg34
I6
sg35
g36
(g3
tp93
Rp94
sbsS'IBEA'
p95
g2
(g3
g4
(lp96
(dp97
g7
g64
sg9
F0.03451704978942871
sg10
I100
sg11
I0
sa(dp98
g7
g64
sg9
F8.248955011367798
sg10
I100
sg11
I100
sa(dp99
g7
g64
sg9
F16.508856058120728
sg10
I100
sg11
I200
sa(dp100
g7
g64
sg9
F24.769943952560425
sg10
I100
sg11
I300
sa(dp101
g7
g64
sg9
F33.04187798500061
sg10
I100
sg11
I400
sa(dp102
g7
(F0.049
F1.56
F0.042
I1
I1
tp103
sg9
F41.355507135391235
sg10
I100
sg11
I500
satp104
Rp105
(dp106
g25
I01
sg26
g31
sg32
(lp107
I3
aI5
aI30
aI9
asg34
I6
sg35
g36
(g3
tp108
Rp109
sbsS'NSGA2'
p110
g2
(g3
g4
(lp111
(dp112
g7
g64
sg9
F0.03595089912414551
sg10
I100
sg11
I0
sa(dp113
g7
g64
sg9
F11.08382797241211
sg10
I100
sg11
I100
sa(dp114
g7
g64
sg9
F22.105610847473145
sg10
I100
sg11
I200
sa(dp115
g7
g64
sg9
F33.08390688896179
sg10
I100
sg11
I300
sa(dp116
g7
(F0.076
F1.18
F0.022
I1
I1
tp117
sg9
F44.01831388473511
sg10
I100
sg11
I400
sa(dp118
g7
g64
sg9
F54.930420875549316
sg10
I100
sg11
I500
satp119
Rp120
(dp121
g25
I01
sg26
g31
sg32
(lp122
I3
aI5
aI30
aI9
asg34
I6
sg35
g36
(g3
tp123
Rp124
sbsS'IBEA-SIP'
p125
g2
(g3
g4
(lp126
(dp127
g7
(F0.127
F0.808
F0.036
I12
I13
tp128
sg9
F0.0650019645690918
sg10
I100
sg11
I0
sa(dp129
g7
(F0.197
F0.621
F0.033
I64
I100
tp130
sg9
F7.719642877578735
sg10
I100
sg11
I100
sa(dp131
g7
(F0.2
F0.597
F0.034
I70
I100
tp132
sg9
F15.436661958694458
sg10
I100
sg11
I200
sa(dp133
g7
(F0.198
F0.611
F0.037
I62
I100
tp134
sg9
F23.220263957977295
sg10
I100
sg11
I300
sa(dp135
g7
(F0.201
F0.68
F0.038
I64
I100
tp136
sg9
F30.8796808719635
sg10
I100
sg11
I400
sa(dp137
g7
(F0.203
F0.684
F0.037
I68
I100
tp138
sg9
F38.68275785446167
sg10
I100
sg11
I500
satp139
Rp140
(dp141
g25
I01
sg26
g31
sg32
(lp142
I3
aI5
aI30
aI9
asg34
I6
sg35
g36
(g3
tp143
Rp144
sbs.