(dp0
S'NSGA2-SIP'
p1
ccopy_reg
_reconstructor
p2
(cdeap.tools.support
Logbook
p3
c__builtin__
list
p4
(lp5
(dp6
S'hv|spread|igd|frontier#|valid#'
p7
(F0.106
F0.941
F0.033
I10
I18
tp8
sS'timestamp'
p9
F0.06525588035583496
sS'evals'
p10
I100
sS'gen'
p11
I0
sa(dp12
g7
(F0.201
F0.624
F0.031
I98
I100
tp13
sg9
F10.466489791870117
sg10
I100
sg11
I100
sa(dp14
g7
(F0.204
F0.543
F0.03
I98
I100
tp15
sg9
F20.789687871932983
sg10
I100
sg11
I200
sa(dp16
g7
(F0.204
F0.699
F0.031
I99
I100
tp17
sg9
F31.320189952850342
sg10
I100
sg11
I300
sa(dp18
g7
(F0.205
F0.586
F0.031
I96
I100
tp19
sg9
F41.767112016677856
sg10
I100
sg11
I400
sa(dp20
g7
(F0.204
F0.511
F0.031
I99
I100
tp21
sg9
F52.106151819229126
sg10
I100
sg11
I500
satp22
Rp23
(dp24
S'log_header'
p25
I01
sS'header'
p26
(S'gen'
p27
S'evals'
p28
S'hv|spread|igd|frontier#|valid#'
p29
S'timestamp'
p30
tp31
sS'columns_len'
p32
(lp33
I3
aI5
aI30
aI9
asS'buffindex'
p34
I6
sS'chapters'
p35
ccollections
defaultdict
p36
(g3
tp37
Rp38
sbsS'SPEA2-SIP'
p39
g2
(g3
g4
(lp40
(dp41
g7
(F0.124
F0.794
F0.034
I16
I24
tp42
sg9
F0.08832097053527832
sg10
I100
sg11
I0
sa(dp43
g7
(F0.193
F0.612
F0.032
I100
I100
tp44
sg9
F87.53835606575012
sg10
I100
sg11
I100
sa(dp45
g7
(F0.198
F0.6
F0.033
I100
I100
tp46
sg9
F181.2215859889984
sg10
I100
sg11
I200
sa(dp47
g7
(F0.199
F0.63
F0.033
I100
I100
tp48
sg9
F273.0742630958557
sg10
I100
sg11
I300
sa(dp49
g7
(F0.202
F0.571
F0.034
I100
I100
tp50
sg9
F365.78749895095825
sg10
I100
sg11
I400
sa(dp51
g7
(F0.203
F0.574
F0.034
I100
I100
tp52
sg9
F457.6784191131592
sg10
I100
sg11
I500
satp53
Rp54
(dp55
g25
I01
sg26
g31
sg32
(lp56
I3
aI5
aI31
aI9
asg34
I6
sg35
g36
(g3
tp57
Rp58
sbsS'SPEA2'
p59
g2
(g3
g4
(lp60
(dp61
g7
(F0.055
F1.22
F0.03
I1
I1
tp62
sg9
F0.04228496551513672
sg10
I100
sg11
I0
sa(dp63
g7
(I0
I0
I0
I0
I0
tp64
sg9
F116.36281394958496
sg10
I100
sg11
I100
sa(dp65
g7
g64
sg9
F244.25968098640442
sg10
I100
sg11
I200
sa(dp66
g7
g64
sg9
F381.5812997817993
sg10
I100
sg11
I300
sa(dp67
g7
(F0.057
F1.38
F0.03
I1
I1
tp68
sg9
F515.8105177879333
sg10
I100
sg11
I400
sa(dp69
g7
g64
sg9
F648.0464169979095
sg10
I100
sg11
I500
satp70
Rp71
(dp72
g25
I01
sg26
g31
sg32
(lp73
I3
aI5
aI30
aI9
asg34
I6
sg35
g36
(g3
tp74
Rp75
sbsS'IBEA-PEN'
p76
g2
(g3
g4
(lp77
(dp78
g7
(F0.137
F0.683
F0.035
I28
I40
tp79
sg9
F0.18097996711730957
sg10
I100
sg11
I0
sa(dp80
g7
(F0.063
F1.42
F0.058
I1
I1
tp81
sg9
F8.599824905395508
sg10
I100
sg11
I100
sa(dp82
g7
g64
sg9
F17.043882846832275
sg10
I100
sg11
I200
sa(dp83
g7
g64
sg9
F25.51802682876587
sg10
I100
sg11
I300
sa(dp84
g7
g64
sg9
F33.98983097076416
sg10
I100
sg11
I400
sa(dp85
g7
g64
sg9
F42.44543981552124
sg10
I100
sg11
I500
satp86
Rp87
(dp88
g25
I01
sg26
g31
sg32
(lp89
I3
aI5
aI30
aI9
asg34
I6
sg35
g36
(g3
tp90
Rp91
sbsS'IBEA'
p92
g2
(g3
g4
(lp93
(dp94
g7
(F0.055
F0.98
F0.054
I1
I1
tp95
sg9
F0.04172015190124512
sg10
I100
sg11
I0
sa(dp96
g7
(F0.09
F0.98
F0.062
I1
I1
tp97
sg9
F8.284815073013306
sg10
I100
sg11
I100
sa(dp98
g7
g64
sg9
F16.62447500228882
sg10
I100
sg11
I200
sa(dp99
g7
g64
sg9
F24.953750133514404
sg10
I100
sg11
I300
sa(dp100
g7
(F0.087
F1.26
F0.078
I1
I1
tp101
sg9
F33.28372812271118
sg10
I100
sg11
I400
sa(dp102
g7
(F0.06
F2.453
F0.039
I1
I1
tp103
sg9
F41.64797306060791
sg10
I100
sg11
I500
satp104
Rp105
(dp106
g25
I01
sg26
g31
sg32
(lp107
I3
aI5
aI30
aI9
asg34
I6
sg35
g36
(g3
tp108
Rp109
sbsS'NSGA2'
p110
g2
(g3
g4
(lp111
(dp112
g7
g64
sg9
F0.03774094581604004
sg10
I100
sg11
I0
sa(dp113
g7
g64
sg9
F11.999047040939331
sg10
I100
sg11
I100
sa(dp114
g7
(F0.076
F1.22
F0.022
I1
I1
tp115
sg9
F23.91961097717285
sg10
I100
sg11
I200
sa(dp116
g7
g64
sg9
F35.79571509361267
sg10
I100
sg11
I300
sa(dp117
g7
g64
sg9
F47.68209791183472
sg10
I100
sg11
I400
sa(dp118
g7
g64
sg9
F59.539835929870605
sg10
I100
sg11
I500
satp119
Rp120
(dp121
g25
I01
sg26
g31
sg32
(lp122
I3
aI5
aI30
aI9
asg34
I6
sg35
g36
(g3
tp123
Rp124
sbsS'IBEA-SIP'
p125
g2
(g3
g4
(lp126
(dp127
g7
(F0.118
F0.877
F0.038
I16
I17
tp128
sg9
F0.08692193031311035
sg10
I100
sg11
I0
sa(dp129
g7
(F0.194
F0.683
F0.033
I65
I100
tp130
sg9
F7.778794050216675
sg10
I100
sg11
I100
sa(dp131
g7
(F0.205
F0.622
F0.036
I78
I100
tp132
sg9
F15.763226985931396
sg10
I100
sg11
I200
sa(dp133
g7
(F0.207
F0.706
F0.041
I68
I100
tp134
sg9
F23.759407997131348
sg10
I100
sg11
I300
sa(dp135
g7
(F0.202
F0.691
F0.04
I66
I100
tp136
sg9
F31.6706600189209
sg10
I100
sg11
I400
sa(dp137
g7
(F0.203
F0.711
F0.041
I67
I100
tp138
sg9
F39.59740900993347
sg10
I100
sg11
I500
satp139
Rp140
(dp141
g25
I01
sg26
g31
sg32
(lp142
I3
aI5
aI30
aI9
asg34
I6
sg35
g36
(g3
tp143
Rp144
sbs.