(dp0
S'NSGA2-SIP'
p1
ccopy_reg
_reconstructor
p2
(cdeap.tools.support
Logbook
p3
c__builtin__
list
p4
(lp5
(dp6
S'hv|spread|igd|frontier#|valid#'
p7
(F0.121
F0.804
F0.033
I14
I23
tp8
sS'timestamp'
p9
F0.07378506660461426
sS'evals'
p10
I100
sS'gen'
p11
I0
sa(dp12
g7
(F0.202
F0.57
F0.03
I95
I100
tp13
sg9
F9.363325119018555
sg10
I100
sg11
I100
sa(dp14
g7
(F0.202
F0.623
F0.03
I95
I100
tp15
sg9
F18.533236026763916
sg10
I100
sg11
I200
sa(dp16
g7
(F0.202
F0.694
F0.031
I95
I100
tp17
sg9
F27.778141021728516
sg10
I100
sg11
I300
sa(dp18
g7
(F0.204
F0.591
F0.032
I97
I100
tp19
sg9
F36.93840193748474
sg10
I100
sg11
I400
sa(dp20
g7
(F0.205
F0.631
F0.032
I99
I100
tp21
sg9
F46.2285521030426
sg10
I100
sg11
I500
satp22
Rp23
(dp24
S'log_header'
p25
I01
sS'header'
p26
(S'gen'
p27
S'evals'
p28
S'hv|spread|igd|frontier#|valid#'
p29
S'timestamp'
p30
tp31
sS'columns_len'
p32
(lp33
I3
aI5
aI30
aI9
asS'buffindex'
p34
I6
sS'chapters'
p35
ccollections
defaultdict
p36
(g3
tp37
Rp38
sbsS'SPEA2-SIP'
p39
g2
(g3
g4
(lp40
(dp41
g7
(F0.121
F0.765
F0.026
I12
I22
tp42
sg9
F0.06784701347351074
sg10
I100
sg11
I0
sa(dp43
g7
(F0.202
F0.638
F0.033
I100
I100
tp44
sg9
F86.68582510948181
sg10
I100
sg11
I100
sa(dp45
g7
(F0.206
F0.667
F0.035
I100
I100
tp46
sg9
F179.8869469165802
sg10
I100
sg11
I200
sa(dp47
g7
(F0.207
F0.61
F0.036
I100
I100
tp48
sg9
F271.90370988845825
sg10
I100
sg11
I300
sa(dp49
g7
(F0.21
F0.592
F0.036
I100
I100
tp50
sg9
F361.5063180923462
sg10
I100
sg11
I400
sa(dp51
g7
(F0.211
F0.638
F0.036
I100
I100
tp52
sg9
F452.1213729381561
sg10
I100
sg11
I500
satp53
Rp54
(dp55
g25
I01
sg26
g31
sg32
(lp56
I3
aI5
aI31
aI9
asg34
I6
sg35
g36
(g3
tp57
Rp58
sbsS'SPEA2'
p59
g2
(g3
g4
(lp60
(dp61
g7
(F0.055
F2.227
F0.036
I1
I1
tp62
sg9
F0.03862500190734863
sg10
I100
sg11
I0
sa(dp63
g7
(I0
I0
I0
I0
I0
tp64
sg9
F103.67776799201965
sg10
I100
sg11
I100
sa(dp65
g7
g64
sg9
F227.436176776886
sg10
I100
sg11
I200
sa(dp66
g7
g64
sg9
F354.764536857605
sg10
I100
sg11
I300
sa(dp67
g7
g64
sg9
F486.1497688293457
sg10
I100
sg11
I400
sa(dp68
g7
g64
sg9
F613.4247939586639
sg10
I100
sg11
I500
satp69
Rp70
(dp71
g25
I01
sg26
g31
sg32
(lp72
I3
aI5
aI30
aI9
asg34
I6
sg35
g36
(g3
tp73
Rp74
sbsS'IBEA-PEN'
p75
g2
(g3
g4
(lp76
(dp77
g7
(F0.13
F0.595
F0.025
I32
I44
tp78
sg9
F0.17566585540771484
sg10
I100
sg11
I0
sa(dp79
g7
(F0.197
F0.631
F0.032
I56
I89
tp80
sg9
F10.166323900222778
sg10
I100
sg11
I100
sa(dp81
g7
(F0.195
F0.662
F0.042
I54
I92
tp82
sg9
F20.13775396347046
sg10
I100
sg11
I200
sa(dp83
g7
(F0.198
F0.643
F0.04
I51
I82
tp84
sg9
F30.06876492500305
sg10
I100
sg11
I300
sa(dp85
g7
(F0.202
F0.638
F0.04
I52
I91
tp86
sg9
F40.00391697883606
sg10
I100
sg11
I400
sa(dp87
g7
(F0.201
F0.689
F0.033
I58
I91
tp88
sg9
F49.9678258895874
sg10
I100
sg11
I500
satp89
Rp90
(dp91
g25
I01
sg26
g31
sg32
(lp92
I3
aI5
aI30
aI9
asg34
I6
sg35
g36
(g3
tp93
Rp94
sbsS'IBEA'
p95
g2
(g3
g4
(lp96
(dp97
g7
g64
sg9
F0.055819034576416016
sg10
I100
sg11
I0
sa(dp98
g7
(F0.048
F1.6
F0.064
I1
I1
tp99
sg9
F8.063404083251953
sg10
I100
sg11
I100
sa(dp100
g7
g64
sg9
F16.12988805770874
sg10
I100
sg11
I200
sa(dp101
g7
g64
sg9
F24.218821048736572
sg10
I100
sg11
I300
sa(dp102
g7
g64
sg9
F32.317156076431274
sg10
I100
sg11
I400
sa(dp103
g7
g64
sg9
F40.50766110420227
sg10
I100
sg11
I500
satp104
Rp105
(dp106
g25
I01
sg26
g31
sg32
(lp107
I3
aI5
aI30
aI9
asg34
I6
sg35
g36
(g3
tp108
Rp109
sbsS'NSGA2'
p110
g2
(g3
g4
(lp111
(dp112
g7
g64
sg9
F0.034561872482299805
sg10
I100
sg11
I0
sa(dp113
g7
g64
sg9
F10.85464096069336
sg10
I100
sg11
I100
sa(dp114
g7
g64
sg9
F21.59823989868164
sg10
I100
sg11
I200
sa(dp115
g7
g64
sg9
F32.328404903411865
sg10
I100
sg11
I300
sa(dp116
g7
g64
sg9
F43.02030396461487
sg10
I100
sg11
I400
sa(dp117
g7
(F0.034
F1.68
F0.057
I1
I1
tp118
sg9
F53.6859929561615
sg10
I100
sg11
I500
satp119
Rp120
(dp121
g25
I01
sg26
g31
sg32
(lp122
I3
aI5
aI30
aI9
asg34
I6
sg35
g36
(g3
tp123
Rp124
sbsS'IBEA-SIP'
p125
g2
(g3
g4
(lp126
(dp127
g7
(F0.125
F0.789
F0.036
I16
I19
tp128
sg9
F0.07946896553039551
sg10
I100
sg11
I0
sa(dp129
g7
(F0.201
F0.627
F0.037
I69
I100
tp130
sg9
F7.610018014907837
sg10
I100
sg11
I100
sa(dp131
g7
(F0.201
F0.729
F0.037
I66
I100
tp132
sg9
F15.260260105133057
sg10
I100
sg11
I200
sa(dp133
g7
(F0.202
F0.623
F0.039
I67
I100
tp134
sg9
F22.928919076919556
sg10
I100
sg11
I300
sa(dp135
g7
(F0.197
F0.645
F0.036
I63
I100
tp136
sg9
F30.45559597015381
sg10
I100
sg11
I400
sa(dp137
g7
(F0.206
F0.605
F0.038
I74
I100
tp138
sg9
F38.155776023864746
sg10
I100
sg11
I500
satp139
Rp140
(dp141
g25
I01
sg26
g31
sg32
(lp142
I3
aI5
aI30
aI9
asg34
I6
sg35
g36
(g3
tp143
Rp144
sbs.