(dp0
S'NSGA2-SIP'
p1
ccopy_reg
_reconstructor
p2
(cdeap.tools.support
Logbook
p3
c__builtin__
list
p4
(lp5
(dp6
S'hv|spread|igd|frontier#|valid#'
p7
(F0.112
F0.949
F0.033
I12
I18
tp8
sS'timestamp'
p9
F0.05870699882507324
sS'evals'
p10
I100
sS'gen'
p11
I0
sa(dp12
g7
(F0.202
F0.673
F0.029
I98
I100
tp13
sg9
F8.415645122528076
sg10
I100
sg11
I100
sa(dp14
g7
(F0.205
F0.627
F0.033
I99
I100
tp15
sg9
F16.760878086090088
sg10
I100
sg11
I200
sa(dp16
g7
(F0.204
F0.622
F0.031
I98
I100
tp17
sg9
F25.08138608932495
sg10
I100
sg11
I300
sa(dp18
g7
(F0.208
F0.575
F0.033
I95
I100
tp19
sg9
F33.43418598175049
sg10
I100
sg11
I400
sa(dp20
g7
(F0.205
F0.611
F0.033
I99
I100
tp21
sg9
F41.82328009605408
sg10
I100
sg11
I500
satp22
Rp23
(dp24
S'log_header'
p25
I01
sS'header'
p26
(S'gen'
p27
S'evals'
p28
S'hv|spread|igd|frontier#|valid#'
p29
S'timestamp'
p30
tp31
sS'columns_len'
p32
(lp33
I3
aI5
aI30
aI9
asS'buffindex'
p34
I6
sS'chapters'
p35
ccollections
defaultdict
p36
(g3
tp37
Rp38
sbsS'SPEA2-SIP'
p39
g2
(g3
g4
(lp40
(dp41
g7
(F0.119
F0.77
F0.037
I14
I16
tp42
sg9
F0.06346893310546875
sg10
I100
sg11
I0
sa(dp43
g7
(F0.2
F0.636
F0.032
I100
I100
tp44
sg9
F71.03796601295471
sg10
I100
sg11
I100
sa(dp45
g7
(F0.205
F0.613
F0.034
I100
I100
tp46
sg9
F148.2332718372345
sg10
I100
sg11
I200
sa(dp47
g7
(F0.207
F0.623
F0.035
I100
I100
tp48
sg9
F224.4576380252838
sg10
I100
sg11
I300
sa(dp49
g7
(F0.207
F0.625
F0.036
I100
I100
tp50
sg9
F302.3726589679718
sg10
I100
sg11
I400
sa(dp51
g7
(F0.21
F0.621
F0.038
I100
I100
tp52
sg9
F379.11643385887146
sg10
I100
sg11
I500
satp53
Rp54
(dp55
g25
I01
sg26
g31
sg32
(lp56
I3
aI5
aI31
aI9
asg34
I6
sg35
g36
(g3
tp57
Rp58
sbsS'SPEA2'
p59
g2
(g3
g4
(lp60
(dp61
g7
(I0
I0
I0
I0
I0
tp62
sg9
F0.030896902084350586
sg10
I100
sg11
I0
sa(dp63
g7
g62
sg9
F90.59859585762024
sg10
I100
sg11
I100
sa(dp64
g7
g62
sg9
F203.19233798980713
sg10
I100
sg11
I200
sa(dp65
g7
g62
sg9
F316.9464678764343
sg10
I100
sg11
I300
sa(dp66
g7
g62
sg9
F430.6214189529419
sg10
I100
sg11
I400
sa(dp67
g7
g62
sg9
F540.5485978126526
sg10
I100
sg11
I500
satp68
Rp69
(dp70
g25
I01
sg26
g31
sg32
(lp71
I3
aI5
aI30
aI9
asg34
I6
sg35
g36
(g3
tp72
Rp73
sbsS'IBEA'
p74
g2
(g3
g4
(lp75
(dp76
g7
g62
sg9
F0.030344009399414062
sg10
I100
sg11
I0
sa(dp77
g7
g62
sg9
F7.183747053146362
sg10
I100
sg11
I100
sa(dp78
g7
g62
sg9
F14.384257078170776
sg10
I100
sg11
I200
sa(dp79
g7
g62
sg9
F21.531376123428345
sg10
I100
sg11
I300
sa(dp80
g7
g62
sg9
F28.634031057357788
sg10
I100
sg11
I400
sa(dp81
g7
(F0.12
F0.909
F0.071
I2
I2
tp82
sg9
F35.83363604545593
sg10
I100
sg11
I500
satp83
Rp84
(dp85
g25
I01
sg26
g31
sg32
(lp86
I3
aI5
aI30
aI9
asg34
I6
sg35
g36
(g3
tp87
Rp88
sbsS'NSGA2'
p89
g2
(g3
g4
(lp90
(dp91
g7
g62
sg9
F0.030833959579467773
sg10
I100
sg11
I0
sa(dp92
g7
g62
sg9
F9.559401988983154
sg10
I100
sg11
I100
sa(dp93
g7
(F0.075
F1.1
F0.02
I1
I1
tp94
sg9
F19.039802074432373
sg10
I100
sg11
I200
sa(dp95
g7
g62
sg9
F28.44672393798828
sg10
I100
sg11
I300
sa(dp96
g7
g62
sg9
F37.91626691818237
sg10
I100
sg11
I400
sa(dp97
g7
g62
sg9
F47.35293793678284
sg10
I100
sg11
I500
satp98
Rp99
(dp100
g25
I01
sg26
g31
sg32
(lp101
I3
aI5
aI30
aI9
asg34
I6
sg35
g36
(g3
tp102
Rp103
sbsS'IBEA-SIP'
p104
g2
(g3
g4
(lp105
(dp106
g7
(F0.13
F0.779
F0.038
I15
I17
tp107
sg9
F0.06710290908813477
sg10
I100
sg11
I0
sa(dp108
g7
(F0.197
F0.664
F0.034
I69
I100
tp109
sg9
F6.748004913330078
sg10
I100
sg11
I100
sa(dp110
g7
(F0.2
F0.715
F0.038
I63
I100
tp111
sg9
F13.570836067199707
sg10
I100
sg11
I200
sa(dp112
g7
(F0.201
F0.646
F0.037
I67
I100
tp113
sg9
F20.307600021362305
sg10
I100
sg11
I300
sa(dp114
g7
(F0.204
F0.682
F0.039
I66
I100
tp115
sg9
F27.00647807121277
sg10
I100
sg11
I400
sa(dp116
g7
(F0.204
F0.657
F0.038
I67
I100
tp117
sg9
F33.74746298789978
sg10
I100
sg11
I500
satp118
Rp119
(dp120
g25
I01
sg26
g31
sg32
(lp121
I3
aI5
aI30
aI9
asg34
I6
sg35
g36
(g3
tp122
Rp123
sbs.