(dp0
S'NSGA2-SIP'
p1
ccopy_reg
_reconstructor
p2
(cdeap.tools.support
Logbook
p3
c__builtin__
list
p4
(lp5
(dp6
S'hv|spread|igd|frontier#|valid#'
p7
(F0.11
F0.893
F0.023
I9
I17
tp8
sS'timestamp'
p9
F0.05891990661621094
sS'evals'
p10
I100
sS'gen'
p11
I0
sa(dp12
g7
(F0.2
F0.597
F0.028
I99
I100
tp13
sg9
F9.930524826049805
sg10
I100
sg11
I100
sa(dp14
g7
(F0.205
F0.672
F0.031
I97
I100
tp15
sg9
F19.751027822494507
sg10
I100
sg11
I200
sa(dp16
g7
(F0.207
F0.624
F0.032
I99
I100
tp17
sg9
F29.55102276802063
sg10
I100
sg11
I300
sa(dp18
g7
(F0.206
F0.612
F0.031
I97
I100
tp19
sg9
F39.4532368183136
sg10
I100
sg11
I400
sa(dp20
g7
(F0.205
F0.608
F0.033
I98
I100
tp21
sg9
F49.31667494773865
sg10
I100
sg11
I500
satp22
Rp23
(dp24
S'log_header'
p25
I01
sS'header'
p26
(S'gen'
p27
S'evals'
p28
g7
S'timestamp'
p29
tp30
sS'columns_len'
p31
(lp32
I3
aI5
aI30
aI9
asS'buffindex'
p33
I6
sS'chapters'
p34
ccollections
defaultdict
p35
(g3
tp36
Rp37
sbsS'SPEA2-SIP'
p38
g2
(g3
g4
(lp39
(dp40
g7
(F0.115
F0.779
F0.028
I15
I21
tp41
sg9
F0.08100104331970215
sg10
I100
sg11
I0
sa(dp42
g7
(F0.207
F0.583
F0.034
I100
I100
tp43
sg9
F85.13997793197632
sg10
I100
sg11
I100
sa(dp44
g7
(F0.209
F0.593
F0.035
I100
I100
tp45
sg9
F179.78511595726013
sg10
I100
sg11
I200
sa(dp46
g7
(F0.209
F0.594
F0.035
I100
I100
tp47
sg9
F274.158203125
sg10
I100
sg11
I300
sa(dp48
g7
(F0.211
F0.625
F0.037
I100
I100
tp49
sg9
F371.1761779785156
sg10
I100
sg11
I400
sa(dp50
g7
(F0.211
F0.613
F0.036
I100
I100
tp51
sg9
F469.4468660354614
sg10
I100
sg11
I500
satp52
Rp53
(dp54
g25
I01
sg26
g30
sg31
(lp55
I3
aI5
aI31
aI9
asg33
I6
sg34
g35
(g3
tp56
Rp57
sbsS'SPEA2'
p58
g2
(g3
g4
(lp59
(dp60
g7
(I0
I0
I0
I0
I0
tp61
sg9
F0.0367279052734375
sg10
I100
sg11
I0
sa(dp62
g7
g61
sg9
F109.66982102394104
sg10
I100
sg11
I100
sa(dp63
g7
g61
sg9
F237.4443588256836
sg10
I100
sg11
I200
sa(dp64
g7
g61
sg9
F370.268914937973
sg10
I100
sg11
I300
sa(dp65
g7
g61
sg9
F496.96139192581177
sg10
I100
sg11
I400
sa(dp66
g7
g61
sg9
F629.0509059429169
sg10
I100
sg11
I500
satp67
Rp68
(dp69
g25
I01
sg26
g30
sg31
(lp70
I3
aI5
aI30
aI9
asg33
I6
sg34
g35
(g3
tp71
Rp72
sbsS'IBEA'
p73
g2
(g3
g4
(lp74
(dp75
g7
g61
sg9
F0.03635692596435547
sg10
I100
sg11
I0
sa(dp76
g7
g61
sg9
F8.49648904800415
sg10
I100
sg11
I100
sa(dp77
g7
g61
sg9
F17.017058849334717
sg10
I100
sg11
I200
sa(dp78
g7
(F0.089
F1.06
F0.057
I1
I1
tp79
sg9
F25.54222083091736
sg10
I100
sg11
I300
sa(dp80
g7
g61
sg9
F34.06087303161621
sg10
I100
sg11
I400
sa(dp81
g7
(F0.078
F2.385
F0.047
I1
I1
tp82
sg9
F42.596802949905396
sg10
I100
sg11
I500
satp83
Rp84
(dp85
g25
I01
sg26
g30
sg31
(lp86
I3
aI5
aI30
aI9
asg33
I6
sg34
g35
(g3
tp87
Rp88
sbsS'NSGA2'
p89
g2
(g3
g4
(lp90
(dp91
g7
g61
sg9
F0.03624987602233887
sg10
I100
sg11
I0
sa(dp92
g7
g61
sg9
F11.36836290359497
sg10
I100
sg11
I100
sa(dp93
g7
g61
sg9
F22.572123050689697
sg10
I100
sg11
I200
sa(dp94
g7
(F0.063
F1.38
F0.03
I1
I1
tp95
sg9
F33.80045700073242
sg10
I100
sg11
I300
sa(dp96
g7
g61
sg9
F45.02568292617798
sg10
I100
sg11
I400
sa(dp97
g7
(F0.075
F1.38
F0.062
I1
I1
tp98
sg9
F56.23561692237854
sg10
I100
sg11
I500
satp99
Rp100
(dp101
g25
I01
sg26
g30
sg31
(lp102
I3
aI5
aI30
aI9
asg33
I6
sg34
g35
(g3
tp103
Rp104
sbsS'IBEA-SIP'
p105
g2
(g3
g4
(lp106
(dp107
g7
(F0.128
F0.828
F0.032
I16
I24
tp108
sg9
F0.08557415008544922
sg10
I100
sg11
I0
sa(dp109
g7
(F0.197
F0.708
F0.035
I71
I100
tp110
sg9
F8.090461015701294
sg10
I100
sg11
I100
sa(dp111
g7
(F0.199
F0.638
F0.034
I69
I100
tp112
sg9
F16.143826007843018
sg10
I100
sg11
I200
sa(dp113
g7
(F0.202
F0.559
F0.035
I70
I100
tp114
sg9
F24.248733043670654
sg10
I100
sg11
I300
sa(dp115
g7
(F0.201
F0.643
F0.033
I60
I100
tp116
sg9
F32.19227313995361
sg10
I100
sg11
I400
sa(dp117
g7
(F0.201
F0.623
F0.039
I62
I100
tp118
sg9
F40.29182505607605
sg10
I100
sg11
I500
satp119
Rp120
(dp121
g25
I01
sg26
g30
sg31
(lp122
I3
aI5
aI30
aI9
asg33
I6
sg34
g35
(g3
tp123
Rp124
sbs.