(dp0
S'NSGA2-SIP'
p1
ccopy_reg
_reconstructor
p2
(cdeap.tools.support
Logbook
p3
c__builtin__
list
p4
(lp5
(dp6
S'hv|spread|igd|frontier#|valid#'
p7
(F0.115
F0.862
F0.032
I10
I14
tp8
sS'timestamp'
p9
F0.0606839656829834
sS'evals'
p10
I100
sS'gen'
p11
I0
sa(dp12
g7
(F0.201
F0.584
F0.029
I98
I100
tp13
sg9
F9.937982082366943
sg10
I100
sg11
I100
sa(dp14
g7
(F0.205
F0.617
F0.032
I99
I100
tp15
sg9
F19.706614017486572
sg10
I100
sg11
I200
sa(dp16
g7
(F0.205
F0.556
F0.033
I98
I100
tp17
sg9
F29.50413703918457
sg10
I100
sg11
I300
sa(dp18
g7
(F0.205
F0.571
F0.032
I97
I100
tp19
sg9
F39.24724793434143
sg10
I100
sg11
I400
sa(dp20
g7
(F0.206
F0.56
F0.032
I96
I100
tp21
sg9
F48.93567895889282
sg10
I100
sg11
I500
satp22
Rp23
(dp24
S'log_header'
p25
I01
sS'header'
p26
(S'gen'
p27
S'evals'
p28
S'hv|spread|igd|frontier#|valid#'
p29
S'timestamp'
p30
tp31
sS'columns_len'
p32
(lp33
I3
aI5
aI30
aI9
asS'buffindex'
p34
I6
sS'chapters'
p35
ccollections
defaultdict
p36
(g3
tp37
Rp38
sbsS'SPEA2-SIP'
p39
g2
(g3
g4
(lp40
(dp41
g7
(F0.122
F0.757
F0.038
I14
I18
tp42
sg9
F0.07451701164245605
sg10
I100
sg11
I0
sa(dp43
g7
(F0.202
F0.636
F0.034
I100
I100
tp44
sg9
F82.54233503341675
sg10
I100
sg11
I100
sa(dp45
g7
(F0.204
F0.581
F0.034
I100
I100
tp46
sg9
F172.57819390296936
sg10
I100
sg11
I200
sa(dp47
g7
(F0.205
F0.62
F0.035
I100
I100
tp48
sg9
F262.35199785232544
sg10
I100
sg11
I300
sa(dp49
g7
(F0.205
F0.553
F0.035
I100
I100
tp50
sg9
F354.3959548473358
sg10
I100
sg11
I400
sa(dp51
g7
(F0.206
F0.618
F0.035
I100
I100
tp52
sg9
F446.1262319087982
sg10
I100
sg11
I500
satp53
Rp54
(dp55
g25
I01
sg26
g31
sg32
(lp56
I3
aI5
aI31
aI9
asg34
I6
sg35
g36
(g3
tp57
Rp58
sbsS'SPEA2'
p59
g2
(g3
g4
(lp60
(dp61
g7
(I0
I0
I0
I0
I0
tp62
sg9
F0.03518199920654297
sg10
I100
sg11
I0
sa(dp63
g7
g62
sg9
F119.98723411560059
sg10
I100
sg11
I100
sa(dp64
g7
g62
sg9
F243.34308218955994
sg10
I100
sg11
I200
sa(dp65
g7
g62
sg9
F375.6158170700073
sg10
I100
sg11
I300
sa(dp66
g7
(F0.072
F1.3
F0.04
I1
I1
tp67
sg9
F508.5169801712036
sg10
I100
sg11
I400
sa(dp68
g7
g62
sg9
F639.7427060604095
sg10
I100
sg11
I500
satp69
Rp70
(dp71
g25
I01
sg26
g31
sg32
(lp72
I3
aI5
aI30
aI9
asg34
I6
sg35
g36
(g3
tp73
Rp74
sbsS'IBEA-PEN'
p75
g2
(g3
g4
(lp76
(dp77
g7
(F0.137
F0.721
F0.032
I28
I38
tp78
sg9
F0.15770602226257324
sg10
I100
sg11
I0
sa(dp79
g7
(F0.193
F0.659
F0.035
I47
I80
tp80
sg9
F10.170051097869873
sg10
I100
sg11
I100
sa(dp81
g7
(F0.192
F0.703
F0.03
I53
I90
tp82
sg9
F20.37921404838562
sg10
I100
sg11
I200
sa(dp83
g7
(F0.188
F0.774
F0.035
I46
I82
tp84
sg9
F30.631757974624634
sg10
I100
sg11
I300
sa(dp85
g7
(F0.203
F0.628
F0.043
I52
I86
tp86
sg9
F40.84157204627991
sg10
I100
sg11
I400
sa(dp87
g7
(F0.195
F0.7
F0.041
I48
I84
tp88
sg9
F50.92352104187012
sg10
I100
sg11
I500
satp89
Rp90
(dp91
g25
I01
sg26
g31
sg32
(lp92
I3
aI5
aI30
aI9
asg34
I6
sg35
g36
(g3
tp93
Rp94
sbsS'IBEA'
p95
g2
(g3
g4
(lp96
(dp97
g7
g62
sg9
F0.036293983459472656
sg10
I100
sg11
I0
sa(dp98
g7
(F0.064
F1.38
F0.042
I1
I1
tp99
sg9
F8.282132863998413
sg10
I100
sg11
I100
sa(dp100
g7
g62
sg9
F16.511401891708374
sg10
I100
sg11
I200
sa(dp101
g7
(F0.068
F1.46
F0.079
I1
I1
tp102
sg9
F24.758227825164795
sg10
I100
sg11
I300
sa(dp103
g7
g62
sg9
F33.042003870010376
sg10
I100
sg11
I400
sa(dp104
g7
g62
sg9
F41.253973960876465
sg10
I100
sg11
I500
satp105
Rp106
(dp107
g25
I01
sg26
g31
sg32
(lp108
I3
aI5
aI30
aI9
asg34
I6
sg35
g36
(g3
tp109
Rp110
sbsS'NSGA2'
p111
g2
(g3
g4
(lp112
(dp113
g7
g62
sg9
F0.03604602813720703
sg10
I100
sg11
I0
sa(dp114
g7
g62
sg9
F11.048895120620728
sg10
I100
sg11
I100
sa(dp115
g7
g62
sg9
F22.061854124069214
sg10
I100
sg11
I200
sa(dp116
g7
g62
sg9
F33.00752115249634
sg10
I100
sg11
I300
sa(dp117
g7
g62
sg9
F43.92311501502991
sg10
I100
sg11
I400
sa(dp118
g7
g62
sg9
F54.866825103759766
sg10
I100
sg11
I500
satp119
Rp120
(dp121
g25
I01
sg26
g31
sg32
(lp122
I3
aI5
aI30
aI9
asg34
I6
sg35
g36
(g3
tp123
Rp124
sbsS'IBEA-SIP'
p125
g2
(g3
g4
(lp126
(dp127
g7
(F0.119
F0.807
F0.029
I17
I19
tp128
sg9
F0.0840139389038086
sg10
I100
sg11
I0
sa(dp129
g7
(F0.198
F0.695
F0.034
I71
I100
tp130
sg9
F7.769897937774658
sg10
I100
sg11
I100
sa(dp131
g7
(F0.203
F0.649
F0.038
I64
I100
tp132
sg9
F15.503628015518188
sg10
I100
sg11
I200
sa(dp133
g7
(F0.205
F0.711
F0.039
I69
I100
tp134
sg9
F23.308944940567017
sg10
I100
sg11
I300
sa(dp135
g7
(F0.205
F0.599
F0.039
I67
I100
tp136
sg9
F31.008142948150635
sg10
I100
sg11
I400
sa(dp137
g7
(F0.205
F0.57
F0.04
I70
I100
tp138
sg9
F38.74811100959778
sg10
I100
sg11
I500
satp139
Rp140
(dp141
g25
I01
sg26
g31
sg32
(lp142
I3
aI5
aI30
aI9
asg34
I6
sg35
g36
(g3
tp143
Rp144
sbs.