(dp0
S'NSGA2-SIP'
p1
ccopy_reg
_reconstructor
p2
(cdeap.tools.support
Logbook
p3
c__builtin__
list
p4
(lp5
(dp6
S'hv|spread|igd|frontier#|valid#'
p7
(F0.109
F0.79
F0.028
I12
I21
tp8
sS'timestamp'
p9
F0.07423591613769531
sS'evals'
p10
I100
sS'gen'
p11
I0
sa(dp12
g7
(F0.201
F0.58
F0.03
I97
I100
tp13
sg9
F10.78708004951477
sg10
I100
sg11
I100
sa(dp14
g7
(F0.203
F0.579
F0.031
I97
I100
tp15
sg9
F21.383235931396484
sg10
I100
sg11
I200
sa(dp16
g7
(F0.203
F0.615
F0.03
I97
I100
tp17
sg9
F31.982271909713745
sg10
I100
sg11
I300
sa(dp18
g7
(F0.207
F0.575
F0.032
I98
I100
tp19
sg9
F42.56098985671997
sg10
I100
sg11
I400
sa(dp20
g7
(F0.208
F0.589
F0.032
I98
I100
tp21
sg9
F53.14042806625366
sg10
I100
sg11
I500
satp22
Rp23
(dp24
S'log_header'
p25
I01
sS'header'
p26
(S'gen'
p27
S'evals'
p28
S'hv|spread|igd|frontier#|valid#'
p29
S'timestamp'
p30
tp31
sS'columns_len'
p32
(lp33
I3
aI5
aI30
aI9
asS'buffindex'
p34
I6
sS'chapters'
p35
ccollections
defaultdict
p36
(g3
tp37
Rp38
sbsS'SPEA2-SIP'
p39
g2
(g3
g4
(lp40
(dp41
g7
(F0.122
F0.82
F0.034
I13
I26
tp42
sg9
F0.07990407943725586
sg10
I100
sg11
I0
sa(dp43
g7
(F0.2
F0.626
F0.033
I100
I100
tp44
sg9
F88.74396705627441
sg10
I100
sg11
I100
sa(dp45
g7
(F0.203
F0.585
F0.036
I100
I100
tp46
sg9
F186.22860407829285
sg10
I100
sg11
I200
sa(dp47
g7
(F0.204
F0.59
F0.036
I100
I100
tp48
sg9
F284.8936700820923
sg10
I100
sg11
I300
sa(dp49
g7
(F0.205
F0.61
F0.035
I100
I100
tp50
sg9
F380.01608395576477
sg10
I100
sg11
I400
sa(dp51
g7
(F0.208
F0.572
F0.036
I100
I100
tp52
sg9
F472.77170610427856
sg10
I100
sg11
I500
satp53
Rp54
(dp55
g25
I01
sg26
g31
sg32
(lp56
I3
aI5
aI31
aI9
asg34
I6
sg35
g36
(g3
tp57
Rp58
sbsS'SPEA2'
p59
g2
(g3
g4
(lp60
(dp61
g7
(I0
I0
I0
I0
I0
tp62
sg9
F0.038331031799316406
sg10
I100
sg11
I0
sa(dp63
g7
g62
sg9
F116.11779594421387
sg10
I100
sg11
I100
sa(dp64
g7
g62
sg9
F250.56192088127136
sg10
I100
sg11
I200
sa(dp65
g7
g62
sg9
F391.46705985069275
sg10
I100
sg11
I300
sa(dp66
g7
g62
sg9
F525.4955079555511
sg10
I100
sg11
I400
sa(dp67
g7
g62
sg9
F652.0747799873352
sg10
I100
sg11
I500
satp68
Rp69
(dp70
g25
I01
sg26
g31
sg32
(lp71
I3
aI5
aI30
aI9
asg34
I6
sg35
g36
(g3
tp72
Rp73
sbsS'IBEA-PEN'
p74
g2
(g3
g4
(lp75
(dp76
g7
(F0.142
F0.631
F0.025
I29
I46
tp77
sg9
F0.19180679321289062
sg10
I100
sg11
I0
sa(dp78
g7
g62
sg9
F8.753744840621948
sg10
I100
sg11
I100
sa(dp79
g7
g62
sg9
F17.307119846343994
sg10
I100
sg11
I200
sa(dp80
g7
g62
sg9
F25.91311287879944
sg10
I100
sg11
I300
sa(dp81
g7
g62
sg9
F34.45189881324768
sg10
I100
sg11
I400
sa(dp82
g7
(F0.082
F1.3
F0.042
I1
I1
tp83
sg9
F43.00862789154053
sg10
I100
sg11
I500
satp84
Rp85
(dp86
g25
I01
sg26
g31
sg32
(lp87
I3
aI5
aI30
aI9
asg34
I6
sg35
g36
(g3
tp88
Rp89
sbsS'IBEA'
p90
g2
(g3
g4
(lp91
(dp92
g7
g62
sg9
F0.038168907165527344
sg10
I100
sg11
I0
sa(dp93
g7
g62
sg9
F8.300859928131104
sg10
I100
sg11
I100
sa(dp94
g7
(F0.065
F2.512
F0.084
I1
I1
tp95
sg9
F16.64077591896057
sg10
I100
sg11
I200
sa(dp96
g7
(F0.055
F1.56
F0.084
I1
I1
tp97
sg9
F25.019811868667603
sg10
I100
sg11
I300
sa(dp98
g7
g62
sg9
F33.36923789978027
sg10
I100
sg11
I400
sa(dp99
g7
(F0.067
F1.42
F0.057
I1
I1
tp100
sg9
F41.736806869506836
sg10
I100
sg11
I500
satp101
Rp102
(dp103
g25
I01
sg26
g31
sg32
(lp104
I3
aI5
aI30
aI9
asg34
I6
sg35
g36
(g3
tp105
Rp106
sbsS'NSGA2'
p107
g2
(g3
g4
(lp108
(dp109
g7
g62
sg9
F0.03830313682556152
sg10
I100
sg11
I0
sa(dp110
g7
g62
sg9
F12.371273040771484
sg10
I100
sg11
I100
sa(dp111
g7
g62
sg9
F24.645323991775513
sg10
I100
sg11
I200
sa(dp112
g7
g62
sg9
F36.89235496520996
sg10
I100
sg11
I300
sa(dp113
g7
g62
sg9
F49.178955078125
sg10
I100
sg11
I400
sa(dp114
g7
g62
sg9
F61.47487211227417
sg10
I100
sg11
I500
satp115
Rp116
(dp117
g25
I01
sg26
g31
sg32
(lp118
I3
aI5
aI30
aI9
asg34
I6
sg35
g36
(g3
tp119
Rp120
sbsS'IBEA-SIP'
p121
g2
(g3
g4
(lp122
(dp123
g7
(F0.112
F0.763
F0.043
I17
I20
tp124
sg9
F0.09335494041442871
sg10
I100
sg11
I0
sa(dp125
g7
(F0.205
F0.646
F0.037
I74
I100
tp126
sg9
F8.028953790664673
sg10
I100
sg11
I100
sa(dp127
g7
(F0.205
F0.618
F0.036
I74
I100
tp128
sg9
F16.014530897140503
sg10
I100
sg11
I200
sa(dp129
g7
(F0.204
F0.593
F0.039
I68
I100
tp130
sg9
F23.946316957473755
sg10
I100
sg11
I300
sa(dp131
g7
(F0.204
F0.689
F0.035
I71
I100
tp132
sg9
F31.928680896759033
sg10
I100
sg11
I400
sa(dp133
g7
(F0.2
F0.561
F0.037
I61
I100
tp134
sg9
F39.75972890853882
sg10
I100
sg11
I500
satp135
Rp136
(dp137
g25
I01
sg26
g31
sg32
(lp138
I3
aI5
aI30
aI9
asg34
I6
sg35
g36
(g3
tp139
Rp140
sbs.