(dp0
S'NSGA2-SIP'
p1
ccopy_reg
_reconstructor
p2
(cdeap.tools.support
Logbook
p3
c__builtin__
list
p4
(lp5
(dp6
S'hv|spread|igd|frontier#|valid#'
p7
(F0.119
F0.695
F0.037
I21
I29
tp8
sS'timestamp'
p9
F0.11233282089233398
sS'evals'
p10
I100
sS'gen'
p11
I0
sa(dp12
g7
(F0.197
F0.652
F0.028
I98
I100
tp13
sg9
F10.651029825210571
sg10
I100
sg11
I100
sa(dp14
g7
(F0.201
F0.63
F0.031
I98
I100
tp15
sg9
F21.119966983795166
sg10
I100
sg11
I200
sa(dp16
g7
(F0.203
F0.636
F0.031
I99
I100
tp17
sg9
F31.519158840179443
sg10
I100
sg11
I300
sa(dp18
g7
(F0.203
F0.559
F0.032
I97
I100
tp19
sg9
F41.870749950408936
sg10
I100
sg11
I400
sa(dp20
g7
(F0.205
F0.622
F0.032
I99
I100
tp21
sg9
F52.389129877090454
sg10
I100
sg11
I500
satp22
Rp23
(dp24
S'log_header'
p25
I01
sS'header'
p26
(S'gen'
p27
S'evals'
p28
S'hv|spread|igd|frontier#|valid#'
p29
S'timestamp'
p30
tp31
sS'columns_len'
p32
(lp33
I3
aI5
aI30
aI9
asS'buffindex'
p34
I6
sS'chapters'
p35
ccollections
defaultdict
p36
(g3
tp37
Rp38
sbsS'SPEA2-SIP'
p39
g2
(g3
g4
(lp40
(dp41
g7
(F0.111
F0.837
F0.034
I18
I23
tp42
sg9
F0.09759998321533203
sg10
I100
sg11
I0
sa(dp43
g7
(F0.199
F0.656
F0.033
I100
I100
tp44
sg9
F88.87336897850037
sg10
I100
sg11
I100
sa(dp45
g7
(F0.201
F0.612
F0.035
I100
I100
tp46
sg9
F184.7755799293518
sg10
I100
sg11
I200
sa(dp47
g7
(F0.201
F0.608
F0.035
I100
I100
tp48
sg9
F278.78376603126526
sg10
I100
sg11
I300
sa(dp49
g7
(F0.204
F0.588
F0.034
I100
I100
tp50
sg9
F374.061320066452
sg10
I100
sg11
I400
sa(dp51
g7
(F0.205
F0.601
F0.036
I100
I100
tp52
sg9
F467.39711594581604
sg10
I100
sg11
I500
satp53
Rp54
(dp55
g25
I01
sg26
g31
sg32
(lp56
I3
aI5
aI31
aI9
asg34
I6
sg35
g36
(g3
tp57
Rp58
sbsS'SPEA2'
p59
g2
(g3
g4
(lp60
(dp61
g7
(F0.067
F1.1
F0.022
I1
I1
tp62
sg9
F0.04176688194274902
sg10
I100
sg11
I0
sa(dp63
g7
(I0
I0
I0
I0
I0
tp64
sg9
F115.81336092948914
sg10
I100
sg11
I100
sa(dp65
g7
g64
sg9
F253.0439920425415
sg10
I100
sg11
I200
sa(dp66
g7
g64
sg9
F391.7990310192108
sg10
I100
sg11
I300
sa(dp67
g7
g64
sg9
F526.9514410495758
sg10
I100
sg11
I400
sa(dp68
g7
g64
sg9
F661.5566890239716
sg10
I100
sg11
I500
satp69
Rp70
(dp71
g25
I01
sg26
g31
sg32
(lp72
I3
aI5
aI30
aI9
asg34
I6
sg35
g36
(g3
tp73
Rp74
sbsS'IBEA-PEN'
p75
g2
(g3
g4
(lp76
(dp77
g7
(F0.101
F0.677
F0.03
I20
I27
tp78
sg9
F0.14342284202575684
sg10
I100
sg11
I0
sa(dp79
g7
g64
sg9
F8.515047788619995
sg10
I100
sg11
I100
sa(dp80
g7
(F0.061
F1.46
F0.057
I1
I1
tp81
sg9
F16.918409824371338
sg10
I100
sg11
I200
sa(dp82
g7
(F0.078
F2.364
F0.05
I1
I1
tp83
sg9
F25.31429100036621
sg10
I100
sg11
I300
sa(dp84
g7
(F0.06
F2.512
F0.074
I1
I1
tp85
sg9
F33.710975885391235
sg10
I100
sg11
I400
sa(dp86
g7
(F0.063
F2.453
F0.06
I1
I1
tp87
sg9
F42.09514284133911
sg10
I100
sg11
I500
satp88
Rp89
(dp90
g25
I01
sg26
g31
sg32
(lp91
I3
aI5
aI30
aI9
asg34
I6
sg35
g36
(g3
tp92
Rp93
sbsS'IBEA'
p94
g2
(g3
g4
(lp95
(dp96
g7
(F0.056
F0.94
F0.047
I1
I1
tp97
sg9
F0.04135608673095703
sg10
I100
sg11
I0
sa(dp98
g7
g64
sg9
F8.294995069503784
sg10
I100
sg11
I100
sa(dp99
g7
g64
sg9
F16.61185908317566
sg10
I100
sg11
I200
sa(dp100
g7
g64
sg9
F24.946852207183838
sg10
I100
sg11
I300
sa(dp101
g7
(F0.079
F1.34
F0.075
I1
I1
tp102
sg9
F33.275761127471924
sg10
I100
sg11
I400
sa(dp103
g7
g64
sg9
F41.7343270778656
sg10
I100
sg11
I500
satp104
Rp105
(dp106
g25
I01
sg26
g31
sg32
(lp107
I3
aI5
aI30
aI9
asg34
I6
sg35
g36
(g3
tp108
Rp109
sbsS'NSGA2'
p110
g2
(g3
g4
(lp111
(dp112
g7
g64
sg9
F0.037711143493652344
sg10
I100
sg11
I0
sa(dp113
g7
g64
sg9
F12.290390014648438
sg10
I100
sg11
I100
sa(dp114
g7
g64
sg9
F24.40996813774109
sg10
I100
sg11
I200
sa(dp115
g7
g64
sg9
F36.60714602470398
sg10
I100
sg11
I300
sa(dp116
g7
g64
sg9
F48.725147008895874
sg10
I100
sg11
I400
sa(dp117
g7
g64
sg9
F60.81436109542847
sg10
I100
sg11
I500
satp118
Rp119
(dp120
g25
I01
sg26
g31
sg32
(lp121
I3
aI5
aI30
aI9
asg34
I6
sg35
g36
(g3
tp122
Rp123
sbsS'IBEA-SIP'
p124
g2
(g3
g4
(lp125
(dp126
g7
(F0.119
F0.733
F0.036
I13
I18
tp127
sg9
F0.07802700996398926
sg10
I100
sg11
I0
sa(dp128
g7
(F0.201
F0.737
F0.034
I60
I100
tp129
sg9
F7.890604019165039
sg10
I100
sg11
I100
sa(dp130
g7
(F0.206
F0.599
F0.039
I71
I100
tp131
sg9
F15.86410403251648
sg10
I100
sg11
I200
sa(dp132
g7
(F0.193
F0.639
F0.036
I65
I100
tp133
sg9
F23.72681713104248
sg10
I100
sg11
I300
sa(dp134
g7
(F0.201
F0.664
F0.037
I66
I100
tp135
sg9
F31.609945058822632
sg10
I100
sg11
I400
sa(dp136
g7
(F0.202
F0.643
F0.037
I66
I100
tp137
sg9
F39.488598108291626
sg10
I100
sg11
I500
satp138
Rp139
(dp140
g25
I01
sg26
g31
sg32
(lp141
I3
aI5
aI30
aI9
asg34
I6
sg35
g36
(g3
tp142
Rp143
sbs.