(dp0
S'NSGA2-SIP'
p1
ccopy_reg
_reconstructor
p2
(cdeap.tools.support
Logbook
p3
c__builtin__
list
p4
(lp5
(dp6
S'hv|spread|igd|frontier#|valid#'
p7
(F0.124
F0.832
F0.032
I12
I15
tp8
sS'timestamp'
p9
F0.0582280158996582
sS'evals'
p10
I100
sS'gen'
p11
I0
sa(dp12
g7
(F0.199
F0.596
F0.031
I98
I100
tp13
sg9
F8.386920928955078
sg10
I100
sg11
I100
sa(dp14
g7
(F0.199
F0.533
F0.032
I95
I100
tp15
sg9
F16.783631086349487
sg10
I100
sg11
I200
sa(dp16
g7
(F0.207
F0.662
F0.034
I99
I100
tp17
sg9
F25.130194902420044
sg10
I100
sg11
I300
sa(dp18
g7
(F0.205
F0.622
F0.033
I97
I100
tp19
sg9
F33.538938999176025
sg10
I100
sg11
I400
sa(dp20
g7
(F0.205
F0.652
F0.032
I97
I100
tp21
sg9
F41.93603491783142
sg10
I100
sg11
I500
satp22
Rp23
(dp24
S'log_header'
p25
I01
sS'header'
p26
(S'gen'
p27
S'evals'
p28
S'hv|spread|igd|frontier#|valid#'
p29
S'timestamp'
p30
tp31
sS'columns_len'
p32
(lp33
I3
aI5
aI30
aI9
asS'buffindex'
p34
I6
sS'chapters'
p35
ccollections
defaultdict
p36
(g3
tp37
Rp38
sbsS'SPEA2-SIP'
p39
g2
(g3
g4
(lp40
(dp41
g7
(F0.116
F0.732
F0.038
I18
I21
tp42
sg9
F0.07908511161804199
sg10
I100
sg11
I0
sa(dp43
g7
(F0.203
F0.609
F0.033
I100
I100
tp44
sg9
F71.36600017547607
sg10
I100
sg11
I100
sa(dp45
g7
(F0.205
F0.604
F0.035
I100
I100
tp46
sg9
F152.60993599891663
sg10
I100
sg11
I200
sa(dp47
g7
(F0.206
F0.643
F0.035
I100
I100
tp48
sg9
F236.24419713020325
sg10
I100
sg11
I300
sa(dp49
g7
(F0.207
F0.609
F0.037
I100
I100
tp50
sg9
F315.8016390800476
sg10
I100
sg11
I400
sa(dp51
g7
(F0.207
F0.651
F0.037
I100
I100
tp52
sg9
F396.72765016555786
sg10
I100
sg11
I500
satp53
Rp54
(dp55
g25
I01
sg26
g31
sg32
(lp56
I3
aI5
aI31
aI9
asg34
I6
sg35
g36
(g3
tp57
Rp58
sbsS'SPEA2'
p59
g2
(g3
g4
(lp60
(dp61
g7
(F0.086
F0.93
F0.033
I2
I2
tp62
sg9
F0.037010908126831055
sg10
I100
sg11
I0
sa(dp63
g7
(I0
I0
I0
I0
I0
tp64
sg9
F98.02510190010071
sg10
I100
sg11
I100
sa(dp65
g7
g64
sg9
F208.6542489528656
sg10
I100
sg11
I200
sa(dp66
g7
g64
sg9
F323.27445101737976
sg10
I100
sg11
I300
sa(dp67
g7
g64
sg9
F433.3284158706665
sg10
I100
sg11
I400
sa(dp68
g7
g64
sg9
F547.5127928256989
sg10
I100
sg11
I500
satp69
Rp70
(dp71
g25
I01
sg26
g31
sg32
(lp72
I3
aI5
aI30
aI9
asg34
I6
sg35
g36
(g3
tp73
Rp74
sbsS'IBEA'
p75
g2
(g3
g4
(lp76
(dp77
g7
g64
sg9
F0.03092813491821289
sg10
I100
sg11
I0
sa(dp78
g7
(F0.106
F0.915
F0.069
I2
I2
tp79
sg9
F7.3398661613464355
sg10
I100
sg11
I100
sa(dp80
g7
g64
sg9
F14.620239973068237
sg10
I100
sg11
I200
sa(dp81
g7
g64
sg9
F21.865676164627075
sg10
I100
sg11
I300
sa(dp82
g7
g64
sg9
F29.106733083724976
sg10
I100
sg11
I400
sa(dp83
g7
g64
sg9
F36.34525418281555
sg10
I100
sg11
I500
satp84
Rp85
(dp86
g25
I01
sg26
g31
sg32
(lp87
I3
aI5
aI30
aI9
asg34
I6
sg35
g36
(g3
tp88
Rp89
sbsS'NSGA2'
p90
g2
(g3
g4
(lp91
(dp92
g7
g64
sg9
F0.030844926834106445
sg10
I100
sg11
I0
sa(dp93
g7
g64
sg9
F9.708942890167236
sg10
I100
sg11
I100
sa(dp94
g7
g64
sg9
F19.36254382133484
sg10
I100
sg11
I200
sa(dp95
g7
g64
sg9
F28.95080804824829
sg10
I100
sg11
I300
sa(dp96
g7
g64
sg9
F38.53216004371643
sg10
I100
sg11
I400
sa(dp97
g7
g64
sg9
F48.15294885635376
sg10
I100
sg11
I500
satp98
Rp99
(dp100
g25
I01
sg26
g31
sg32
(lp101
I3
aI5
aI30
aI9
asg34
I6
sg35
g36
(g3
tp102
Rp103
sbsS'IBEA-SIP'
p104
g2
(g3
g4
(lp105
(dp106
g7
(F0.114
F0.716
F0.029
I11
I18
tp107
sg9
F0.05674099922180176
sg10
I100
sg11
I0
sa(dp108
g7
(F0.201
F0.696
F0.033
I66
I100
tp109
sg9
F6.896048069000244
sg10
I100
sg11
I100
sa(dp110
g7
(F0.201
F0.706
F0.037
I71
I100
tp111
sg9
F13.77329707145691
sg10
I100
sg11
I200
sa(dp112
g7
(F0.203
F0.74
F0.037
I74
I100
tp113
sg9
F20.68389105796814
sg10
I100
sg11
I300
sa(dp114
g7
(F0.204
F0.607
F0.038
I67
I100
tp115
sg9
F27.484819173812866
sg10
I100
sg11
I400
sa(dp116
g7
(F0.207
F0.596
F0.04
I70
I100
tp117
sg9
F34.29997897148132
sg10
I100
sg11
I500
satp118
Rp119
(dp120
g25
I01
sg26
g31
sg32
(lp121
I3
aI5
aI30
aI9
asg34
I6
sg35
g36
(g3
tp122
Rp123
sbs.