(dp0
S'NSGA2-SIP'
p1
ccopy_reg
_reconstructor
p2
(cdeap.tools.support
Logbook
p3
c__builtin__
list
p4
(lp5
(dp6
S'hv|spread|igd|frontier#|valid#'
p7
(F0.123
F0.775
F0.031
I16
I25
tp8
sS'timestamp'
p9
F0.0850071907043457
sS'evals'
p10
I100
sS'gen'
p11
I0
sa(dp12
g7
(F0.2
F0.653
F0.029
I97
I100
tp13
sg9
F9.844141006469727
sg10
I100
sg11
I100
sa(dp14
g7
(F0.205
F0.705
F0.032
I98
I100
tp15
sg9
F19.639875173568726
sg10
I100
sg11
I200
sa(dp16
g7
(F0.206
F0.635
F0.031
I99
I100
tp17
sg9
F29.3320209980011
sg10
I100
sg11
I300
sa(dp18
g7
(F0.207
F0.613
F0.032
I98
I100
tp19
sg9
F39.15437412261963
sg10
I100
sg11
I400
sa(dp20
g7
(F0.207
F0.634
F0.031
I97
I100
tp21
sg9
F48.92078113555908
sg10
I100
sg11
I500
satp22
Rp23
(dp24
S'log_header'
p25
I01
sS'header'
p26
(S'gen'
p27
S'evals'
p28
S'hv|spread|igd|frontier#|valid#'
p29
S'timestamp'
p30
tp31
sS'columns_len'
p32
(lp33
I3
aI5
aI30
aI9
asS'buffindex'
p34
I6
sS'chapters'
p35
ccollections
defaultdict
p36
(g3
tp37
Rp38
sbsS'SPEA2-SIP'
p39
g2
(g3
g4
(lp40
(dp41
g7
(F0.092
F0.792
F0.035
I10
I12
tp42
sg9
F0.06082415580749512
sg10
I100
sg11
I0
sa(dp43
g7
(F0.196
F0.656
F0.033
I100
I100
tp44
sg9
F87.88109517097473
sg10
I100
sg11
I100
sa(dp45
g7
(F0.199
F0.616
F0.033
I100
I100
tp46
sg9
F183.43825817108154
sg10
I100
sg11
I200
sa(dp47
g7
(F0.204
F0.649
F0.035
I100
I100
tp48
sg9
F277.69900703430176
sg10
I100
sg11
I300
sa(dp49
g7
(F0.203
F0.587
F0.035
I100
I100
tp50
sg9
F374.6965901851654
sg10
I100
sg11
I400
sa(dp51
g7
(F0.206
F0.725
F0.036
I100
I100
tp52
sg9
F469.30926418304443
sg10
I100
sg11
I500
satp53
Rp54
(dp55
g25
I01
sg26
g31
sg32
(lp56
I3
aI5
aI31
aI9
asg34
I6
sg35
g36
(g3
tp57
Rp58
sbsS'SPEA2'
p59
g2
(g3
g4
(lp60
(dp61
g7
(I0
I0
I0
I0
I0
tp62
sg9
F0.03587698936462402
sg10
I100
sg11
I0
sa(dp63
g7
g62
sg9
F110.69576501846313
sg10
I100
sg11
I100
sa(dp64
g7
g62
sg9
F244.5831401348114
sg10
I100
sg11
I200
sa(dp65
g7
g62
sg9
F383.1475930213928
sg10
I100
sg11
I300
sa(dp66
g7
(F0.08
F1.06
F0.026
I1
I1
tp67
sg9
F522.2015130519867
sg10
I100
sg11
I400
sa(dp68
g7
g62
sg9
F661.0456621646881
sg10
I100
sg11
I500
satp69
Rp70
(dp71
g25
I01
sg26
g31
sg32
(lp72
I3
aI5
aI30
aI9
asg34
I6
sg35
g36
(g3
tp73
Rp74
sbsS'IBEA'
p75
g2
(g3
g4
(lp76
(dp77
g7
(F0.07
F0.962
F0.043
I2
I2
tp78
sg9
F0.08599996566772461
sg10
I100
sg11
I0
sa(dp79
g7
(F0.078
F0.955
F0.031
I2
I2
tp80
sg9
F12.782510042190552
sg10
I100
sg11
I100
sa(dp81
g7
(F0.122
F0.846
F0.063
I2
I2
tp82
sg9
F21.144177198410034
sg10
I100
sg11
I200
sa(dp83
g7
g62
sg9
F29.440086126327515
sg10
I100
sg11
I300
sa(dp84
g7
(F0.052
F1.52
F0.054
I1
I1
tp85
sg9
F37.770589113235474
sg10
I100
sg11
I400
sa(dp86
g7
g62
sg9
F46.0892391204834
sg10
I100
sg11
I500
satp87
Rp88
(dp89
g25
I01
sg26
g31
sg32
(lp90
I3
aI5
aI30
aI9
asg34
I6
sg35
g36
(g3
tp91
Rp92
sbsS'NSGA2'
p93
g2
(g3
g4
(lp94
(dp95
g7
(F0.061
F0.94
F0.035
I1
I1
tp96
sg9
F0.03917193412780762
sg10
I100
sg11
I0
sa(dp97
g7
(F0.076
F1.26
F0.039
I1
I1
tp98
sg9
F11.323523998260498
sg10
I100
sg11
I100
sa(dp99
g7
g62
sg9
F22.573133945465088
sg10
I100
sg11
I200
sa(dp100
g7
g62
sg9
F33.76094198226929
sg10
I100
sg11
I300
sa(dp101
g7
g62
sg9
F44.934962034225464
sg10
I100
sg11
I400
sa(dp102
g7
g62
sg9
F56.09570002555847
sg10
I100
sg11
I500
satp103
Rp104
(dp105
g25
I01
sg26
g31
sg32
(lp106
I3
aI5
aI30
aI9
asg34
I6
sg35
g36
(g3
tp107
Rp108
sbsS'IBEA-SIP'
p109
g2
(g3
g4
(lp110
(dp111
g7
(F0.111
F0.824
F0.04
I17
I21
tp112
sg9
F0.08766698837280273
sg10
I100
sg11
I0
sa(dp113
g7
(F0.203
F0.653
F0.037
I64
I100
tp114
sg9
F8.031543016433716
sg10
I100
sg11
I100
sa(dp115
g7
(F0.201
F0.675
F0.033
I70
I100
tp116
sg9
F16.0367648601532
sg10
I100
sg11
I200
sa(dp117
g7
(F0.197
F0.587
F0.038
I63
I100
tp118
sg9
F23.846670866012573
sg10
I100
sg11
I300
sa(dp119
g7
(F0.201
F0.684
F0.038
I71
I100
tp120
sg9
F31.760982036590576
sg10
I100
sg11
I400
sa(dp121
g7
(F0.204
F0.769
F0.039
I63
I100
tp122
sg9
F39.54961705207825
sg10
I100
sg11
I500
satp123
Rp124
(dp125
g25
I01
sg26
g31
sg32
(lp126
I3
aI5
aI30
aI9
asg34
I6
sg35
g36
(g3
tp127
Rp128
sbs.