(dp0
S'NSGA2-SIP'
p1
ccopy_reg
_reconstructor
p2
(cdeap.tools.support
Logbook
p3
c__builtin__
list
p4
(lp5
(dp6
S'hv|spread|igd|frontier#|valid#'
p7
(F0.106
F0.789
F0.036
I15
I22
tp8
sS'timestamp'
p9
F0.0759580135345459
sS'evals'
p10
I100
sS'gen'
p11
I0
sa(dp12
g7
(F0.2
F0.702
F0.029
I98
I100
tp13
sg9
F9.283828973770142
sg10
I100
sg11
I100
sa(dp14
g7
(F0.203
F0.645
F0.03
I98
I100
tp15
sg9
F18.399894952774048
sg10
I100
sg11
I200
sa(dp16
g7
(F0.204
F0.647
F0.032
I97
I100
tp17
sg9
F27.551867961883545
sg10
I100
sg11
I300
sa(dp18
g7
(F0.205
F0.586
F0.033
I97
I100
tp19
sg9
F36.7232780456543
sg10
I100
sg11
I400
sa(dp20
g7
(F0.205
F0.507
F0.034
I97
I100
tp21
sg9
F45.89467811584473
sg10
I100
sg11
I500
satp22
Rp23
(dp24
S'log_header'
p25
I01
sS'header'
p26
(S'gen'
p27
S'evals'
p28
S'hv|spread|igd|frontier#|valid#'
p29
S'timestamp'
p30
tp31
sS'columns_len'
p32
(lp33
I3
aI5
aI30
aI9
asS'buffindex'
p34
I6
sS'chapters'
p35
ccollections
defaultdict
p36
(g3
tp37
Rp38
sbsS'SPEA2-SIP'
p39
g2
(g3
g4
(lp40
(dp41
g7
(F0.116
F0.83
F0.032
I11
I17
tp42
sg9
F0.061299800872802734
sg10
I100
sg11
I0
sa(dp43
g7
(F0.206
F0.581
F0.032
I100
I100
tp44
sg9
F77.14929389953613
sg10
I100
sg11
I100
sa(dp45
g7
(F0.208
F0.642
F0.034
I100
I100
tp46
sg9
F163.65428185462952
sg10
I100
sg11
I200
sa(dp47
g7
(F0.21
F0.615
F0.035
I100
I100
tp48
sg9
F250.64516687393188
sg10
I100
sg11
I300
sa(dp49
g7
(F0.21
F0.673
F0.036
I100
I100
tp50
sg9
F337.79555892944336
sg10
I100
sg11
I400
sa(dp51
g7
(F0.212
F0.604
F0.037
I100
I100
tp52
sg9
F422.3154158592224
sg10
I100
sg11
I500
satp53
Rp54
(dp55
g25
I01
sg26
g31
sg32
(lp56
I3
aI5
aI31
aI9
asg34
I6
sg35
g36
(g3
tp57
Rp58
sbsS'SPEA2'
p59
g2
(g3
g4
(lp60
(dp61
g7
(F0.06
F1.14
F0.042
I1
I1
tp62
sg9
F0.03751492500305176
sg10
I100
sg11
I0
sa(dp63
g7
(I0
I0
I0
I0
I0
tp64
sg9
F105.3991768360138
sg10
I100
sg11
I100
sa(dp65
g7
g64
sg9
F222.35682082176208
sg10
I100
sg11
I200
sa(dp66
g7
g64
sg9
F347.8411018848419
sg10
I100
sg11
I300
sa(dp67
g7
g64
sg9
F468.9265229701996
sg10
I100
sg11
I400
sa(dp68
g7
g64
sg9
F595.3042089939117
sg10
I100
sg11
I500
satp69
Rp70
(dp71
g25
I01
sg26
g31
sg32
(lp72
I3
aI5
aI30
aI9
asg34
I6
sg35
g36
(g3
tp73
Rp74
sbsS'IBEA-PEN'
p75
g2
(g3
g4
(lp76
(dp77
g7
(F0.138
F0.61
F0.028
I23
I33
tp78
sg9
F0.13256096839904785
sg10
I100
sg11
I0
sa(dp79
g7
(F0.193
F0.618
F0.04
I54
I93
tp80
sg9
F9.61340594291687
sg10
I100
sg11
I100
sa(dp81
g7
(F0.196
F0.594
F0.034
I56
I93
tp82
sg9
F19.472575902938843
sg10
I100
sg11
I200
sa(dp83
g7
(F0.199
F0.567
F0.032
I55
I91
tp84
sg9
F29.36059808731079
sg10
I100
sg11
I300
sa(dp85
g7
(F0.196
F0.65
F0.035
I46
I81
tp86
sg9
F39.184638023376465
sg10
I100
sg11
I400
sa(dp87
g7
(F0.198
F0.528
F0.033
I55
I91
tp88
sg9
F49.08097290992737
sg10
I100
sg11
I500
satp89
Rp90
(dp91
g25
I01
sg26
g31
sg32
(lp92
I3
aI5
aI30
aI9
asg34
I6
sg35
g36
(g3
tp93
Rp94
sbsS'IBEA'
p95
g2
(g3
g4
(lp96
(dp97
g7
g64
sg9
F0.03450298309326172
sg10
I100
sg11
I0
sa(dp98
g7
(F0.093
F0.958
F0.055
I2
I2
tp99
sg9
F7.874075174331665
sg10
I100
sg11
I100
sa(dp100
g7
(F0.084
F1.34
F0.056
I1
I1
tp101
sg9
F15.595256090164185
sg10
I100
sg11
I200
sa(dp102
g7
g64
sg9
F23.56567621231079
sg10
I100
sg11
I300
sa(dp103
g7
g64
sg9
F31.52496314048767
sg10
I100
sg11
I400
sa(dp104
g7
g64
sg9
F39.49027109146118
sg10
I100
sg11
I500
satp105
Rp106
(dp107
g25
I01
sg26
g31
sg32
(lp108
I3
aI5
aI30
aI9
asg34
I6
sg35
g36
(g3
tp109
Rp110
sbsS'NSGA2'
p111
g2
(g3
g4
(lp112
(dp113
g7
g64
sg9
F0.03438591957092285
sg10
I100
sg11
I0
sa(dp114
g7
g64
sg9
F10.621424913406372
sg10
I100
sg11
I100
sa(dp115
g7
g64
sg9
F21.180245876312256
sg10
I100
sg11
I200
sa(dp116
g7
g64
sg9
F31.742219924926758
sg10
I100
sg11
I300
sa(dp117
g7
g64
sg9
F42.283949851989746
sg10
I100
sg11
I400
sa(dp118
g7
g64
sg9
F52.835273027420044
sg10
I100
sg11
I500
satp119
Rp120
(dp121
g25
I01
sg26
g31
sg32
(lp122
I3
aI5
aI30
aI9
asg34
I6
sg35
g36
(g3
tp123
Rp124
sbsS'IBEA-SIP'
p125
g2
(g3
g4
(lp126
(dp127
g7
(F0.113
F0.76
F0.034
I15
I25
tp128
sg9
F0.07663393020629883
sg10
I100
sg11
I0
sa(dp129
g7
(F0.199
F0.659
F0.033
I61
I100
tp130
sg9
F7.456085920333862
sg10
I100
sg11
I100
sa(dp131
g7
(F0.197
F0.67
F0.037
I66
I100
tp132
sg9
F14.812553882598877
sg10
I100
sg11
I200
sa(dp133
g7
(F0.206
F0.633
F0.036
I73
I100
tp134
sg9
F22.1599178314209
sg10
I100
sg11
I300
sa(dp135
g7
(F0.201
F0.657
F0.038
I65
I100
tp136
sg9
F29.429253816604614
sg10
I100
sg11
I400
sa(dp137
g7
(F0.201
F0.652
F0.038
I71
I100
tp138
sg9
F36.97425889968872
sg10
I100
sg11
I500
satp139
Rp140
(dp141
g25
I01
sg26
g31
sg32
(lp142
I3
aI5
aI30
aI9
asg34
I6
sg35
g36
(g3
tp143
Rp144
sbs.