(dp0
S'NSGA2-SIP'
p1
ccopy_reg
_reconstructor
p2
(cdeap.tools.support
Logbook
p3
c__builtin__
list
p4
(lp5
(dp6
S'hv|spread|igd|frontier#|valid#'
p7
(F0.096
F0.808
F0.035
I12
I20
tp8
sS'timestamp'
p9
F0.07408785820007324
sS'evals'
p10
I100
sS'gen'
p11
I0
sa(dp12
g7
(F0.198
F0.684
F0.031
I97
I100
tp13
sg9
F10.631788969039917
sg10
I100
sg11
I100
sa(dp14
g7
(F0.202
F0.585
F0.032
I99
I100
tp15
sg9
F21.29271101951599
sg10
I100
sg11
I200
sa(dp16
g7
(F0.203
F0.618
F0.031
I92
I100
tp17
sg9
F31.764623880386353
sg10
I100
sg11
I300
sa(dp18
g7
(F0.207
F0.601
F0.033
I98
I100
tp19
sg9
F42.469682931900024
sg10
I100
sg11
I400
sa(dp20
g7
(F0.206
F0.656
F0.032
I96
I100
tp21
sg9
F52.90849685668945
sg10
I100
sg11
I500
satp22
Rp23
(dp24
S'log_header'
p25
I01
sS'header'
p26
(S'gen'
p27
S'evals'
p28
S'hv|spread|igd|frontier#|valid#'
p29
S'timestamp'
p30
tp31
sS'columns_len'
p32
(lp33
I3
aI5
aI30
aI9
asS'buffindex'
p34
I6
sS'chapters'
p35
ccollections
defaultdict
p36
(g3
tp37
Rp38
sbsS'SPEA2-SIP'
p39
g2
(g3
g4
(lp40
(dp41
g7
(F0.112
F0.678
F0.041
I12
I21
tp42
sg9
F0.07418298721313477
sg10
I100
sg11
I0
sa(dp43
g7
(F0.202
F0.648
F0.033
I100
I100
tp44
sg9
F83.77392601966858
sg10
I100
sg11
I100
sa(dp45
g7
(F0.205
F0.618
F0.035
I100
I100
tp46
sg9
F176.06066608428955
sg10
I100
sg11
I200
sa(dp47
g7
(F0.207
F0.582
F0.036
I100
I100
tp48
sg9
F267.2799439430237
sg10
I100
sg11
I300
sa(dp49
g7
(F0.208
F0.638
F0.036
I100
I100
tp50
sg9
F357.78318190574646
sg10
I100
sg11
I400
sa(dp51
g7
(F0.21
F0.701
F0.036
I100
I100
tp52
sg9
F448.08270502090454
sg10
I100
sg11
I500
satp53
Rp54
(dp55
g25
I01
sg26
g31
sg32
(lp56
I3
aI5
aI31
aI9
asg34
I6
sg35
g36
(g3
tp57
Rp58
sbsS'SPEA2'
p59
g2
(g3
g4
(lp60
(dp61
g7
(I0
I0
I0
I0
I0
tp62
sg9
F0.03847694396972656
sg10
I100
sg11
I0
sa(dp63
g7
g62
sg9
F107.8383560180664
sg10
I100
sg11
I100
sa(dp64
g7
g62
sg9
F235.55415511131287
sg10
I100
sg11
I200
sa(dp65
g7
(F0.063
F1.38
F0.03
I1
I1
tp66
sg9
F369.82204508781433
sg10
I100
sg11
I300
sa(dp67
g7
(F0.063
F1.38
F0.03
I1
I1
tp68
sg9
F501.1406149864197
sg10
I100
sg11
I400
sa(dp69
g7
g62
sg9
F632.6346130371094
sg10
I100
sg11
I500
satp70
Rp71
(dp72
g25
I01
sg26
g31
sg32
(lp73
I3
aI5
aI30
aI9
asg34
I6
sg35
g36
(g3
tp74
Rp75
sbsS'IBEA-PEN'
p76
g2
(g3
g4
(lp77
(dp78
g7
(F0.134
F0.831
F0.023
I22
I31
tp79
sg9
F0.15540814399719238
sg10
I100
sg11
I0
sa(dp80
g7
g62
sg9
F8.594674110412598
sg10
I100
sg11
I100
sa(dp81
g7
g62
sg9
F17.030349016189575
sg10
I100
sg11
I200
sa(dp82
g7
g62
sg9
F25.50667715072632
sg10
I100
sg11
I300
sa(dp83
g7
g62
sg9
F33.98062014579773
sg10
I100
sg11
I400
sa(dp84
g7
(F0.092
F0.972
F0.078
I3
I3
tp85
sg9
F42.448156118392944
sg10
I100
sg11
I500
satp86
Rp87
(dp88
g25
I01
sg26
g31
sg32
(lp89
I3
aI5
aI30
aI9
asg34
I6
sg35
g36
(g3
tp90
Rp91
sbsS'IBEA'
p92
g2
(g3
g4
(lp93
(dp94
g7
g62
sg9
F0.037989139556884766
sg10
I100
sg11
I0
sa(dp95
g7
(F0.059
F1.52
F0.062
I1
I1
tp96
sg9
F8.402200937271118
sg10
I100
sg11
I100
sa(dp97
g7
(F0.075
F1.42
F0.078
I1
I1
tp98
sg9
F16.87259316444397
sg10
I100
sg11
I200
sa(dp99
g7
(F0.082
F1.3
F0.047
I1
I1
tp100
sg9
F25.333409070968628
sg10
I100
sg11
I300
sa(dp101
g7
g62
sg9
F33.77271103858948
sg10
I100
sg11
I400
sa(dp102
g7
g62
sg9
F42.20590114593506
sg10
I100
sg11
I500
satp103
Rp104
(dp105
g25
I01
sg26
g31
sg32
(lp106
I3
aI5
aI30
aI9
asg34
I6
sg35
g36
(g3
tp107
Rp108
sbsS'NSGA2'
p109
g2
(g3
g4
(lp110
(dp111
g7
g62
sg9
F0.03854680061340332
sg10
I100
sg11
I0
sa(dp112
g7
g62
sg9
F12.254288911819458
sg10
I100
sg11
I100
sa(dp113
g7
g62
sg9
F24.546831846237183
sg10
I100
sg11
I200
sa(dp114
g7
g62
sg9
F36.601059913635254
sg10
I100
sg11
I300
sa(dp115
g7
g62
sg9
F48.739099979400635
sg10
I100
sg11
I400
sa(dp116
g7
g62
sg9
F60.83274292945862
sg10
I100
sg11
I500
satp117
Rp118
(dp119
g25
I01
sg26
g31
sg32
(lp120
I3
aI5
aI30
aI9
asg34
I6
sg35
g36
(g3
tp121
Rp122
sbsS'IBEA-SIP'
p123
g2
(g3
g4
(lp124
(dp125
g7
(F0.116
F0.81
F0.034
I13
I19
tp126
sg9
F0.07717585563659668
sg10
I100
sg11
I0
sa(dp127
g7
(F0.202
F0.64
F0.035
I69
I100
tp128
sg9
F8.022462844848633
sg10
I100
sg11
I100
sa(dp129
g7
(F0.2
F0.609
F0.038
I64
I100
tp130
sg9
F16.055579900741577
sg10
I100
sg11
I200
sa(dp131
g7
(F0.2
F0.682
F0.04
I65
I100
tp132
sg9
F24.06586480140686
sg10
I100
sg11
I300
sa(dp133
g7
(F0.203
F0.649
F0.038
I60
I100
tp134
sg9
F32.01838183403015
sg10
I100
sg11
I400
sa(dp135
g7
(F0.198
F0.64
F0.037
I64
I100
tp136
sg9
F40.03568696975708
sg10
I100
sg11
I500
satp137
Rp138
(dp139
g25
I01
sg26
g31
sg32
(lp140
I3
aI5
aI30
aI9
asg34
I6
sg35
g36
(g3
tp141
Rp142
sbs.