(dp0
S'NSGA2-SIP'
p1
ccopy_reg
_reconstructor
p2
(cdeap.tools.support
Logbook
p3
c__builtin__
list
p4
(lp5
(dp6
S'hv|spread|igd|frontier#|valid#'
p7
(F0.126
F0.779
F0.036
I17
I26
tp8
sS'timestamp'
p9
F0.07694602012634277
sS'evals'
p10
I100
sS'gen'
p11
I0
sa(dp12
g7
(F0.201
F0.686
F0.032
I98
I100
tp13
sg9
F8.489886999130249
sg10
I100
sg11
I100
sa(dp14
g7
(F0.201
F0.609
F0.032
I97
I100
tp15
sg9
F16.845827102661133
sg10
I100
sg11
I200
sa(dp16
g7
(F0.205
F0.591
F0.033
I95
I100
tp17
sg9
F25.221999168395996
sg10
I100
sg11
I300
sa(dp18
g7
(F0.205
F0.54
F0.032
I96
I100
tp19
sg9
F33.584086179733276
sg10
I100
sg11
I400
sa(dp20
g7
(F0.205
F0.604
F0.031
I99
I100
tp21
sg9
F42.07317614555359
sg10
I100
sg11
I500
satp22
Rp23
(dp24
S'log_header'
p25
I01
sS'header'
p26
(S'gen'
p27
S'evals'
p28
S'hv|spread|igd|frontier#|valid#'
p29
S'timestamp'
p30
tp31
sS'columns_len'
p32
(lp33
I3
aI5
aI30
aI9
asS'buffindex'
p34
I6
sS'chapters'
p35
ccollections
defaultdict
p36
(g3
tp37
Rp38
sbsS'SPEA2-SIP'
p39
g2
(g3
g4
(lp40
(dp41
g7
(F0.127
F0.803
F0.032
I12
I18
tp42
sg9
F0.059327125549316406
sg10
I100
sg11
I0
sa(dp43
g7
(F0.197
F0.648
F0.032
I100
I100
tp44
sg9
F70.39701199531555
sg10
I100
sg11
I100
sa(dp45
g7
(F0.2
F0.594
F0.034
I100
I100
tp46
sg9
F148.5660481452942
sg10
I100
sg11
I200
sa(dp47
g7
(F0.203
F0.613
F0.034
I100
I100
tp48
sg9
F227.19595408439636
sg10
I100
sg11
I300
sa(dp49
g7
(F0.204
F0.643
F0.035
I100
I100
tp50
sg9
F306.68867015838623
sg10
I100
sg11
I400
sa(dp51
g7
(F0.207
F0.63
F0.036
I100
I100
tp52
sg9
F387.51788806915283
sg10
I100
sg11
I500
satp53
Rp54
(dp55
g25
I01
sg26
g31
sg32
(lp56
I3
aI5
aI31
aI9
asg34
I6
sg35
g36
(g3
tp57
Rp58
sbsS'SPEA2'
p59
g2
(g3
g4
(lp60
(dp61
g7
(I0
I0
I0
I0
I0
tp62
sg9
F0.031629085540771484
sg10
I100
sg11
I0
sa(dp63
g7
g62
sg9
F98.21272206306458
sg10
I100
sg11
I100
sa(dp64
g7
g62
sg9
F211.5356960296631
sg10
I100
sg11
I200
sa(dp65
g7
g62
sg9
F326.94149899482727
sg10
I100
sg11
I300
sa(dp66
g7
g62
sg9
F441.40820717811584
sg10
I100
sg11
I400
sa(dp67
g7
g62
sg9
F553.4907431602478
sg10
I100
sg11
I500
satp68
Rp69
(dp70
g25
I01
sg26
g31
sg32
(lp71
I3
aI5
aI30
aI9
asg34
I6
sg35
g36
(g3
tp72
Rp73
sbsS'IBEA'
p74
g2
(g3
g4
(lp75
(dp76
g7
g62
sg9
F0.03184700012207031
sg10
I100
sg11
I0
sa(dp77
g7
g62
sg9
F7.277191877365112
sg10
I100
sg11
I100
sa(dp78
g7
g62
sg9
F14.551851987838745
sg10
I100
sg11
I200
sa(dp79
g7
(F0.054
F1.56
F0.05
I1
I1
tp80
sg9
F21.822162866592407
sg10
I100
sg11
I300
sa(dp81
g7
(F0.086
F1.18
F0.101
I1
I1
tp82
sg9
F29.098707914352417
sg10
I100
sg11
I400
sa(dp83
g7
(F0.074
F0.9
F0.024
I1
I1
tp84
sg9
F36.36858797073364
sg10
I100
sg11
I500
satp85
Rp86
(dp87
g25
I01
sg26
g31
sg32
(lp88
I3
aI5
aI30
aI9
asg34
I6
sg35
g36
(g3
tp89
Rp90
sbsS'NSGA2'
p91
g2
(g3
g4
(lp92
(dp93
g7
g62
sg9
F0.03101515769958496
sg10
I100
sg11
I0
sa(dp94
g7
g62
sg9
F9.690696954727173
sg10
I100
sg11
I100
sa(dp95
g7
g62
sg9
F19.323019981384277
sg10
I100
sg11
I200
sa(dp96
g7
g62
sg9
F28.9266619682312
sg10
I100
sg11
I300
sa(dp97
g7
g62
sg9
F38.53475618362427
sg10
I100
sg11
I400
sa(dp98
g7
(F0.077
F0.86
F0.033
I1
I1
tp99
sg9
F48.16469407081604
sg10
I100
sg11
I500
satp100
Rp101
(dp102
g25
I01
sg26
g31
sg32
(lp103
I3
aI5
aI30
aI9
asg34
I6
sg35
g36
(g3
tp104
Rp105
sbsS'IBEA-SIP'
p106
g2
(g3
g4
(lp107
(dp108
g7
(F0.124
F0.823
F0.039
I19
I25
tp109
sg9
F0.08325481414794922
sg10
I100
sg11
I0
sa(dp110
g7
(F0.2
F0.691
F0.036
I71
I100
tp111
sg9
F6.8915088176727295
sg10
I100
sg11
I100
sa(dp112
g7
(F0.203
F0.657
F0.037
I67
I100
tp113
sg9
F13.776403903961182
sg10
I100
sg11
I200
sa(dp114
g7
(F0.205
F0.598
F0.04
I63
I100
tp115
sg9
F20.55342388153076
sg10
I100
sg11
I300
sa(dp116
g7
(F0.205
F0.628
F0.043
I66
I100
tp117
sg9
F27.355512857437134
sg10
I100
sg11
I400
sa(dp118
g7
(F0.205
F0.648
F0.036
I69
I100
tp119
sg9
F34.16092586517334
sg10
I100
sg11
I500
satp120
Rp121
(dp122
g25
I01
sg26
g31
sg32
(lp123
I3
aI5
aI30
aI9
asg34
I6
sg35
g36
(g3
tp124
Rp125
sbs.