(dp0
S'NSGA2-SIP'
p1
ccopy_reg
_reconstructor
p2
(cdeap.tools.support
Logbook
p3
c__builtin__
list
p4
(lp5
(dp6
S'hv|spread|igd|frontier#|valid#'
p7
(F0.123
F0.794
F0.034
I20
I26
tp8
sS'timestamp'
p9
F0.10651493072509766
sS'evals'
p10
I100
sS'gen'
p11
I0
sa(dp12
g7
(F0.2
F0.574
F0.031
I97
I100
tp13
sg9
F10.792013883590698
sg10
I100
sg11
I100
sa(dp14
g7
(F0.206
F0.61
F0.032
I98
I100
tp15
sg9
F21.408325910568237
sg10
I100
sg11
I200
sa(dp16
g7
(F0.205
F0.573
F0.031
I99
I100
tp17
sg9
F32.12667393684387
sg10
I100
sg11
I300
sa(dp18
g7
(F0.208
F0.595
F0.031
I98
I100
tp19
sg9
F42.769078969955444
sg10
I100
sg11
I400
sa(dp20
g7
(F0.207
F0.637
F0.032
I96
I100
tp21
sg9
F53.22444796562195
sg10
I100
sg11
I500
satp22
Rp23
(dp24
S'log_header'
p25
I01
sS'header'
p26
(S'gen'
p27
S'evals'
p28
S'hv|spread|igd|frontier#|valid#'
p29
S'timestamp'
p30
tp31
sS'columns_len'
p32
(lp33
I3
aI5
aI30
aI9
asS'buffindex'
p34
I6
sS'chapters'
p35
ccollections
defaultdict
p36
(g3
tp37
Rp38
sbsS'SPEA2-SIP'
p39
g2
(g3
g4
(lp40
(dp41
g7
(F0.104
F0.839
F0.037
I15
I19
tp42
sg9
F0.08593106269836426
sg10
I100
sg11
I0
sa(dp43
g7
(F0.202
F0.618
F0.033
I100
I100
tp44
sg9
F87.2348051071167
sg10
I100
sg11
I100
sa(dp45
g7
(F0.207
F0.621
F0.035
I100
I100
tp46
sg9
F184.68444299697876
sg10
I100
sg11
I200
sa(dp47
g7
(F0.208
F0.644
F0.034
I100
I100
tp48
sg9
F280.56071615219116
sg10
I100
sg11
I300
sa(dp49
g7
(F0.208
F0.63
F0.035
I100
I100
tp50
sg9
F378.6569011211395
sg10
I100
sg11
I400
sa(dp51
g7
(F0.208
F0.578
F0.034
I100
I100
tp52
sg9
F473.56323409080505
sg10
I100
sg11
I500
satp53
Rp54
(dp55
g25
I01
sg26
g31
sg32
(lp56
I3
aI5
aI31
aI9
asg34
I6
sg35
g36
(g3
tp57
Rp58
sbsS'SPEA2'
p59
g2
(g3
g4
(lp60
(dp61
g7
(I0
I0
I0
I0
I0
tp62
sg9
F0.03821396827697754
sg10
I100
sg11
I0
sa(dp63
g7
g62
sg9
F111.35798001289368
sg10
I100
sg11
I100
sa(dp64
g7
g62
sg9
F244.6229031085968
sg10
I100
sg11
I200
sa(dp65
g7
g62
sg9
F377.10772490501404
sg10
I100
sg11
I300
sa(dp66
g7
g62
sg9
F504.8955020904541
sg10
I100
sg11
I400
sa(dp67
g7
g62
sg9
F635.7430129051208
sg10
I100
sg11
I500
satp68
Rp69
(dp70
g25
I01
sg26
g31
sg32
(lp71
I3
aI5
aI30
aI9
asg34
I6
sg35
g36
(g3
tp72
Rp73
sbsS'IBEA-PEN'
p74
g2
(g3
g4
(lp75
(dp76
g7
(F0.125
F0.617
F0.03
I28
I41
tp77
sg9
F0.1822209358215332
sg10
I100
sg11
I0
sa(dp78
g7
g62
sg9
F8.675086975097656
sg10
I100
sg11
I100
sa(dp79
g7
(F0.044
F2.586
F0.051
I1
I1
tp80
sg9
F17.110793828964233
sg10
I100
sg11
I200
sa(dp81
g7
g62
sg9
F25.545883893966675
sg10
I100
sg11
I300
sa(dp82
g7
g62
sg9
F33.963768005371094
sg10
I100
sg11
I400
sa(dp83
g7
g62
sg9
F42.42078995704651
sg10
I100
sg11
I500
satp84
Rp85
(dp86
g25
I01
sg26
g31
sg32
(lp87
I3
aI5
aI30
aI9
asg34
I6
sg35
g36
(g3
tp88
Rp89
sbsS'IBEA'
p90
g2
(g3
g4
(lp91
(dp92
g7
(F0.088
F0.916
F0.04
I2
I2
tp93
sg9
F0.04518914222717285
sg10
I100
sg11
I0
sa(dp94
g7
(F0.094
F1.14
F0.067
I1
I1
tp95
sg9
F8.285866022109985
sg10
I100
sg11
I100
sa(dp96
g7
g62
sg9
F16.60458016395569
sg10
I100
sg11
I200
sa(dp97
g7
g62
sg9
F24.93198299407959
sg10
I100
sg11
I300
sa(dp98
g7
(F0.089
F1.18
F0.091
I1
I1
tp99
sg9
F33.17438006401062
sg10
I100
sg11
I400
sa(dp100
g7
g62
sg9
F41.47459006309509
sg10
I100
sg11
I500
satp101
Rp102
(dp103
g25
I01
sg26
g31
sg32
(lp104
I3
aI5
aI30
aI9
asg34
I6
sg35
g36
(g3
tp105
Rp106
sbsS'NSGA2'
p107
g2
(g3
g4
(lp108
(dp109
g7
(F0.054
F0.98
F0.037
I1
I1
tp110
sg9
F0.041670799255371094
sg10
I100
sg11
I0
sa(dp111
g7
(F0.044
F1.52
F0.014
I1
I1
tp112
sg9
F12.198827981948853
sg10
I100
sg11
I100
sa(dp113
g7
g62
sg9
F24.33626103401184
sg10
I100
sg11
I200
sa(dp114
g7
(F0.075
F1.34
F0.037
I1
I1
tp115
sg9
F36.41250801086426
sg10
I100
sg11
I300
sa(dp116
g7
g62
sg9
F48.48495888710022
sg10
I100
sg11
I400
sa(dp117
g7
g62
sg9
F60.53717589378357
sg10
I100
sg11
I500
satp118
Rp119
(dp120
g25
I01
sg26
g31
sg32
(lp121
I3
aI5
aI30
aI9
asg34
I6
sg35
g36
(g3
tp122
Rp123
sbsS'IBEA-SIP'
p124
g2
(g3
g4
(lp125
(dp126
g7
(F0.121
F0.931
F0.022
I13
I24
tp127
sg9
F0.0779411792755127
sg10
I100
sg11
I0
sa(dp128
g7
(F0.204
F0.519
F0.035
I70
I100
tp129
sg9
F8.050770044326782
sg10
I100
sg11
I100
sa(dp130
g7
(F0.201
F0.683
F0.037
I62
I100
tp131
sg9
F15.955145120620728
sg10
I100
sg11
I200
sa(dp132
g7
(F0.195
F0.573
F0.036
I59
I100
tp133
sg9
F23.820160150527954
sg10
I100
sg11
I300
sa(dp134
g7
(F0.201
F0.691
F0.04
I61
I100
tp135
sg9
F31.791731119155884
sg10
I100
sg11
I400
sa(dp136
g7
(F0.2
F0.577
F0.036
I68
I100
tp137
sg9
F39.79680109024048
sg10
I100
sg11
I500
satp138
Rp139
(dp140
g25
I01
sg26
g31
sg32
(lp141
I3
aI5
aI30
aI9
asg34
I6
sg35
g36
(g3
tp142
Rp143
sbs.