(dp0
S'NSGA2-SIP'
p1
ccopy_reg
_reconstructor
p2
(cdeap.tools.support
Logbook
p3
c__builtin__
list
p4
(lp5
(dp6
S'hv|spread|igd|frontier#|valid#'
p7
(F0.128
F0.832
F0.032
I18
I22
tp8
sS'timestamp'
p9
F0.09289193153381348
sS'evals'
p10
I100
sS'gen'
p11
I0
sa(dp12
g7
(F0.199
F0.583
F0.031
I98
I100
tp13
sg9
F9.817806959152222
sg10
I100
sg11
I100
sa(dp14
g7
(F0.202
F0.618
F0.03
I99
I100
tp15
sg9
F19.54101300239563
sg10
I100
sg11
I200
sa(dp16
g7
(F0.204
F0.706
F0.033
I98
I100
tp17
sg9
F29.357481002807617
sg10
I100
sg11
I300
sa(dp18
g7
(F0.202
F0.606
F0.03
I96
I100
tp19
sg9
F39.171298027038574
sg10
I100
sg11
I400
sa(dp20
g7
(F0.203
F0.642
F0.031
I96
I100
tp21
sg9
F48.991694927215576
sg10
I100
sg11
I500
satp22
Rp23
(dp24
S'log_header'
p25
I01
sS'header'
p26
(S'gen'
p27
S'evals'
p28
S'hv|spread|igd|frontier#|valid#'
p29
S'timestamp'
p30
tp31
sS'columns_len'
p32
(lp33
I3
aI5
aI30
aI9
asS'buffindex'
p34
I6
sS'chapters'
p35
ccollections
defaultdict
p36
(g3
tp37
Rp38
sbsS'SPEA2-SIP'
p39
g2
(g3
g4
(lp40
(dp41
g7
(F0.118
F0.968
F0.033
I13
I22
tp42
sg9
F0.07399392127990723
sg10
I100
sg11
I0
sa(dp43
g7
(F0.197
F0.608
F0.033
I100
I100
tp44
sg9
F86.63987612724304
sg10
I100
sg11
I100
sa(dp45
g7
(F0.202
F0.612
F0.034
I100
I100
tp46
sg9
F180.53212714195251
sg10
I100
sg11
I200
sa(dp47
g7
(F0.204
F0.578
F0.036
I100
I100
tp48
sg9
F274.60819697380066
sg10
I100
sg11
I300
sa(dp49
g7
(F0.205
F0.662
F0.037
I100
I100
tp50
sg9
F370.795921087265
sg10
I100
sg11
I400
sa(dp51
g7
(F0.204
F0.671
F0.036
I100
I100
tp52
sg9
F466.8016231060028
sg10
I100
sg11
I500
satp53
Rp54
(dp55
g25
I01
sg26
g31
sg32
(lp56
I3
aI5
aI31
aI9
asg34
I6
sg35
g36
(g3
tp57
Rp58
sbsS'SPEA2'
p59
g2
(g3
g4
(lp60
(dp61
g7
(I0
I0
I0
I0
I0
tp62
sg9
F0.036435842514038086
sg10
I100
sg11
I0
sa(dp63
g7
g62
sg9
F121.63696599006653
sg10
I100
sg11
I100
sa(dp64
g7
g62
sg9
F257.47369503974915
sg10
I100
sg11
I200
sa(dp65
g7
g62
sg9
F390.05696392059326
sg10
I100
sg11
I300
sa(dp66
g7
g62
sg9
F531.1399879455566
sg10
I100
sg11
I400
sa(dp67
g7
g62
sg9
F670.8768239021301
sg10
I100
sg11
I500
satp68
Rp69
(dp70
g25
I01
sg26
g31
sg32
(lp71
I3
aI5
aI30
aI9
asg34
I6
sg35
g36
(g3
tp72
Rp73
sbsS'IBEA-PEN'
p74
g2
(g3
g4
(lp75
(dp76
g7
(F0.135
F0.649
F0.027
I29
I44
tp77
sg9
F0.16701984405517578
sg10
I100
sg11
I0
sa(dp78
g7
(F0.194
F0.638
F0.033
I49
I85
tp79
sg9
F10.430974960327148
sg10
I100
sg11
I100
sa(dp80
g7
(F0.197
F0.689
F0.036
I53
I89
tp81
sg9
F20.813004970550537
sg10
I100
sg11
I200
sa(dp82
g7
(F0.2
F0.594
F0.032
I56
I92
tp83
sg9
F31.20070505142212
sg10
I100
sg11
I300
sa(dp84
g7
(F0.189
F0.626
F0.046
I49
I89
tp85
sg9
F41.58865785598755
sg10
I100
sg11
I400
sa(dp86
g7
(F0.187
F0.74
F0.034
I44
I84
tp87
sg9
F51.96098804473877
sg10
I100
sg11
I500
satp88
Rp89
(dp90
g25
I01
sg26
g31
sg32
(lp91
I3
aI5
aI30
aI9
asg34
I6
sg35
g36
(g3
tp92
Rp93
sbsS'IBEA'
p94
g2
(g3
g4
(lp95
(dp96
g7
g62
sg9
F0.035784006118774414
sg10
I100
sg11
I0
sa(dp97
g7
(F0.094
F0.98
F0.073
I1
I1
tp98
sg9
F8.395983934402466
sg10
I100
sg11
I100
sa(dp99
g7
(F0.077
F0.78
F0.065
I1
I1
tp100
sg9
F16.834430932998657
sg10
I100
sg11
I200
sa(dp101
g7
g62
sg9
F25.2962429523468
sg10
I100
sg11
I300
sa(dp102
g7
(F0.08
F1.3
F0.069
I1
I1
tp103
sg9
F33.74550795555115
sg10
I100
sg11
I400
sa(dp104
g7
(F0.074
F2.385
F0.036
I1
I1
tp105
sg9
F42.20698595046997
sg10
I100
sg11
I500
satp106
Rp107
(dp108
g25
I01
sg26
g31
sg32
(lp109
I3
aI5
aI30
aI9
asg34
I6
sg35
g36
(g3
tp110
Rp111
sbsS'NSGA2'
p112
g2
(g3
g4
(lp113
(dp114
g7
(F0.068
F0.86
F0.02
I1
I1
tp115
sg9
F0.03943800926208496
sg10
I100
sg11
I0
sa(dp116
g7
g62
sg9
F11.29330587387085
sg10
I100
sg11
I100
sa(dp117
g7
g62
sg9
F22.459808826446533
sg10
I100
sg11
I200
sa(dp118
g7
g62
sg9
F33.58705496788025
sg10
I100
sg11
I300
sa(dp119
g7
g62
sg9
F44.72050189971924
sg10
I100
sg11
I400
sa(dp120
g7
g62
sg9
F55.8993878364563
sg10
I100
sg11
I500
satp121
Rp122
(dp123
g25
I01
sg26
g31
sg32
(lp124
I3
aI5
aI30
aI9
asg34
I6
sg35
g36
(g3
tp125
Rp126
sbsS'IBEA-SIP'
p127
g2
(g3
g4
(lp128
(dp129
g7
(F0.129
F0.832
F0.036
I15
I18
tp130
sg9
F0.0804750919342041
sg10
I100
sg11
I0
sa(dp131
g7
(F0.197
F0.592
F0.035
I73
I100
tp132
sg9
F8.050106048583984
sg10
I100
sg11
I100
sa(dp133
g7
(F0.197
F0.67
F0.037
I70
I100
tp134
sg9
F16.09148597717285
sg10
I100
sg11
I200
sa(dp135
g7
(F0.198
F0.756
F0.039
I68
I100
tp136
sg9
F24.064111948013306
sg10
I100
sg11
I300
sa(dp137
g7
(F0.203
F0.667
F0.039
I67
I100
tp138
sg9
F32.0392529964447
sg10
I100
sg11
I400
sa(dp139
g7
(F0.204
F0.655
F0.041
I64
I100
tp140
sg9
F40.0475640296936
sg10
I100
sg11
I500
satp141
Rp142
(dp143
g25
I01
sg26
g31
sg32
(lp144
I3
aI5
aI30
aI9
asg34
I6
sg35
g36
(g3
tp145
Rp146
sbs.