(dp0
S'NSGA2-SIP'
p1
ccopy_reg
_reconstructor
p2
(cdeap.tools.support
Logbook
p3
c__builtin__
list
p4
(lp5
(dp6
S'hv|spread|igd|frontier#|valid#'
p7
(F0.112
F0.785
F0.043
I13
I18
tp8
sS'timestamp'
p9
F0.06773900985717773
sS'evals'
p10
I100
sS'gen'
p11
I0
sa(dp12
g7
(F0.201
F0.628
F0.029
I99
I100
tp13
sg9
F9.434230089187622
sg10
I100
sg11
I100
sa(dp14
g7
(F0.205
F0.625
F0.031
I95
I100
tp15
sg9
F18.712337970733643
sg10
I100
sg11
I200
sa(dp16
g7
(F0.207
F0.64
F0.032
I98
I100
tp17
sg9
F27.95368194580078
sg10
I100
sg11
I300
sa(dp18
g7
(F0.207
F0.624
F0.03
I96
I100
tp19
sg9
F37.11662006378174
sg10
I100
sg11
I400
sa(dp20
g7
(F0.209
F0.632
F0.033
I97
I100
tp21
sg9
F46.34828305244446
sg10
I100
sg11
I500
satp22
Rp23
(dp24
S'log_header'
p25
I01
sS'header'
p26
(S'gen'
p27
S'evals'
p28
S'hv|spread|igd|frontier#|valid#'
p29
S'timestamp'
p30
tp31
sS'columns_len'
p32
(lp33
I3
aI5
aI30
aI9
asS'buffindex'
p34
I6
sS'chapters'
p35
ccollections
defaultdict
p36
(g3
tp37
Rp38
sbsS'SPEA2-SIP'
p39
g2
(g3
g4
(lp40
(dp41
g7
(F0.125
F0.796
F0.036
I19
I27
tp42
sg9
F0.09083390235900879
sg10
I100
sg11
I0
sa(dp43
g7
(F0.198
F0.653
F0.032
I100
I100
tp44
sg9
F85.39886498451233
sg10
I100
sg11
I100
sa(dp45
g7
(F0.202
F0.58
F0.034
I100
I100
tp46
sg9
F174.0903389453888
sg10
I100
sg11
I200
sa(dp47
g7
(F0.203
F0.661
F0.034
I100
I100
tp48
sg9
F263.4303228855133
sg10
I100
sg11
I300
sa(dp49
g7
(F0.205
F0.608
F0.034
I100
I100
tp50
sg9
F354.5781970024109
sg10
I100
sg11
I400
sa(dp51
g7
(F0.208
F0.635
F0.036
I100
I100
tp52
sg9
F442.6772119998932
sg10
I100
sg11
I500
satp53
Rp54
(dp55
g25
I01
sg26
g31
sg32
(lp56
I3
aI5
aI31
aI9
asg34
I6
sg35
g36
(g3
tp57
Rp58
sbsS'SPEA2'
p59
g2
(g3
g4
(lp60
(dp61
g7
(I0
I0
I0
I0
I0
tp62
sg9
F0.033605098724365234
sg10
I100
sg11
I0
sa(dp63
g7
g62
sg9
F112.94528007507324
sg10
I100
sg11
I100
sa(dp64
g7
g62
sg9
F237.62404203414917
sg10
I100
sg11
I200
sa(dp65
g7
g62
sg9
F361.8840880393982
sg10
I100
sg11
I300
sa(dp66
g7
g62
sg9
F492.90672612190247
sg10
I100
sg11
I400
sa(dp67
g7
g62
sg9
F622.128909111023
sg10
I100
sg11
I500
satp68
Rp69
(dp70
g25
I01
sg26
g31
sg32
(lp71
I3
aI5
aI30
aI9
asg34
I6
sg35
g36
(g3
tp72
Rp73
sbsS'IBEA-PEN'
p74
g2
(g3
g4
(lp75
(dp76
g7
(F0.136
F0.731
F0.032
I31
I39
tp77
sg9
F0.17493486404418945
sg10
I100
sg11
I0
sa(dp78
g7
g62
sg9
F8.213903903961182
sg10
I100
sg11
I100
sa(dp79
g7
g62
sg9
F16.294010877609253
sg10
I100
sg11
I200
sa(dp80
g7
g62
sg9
F24.385359048843384
sg10
I100
sg11
I300
sa(dp81
g7
g62
sg9
F32.46729898452759
sg10
I100
sg11
I400
sa(dp82
g7
(F0.097
F0.962
F0.038
I2
I2
tp83
sg9
F40.57538104057312
sg10
I100
sg11
I500
satp84
Rp85
(dp86
g25
I01
sg26
g31
sg32
(lp87
I3
aI5
aI30
aI9
asg34
I6
sg35
g36
(g3
tp88
Rp89
sbsS'IBEA'
p90
g2
(g3
g4
(lp91
(dp92
g7
g62
sg9
F0.03393697738647461
sg10
I100
sg11
I0
sa(dp93
g7
g62
sg9
F7.862339973449707
sg10
I100
sg11
I100
sa(dp94
g7
g62
sg9
F15.87565302848816
sg10
I100
sg11
I200
sa(dp95
g7
(F0.082
F0.82
F0.056
I1
I1
tp96
sg9
F23.894427061080933
sg10
I100
sg11
I300
sa(dp97
g7
g62
sg9
F31.911408185958862
sg10
I100
sg11
I400
sa(dp98
g7
g62
sg9
F39.92239212989807
sg10
I100
sg11
I500
satp99
Rp100
(dp101
g25
I01
sg26
g31
sg32
(lp102
I3
aI5
aI30
aI9
asg34
I6
sg35
g36
(g3
tp103
Rp104
sbsS'NSGA2'
p105
g2
(g3
g4
(lp106
(dp107
g7
(F0.068
F2.343
F0.028
I1
I1
tp108
sg9
F0.040331125259399414
sg10
I100
sg11
I0
sa(dp109
g7
g62
sg9
F10.629739999771118
sg10
I100
sg11
I100
sa(dp110
g7
g62
sg9
F21.121811151504517
sg10
I100
sg11
I200
sa(dp111
g7
g62
sg9
F31.57693099975586
sg10
I100
sg11
I300
sa(dp112
g7
g62
sg9
F42.134724140167236
sg10
I100
sg11
I400
sa(dp113
g7
g62
sg9
F52.66012716293335
sg10
I100
sg11
I500
satp114
Rp115
(dp116
g25
I01
sg26
g31
sg32
(lp117
I3
aI5
aI30
aI9
asg34
I6
sg35
g36
(g3
tp118
Rp119
sbsS'IBEA-SIP'
p120
g2
(g3
g4
(lp121
(dp122
g7
(F0.113
F0.729
F0.038
I13
I16
tp123
sg9
F0.06855082511901855
sg10
I100
sg11
I0
sa(dp124
g7
(F0.199
F0.662
F0.035
I72
I100
tp125
sg9
F7.584283828735352
sg10
I100
sg11
I100
sa(dp126
g7
(F0.203
F0.581
F0.034
I71
I100
tp127
sg9
F15.121856927871704
sg10
I100
sg11
I200
sa(dp128
g7
(F0.202
F0.708
F0.037
I65
I100
tp129
sg9
F22.69352102279663
sg10
I100
sg11
I300
sa(dp130
g7
(F0.202
F0.655
F0.037
I65
I100
tp131
sg9
F30.168452978134155
sg10
I100
sg11
I400
sa(dp132
g7
(F0.207
F0.686
F0.034
I67
I100
tp133
sg9
F37.758466958999634
sg10
I100
sg11
I500
satp134
Rp135
(dp136
g25
I01
sg26
g31
sg32
(lp137
I3
aI5
aI30
aI9
asg34
I6
sg35
g36
(g3
tp138
Rp139
sbs.