(dp0
S'NSGA2-SIP'
p1
ccopy_reg
_reconstructor
p2
(cdeap.tools.support
Logbook
p3
c__builtin__
list
p4
(lp5
(dp6
S'hv|spread|igd|frontier#|valid#'
p7
(F0.128
F0.841
F0.029
I10
I13
tp8
sS'timestamp'
p9
F0.058621883392333984
sS'evals'
p10
I100
sS'gen'
p11
I0
sa(dp12
g7
(F0.2
F0.607
F0.03
I98
I100
tp13
sg9
F8.774277925491333
sg10
I100
sg11
I100
sa(dp14
g7
(F0.201
F0.529
F0.03
I96
I100
tp15
sg9
F17.180520057678223
sg10
I100
sg11
I200
sa(dp16
g7
(F0.203
F0.578
F0.03
I98
I100
tp17
sg9
F25.509023904800415
sg10
I100
sg11
I300
sa(dp18
g7
(F0.205
F0.587
F0.032
I99
I100
tp19
sg9
F33.89700388908386
sg10
I100
sg11
I400
sa(dp20
g7
(F0.208
F0.618
F0.034
I97
I100
tp21
sg9
F42.158907890319824
sg10
I100
sg11
I500
satp22
Rp23
(dp24
S'log_header'
p25
I01
sS'header'
p26
(S'gen'
p27
S'evals'
p28
S'hv|spread|igd|frontier#|valid#'
p29
S'timestamp'
p30
tp31
sS'columns_len'
p32
(lp33
I3
aI5
aI30
aI9
asS'buffindex'
p34
I6
sS'chapters'
p35
ccollections
defaultdict
p36
(g3
tp37
Rp38
sbsS'SPEA2-SIP'
p39
g2
(g3
g4
(lp40
(dp41
g7
(F0.11
F0.808
F0.044
I13
I19
tp42
sg9
F0.06940197944641113
sg10
I100
sg11
I0
sa(dp43
g7
(F0.199
F0.624
F0.033
I100
I100
tp44
sg9
F72.23255610466003
sg10
I100
sg11
I100
sa(dp45
g7
(F0.206
F0.612
F0.035
I100
I100
tp46
sg9
F153.6122531890869
sg10
I100
sg11
I200
sa(dp47
g7
(F0.206
F0.635
F0.035
I100
I100
tp48
sg9
F233.64059400558472
sg10
I100
sg11
I300
sa(dp49
g7
(F0.208
F0.6
F0.036
I100
I100
tp50
sg9
F311.07225704193115
sg10
I100
sg11
I400
sa(dp51
g7
(F0.208
F0.585
F0.036
I100
I100
tp52
sg9
F391.84365797042847
sg10
I100
sg11
I500
satp53
Rp54
(dp55
g25
I01
sg26
g31
sg32
(lp56
I3
aI5
aI31
aI9
asg34
I6
sg35
g36
(g3
tp57
Rp58
sbsS'SPEA2'
p59
g2
(g3
g4
(lp60
(dp61
g7
(I0
I0
I0
I0
I0
tp62
sg9
F0.034726858139038086
sg10
I100
sg11
I0
sa(dp63
g7
g62
sg9
F95.464998960495
sg10
I100
sg11
I100
sa(dp64
g7
g62
sg9
F206.8308048248291
sg10
I100
sg11
I200
sa(dp65
g7
g62
sg9
F317.79416704177856
sg10
I100
sg11
I300
sa(dp66
g7
g62
sg9
F431.90081882476807
sg10
I100
sg11
I400
sa(dp67
g7
g62
sg9
F544.5852048397064
sg10
I100
sg11
I500
satp68
Rp69
(dp70
g25
I01
sg26
g31
sg32
(lp71
I3
aI5
aI30
aI9
asg34
I6
sg35
g36
(g3
tp72
Rp73
sbsS'IBEA-PEN'
p74
g2
(g3
g4
(lp75
(dp76
g7
(F0.139
F0.655
F0.03
I30
I46
tp77
sg9
F0.16966605186462402
sg10
I100
sg11
I0
sa(dp78
g7
(F0.051
F1.56
F0.063
I1
I1
tp79
sg9
F7.899492025375366
sg10
I100
sg11
I100
sa(dp80
g7
g62
sg9
F15.203200101852417
sg10
I100
sg11
I200
sa(dp81
g7
g62
sg9
F22.525114059448242
sg10
I100
sg11
I300
sa(dp82
g7
g62
sg9
F29.84101104736328
sg10
I100
sg11
I400
sa(dp83
g7
g62
sg9
F37.16004300117493
sg10
I100
sg11
I500
satp84
Rp85
(dp86
g25
I01
sg26
g31
sg32
(lp87
I3
aI5
aI30
aI9
asg34
I6
sg35
g36
(g3
tp88
Rp89
sbsS'IBEA'
p90
g2
(g3
g4
(lp91
(dp92
g7
g62
sg9
F0.03494405746459961
sg10
I100
sg11
I0
sa(dp93
g7
(F0.081
F0.86
F0.057
I1
I1
tp94
sg9
F7.392253160476685
sg10
I100
sg11
I100
sa(dp95
g7
g62
sg9
F14.654105186462402
sg10
I100
sg11
I200
sa(dp96
g7
(F0.087
F1.26
F0.07
I1
I1
tp97
sg9
F21.949016094207764
sg10
I100
sg11
I300
sa(dp98
g7
g62
sg9
F29.168260097503662
sg10
I100
sg11
I400
sa(dp99
g7
g62
sg9
F36.4712131023407
sg10
I100
sg11
I500
satp100
Rp101
(dp102
g25
I01
sg26
g31
sg32
(lp103
I3
aI5
aI30
aI9
asg34
I6
sg35
g36
(g3
tp104
Rp105
sbsS'NSGA2'
p106
g2
(g3
g4
(lp107
(dp108
g7
(F0.075
F0.918
F0.033
I2
I2
tp109
sg9
F0.0404050350189209
sg10
I100
sg11
I0
sa(dp110
g7
g62
sg9
F9.844007015228271
sg10
I100
sg11
I100
sa(dp111
g7
g62
sg9
F19.35620903968811
sg10
I100
sg11
I200
sa(dp112
g7
g62
sg9
F28.868200063705444
sg10
I100
sg11
I300
sa(dp113
g7
g62
sg9
F38.36422801017761
sg10
I100
sg11
I400
sa(dp114
g7
g62
sg9
F47.872178077697754
sg10
I100
sg11
I500
satp115
Rp116
(dp117
g25
I01
sg26
g31
sg32
(lp118
I3
aI5
aI30
aI9
asg34
I6
sg35
g36
(g3
tp119
Rp120
sbsS'IBEA-SIP'
p121
g2
(g3
g4
(lp122
(dp123
g7
(F0.101
F0.81
F0.034
I14
I17
tp124
sg9
F0.07229399681091309
sg10
I100
sg11
I0
sa(dp125
g7
(F0.202
F0.686
F0.038
I70
I100
tp126
sg9
F7.068711996078491
sg10
I100
sg11
I100
sa(dp127
g7
(F0.203
F0.766
F0.037
I65
I100
tp128
sg9
F13.907214879989624
sg10
I100
sg11
I200
sa(dp129
g7
(F0.201
F0.586
F0.037
I58
I100
tp130
sg9
F20.670835971832275
sg10
I100
sg11
I300
sa(dp131
g7
(F0.201
F0.643
F0.04
I65
I100
tp132
sg9
F27.50747799873352
sg10
I100
sg11
I400
sa(dp133
g7
(F0.206
F0.687
F0.039
I69
I100
tp134
sg9
F34.35104179382324
sg10
I100
sg11
I500
satp135
Rp136
(dp137
g25
I01
sg26
g31
sg32
(lp138
I3
aI5
aI30
aI9
asg34
I6
sg35
g36
(g3
tp139
Rp140
sbs.