(dp0
S'NSGA2-SIP'
p1
ccopy_reg
_reconstructor
p2
(cdeap.tools.support
Logbook
p3
c__builtin__
list
p4
(lp5
(dp6
S'hv|spread|igd|frontier#|valid#'
p7
(F0.108
F0.845
F0.035
I12
I19
tp8
sS'timestamp'
p9
F0.0691370964050293
sS'evals'
p10
I100
sS'gen'
p11
I0
sa(dp12
g7
(F0.201
F0.567
F0.032
I99
I100
tp13
sg9
F9.93215799331665
sg10
I100
sg11
I100
sa(dp14
g7
(F0.199
F0.603
F0.031
I98
I100
tp15
sg9
F19.859316110610962
sg10
I100
sg11
I200
sa(dp16
g7
(F0.202
F0.621
F0.032
I97
I100
tp17
sg9
F29.59941005706787
sg10
I100
sg11
I300
sa(dp18
g7
(F0.202
F0.611
F0.031
I97
I100
tp19
sg9
F39.28080201148987
sg10
I100
sg11
I400
sa(dp20
g7
(F0.203
F0.574
F0.032
I98
I100
tp21
sg9
F49.11413311958313
sg10
I100
sg11
I500
satp22
Rp23
(dp24
S'log_header'
p25
I01
sS'header'
p26
(S'gen'
p27
S'evals'
p28
S'hv|spread|igd|frontier#|valid#'
p29
S'timestamp'
p30
tp31
sS'columns_len'
p32
(lp33
I3
aI5
aI30
aI9
asS'buffindex'
p34
I6
sS'chapters'
p35
ccollections
defaultdict
p36
(g3
tp37
Rp38
sbsS'SPEA2-SIP'
p39
g2
(g3
g4
(lp40
(dp41
g7
(F0.119
F0.804
F0.035
I16
I18
tp42
sg9
F0.08378410339355469
sg10
I100
sg11
I0
sa(dp43
g7
(F0.203
F0.64
F0.034
I100
I100
tp44
sg9
F85.91164207458496
sg10
I100
sg11
I100
sa(dp45
g7
(F0.205
F0.595
F0.035
I100
I100
tp46
sg9
F180.3514301776886
sg10
I100
sg11
I200
sa(dp47
g7
(F0.208
F0.621
F0.035
I100
I100
tp48
sg9
F272.629762172699
sg10
I100
sg11
I300
sa(dp49
g7
(F0.21
F0.637
F0.036
I100
I100
tp50
sg9
F366.278352022171
sg10
I100
sg11
I400
sa(dp51
g7
(F0.21
F0.642
F0.036
I100
I100
tp52
sg9
F459.1628611087799
sg10
I100
sg11
I500
satp53
Rp54
(dp55
g25
I01
sg26
g31
sg32
(lp56
I3
aI5
aI31
aI9
asg34
I6
sg35
g36
(g3
tp57
Rp58
sbsS'SPEA2'
p59
g2
(g3
g4
(lp60
(dp61
g7
(F0.046
F1.18
F0.063
I1
I1
tp62
sg9
F0.03890395164489746
sg10
I100
sg11
I0
sa(dp63
g7
(F0.085
F1.18
F0.071
I1
I1
tp64
sg9
F115.91024398803711
sg10
I100
sg11
I100
sa(dp65
g7
(I0
I0
I0
I0
I0
tp66
sg9
F249.14335680007935
sg10
I100
sg11
I200
sa(dp67
g7
g66
sg9
F385.7958929538727
sg10
I100
sg11
I300
sa(dp68
g7
g66
sg9
F516.469596862793
sg10
I100
sg11
I400
sa(dp69
g7
g66
sg9
F651.568913936615
sg10
I100
sg11
I500
satp70
Rp71
(dp72
g25
I01
sg26
g31
sg32
(lp73
I3
aI5
aI30
aI9
asg34
I6
sg35
g36
(g3
tp74
Rp75
sbsS'IBEA'
p76
g2
(g3
g4
(lp77
(dp78
g7
g66
sg9
F0.05716300010681152
sg10
I100
sg11
I0
sa(dp79
g7
(F0.091
F0.958
F0.047
I2
I2
tp80
sg9
F8.409769058227539
sg10
I100
sg11
I100
sa(dp81
g7
g66
sg9
F16.75776195526123
sg10
I100
sg11
I200
sa(dp82
g7
(F0.074
F2.43
F0.085
I1
I1
tp83
sg9
F25.13359785079956
sg10
I100
sg11
I300
sa(dp84
g7
g66
sg9
F33.43005585670471
sg10
I100
sg11
I400
sa(dp85
g7
(F0.095
F0.984
F0.099
I2
I2
tp86
sg9
F41.736878871917725
sg10
I100
sg11
I500
satp87
Rp88
(dp89
g25
I01
sg26
g31
sg32
(lp90
I3
aI5
aI30
aI9
asg34
I6
sg35
g36
(g3
tp91
Rp92
sbsS'NSGA2'
p93
g2
(g3
g4
(lp94
(dp95
g7
(F0.052
F1.1
F0.037
I1
I1
tp96
sg9
F0.03850579261779785
sg10
I100
sg11
I0
sa(dp97
g7
g66
sg9
F11.17714786529541
sg10
I100
sg11
I100
sa(dp98
g7
g66
sg9
F22.24866485595703
sg10
I100
sg11
I200
sa(dp99
g7
g66
sg9
F33.3124098777771
sg10
I100
sg11
I300
sa(dp100
g7
g66
sg9
F44.410162925720215
sg10
I100
sg11
I400
sa(dp101
g7
g66
sg9
F55.48593091964722
sg10
I100
sg11
I500
satp102
Rp103
(dp104
g25
I01
sg26
g31
sg32
(lp105
I3
aI5
aI30
aI9
asg34
I6
sg35
g36
(g3
tp106
Rp107
sbsS'IBEA-SIP'
p108
g2
(g3
g4
(lp109
(dp110
g7
(F0.106
F0.897
F0.04
I12
I22
tp111
sg9
F0.07152891159057617
sg10
I100
sg11
I0
sa(dp112
g7
(F0.194
F0.638
F0.035
I62
I100
tp113
sg9
F7.952014923095703
sg10
I100
sg11
I100
sa(dp114
g7
(F0.198
F0.527
F0.038
I61
I100
tp115
sg9
F15.915087938308716
sg10
I100
sg11
I200
sa(dp116
g7
(F0.199
F0.659
F0.036
I68
I100
tp117
sg9
F23.869308948516846
sg10
I100
sg11
I300
sa(dp118
g7
(F0.201
F0.567
F0.035
I64
I100
tp119
sg9
F31.910918951034546
sg10
I100
sg11
I400
sa(dp120
g7
(F0.199
F0.563
F0.037
I63
I100
tp121
sg9
F39.89646887779236
sg10
I100
sg11
I500
satp122
Rp123
(dp124
g25
I01
sg26
g31
sg32
(lp125
I3
aI5
aI30
aI9
asg34
I6
sg35
g36
(g3
tp126
Rp127
sbs.