(dp0
S'NSGA2-SIP'
p1
ccopy_reg
_reconstructor
p2
(cdeap.tools.support
Logbook
p3
c__builtin__
list
p4
(lp5
(dp6
S'hv|spread|igd|frontier#|valid#'
p7
(F0.102
F0.799
F0.032
I9
I23
tp8
sS'timestamp'
p9
F0.061018943786621094
sS'evals'
p10
I100
sS'gen'
p11
I0
sa(dp12
g7
(F0.202
F0.573
F0.029
I96
I100
tp13
sg9
F9.753745079040527
sg10
I100
sg11
I100
sa(dp14
g7
(F0.202
F0.588
F0.031
I98
I100
tp15
sg9
F19.54985809326172
sg10
I100
sg11
I200
sa(dp16
g7
(F0.204
F0.649
F0.032
I97
I100
tp17
sg9
F29.477452039718628
sg10
I100
sg11
I300
sa(dp18
g7
(F0.205
F0.553
F0.031
I97
I100
tp19
sg9
F39.46363806724548
sg10
I100
sg11
I400
sa(dp20
g7
(F0.206
F0.571
F0.031
I99
I100
tp21
sg9
F49.4613299369812
sg10
I100
sg11
I500
satp22
Rp23
(dp24
S'log_header'
p25
I01
sS'header'
p26
(S'gen'
p27
S'evals'
p28
S'hv|spread|igd|frontier#|valid#'
p29
S'timestamp'
p30
tp31
sS'columns_len'
p32
(lp33
I3
aI5
aI30
aI9
asS'buffindex'
p34
I6
sS'chapters'
p35
ccollections
defaultdict
p36
(g3
tp37
Rp38
sbsS'SPEA2-SIP'
p39
g2
(g3
g4
(lp40
(dp41
g7
(F0.103
F0.711
F0.038
I14
I25
tp42
sg9
F0.07840204238891602
sg10
I100
sg11
I0
sa(dp43
g7
(F0.198
F0.639
F0.033
I100
I100
tp44
sg9
F80.47002506256104
sg10
I100
sg11
I100
sa(dp45
g7
(F0.204
F0.633
F0.035
I100
I100
tp46
sg9
F170.82637000083923
sg10
I100
sg11
I200
sa(dp47
g7
(F0.206
F0.627
F0.035
I100
I100
tp48
sg9
F261.538782119751
sg10
I100
sg11
I300
sa(dp49
g7
(F0.208
F0.649
F0.035
I100
I100
tp50
sg9
F351.5995111465454
sg10
I100
sg11
I400
sa(dp51
g7
(F0.209
F0.688
F0.036
I100
I100
tp52
sg9
F442.53755617141724
sg10
I100
sg11
I500
satp53
Rp54
(dp55
g25
I01
sg26
g31
sg32
(lp56
I3
aI5
aI31
aI9
asg34
I6
sg35
g36
(g3
tp57
Rp58
sbsS'SPEA2'
p59
g2
(g3
g4
(lp60
(dp61
g7
(I0
I0
I0
I0
I0
tp62
sg9
F0.03629589080810547
sg10
I100
sg11
I0
sa(dp63
g7
g62
sg9
F126.25239896774292
sg10
I100
sg11
I100
sa(dp64
g7
g62
sg9
F256.50965785980225
sg10
I100
sg11
I200
sa(dp65
g7
g62
sg9
F394.04767894744873
sg10
I100
sg11
I300
sa(dp66
g7
g62
sg9
F534.45561003685
sg10
I100
sg11
I400
sa(dp67
g7
g62
sg9
F668.5076489448547
sg10
I100
sg11
I500
satp68
Rp69
(dp70
g25
I01
sg26
g31
sg32
(lp71
I3
aI5
aI30
aI9
asg34
I6
sg35
g36
(g3
tp72
Rp73
sbsS'IBEA'
p74
g2
(g3
g4
(lp75
(dp76
g7
(F0.064
F1.06
F0.03
I1
I1
tp77
sg9
F0.03967118263244629
sg10
I100
sg11
I0
sa(dp78
g7
g62
sg9
F8.325762033462524
sg10
I100
sg11
I100
sa(dp79
g7
g62
sg9
F16.757455110549927
sg10
I100
sg11
I200
sa(dp80
g7
g62
sg9
F25.222097158432007
sg10
I100
sg11
I300
sa(dp81
g7
(F0.084
F1.3
F0.05
I1
I1
tp82
sg9
F33.83844017982483
sg10
I100
sg11
I400
sa(dp83
g7
g62
sg9
F42.21694803237915
sg10
I100
sg11
I500
satp84
Rp85
(dp86
g25
I01
sg26
g31
sg32
(lp87
I3
aI5
aI30
aI9
asg34
I6
sg35
g36
(g3
tp88
Rp89
sbsS'NSGA2'
p90
g2
(g3
g4
(lp91
(dp92
g7
g62
sg9
F0.0364689826965332
sg10
I100
sg11
I0
sa(dp93
g7
(F0.043
F1.56
F0.041
I1
I1
tp94
sg9
F11.327157974243164
sg10
I100
sg11
I100
sa(dp95
g7
g62
sg9
F22.5254909992218
sg10
I100
sg11
I200
sa(dp96
g7
(F0.105
F0.948
F0.046
I2
I2
tp97
sg9
F33.73066806793213
sg10
I100
sg11
I300
sa(dp98
g7
g62
sg9
F44.92610812187195
sg10
I100
sg11
I400
sa(dp99
g7
g62
sg9
F56.09208798408508
sg10
I100
sg11
I500
satp100
Rp101
(dp102
g25
I01
sg26
g31
sg32
(lp103
I3
aI5
aI30
aI9
asg34
I6
sg35
g36
(g3
tp104
Rp105
sbsS'IBEA-SIP'
p106
g2
(g3
g4
(lp107
(dp108
g7
(F0.112
F0.862
F0.035
I11
I16
tp109
sg9
F0.06647920608520508
sg10
I100
sg11
I0
sa(dp110
g7
(F0.201
F0.666
F0.033
I66
I100
tp111
sg9
F7.835440158843994
sg10
I100
sg11
I100
sa(dp112
g7
(F0.204
F0.692
F0.038
I69
I100
tp113
sg9
F15.863588094711304
sg10
I100
sg11
I200
sa(dp114
g7
(F0.203
F0.641
F0.036
I65
I100
tp115
sg9
F23.766777992248535
sg10
I100
sg11
I300
sa(dp116
g7
(F0.204
F0.644
F0.038
I63
I100
tp117
sg9
F31.587730169296265
sg10
I100
sg11
I400
sa(dp118
g7
(F0.202
F0.67
F0.039
I65
I100
tp119
sg9
F39.47571516036987
sg10
I100
sg11
I500
satp120
Rp121
(dp122
g25
I01
sg26
g31
sg32
(lp123
I3
aI5
aI30
aI9
asg34
I6
sg35
g36
(g3
tp124
Rp125
sbs.