(dp0
S'NSGA2-SIP'
p1
ccopy_reg
_reconstructor
p2
(cdeap.tools.support
Logbook
p3
c__builtin__
list
p4
(lp5
(dp6
S'hv|spread|igd|frontier#|valid#'
p7
(F0.122
F0.898
F0.031
I14
I23
tp8
sS'timestamp'
p9
F0.06419491767883301
sS'evals'
p10
I100
sS'gen'
p11
I0
sa(dp12
g7
(F0.202
F0.655
F0.032
I98
I100
tp13
sg9
F8.524110078811646
sg10
I100
sg11
I100
sa(dp14
g7
(F0.203
F0.584
F0.032
I96
I100
tp15
sg9
F16.86832594871521
sg10
I100
sg11
I200
sa(dp16
g7
(F0.202
F0.628
F0.031
I99
I100
tp17
sg9
F25.301888942718506
sg10
I100
sg11
I300
sa(dp18
g7
(F0.207
F0.554
F0.034
I97
I100
tp19
sg9
F33.640225887298584
sg10
I100
sg11
I400
sa(dp20
g7
(F0.205
F0.598
F0.031
I99
I100
tp21
sg9
F42.03128099441528
sg10
I100
sg11
I500
satp22
Rp23
(dp24
S'log_header'
p25
I01
sS'header'
p26
(S'gen'
p27
S'evals'
p28
S'hv|spread|igd|frontier#|valid#'
p29
S'timestamp'
p30
tp31
sS'columns_len'
p32
(lp33
I3
aI5
aI30
aI9
asS'buffindex'
p34
I6
sS'chapters'
p35
ccollections
defaultdict
p36
(g3
tp37
Rp38
sbsS'SPEA2-SIP'
p39
g2
(g3
g4
(lp40
(dp41
g7
(F0.12
F0.794
F0.036
I16
I21
tp42
sg9
F0.06866812705993652
sg10
I100
sg11
I0
sa(dp43
g7
(F0.193
F0.651
F0.032
I100
I100
tp44
sg9
F70.75012707710266
sg10
I100
sg11
I100
sa(dp45
g7
(F0.194
F0.51
F0.033
I100
I100
tp46
sg9
F147.84665513038635
sg10
I100
sg11
I200
sa(dp47
g7
(F0.202
F0.647
F0.035
I100
I100
tp48
sg9
F224.6604859828949
sg10
I100
sg11
I300
sa(dp49
g7
(F0.203
F0.61
F0.034
I100
I100
tp50
sg9
F300.86044907569885
sg10
I100
sg11
I400
sa(dp51
g7
(F0.204
F0.59
F0.034
I100
I100
tp52
sg9
F376.22146821022034
sg10
I100
sg11
I500
satp53
Rp54
(dp55
g25
I01
sg26
g31
sg32
(lp56
I3
aI5
aI31
aI9
asg34
I6
sg35
g36
(g3
tp57
Rp58
sbsS'SPEA2'
p59
g2
(g3
g4
(lp60
(dp61
g7
(I0
I0
I0
I0
I0
tp62
sg9
F0.03144383430480957
sg10
I100
sg11
I0
sa(dp63
g7
g62
sg9
F98.16152095794678
sg10
I100
sg11
I100
sa(dp64
g7
g62
sg9
F205.46744680404663
sg10
I100
sg11
I200
sa(dp65
g7
g62
sg9
F316.25115489959717
sg10
I100
sg11
I300
sa(dp66
g7
g62
sg9
F427.6876127719879
sg10
I100
sg11
I400
sa(dp67
g7
g62
sg9
F541.4053587913513
sg10
I100
sg11
I500
satp68
Rp69
(dp70
g25
I01
sg26
g31
sg32
(lp71
I3
aI5
aI30
aI9
asg34
I6
sg35
g36
(g3
tp72
Rp73
sbsS'IBEA'
p74
g2
(g3
g4
(lp75
(dp76
g7
g62
sg9
F0.031620025634765625
sg10
I100
sg11
I0
sa(dp77
g7
g62
sg9
F7.231758117675781
sg10
I100
sg11
I100
sa(dp78
g7
(F0.094
F0.98
F0.084
I1
I1
tp79
sg9
F14.505944013595581
sg10
I100
sg11
I200
sa(dp80
g7
g62
sg9
F21.789947032928467
sg10
I100
sg11
I300
sa(dp81
g7
(F0.037
F1.6
F0.024
I1
I1
tp82
sg9
F29.053203105926514
sg10
I100
sg11
I400
sa(dp83
g7
g62
sg9
F36.32981610298157
sg10
I100
sg11
I500
satp84
Rp85
(dp86
g25
I01
sg26
g31
sg32
(lp87
I3
aI5
aI30
aI9
asg34
I6
sg35
g36
(g3
tp88
Rp89
sbsS'NSGA2'
p90
g2
(g3
g4
(lp91
(dp92
g7
g62
sg9
F0.031805992126464844
sg10
I100
sg11
I0
sa(dp93
g7
g62
sg9
F9.695111989974976
sg10
I100
sg11
I100
sa(dp94
g7
(F0.049
F1.56
F0.037
I1
I1
tp95
sg9
F19.275721788406372
sg10
I100
sg11
I200
sa(dp96
g7
g62
sg9
F28.830564975738525
sg10
I100
sg11
I300
sa(dp97
g7
(F0.053
F1.46
F0.037
I1
I1
tp98
sg9
F38.41551685333252
sg10
I100
sg11
I400
sa(dp99
g7
g62
sg9
F47.953850984573364
sg10
I100
sg11
I500
satp100
Rp101
(dp102
g25
I01
sg26
g31
sg32
(lp103
I3
aI5
aI30
aI9
asg34
I6
sg35
g36
(g3
tp104
Rp105
sbsS'IBEA-SIP'
p106
g2
(g3
g4
(lp107
(dp108
g7
(F0.131
F0.857
F0.038
I16
I27
tp109
sg9
F0.07030200958251953
sg10
I100
sg11
I0
sa(dp110
g7
(F0.202
F0.673
F0.036
I72
I100
tp111
sg9
F6.881572008132935
sg10
I100
sg11
I100
sa(dp112
g7
(F0.201
F0.646
F0.035
I74
I100
tp113
sg9
F13.804214000701904
sg10
I100
sg11
I200
sa(dp114
g7
(F0.199
F0.705
F0.041
I62
I100
tp115
sg9
F20.580552101135254
sg10
I100
sg11
I300
sa(dp116
g7
(F0.2
F0.633
F0.037
I60
I100
tp117
sg9
F27.32395911216736
sg10
I100
sg11
I400
sa(dp118
g7
(F0.2
F0.65
F0.038
I58
I100
tp119
sg9
F34.11863112449646
sg10
I100
sg11
I500
satp120
Rp121
(dp122
g25
I01
sg26
g31
sg32
(lp123
I3
aI5
aI30
aI9
asg34
I6
sg35
g36
(g3
tp124
Rp125
sbs.