(dp0
S'NSGA2-SIP'
p1
ccopy_reg
_reconstructor
p2
(cdeap.tools.support
Logbook
p3
c__builtin__
list
p4
(lp5
(dp6
S'hv|spread|igd|frontier#|valid#'
p7
(F0.119
F0.85
F0.038
I16
I22
tp8
sS'timestamp'
p9
F0.08063602447509766
sS'evals'
p10
I100
sS'gen'
p11
I0
sa(dp12
g7
(F0.197
F0.662
F0.03
I96
I100
tp13
sg9
F9.374997854232788
sg10
I100
sg11
I100
sa(dp14
g7
(F0.201
F0.656
F0.033
I96
I100
tp15
sg9
F18.57418394088745
sg10
I100
sg11
I200
sa(dp16
g7
(F0.203
F0.599
F0.031
I97
I100
tp17
sg9
F27.752822875976562
sg10
I100
sg11
I300
sa(dp18
g7
(F0.205
F0.576
F0.031
I97
I100
tp19
sg9
F36.970587968826294
sg10
I100
sg11
I400
sa(dp20
g7
(F0.207
F0.594
F0.032
I99
I100
tp21
sg9
F46.32590103149414
sg10
I100
sg11
I500
satp22
Rp23
(dp24
S'log_header'
p25
I01
sS'header'
p26
(S'gen'
p27
S'evals'
p28
S'hv|spread|igd|frontier#|valid#'
p29
S'timestamp'
p30
tp31
sS'columns_len'
p32
(lp33
I3
aI5
aI30
aI9
asS'buffindex'
p34
I6
sS'chapters'
p35
ccollections
defaultdict
p36
(g3
tp37
Rp38
sbsS'SPEA2-SIP'
p39
g2
(g3
g4
(lp40
(dp41
g7
(F0.113
F0.808
F0.03
I15
I25
tp42
sg9
F0.07849407196044922
sg10
I100
sg11
I0
sa(dp43
g7
(F0.199
F0.609
F0.032
I100
I100
tp44
sg9
F85.72810912132263
sg10
I100
sg11
I100
sa(dp45
g7
(F0.2
F0.645
F0.033
I100
I100
tp46
sg9
F175.57975506782532
sg10
I100
sg11
I200
sa(dp47
g7
(F0.201
F0.638
F0.034
I100
I100
tp48
sg9
F267.2527801990509
sg10
I100
sg11
I300
sa(dp49
g7
(F0.208
F0.635
F0.035
I100
I100
tp50
sg9
F358.0123460292816
sg10
I100
sg11
I400
sa(dp51
g7
(F0.209
F0.683
F0.034
I100
I100
tp52
sg9
F447.39889097213745
sg10
I100
sg11
I500
satp53
Rp54
(dp55
g25
I01
sg26
g31
sg32
(lp56
I3
aI5
aI31
aI9
asg34
I6
sg35
g36
(g3
tp57
Rp58
sbsS'SPEA2'
p59
g2
(g3
g4
(lp60
(dp61
g7
(I0
I0
I0
I0
I0
tp62
sg9
F0.03490781784057617
sg10
I100
sg11
I0
sa(dp63
g7
g62
sg9
F110.89283180236816
sg10
I100
sg11
I100
sa(dp64
g7
g62
sg9
F239.38621282577515
sg10
I100
sg11
I200
sa(dp65
g7
g62
sg9
F362.78575587272644
sg10
I100
sg11
I300
sa(dp66
g7
g62
sg9
F486.9697117805481
sg10
I100
sg11
I400
sa(dp67
g7
g62
sg9
F616.9343509674072
sg10
I100
sg11
I500
satp68
Rp69
(dp70
g25
I01
sg26
g31
sg32
(lp71
I3
aI5
aI30
aI9
asg34
I6
sg35
g36
(g3
tp72
Rp73
sbsS'IBEA-PEN'
p74
g2
(g3
g4
(lp75
(dp76
g7
(F0.144
F0.726
F0.032
I25
I33
tp77
sg9
F0.14172005653381348
sg10
I100
sg11
I0
sa(dp78
g7
(F0.2
F0.599
F0.036
I53
I86
tp79
sg9
F10.126060962677002
sg10
I100
sg11
I100
sa(dp80
g7
(F0.199
F0.638
F0.036
I51
I80
tp81
sg9
F20.12750792503357
sg10
I100
sg11
I200
sa(dp82
g7
(F0.195
F0.666
F0.037
I55
I92
tp83
sg9
F29.95508313179016
sg10
I100
sg11
I300
sa(dp84
g7
(F0.196
F0.664
F0.038
I59
I80
tp85
sg9
F39.89590811729431
sg10
I100
sg11
I400
sa(dp86
g7
(F0.194
F0.648
F0.036
I44
I83
tp87
sg9
F49.84097099304199
sg10
I100
sg11
I500
satp88
Rp89
(dp90
g25
I01
sg26
g31
sg32
(lp91
I3
aI5
aI30
aI9
asg34
I6
sg35
g36
(g3
tp92
Rp93
sbsS'IBEA'
p94
g2
(g3
g4
(lp95
(dp96
g7
g62
sg9
F0.03439188003540039
sg10
I100
sg11
I0
sa(dp97
g7
g62
sg9
F8.04038405418396
sg10
I100
sg11
I100
sa(dp98
g7
g62
sg9
F16.12013602256775
sg10
I100
sg11
I200
sa(dp99
g7
(F0.082
F1.26
F0.03
I1
I1
tp100
sg9
F24.200353860855103
sg10
I100
sg11
I300
sa(dp101
g7
g62
sg9
F32.27080798149109
sg10
I100
sg11
I400
sa(dp102
g7
g62
sg9
F40.34862995147705
sg10
I100
sg11
I500
satp103
Rp104
(dp105
g25
I01
sg26
g31
sg32
(lp106
I3
aI5
aI30
aI9
asg34
I6
sg35
g36
(g3
tp107
Rp108
sbsS'NSGA2'
p109
g2
(g3
g4
(lp110
(dp111
g7
(F0.063
F0.976
F0.061
I2
I2
tp112
sg9
F0.041069984436035156
sg10
I100
sg11
I0
sa(dp113
g7
g62
sg9
F10.7693350315094
sg10
I100
sg11
I100
sa(dp114
g7
(F0.064
F1.42
F0.05
I1
I1
tp115
sg9
F21.395127058029175
sg10
I100
sg11
I200
sa(dp116
g7
g62
sg9
F31.845234870910645
sg10
I100
sg11
I300
sa(dp117
g7
g62
sg9
F42.390666007995605
sg10
I100
sg11
I400
sa(dp118
g7
g62
sg9
F53.022515058517456
sg10
I100
sg11
I500
satp119
Rp120
(dp121
g25
I01
sg26
g31
sg32
(lp122
I3
aI5
aI30
aI9
asg34
I6
sg35
g36
(g3
tp123
Rp124
sbsS'IBEA-SIP'
p125
g2
(g3
g4
(lp126
(dp127
g7
(F0.114
F0.801
F0.036
I17
I23
tp128
sg9
F0.0840909481048584
sg10
I100
sg11
I0
sa(dp129
g7
(F0.195
F0.576
F0.035
I59
I100
tp130
sg9
F7.4279539585113525
sg10
I100
sg11
I100
sa(dp131
g7
(F0.202
F0.542
F0.038
I61
I100
tp132
sg9
F14.87429404258728
sg10
I100
sg11
I200
sa(dp133
g7
(F0.203
F0.573
F0.039
I71
I100
tp134
sg9
F22.43348503112793
sg10
I100
sg11
I300
sa(dp135
g7
(F0.203
F0.636
F0.033
I70
I100
tp136
sg9
F30.13949489593506
sg10
I100
sg11
I400
sa(dp137
g7
(F0.198
F0.684
F0.038
I65
I100
tp138
sg9
F37.79314303398132
sg10
I100
sg11
I500
satp139
Rp140
(dp141
g25
I01
sg26
g31
sg32
(lp142
I3
aI5
aI30
aI9
asg34
I6
sg35
g36
(g3
tp143
Rp144
sbs.