(dp0
S'NSGA2-SIP'
p1
ccopy_reg
_reconstructor
p2
(cdeap.tools.support
Logbook
p3
c__builtin__
list
p4
(lp5
(dp6
S'hv|spread|igd|frontier#|valid#'
p7
(F0.115
F0.793
F0.039
I11
I16
tp8
sS'timestamp'
p9
F0.05675005912780762
sS'evals'
p10
I100
sS'gen'
p11
I0
sa(dp12
g7
(F0.197
F0.571
F0.028
I98
I100
tp13
sg9
F8.91261601448059
sg10
I100
sg11
I100
sa(dp14
g7
(F0.203
F0.616
F0.032
I98
I100
tp15
sg9
F17.78399896621704
sg10
I100
sg11
I200
sa(dp16
g7
(F0.204
F0.547
F0.031
I97
I100
tp17
sg9
F26.71916103363037
sg10
I100
sg11
I300
sa(dp18
g7
(F0.205
F0.574
F0.033
I97
I100
tp19
sg9
F35.52396011352539
sg10
I100
sg11
I400
sa(dp20
g7
(F0.204
F0.603
F0.031
I99
I100
tp21
sg9
F44.46506094932556
sg10
I100
sg11
I500
satp22
Rp23
(dp24
S'log_header'
p25
I01
sS'header'
p26
(S'gen'
p27
S'evals'
p28
S'hv|spread|igd|frontier#|valid#'
p29
S'timestamp'
p30
tp31
sS'columns_len'
p32
(lp33
I3
aI5
aI30
aI9
asS'buffindex'
p34
I6
sS'chapters'
p35
ccollections
defaultdict
p36
(g3
tp37
Rp38
sbsS'SPEA2-SIP'
p39
g2
(g3
g4
(lp40
(dp41
g7
(F0.133
F0.808
F0.033
I14
I18
tp42
sg9
F0.06611895561218262
sg10
I100
sg11
I0
sa(dp43
g7
(F0.205
F0.646
F0.035
I100
I100
tp44
sg9
F72.87463188171387
sg10
I100
sg11
I100
sa(dp45
g7
(F0.207
F0.6
F0.035
I100
I100
tp46
sg9
F153.4699969291687
sg10
I100
sg11
I200
sa(dp47
g7
(F0.208
F0.613
F0.036
I100
I100
tp48
sg9
F234.36469793319702
sg10
I100
sg11
I300
sa(dp49
g7
(F0.21
F0.596
F0.038
I100
I100
tp50
sg9
F315.52139687538147
sg10
I100
sg11
I400
sa(dp51
g7
(F0.21
F0.567
F0.037
I100
I100
tp52
sg9
F395.85017108917236
sg10
I100
sg11
I500
satp53
Rp54
(dp55
g25
I01
sg26
g31
sg32
(lp56
I3
aI5
aI31
aI9
asg34
I6
sg35
g36
(g3
tp57
Rp58
sbsS'SPEA2'
p59
g2
(g3
g4
(lp60
(dp61
g7
(I0
I0
I0
I0
I0
tp62
sg9
F0.032894134521484375
sg10
I100
sg11
I0
sa(dp63
g7
(F0.064
F1.22
F0.03
I1
I1
tp64
sg9
F102.21150207519531
sg10
I100
sg11
I100
sa(dp65
g7
g62
sg9
F220.01514291763306
sg10
I100
sg11
I200
sa(dp66
g7
g62
sg9
F337.35881304740906
sg10
I100
sg11
I300
sa(dp67
g7
g62
sg9
F454.6475920677185
sg10
I100
sg11
I400
sa(dp68
g7
g62
sg9
F577.4809031486511
sg10
I100
sg11
I500
satp69
Rp70
(dp71
g25
I01
sg26
g31
sg32
(lp72
I3
aI5
aI30
aI9
asg34
I6
sg35
g36
(g3
tp73
Rp74
sbsS'IBEA-PEN'
p75
g2
(g3
g4
(lp76
(dp77
g7
(F0.135
F0.621
F0.032
I26
I41
tp78
sg9
F0.13419103622436523
sg10
I100
sg11
I0
sa(dp79
g7
(F0.191
F0.568
F0.038
I38
I74
tp80
sg9
F9.398773193359375
sg10
I100
sg11
I100
sa(dp81
g7
(F0.192
F0.688
F0.034
I52
I85
tp82
sg9
F18.823925018310547
sg10
I100
sg11
I200
sa(dp83
g7
(F0.2
F0.624
F0.037
I63
I93
tp84
sg9
F28.359735012054443
sg10
I100
sg11
I300
sa(dp85
g7
(F0.2
F0.654
F0.035
I57
I89
tp86
sg9
F37.89376211166382
sg10
I100
sg11
I400
sa(dp87
g7
(F0.191
F0.74
F0.034
I49
I85
tp88
sg9
F47.33153700828552
sg10
I100
sg11
I500
satp89
Rp90
(dp91
g25
I01
sg26
g31
sg32
(lp92
I3
aI5
aI30
aI9
asg34
I6
sg35
g36
(g3
tp93
Rp94
sbsS'IBEA'
p95
g2
(g3
g4
(lp96
(dp97
g7
(F0.06
F0.86
F0.024
I1
I1
tp98
sg9
F0.03552603721618652
sg10
I100
sg11
I0
sa(dp99
g7
(F0.085
F1.06
F0.032
I1
I1
tp100
sg9
F7.6120710372924805
sg10
I100
sg11
I100
sa(dp101
g7
(F0.083
F1.0
F0.058
I2
I2
tp102
sg9
F15.24603796005249
sg10
I100
sg11
I200
sa(dp103
g7
g62
sg9
F22.839607000350952
sg10
I100
sg11
I300
sa(dp104
g7
g62
sg9
F30.389024019241333
sg10
I100
sg11
I400
sa(dp105
g7
(F0.126
F0.87
F0.062
I2
I2
tp106
sg9
F37.925650119781494
sg10
I100
sg11
I500
satp107
Rp108
(dp109
g25
I01
sg26
g31
sg32
(lp110
I3
aI5
aI30
aI9
asg34
I6
sg35
g36
(g3
tp111
Rp112
sbsS'NSGA2'
p113
g2
(g3
g4
(lp114
(dp115
g7
g62
sg9
F0.033059120178222656
sg10
I100
sg11
I0
sa(dp116
g7
g62
sg9
F10.189696073532104
sg10
I100
sg11
I100
sa(dp117
g7
g62
sg9
F20.2412531375885
sg10
I100
sg11
I200
sa(dp118
g7
(F0.023
F1.64
F0.044
I1
I1
tp119
sg9
F29.96484613418579
sg10
I100
sg11
I300
sa(dp120
g7
g62
sg9
F40.05001401901245
sg10
I100
sg11
I400
sa(dp121
g7
g62
sg9
F50.12884020805359
sg10
I100
sg11
I500
satp122
Rp123
(dp124
g25
I01
sg26
g31
sg32
(lp125
I3
aI5
aI30
aI9
asg34
I6
sg35
g36
(g3
tp126
Rp127
sbsS'IBEA-SIP'
p128
g2
(g3
g4
(lp129
(dp130
g7
(F0.115
F0.715
F0.033
I15
I23
tp131
sg9
F0.07129192352294922
sg10
I100
sg11
I0
sa(dp132
g7
(F0.196
F0.604
F0.034
I62
I100
tp133
sg9
F7.069928884506226
sg10
I100
sg11
I100
sa(dp134
g7
(F0.194
F0.62
F0.038
I59
I100
tp135
sg9
F14.222654104232788
sg10
I100
sg11
I200
sa(dp136
g7
(F0.202
F0.68
F0.039
I65
I100
tp137
sg9
F21.353287935256958
sg10
I100
sg11
I300
sa(dp138
g7
(F0.203
F0.656
F0.034
I74
I100
tp139
sg9
F28.593403100967407
sg10
I100
sg11
I400
sa(dp140
g7
(F0.205
F0.595
F0.041
I68
I100
tp141
sg9
F35.67842388153076
sg10
I100
sg11
I500
satp142
Rp143
(dp144
g25
I01
sg26
g31
sg32
(lp145
I3
aI5
aI30
aI9
asg34
I6
sg35
g36
(g3
tp146
Rp147
sbs.