(dp0
S'NSGA2-SIP'
p1
ccopy_reg
_reconstructor
p2
(cdeap.tools.support
Logbook
p3
c__builtin__
list
p4
(lp5
(dp6
S'hv|spread|igd|frontier#|valid#'
p7
(F0.11
F0.726
F0.038
I10
I14
tp8
sS'timestamp'
p9
F0.06487894058227539
sS'evals'
p10
I100
sS'gen'
p11
I0
sa(dp12
g7
(F0.193
F0.572
F0.028
I97
I100
tp13
sg9
F10.67685580253601
sg10
I100
sg11
I100
sa(dp14
g7
(F0.198
F0.627
F0.03
I97
I100
tp15
sg9
F21.125541925430298
sg10
I100
sg11
I200
sa(dp16
g7
(F0.202
F0.639
F0.031
I99
I100
tp17
sg9
F31.78547692298889
sg10
I100
sg11
I300
sa(dp18
g7
(F0.203
F0.595
F0.032
I97
I100
tp19
sg9
F42.29838681221008
sg10
I100
sg11
I400
sa(dp20
g7
(F0.205
F0.594
F0.031
I97
I100
tp21
sg9
F52.97630977630615
sg10
I100
sg11
I500
satp22
Rp23
(dp24
S'log_header'
p25
I01
sS'header'
p26
(S'gen'
p27
S'evals'
p28
S'hv|spread|igd|frontier#|valid#'
p29
S'timestamp'
p30
tp31
sS'columns_len'
p32
(lp33
I3
aI5
aI30
aI9
asS'buffindex'
p34
I6
sS'chapters'
p35
ccollections
defaultdict
p36
(g3
tp37
Rp38
sbsS'SPEA2-SIP'
p39
g2
(g3
g4
(lp40
(dp41
g7
(F0.117
F0.86
F0.031
I12
I14
tp42
sg9
F0.07235884666442871
sg10
I100
sg11
I0
sa(dp43
g7
(F0.204
F0.672
F0.034
I100
I100
tp44
sg9
F87.41719794273376
sg10
I100
sg11
I100
sa(dp45
g7
(F0.208
F0.603
F0.035
I100
I100
tp46
sg9
F183.65853190422058
sg10
I100
sg11
I200
sa(dp47
g7
(F0.209
F0.628
F0.036
I100
I100
tp48
sg9
F278.18475794792175
sg10
I100
sg11
I300
sa(dp49
g7
(F0.209
F0.699
F0.036
I100
I100
tp50
sg9
F373.076416015625
sg10
I100
sg11
I400
sa(dp51
g7
(F0.209
F0.561
F0.036
I100
I100
tp52
sg9
F465.5855269432068
sg10
I100
sg11
I500
satp53
Rp54
(dp55
g25
I01
sg26
g31
sg32
(lp56
I3
aI5
aI31
aI9
asg34
I6
sg35
g36
(g3
tp57
Rp58
sbsS'SPEA2'
p59
g2
(g3
g4
(lp60
(dp61
g7
(F0.072
F0.936
F0.034
I2
I2
tp62
sg9
F0.04535794258117676
sg10
I100
sg11
I0
sa(dp63
g7
(I0
I0
I0
I0
I0
tp64
sg9
F124.16163778305054
sg10
I100
sg11
I100
sa(dp65
g7
g64
sg9
F263.1641550064087
sg10
I100
sg11
I200
sa(dp66
g7
g64
sg9
F409.9233829975128
sg10
I100
sg11
I300
sa(dp67
g7
g64
sg9
F547.2435019016266
sg10
I100
sg11
I400
sa(dp68
g7
g64
sg9
F692.6934878826141
sg10
I100
sg11
I500
satp69
Rp70
(dp71
g25
I01
sg26
g31
sg32
(lp72
I3
aI5
aI30
aI9
asg34
I6
sg35
g36
(g3
tp73
Rp74
sbsS'IBEA-PEN'
p75
g2
(g3
g4
(lp76
(dp77
g7
(F0.145
F0.703
F0.023
I27
I48
tp78
sg9
F0.17989706993103027
sg10
I100
sg11
I0
sa(dp79
g7
g64
sg9
F8.643742084503174
sg10
I100
sg11
I100
sa(dp80
g7
g64
sg9
F17.138421058654785
sg10
I100
sg11
I200
sa(dp81
g7
g64
sg9
F25.598078966140747
sg10
I100
sg11
I300
sa(dp82
g7
g64
sg9
F34.09852910041809
sg10
I100
sg11
I400
sa(dp83
g7
(F0.109
F0.971
F0.058
I3
I3
tp84
sg9
F42.61490797996521
sg10
I100
sg11
I500
satp85
Rp86
(dp87
g25
I01
sg26
g31
sg32
(lp88
I3
aI5
aI30
aI9
asg34
I6
sg35
g36
(g3
tp89
Rp90
sbsS'IBEA'
p91
g2
(g3
g4
(lp92
(dp93
g7
g64
sg9
F0.03783988952636719
sg10
I100
sg11
I0
sa(dp94
g7
g64
sg9
F8.297276973724365
sg10
I100
sg11
I100
sa(dp95
g7
g64
sg9
F16.606905937194824
sg10
I100
sg11
I200
sa(dp96
g7
g64
sg9
F24.916098833084106
sg10
I100
sg11
I300
sa(dp97
g7
g64
sg9
F33.24449300765991
sg10
I100
sg11
I400
sa(dp98
g7
g64
sg9
F41.5413019657135
sg10
I100
sg11
I500
satp99
Rp100
(dp101
g25
I01
sg26
g31
sg32
(lp102
I3
aI5
aI30
aI9
asg34
I6
sg35
g36
(g3
tp103
Rp104
sbsS'NSGA2'
p105
g2
(g3
g4
(lp106
(dp107
g7
g64
sg9
F0.038079023361206055
sg10
I100
sg11
I0
sa(dp108
g7
(F0.07
F0.98
F0.036
I1
I1
tp109
sg9
F11.902943849563599
sg10
I100
sg11
I100
sa(dp110
g7
g64
sg9
F23.737221002578735
sg10
I100
sg11
I200
sa(dp111
g7
g64
sg9
F35.41036796569824
sg10
I100
sg11
I300
sa(dp112
g7
g64
sg9
F47.154680013656616
sg10
I100
sg11
I400
sa(dp113
g7
g64
sg9
F58.84876489639282
sg10
I100
sg11
I500
satp114
Rp115
(dp116
g25
I01
sg26
g31
sg32
(lp117
I3
aI5
aI30
aI9
asg34
I6
sg35
g36
(g3
tp118
Rp119
sbsS'IBEA-SIP'
p120
g2
(g3
g4
(lp121
(dp122
g7
(F0.107
F0.871
F0.028
I10
I12
tp123
sg9
F0.06553101539611816
sg10
I100
sg11
I0
sa(dp124
g7
(F0.194
F0.593
F0.034
I65
I100
tp125
sg9
F7.915911912918091
sg10
I100
sg11
I100
sa(dp126
g7
(F0.2
F0.624
F0.034
I63
I100
tp127
sg9
F15.876721858978271
sg10
I100
sg11
I200
sa(dp128
g7
(F0.195
F0.679
F0.036
I62
I100
tp129
sg9
F23.861665964126587
sg10
I100
sg11
I300
sa(dp130
g7
(F0.199
F0.599
F0.036
I61
I100
tp131
sg9
F31.822962999343872
sg10
I100
sg11
I400
sa(dp132
g7
(F0.201
F0.564
F0.037
I54
I100
tp133
sg9
F39.671788930892944
sg10
I100
sg11
I500
satp134
Rp135
(dp136
g25
I01
sg26
g31
sg32
(lp137
I3
aI5
aI30
aI9
asg34
I6
sg35
g36
(g3
tp138
Rp139
sbs.