(dp0
S'NSGA2-SIP'
p1
ccopy_reg
_reconstructor
p2
(cdeap.tools.support
Logbook
p3
c__builtin__
list
p4
(lp5
(dp6
S'hv|spread|igd|frontier#|valid#'
p7
(F0.105
F0.852
F0.038
I10
I17
tp8
sS'timestamp'
p9
F0.054003000259399414
sS'evals'
p10
I100
sS'gen'
p11
I0
sa(dp12
g7
(F0.199
F0.571
F0.031
I98
I100
tp13
sg9
F8.92565393447876
sg10
I100
sg11
I100
sa(dp14
g7
(F0.203
F0.586
F0.031
I97
I100
tp15
sg9
F17.709195852279663
sg10
I100
sg11
I200
sa(dp16
g7
(F0.207
F0.66
F0.036
I98
I100
tp17
sg9
F26.357573986053467
sg10
I100
sg11
I300
sa(dp18
g7
(F0.206
F0.659
F0.034
I98
I100
tp19
sg9
F35.09834003448486
sg10
I100
sg11
I400
sa(dp20
g7
(F0.205
F0.631
F0.034
I98
I100
tp21
sg9
F43.88098883628845
sg10
I100
sg11
I500
satp22
Rp23
(dp24
S'log_header'
p25
I01
sS'header'
p26
(S'gen'
p27
S'evals'
p28
S'hv|spread|igd|frontier#|valid#'
p29
S'timestamp'
p30
tp31
sS'columns_len'
p32
(lp33
I3
aI5
aI30
aI9
asS'buffindex'
p34
I6
sS'chapters'
p35
ccollections
defaultdict
p36
(g3
tp37
Rp38
sbsS'SPEA2-SIP'
p39
g2
(g3
g4
(lp40
(dp41
g7
(F0.126
F0.767
F0.031
I14
I25
tp42
sg9
F0.06695985794067383
sg10
I100
sg11
I0
sa(dp43
g7
(F0.2
F0.597
F0.033
I100
I100
tp44
sg9
F75.86778283119202
sg10
I100
sg11
I100
sa(dp45
g7
(F0.206
F0.631
F0.035
I100
I100
tp46
sg9
F161.88604283332825
sg10
I100
sg11
I200
sa(dp47
g7
(F0.206
F0.62
F0.035
I100
I100
tp48
sg9
F244.33302283287048
sg10
I100
sg11
I300
sa(dp49
g7
(F0.207
F0.661
F0.035
I100
I100
tp50
sg9
F326.55145597457886
sg10
I100
sg11
I400
sa(dp51
g7
(F0.208
F0.593
F0.036
I100
I100
tp52
sg9
F406.381463766098
sg10
I100
sg11
I500
satp53
Rp54
(dp55
g25
I01
sg26
g31
sg32
(lp56
I3
aI5
aI31
aI9
asg34
I6
sg35
g36
(g3
tp57
Rp58
sbsS'SPEA2'
p59
g2
(g3
g4
(lp60
(dp61
g7
(F0.055
F1.02
F0.066
I1
I1
tp62
sg9
F0.03535199165344238
sg10
I100
sg11
I0
sa(dp63
g7
(I0
I0
I0
I0
I0
tp64
sg9
F101.12785506248474
sg10
I100
sg11
I100
sa(dp65
g7
g64
sg9
F218.89636397361755
sg10
I100
sg11
I200
sa(dp66
g7
g64
sg9
F338.40205693244934
sg10
I100
sg11
I300
sa(dp67
g7
g64
sg9
F456.6707398891449
sg10
I100
sg11
I400
sa(dp68
g7
g64
sg9
F572.7861549854279
sg10
I100
sg11
I500
satp69
Rp70
(dp71
g25
I01
sg26
g31
sg32
(lp72
I3
aI5
aI30
aI9
asg34
I6
sg35
g36
(g3
tp73
Rp74
sbsS'IBEA-PEN'
p75
g2
(g3
g4
(lp76
(dp77
g7
(F0.133
F0.796
F0.028
I26
I41
tp78
sg9
F0.13378095626831055
sg10
I100
sg11
I0
sa(dp79
g7
(F0.198
F0.543
F0.038
I47
I88
tp80
sg9
F9.345501184463501
sg10
I100
sg11
I100
sa(dp81
g7
(F0.187
F0.718
F0.034
I51
I88
tp82
sg9
F18.652045965194702
sg10
I100
sg11
I200
sa(dp83
g7
(F0.194
F0.609
F0.034
I42
I70
tp84
sg9
F27.976566076278687
sg10
I100
sg11
I300
sa(dp85
g7
(F0.197
F0.702
F0.034
I52
I82
tp86
sg9
F37.36741614341736
sg10
I100
sg11
I400
sa(dp87
g7
(F0.199
F0.685
F0.041
I53
I85
tp88
sg9
F46.789337158203125
sg10
I100
sg11
I500
satp89
Rp90
(dp91
g25
I01
sg26
g31
sg32
(lp92
I3
aI5
aI30
aI9
asg34
I6
sg35
g36
(g3
tp93
Rp94
sbsS'IBEA'
p95
g2
(g3
g4
(lp96
(dp97
g7
(F0.055
F0.94
F0.03
I1
I1
tp98
sg9
F0.03525686264038086
sg10
I100
sg11
I0
sa(dp99
g7
g64
sg9
F7.556896924972534
sg10
I100
sg11
I100
sa(dp100
g7
g64
sg9
F15.143154859542847
sg10
I100
sg11
I200
sa(dp101
g7
g64
sg9
F22.68733286857605
sg10
I100
sg11
I300
sa(dp102
g7
g64
sg9
F30.172001838684082
sg10
I100
sg11
I400
sa(dp103
g7
(F0.035
F2.612
F0.065
I1
I1
tp104
sg9
F37.6605589389801
sg10
I100
sg11
I500
satp105
Rp106
(dp107
g25
I01
sg26
g31
sg32
(lp108
I3
aI5
aI30
aI9
asg34
I6
sg35
g36
(g3
tp109
Rp110
sbsS'NSGA2'
p111
g2
(g3
g4
(lp112
(dp113
g7
g64
sg9
F0.032289981842041016
sg10
I100
sg11
I0
sa(dp114
g7
g64
sg9
F10.072880983352661
sg10
I100
sg11
I100
sa(dp115
g7
g64
sg9
F20.073516130447388
sg10
I100
sg11
I200
sa(dp116
g7
g64
sg9
F30.01736307144165
sg10
I100
sg11
I300
sa(dp117
g7
g64
sg9
F39.97690796852112
sg10
I100
sg11
I400
sa(dp118
g7
g64
sg9
F49.999940156936646
sg10
I100
sg11
I500
satp119
Rp120
(dp121
g25
I01
sg26
g31
sg32
(lp122
I3
aI5
aI30
aI9
asg34
I6
sg35
g36
(g3
tp123
Rp124
sbsS'IBEA-SIP'
p125
g2
(g3
g4
(lp126
(dp127
g7
(F0.103
F0.827
F0.04
I17
I19
tp128
sg9
F0.07608413696289062
sg10
I100
sg11
I0
sa(dp129
g7
(F0.194
F0.694
F0.033
I75
I100
tp130
sg9
F7.150446176528931
sg10
I100
sg11
I100
sa(dp131
g7
(F0.201
F0.652
F0.035
I64
I100
tp132
sg9
F14.248775005340576
sg10
I100
sg11
I200
sa(dp133
g7
(F0.202
F0.798
F0.036
I74
I100
tp134
sg9
F21.432859182357788
sg10
I100
sg11
I300
sa(dp135
g7
(F0.204
F0.592
F0.037
I68
I100
tp136
sg9
F28.661415100097656
sg10
I100
sg11
I400
sa(dp137
g7
(F0.206
F0.677
F0.038
I70
I100
tp138
sg9
F35.746793031692505
sg10
I100
sg11
I500
satp139
Rp140
(dp141
g25
I01
sg26
g31
sg32
(lp142
I3
aI5
aI30
aI9
asg34
I6
sg35
g36
(g3
tp143
Rp144
sbs.