(dp0
S'NSGA2-SIP'
p1
ccopy_reg
_reconstructor
p2
(cdeap.tools.support
Logbook
p3
c__builtin__
list
p4
(lp5
(dp6
S'hv|spread|igd|frontier#|valid#'
p7
(F0.114
F0.799
F0.035
I20
I21
tp8
sS'timestamp'
p9
F0.0950479507446289
sS'evals'
p10
I100
sS'gen'
p11
I0
sa(dp12
g7
(F0.203
F0.622
F0.03
I98
I100
tp13
sg9
F8.664273023605347
sg10
I100
sg11
I100
sa(dp14
g7
(F0.204
F0.601
F0.031
I98
I100
tp15
sg9
F17.07344388961792
sg10
I100
sg11
I200
sa(dp16
g7
(F0.205
F0.674
F0.031
I99
I100
tp17
sg9
F25.461426973342896
sg10
I100
sg11
I300
sa(dp18
g7
(F0.208
F0.617
F0.032
I99
I100
tp19
sg9
F33.76059603691101
sg10
I100
sg11
I400
sa(dp20
g7
(F0.207
F0.651
F0.032
I97
I100
tp21
sg9
F42.01262593269348
sg10
I100
sg11
I500
satp22
Rp23
(dp24
S'log_header'
p25
I01
sS'header'
p26
(S'gen'
p27
S'evals'
p28
S'hv|spread|igd|frontier#|valid#'
p29
S'timestamp'
p30
tp31
sS'columns_len'
p32
(lp33
I3
aI5
aI30
aI9
asS'buffindex'
p34
I6
sS'chapters'
p35
ccollections
defaultdict
p36
(g3
tp37
Rp38
sbsS'SPEA2-SIP'
p39
g2
(g3
g4
(lp40
(dp41
g7
(F0.126
F0.79
F0.028
I11
I17
tp42
sg9
F0.06245899200439453
sg10
I100
sg11
I0
sa(dp43
g7
(F0.205
F0.627
F0.033
I100
I100
tp44
sg9
F69.80017399787903
sg10
I100
sg11
I100
sa(dp45
g7
(F0.209
F0.614
F0.035
I100
I100
tp46
sg9
F150.51979398727417
sg10
I100
sg11
I200
sa(dp47
g7
(F0.209
F0.673
F0.036
I100
I100
tp48
sg9
F227.69902300834656
sg10
I100
sg11
I300
sa(dp49
g7
(F0.209
F0.592
F0.037
I100
I100
tp50
sg9
F306.14287185668945
sg10
I100
sg11
I400
sa(dp51
g7
(F0.212
F0.642
F0.037
I100
I100
tp52
sg9
F386.0445249080658
sg10
I100
sg11
I500
satp53
Rp54
(dp55
g25
I01
sg26
g31
sg32
(lp56
I3
aI5
aI31
aI9
asg34
I6
sg35
g36
(g3
tp57
Rp58
sbsS'SPEA2'
p59
g2
(g3
g4
(lp60
(dp61
g7
(F0.063
F0.9
F0.042
I1
I1
tp62
sg9
F0.03713798522949219
sg10
I100
sg11
I0
sa(dp63
g7
(I0
I0
I0
I0
I0
tp64
sg9
F97.55716109275818
sg10
I100
sg11
I100
sa(dp65
g7
g64
sg9
F214.36834406852722
sg10
I100
sg11
I200
sa(dp66
g7
g64
sg9
F327.52302408218384
sg10
I100
sg11
I300
sa(dp67
g7
g64
sg9
F437.43451404571533
sg10
I100
sg11
I400
sa(dp68
g7
g64
sg9
F551.823958158493
sg10
I100
sg11
I500
satp69
Rp70
(dp71
g25
I01
sg26
g31
sg32
(lp72
I3
aI5
aI30
aI9
asg34
I6
sg35
g36
(g3
tp73
Rp74
sbsS'IBEA'
p75
g2
(g3
g4
(lp76
(dp77
g7
g64
sg9
F0.046267032623291016
sg10
I100
sg11
I0
sa(dp78
g7
(F0.086
F1.22
F0.101
I1
I1
tp79
sg9
F7.431457042694092
sg10
I100
sg11
I100
sa(dp80
g7
(F0.088
F2.343
F0.083
I1
I1
tp81
sg9
F14.9061119556427
sg10
I100
sg11
I200
sa(dp82
g7
(F0.105
F0.779
F0.055
I3
I3
tp83
sg9
F22.137256145477295
sg10
I100
sg11
I300
sa(dp84
g7
g64
sg9
F29.35818314552307
sg10
I100
sg11
I400
sa(dp85
g7
(F0.086
F0.94
F0.062
I1
I1
tp86
sg9
F36.576255083084106
sg10
I100
sg11
I500
satp87
Rp88
(dp89
g25
I01
sg26
g31
sg32
(lp90
I3
aI5
aI30
aI9
asg34
I6
sg35
g36
(g3
tp91
Rp92
sbsS'NSGA2'
p93
g2
(g3
g4
(lp94
(dp95
g7
g64
sg9
F0.03418302536010742
sg10
I100
sg11
I0
sa(dp96
g7
(F0.081
F1.1
F0.03
I1
I1
tp97
sg9
F9.78939700126648
sg10
I100
sg11
I100
sa(dp98
g7
g64
sg9
F19.241459131240845
sg10
I100
sg11
I200
sa(dp99
g7
g64
sg9
F28.67839813232422
sg10
I100
sg11
I300
sa(dp100
g7
g64
sg9
F38.14601111412048
sg10
I100
sg11
I400
sa(dp101
g7
g64
sg9
F47.60983395576477
sg10
I100
sg11
I500
satp102
Rp103
(dp104
g25
I01
sg26
g31
sg32
(lp105
I3
aI5
aI30
aI9
asg34
I6
sg35
g36
(g3
tp106
Rp107
sbsS'IBEA-SIP'
p108
g2
(g3
g4
(lp109
(dp110
g7
(F0.119
F0.656
F0.033
I12
I16
tp111
sg9
F0.06530308723449707
sg10
I100
sg11
I0
sa(dp112
g7
(F0.2
F0.656
F0.033
I64
I100
tp113
sg9
F6.973287105560303
sg10
I100
sg11
I100
sa(dp114
g7
(F0.199
F0.7
F0.037
I64
I100
tp115
sg9
F13.853553056716919
sg10
I100
sg11
I200
sa(dp116
g7
(F0.203
F0.591
F0.039
I62
I100
tp117
sg9
F20.64629602432251
sg10
I100
sg11
I300
sa(dp118
g7
(F0.204
F0.686
F0.037
I70
I100
tp119
sg9
F27.53363299369812
sg10
I100
sg11
I400
sa(dp120
g7
(F0.199
F0.691
F0.04
I70
I100
tp121
sg9
F34.37125515937805
sg10
I100
sg11
I500
satp122
Rp123
(dp124
g25
I01
sg26
g31
sg32
(lp125
I3
aI5
aI30
aI9
asg34
I6
sg35
g36
(g3
tp126
Rp127
sbs.