(dp0
S'NSGA2-SIP'
p1
ccopy_reg
_reconstructor
p2
(cdeap.tools.support
Logbook
p3
c__builtin__
list
p4
(lp5
(dp6
S'hv|spread|igd|frontier#|valid#'
p7
(F0.13
F0.838
F0.035
I15
I20
tp8
sS'timestamp'
p9
F0.07150816917419434
sS'evals'
p10
I100
sS'gen'
p11
I0
sa(dp12
g7
(F0.197
F0.635
F0.029
I97
I100
tp13
sg9
F8.63499402999878
sg10
I100
sg11
I100
sa(dp14
g7
(F0.204
F0.487
F0.029
I99
I100
tp15
sg9
F17.38140106201172
sg10
I100
sg11
I200
sa(dp16
g7
(F0.205
F0.566
F0.031
I98
I100
tp17
sg9
F26.02083706855774
sg10
I100
sg11
I300
sa(dp18
g7
(F0.206
F0.62
F0.032
I99
I100
tp19
sg9
F34.83405017852783
sg10
I100
sg11
I400
sa(dp20
g7
(F0.206
F0.562
F0.032
I98
I100
tp21
sg9
F43.518121004104614
sg10
I100
sg11
I500
satp22
Rp23
(dp24
S'log_header'
p25
I01
sS'header'
p26
(S'gen'
p27
S'evals'
p28
S'hv|spread|igd|frontier#|valid#'
p29
S'timestamp'
p30
tp31
sS'columns_len'
p32
(lp33
I3
aI5
aI30
aI9
asS'buffindex'
p34
I6
sS'chapters'
p35
ccollections
defaultdict
p36
(g3
tp37
Rp38
sbsS'SPEA2-SIP'
p39
g2
(g3
g4
(lp40
(dp41
g7
(F0.126
F0.715
F0.034
I14
I24
tp42
sg9
F0.06898999214172363
sg10
I100
sg11
I0
sa(dp43
g7
(F0.2
F0.585
F0.033
I100
I100
tp44
sg9
F75.56297492980957
sg10
I100
sg11
I100
sa(dp45
g7
(F0.203
F0.606
F0.034
I100
I100
tp46
sg9
F161.8341829776764
sg10
I100
sg11
I200
sa(dp47
g7
(F0.205
F0.622
F0.035
I100
I100
tp48
sg9
F246.50077605247498
sg10
I100
sg11
I300
sa(dp49
g7
(F0.207
F0.578
F0.034
I100
I100
tp50
sg9
F329.94035291671753
sg10
I100
sg11
I400
sa(dp51
g7
(F0.206
F0.507
F0.035
I100
I100
tp52
sg9
F414.2165870666504
sg10
I100
sg11
I500
satp53
Rp54
(dp55
g25
I01
sg26
g31
sg32
(lp56
I3
aI5
aI31
aI9
asg34
I6
sg35
g36
(g3
tp57
Rp58
sbsS'SPEA2'
p59
g2
(g3
g4
(lp60
(dp61
g7
(F0.064
F0.987
F0.063
I2
I2
tp62
sg9
F0.05548405647277832
sg10
I100
sg11
I0
sa(dp63
g7
(F0.073
F1.14
F0.041
I1
I1
tp64
sg9
F102.54853796958923
sg10
I100
sg11
I100
sa(dp65
g7
(F0.075
F1.26
F0.024
I1
I1
tp66
sg9
F226.21989011764526
sg10
I100
sg11
I200
sa(dp67
g7
(I0
I0
I0
I0
I0
tp68
sg9
F347.0575611591339
sg10
I100
sg11
I300
sa(dp69
g7
g68
sg9
F467.43265104293823
sg10
I100
sg11
I400
sa(dp70
g7
g68
sg9
F589.1884860992432
sg10
I100
sg11
I500
satp71
Rp72
(dp73
g25
I01
sg26
g31
sg32
(lp74
I3
aI5
aI30
aI9
asg34
I6
sg35
g36
(g3
tp75
Rp76
sbsS'IBEA-PEN'
p77
g2
(g3
g4
(lp78
(dp79
g7
(F0.146
F0.671
F0.026
I30
I47
tp80
sg9
F0.19057798385620117
sg10
I100
sg11
I0
sa(dp81
g7
g68
sg9
F7.678830146789551
sg10
I100
sg11
I100
sa(dp82
g7
(F0.085
F1.1
F0.039
I1
I1
tp83
sg9
F15.221871137619019
sg10
I100
sg11
I200
sa(dp84
g7
(F0.132
F0.837
F0.06
I5
I6
tp85
sg9
F22.747140169143677
sg10
I100
sg11
I300
sa(dp86
g7
(F0.098
F0.947
F0.069
I5
I8
tp87
sg9
F30.268651008605957
sg10
I100
sg11
I400
sa(dp88
g7
g68
sg9
F37.7910521030426
sg10
I100
sg11
I500
satp89
Rp90
(dp91
g25
I01
sg26
g31
sg32
(lp92
I3
aI5
aI30
aI9
asg34
I6
sg35
g36
(g3
tp93
Rp94
sbsS'IBEA'
p95
g2
(g3
g4
(lp96
(dp97
g7
g68
sg9
F0.032109975814819336
sg10
I100
sg11
I0
sa(dp98
g7
g68
sg9
F7.436056137084961
sg10
I100
sg11
I100
sa(dp99
g7
g68
sg9
F14.931674003601074
sg10
I100
sg11
I200
sa(dp100
g7
g68
sg9
F22.468788146972656
sg10
I100
sg11
I300
sa(dp101
g7
g68
sg9
F29.988887071609497
sg10
I100
sg11
I400
sa(dp102
g7
g68
sg9
F37.554177045822144
sg10
I100
sg11
I500
satp103
Rp104
(dp105
g25
I01
sg26
g31
sg32
(lp106
I3
aI5
aI30
aI9
asg34
I6
sg35
g36
(g3
tp107
Rp108
sbsS'NSGA2'
p109
g2
(g3
g4
(lp110
(dp111
g7
g68
sg9
F0.03232216835021973
sg10
I100
sg11
I0
sa(dp112
g7
g68
sg9
F10.072288036346436
sg10
I100
sg11
I100
sa(dp113
g7
g68
sg9
F20.014836072921753
sg10
I100
sg11
I200
sa(dp114
g7
g68
sg9
F29.94785213470459
sg10
I100
sg11
I300
sa(dp115
g7
g68
sg9
F39.83649301528931
sg10
I100
sg11
I400
sa(dp116
g7
g68
sg9
F49.756994009017944
sg10
I100
sg11
I500
satp117
Rp118
(dp119
g25
I01
sg26
g31
sg32
(lp120
I3
aI5
aI30
aI9
asg34
I6
sg35
g36
(g3
tp121
Rp122
sbsS'IBEA-SIP'
p123
g2
(g3
g4
(lp124
(dp125
g7
(F0.127
F0.855
F0.031
I13
I19
tp126
sg9
F0.06962704658508301
sg10
I100
sg11
I0
sa(dp127
g7
(F0.201
F0.652
F0.034
I71
I100
tp128
sg9
F7.115250110626221
sg10
I100
sg11
I100
sa(dp129
g7
(F0.201
F0.725
F0.039
I65
I100
tp130
sg9
F14.195387125015259
sg10
I100
sg11
I200
sa(dp131
g7
(F0.203
F0.62
F0.036
I70
I100
tp132
sg9
F21.282927989959717
sg10
I100
sg11
I300
sa(dp133
g7
(F0.203
F0.685
F0.038
I67
I100
tp134
sg9
F28.38652801513672
sg10
I100
sg11
I400
sa(dp135
g7
(F0.205
F0.633
F0.037
I68
I100
tp136
sg9
F35.36668014526367
sg10
I100
sg11
I500
satp137
Rp138
(dp139
g25
I01
sg26
g31
sg32
(lp140
I3
aI5
aI30
aI9
asg34
I6
sg35
g36
(g3
tp141
Rp142
sbs.