(dp0
S'NSGA2-SIP'
p1
ccopy_reg
_reconstructor
p2
(cdeap.tools.support
Logbook
p3
c__builtin__
list
p4
(lp5
(dp6
S'hv|spread|igd|frontier#|valid#'
p7
(F0.131
F0.751
F0.041
I21
I24
tp8
sS'timestamp'
p9
F0.10989093780517578
sS'evals'
p10
I100
sS'gen'
p11
I0
sa(dp12
g7
(F0.195
F0.555
F0.03
I97
I100
tp13
sg9
F10.535275936126709
sg10
I100
sg11
I100
sa(dp14
g7
(F0.2
F0.666
F0.031
I96
I100
tp15
sg9
F20.991281986236572
sg10
I100
sg11
I200
sa(dp16
g7
(F0.205
F0.656
F0.031
I98
I100
tp17
sg9
F31.560699939727783
sg10
I100
sg11
I300
sa(dp18
g7
(F0.204
F0.555
F0.031
I98
I100
tp19
sg9
F42.073769092559814
sg10
I100
sg11
I400
sa(dp20
g7
(F0.205
F0.669
F0.031
I97
I100
tp21
sg9
F52.62271809577942
sg10
I100
sg11
I500
satp22
Rp23
(dp24
S'log_header'
p25
I01
sS'header'
p26
(S'gen'
p27
S'evals'
p28
S'hv|spread|igd|frontier#|valid#'
p29
S'timestamp'
p30
tp31
sS'columns_len'
p32
(lp33
I3
aI5
aI30
aI9
asS'buffindex'
p34
I6
sS'chapters'
p35
ccollections
defaultdict
p36
(g3
tp37
Rp38
sbsS'SPEA2-SIP'
p39
g2
(g3
g4
(lp40
(dp41
g7
(F0.117
F0.832
F0.036
I13
I19
tp42
sg9
F0.07810401916503906
sg10
I100
sg11
I0
sa(dp43
g7
(F0.202
F0.535
F0.033
I100
I100
tp44
sg9
F87.42418193817139
sg10
I100
sg11
I100
sa(dp45
g7
(F0.204
F0.635
F0.033
I100
I100
tp46
sg9
F185.23536491394043
sg10
I100
sg11
I200
sa(dp47
g7
(F0.206
F0.678
F0.035
I100
I100
tp48
sg9
F282.3293650150299
sg10
I100
sg11
I300
sa(dp49
g7
(F0.207
F0.61
F0.035
I100
I100
tp50
sg9
F375.288409948349
sg10
I100
sg11
I400
sa(dp51
g7
(F0.208
F0.588
F0.036
I100
I100
tp52
sg9
F474.71945095062256
sg10
I100
sg11
I500
satp53
Rp54
(dp55
g25
I01
sg26
g31
sg32
(lp56
I3
aI5
aI31
aI9
asg34
I6
sg35
g36
(g3
tp57
Rp58
sbsS'SPEA2'
p59
g2
(g3
g4
(lp60
(dp61
g7
(I0
I0
I0
I0
I0
tp62
sg9
F0.0394740104675293
sg10
I100
sg11
I0
sa(dp63
g7
g62
sg9
F109.75303912162781
sg10
I100
sg11
I100
sa(dp64
g7
g62
sg9
F237.99261498451233
sg10
I100
sg11
I200
sa(dp65
g7
g62
sg9
F374.0887269973755
sg10
I100
sg11
I300
sa(dp66
g7
g62
sg9
F507.14223194122314
sg10
I100
sg11
I400
sa(dp67
g7
g62
sg9
F644.5012090206146
sg10
I100
sg11
I500
satp68
Rp69
(dp70
g25
I01
sg26
g31
sg32
(lp71
I3
aI5
aI30
aI9
asg34
I6
sg35
g36
(g3
tp72
Rp73
sbsS'IBEA-PEN'
p74
g2
(g3
g4
(lp75
(dp76
g7
(F0.14
F0.756
F0.026
I23
I43
tp77
sg9
F0.16001296043395996
sg10
I100
sg11
I0
sa(dp78
g7
g62
sg9
F8.623579978942871
sg10
I100
sg11
I100
sa(dp79
g7
(F0.053
F0.955
F0.07
I3
I3
tp80
sg9
F17.08564281463623
sg10
I100
sg11
I200
sa(dp81
g7
g62
sg9
F25.514927864074707
sg10
I100
sg11
I300
sa(dp82
g7
g62
sg9
F33.97013783454895
sg10
I100
sg11
I400
sa(dp83
g7
g62
sg9
F42.396453857421875
sg10
I100
sg11
I500
satp84
Rp85
(dp86
g25
I01
sg26
g31
sg32
(lp87
I3
aI5
aI30
aI9
asg34
I6
sg35
g36
(g3
tp88
Rp89
sbsS'IBEA'
p90
g2
(g3
g4
(lp91
(dp92
g7
g62
sg9
F0.03775978088378906
sg10
I100
sg11
I0
sa(dp93
g7
g62
sg9
F8.25837779045105
sg10
I100
sg11
I100
sa(dp94
g7
g62
sg9
F16.520689964294434
sg10
I100
sg11
I200
sa(dp95
g7
g62
sg9
F24.779300928115845
sg10
I100
sg11
I300
sa(dp96
g7
g62
sg9
F33.032914876937866
sg10
I100
sg11
I400
sa(dp97
g7
g62
sg9
F41.28260684013367
sg10
I100
sg11
I500
satp98
Rp99
(dp100
g25
I01
sg26
g31
sg32
(lp101
I3
aI5
aI30
aI9
asg34
I6
sg35
g36
(g3
tp102
Rp103
sbsS'NSGA2'
p104
g2
(g3
g4
(lp105
(dp106
g7
g62
sg9
F0.03895211219787598
sg10
I100
sg11
I0
sa(dp107
g7
(F0.032
F2.512
F0.01
I1
I1
tp108
sg9
F12.16513204574585
sg10
I100
sg11
I100
sa(dp109
g7
(F0.081
F1.14
F0.042
I1
I1
tp110
sg9
F24.135799884796143
sg10
I100
sg11
I200
sa(dp111
g7
g62
sg9
F36.08970308303833
sg10
I100
sg11
I300
sa(dp112
g7
g62
sg9
F48.09396004676819
sg10
I100
sg11
I400
sa(dp113
g7
g62
sg9
F60.07752799987793
sg10
I100
sg11
I500
satp114
Rp115
(dp116
g25
I01
sg26
g31
sg32
(lp117
I3
aI5
aI30
aI9
asg34
I6
sg35
g36
(g3
tp118
Rp119
sbsS'IBEA-SIP'
p120
g2
(g3
g4
(lp121
(dp122
g7
(F0.087
F0.868
F0.031
I9
I11
tp123
sg9
F0.06019783020019531
sg10
I100
sg11
I0
sa(dp124
g7
(F0.196
F0.711
F0.035
I70
I100
tp125
sg9
F7.845521926879883
sg10
I100
sg11
I100
sa(dp126
g7
(F0.198
F0.63
F0.038
I68
I100
tp127
sg9
F15.701732873916626
sg10
I100
sg11
I200
sa(dp128
g7
(F0.2
F0.63
F0.036
I66
I100
tp129
sg9
F23.598129987716675
sg10
I100
sg11
I300
sa(dp130
g7
(F0.204
F0.549
F0.038
I61
I100
tp131
sg9
F31.363748788833618
sg10
I100
sg11
I400
sa(dp132
g7
(F0.202
F0.616
F0.034
I69
I100
tp133
sg9
F39.16991686820984
sg10
I100
sg11
I500
satp134
Rp135
(dp136
g25
I01
sg26
g31
sg32
(lp137
I3
aI5
aI30
aI9
asg34
I6
sg35
g36
(g3
tp138
Rp139
sbs.