(dp0
S'NSGA2-SIP'
p1
ccopy_reg
_reconstructor
p2
(cdeap.tools.support
Logbook
p3
c__builtin__
list
p4
(lp5
(dp6
S'hv|spread|igd|frontier#|valid#'
p7
(F0.13
F0.823
F0.035
I16
I19
tp8
sS'timestamp'
p9
F0.0853569507598877
sS'evals'
p10
I100
sS'gen'
p11
I0
sa(dp12
g7
(F0.201
F0.579
F0.029
I98
I100
tp13
sg9
F10.185462951660156
sg10
I100
sg11
I100
sa(dp14
g7
(F0.202
F0.556
F0.03
I98
I100
tp15
sg9
F20.159703016281128
sg10
I100
sg11
I200
sa(dp16
g7
(F0.204
F0.699
F0.031
I97
I100
tp17
sg9
F30.14829397201538
sg10
I100
sg11
I300
sa(dp18
g7
(F0.205
F0.598
F0.031
I98
I100
tp19
sg9
F40.091399908065796
sg10
I100
sg11
I400
sa(dp20
g7
(F0.204
F0.653
F0.03
I98
I100
tp21
sg9
F50.0555579662323
sg10
I100
sg11
I500
satp22
Rp23
(dp24
S'log_header'
p25
I01
sS'header'
p26
(S'gen'
p27
S'evals'
p28
S'hv|spread|igd|frontier#|valid#'
p29
S'timestamp'
p30
tp31
sS'columns_len'
p32
(lp33
I3
aI5
aI30
aI9
asS'buffindex'
p34
I6
sS'chapters'
p35
ccollections
defaultdict
p36
(g3
tp37
Rp38
sbsS'SPEA2-SIP'
p39
g2
(g3
g4
(lp40
(dp41
g7
(F0.1
F0.83
F0.038
I13
I21
tp42
sg9
F0.07498693466186523
sg10
I100
sg11
I0
sa(dp43
g7
(F0.196
F0.594
F0.032
I100
I100
tp44
sg9
F84.1096920967102
sg10
I100
sg11
I100
sa(dp45
g7
(F0.202
F0.673
F0.034
I100
I100
tp46
sg9
F178.6962959766388
sg10
I100
sg11
I200
sa(dp47
g7
(F0.203
F0.634
F0.034
I100
I100
tp48
sg9
F272.44196486473083
sg10
I100
sg11
I300
sa(dp49
g7
(F0.208
F0.651
F0.035
I100
I100
tp50
sg9
F364.59250807762146
sg10
I100
sg11
I400
sa(dp51
g7
(F0.208
F0.618
F0.036
I100
I100
tp52
sg9
F457.9166660308838
sg10
I100
sg11
I500
satp53
Rp54
(dp55
g25
I01
sg26
g31
sg32
(lp56
I3
aI5
aI31
aI9
asg34
I6
sg35
g36
(g3
tp57
Rp58
sbsS'SPEA2'
p59
g2
(g3
g4
(lp60
(dp61
g7
(I0
I0
I0
I0
I0
tp62
sg9
F0.036992788314819336
sg10
I100
sg11
I0
sa(dp63
g7
g62
sg9
F119.72424697875977
sg10
I100
sg11
I100
sa(dp64
g7
g62
sg9
F260.692156791687
sg10
I100
sg11
I200
sa(dp65
g7
g62
sg9
F396.29833793640137
sg10
I100
sg11
I300
sa(dp66
g7
g62
sg9
F539.5233268737793
sg10
I100
sg11
I400
sa(dp67
g7
g62
sg9
F681.9064209461212
sg10
I100
sg11
I500
satp68
Rp69
(dp70
g25
I01
sg26
g31
sg32
(lp71
I3
aI5
aI30
aI9
asg34
I6
sg35
g36
(g3
tp72
Rp73
sbsS'IBEA-PEN'
p74
g2
(g3
g4
(lp75
(dp76
g7
(F0.125
F0.616
F0.029
I30
I43
tp77
sg9
F0.1874828338623047
sg10
I100
sg11
I0
sa(dp78
g7
g62
sg9
F8.924208879470825
sg10
I100
sg11
I100
sa(dp79
g7
g62
sg9
F17.701589822769165
sg10
I100
sg11
I200
sa(dp80
g7
g62
sg9
F26.479346990585327
sg10
I100
sg11
I300
sa(dp81
g7
g62
sg9
F35.27250099182129
sg10
I100
sg11
I400
sa(dp82
g7
g62
sg9
F44.04867196083069
sg10
I100
sg11
I500
satp83
Rp84
(dp85
g25
I01
sg26
g31
sg32
(lp86
I3
aI5
aI30
aI9
asg34
I6
sg35
g36
(g3
tp87
Rp88
sbsS'IBEA'
p89
g2
(g3
g4
(lp90
(dp91
g7
(F0.059
F0.98
F0.047
I1
I1
tp92
sg9
F0.04147505760192871
sg10
I100
sg11
I0
sa(dp93
g7
g62
sg9
F8.55698013305664
sg10
I100
sg11
I100
sa(dp94
g7
g62
sg9
F17.173240184783936
sg10
I100
sg11
I200
sa(dp95
g7
(F0.113
F0.881
F0.053
I2
I2
tp96
sg9
F25.857823133468628
sg10
I100
sg11
I300
sa(dp97
g7
g62
sg9
F34.56359815597534
sg10
I100
sg11
I400
sa(dp98
g7
g62
sg9
F43.24562311172485
sg10
I100
sg11
I500
satp99
Rp100
(dp101
g25
I01
sg26
g31
sg32
(lp102
I3
aI5
aI30
aI9
asg34
I6
sg35
g36
(g3
tp103
Rp104
sbsS'NSGA2'
p105
g2
(g3
g4
(lp106
(dp107
g7
g62
sg9
F0.038565874099731445
sg10
I100
sg11
I0
sa(dp108
g7
g62
sg9
F11.62523603439331
sg10
I100
sg11
I100
sa(dp109
g7
g62
sg9
F23.17680287361145
sg10
I100
sg11
I200
sa(dp110
g7
g62
sg9
F34.726845026016235
sg10
I100
sg11
I300
sa(dp111
g7
g62
sg9
F46.23003602027893
sg10
I100
sg11
I400
sa(dp112
g7
g62
sg9
F57.71572399139404
sg10
I100
sg11
I500
satp113
Rp114
(dp115
g25
I01
sg26
g31
sg32
(lp116
I3
aI5
aI30
aI9
asg34
I6
sg35
g36
(g3
tp117
Rp118
sbsS'IBEA-SIP'
p119
g2
(g3
g4
(lp120
(dp121
g7
(F0.108
F0.853
F0.032
I15
I20
tp122
sg9
F0.08198809623718262
sg10
I100
sg11
I0
sa(dp123
g7
(F0.191
F0.619
F0.032
I68
I100
tp124
sg9
F8.193873882293701
sg10
I100
sg11
I100
sa(dp125
g7
(F0.197
F0.66
F0.04
I63
I100
tp126
sg9
F16.3385329246521
sg10
I100
sg11
I200
sa(dp127
g7
(F0.2
F0.602
F0.037
I65
I100
tp128
sg9
F24.505486965179443
sg10
I100
sg11
I300
sa(dp129
g7
(F0.201
F0.534
F0.038
I57
I100
tp130
sg9
F32.52205300331116
sg10
I100
sg11
I400
sa(dp131
g7
(F0.207
F0.646
F0.039
I67
I100
tp132
sg9
F40.647773027420044
sg10
I100
sg11
I500
satp133
Rp134
(dp135
g25
I01
sg26
g31
sg32
(lp136
I3
aI5
aI30
aI9
asg34
I6
sg35
g36
(g3
tp137
Rp138
sbs.