(dp0
S'NSGA2-SIP'
p1
ccopy_reg
_reconstructor
p2
(cdeap.tools.support
Logbook
p3
c__builtin__
list
p4
(lp5
(dp6
S'hv|spread|igd|frontier#|valid#'
p7
(F0.118
F0.764
F0.038
I16
I24
tp8
sS'timestamp'
p9
F0.07248806953430176
sS'evals'
p10
I100
sS'gen'
p11
I0
sa(dp12
g7
(F0.194
F0.615
F0.03
I97
I100
tp13
sg9
F8.385616064071655
sg10
I100
sg11
I100
sa(dp14
g7
(F0.199
F0.555
F0.031
I95
I100
tp15
sg9
F16.69705605506897
sg10
I100
sg11
I200
sa(dp16
g7
(F0.199
F0.674
F0.03
I97
I100
tp17
sg9
F24.93653702735901
sg10
I100
sg11
I300
sa(dp18
g7
(F0.202
F0.59
F0.032
I96
I100
tp19
sg9
F33.19616103172302
sg10
I100
sg11
I400
sa(dp20
g7
(F0.203
F0.63
F0.033
I97
I100
tp21
sg9
F41.5324501991272
sg10
I100
sg11
I500
satp22
Rp23
(dp24
S'log_header'
p25
I01
sS'header'
p26
(S'gen'
p27
S'evals'
p28
S'hv|spread|igd|frontier#|valid#'
p29
S'timestamp'
p30
tp31
sS'columns_len'
p32
(lp33
I3
aI5
aI30
aI9
asS'buffindex'
p34
I6
sS'chapters'
p35
ccollections
defaultdict
p36
(g3
tp37
Rp38
sbsS'SPEA2-SIP'
p39
g2
(g3
g4
(lp40
(dp41
g7
(F0.11
F0.848
F0.031
I12
I21
tp42
sg9
F0.059893131256103516
sg10
I100
sg11
I0
sa(dp43
g7
(F0.201
F0.569
F0.033
I100
I100
tp44
sg9
F74.0613341331482
sg10
I100
sg11
I100
sa(dp45
g7
(F0.203
F0.592
F0.034
I100
I100
tp46
sg9
F152.53330421447754
sg10
I100
sg11
I200
sa(dp47
g7
(F0.204
F0.636
F0.034
I100
I100
tp48
sg9
F234.57087206840515
sg10
I100
sg11
I300
sa(dp49
g7
(F0.206
F0.651
F0.035
I100
I100
tp50
sg9
F311.64576601982117
sg10
I100
sg11
I400
sa(dp51
g7
(F0.207
F0.61
F0.035
I100
I100
tp52
sg9
F390.9454290866852
sg10
I100
sg11
I500
satp53
Rp54
(dp55
g25
I01
sg26
g31
sg32
(lp56
I3
aI5
aI31
aI9
asg34
I6
sg35
g36
(g3
tp57
Rp58
sbsS'SPEA2'
p59
g2
(g3
g4
(lp60
(dp61
g7
(F0.052
F1.22
F0.04
I1
I1
tp62
sg9
F0.03369402885437012
sg10
I100
sg11
I0
sa(dp63
g7
(I0
I0
I0
I0
I0
tp64
sg9
F97.97890114784241
sg10
I100
sg11
I100
sa(dp65
g7
g64
sg9
F215.04192209243774
sg10
I100
sg11
I200
sa(dp66
g7
g64
sg9
F331.0084431171417
sg10
I100
sg11
I300
sa(dp67
g7
g64
sg9
F456.47078108787537
sg10
I100
sg11
I400
sa(dp68
g7
g64
sg9
F575.7023870944977
sg10
I100
sg11
I500
satp69
Rp70
(dp71
g25
I01
sg26
g31
sg32
(lp72
I3
aI5
aI30
aI9
asg34
I6
sg35
g36
(g3
tp73
Rp74
sbsS'IBEA'
p75
g2
(g3
g4
(lp76
(dp77
g7
(F0.049
F2.385
F0.032
I1
I1
tp78
sg9
F0.03375697135925293
sg10
I100
sg11
I0
sa(dp79
g7
g64
sg9
F7.147941827774048
sg10
I100
sg11
I100
sa(dp80
g7
(F0.06
F1.56
F0.079
I1
I1
tp81
sg9
F14.297013998031616
sg10
I100
sg11
I200
sa(dp82
g7
(F0.06
F1.56
F0.079
I1
I1
tp83
sg9
F21.451653003692627
sg10
I100
sg11
I300
sa(dp84
g7
g64
sg9
F28.603087902069092
sg10
I100
sg11
I400
sa(dp85
g7
(F0.087
F0.94
F0.075
I1
I1
tp86
sg9
F35.74656295776367
sg10
I100
sg11
I500
satp87
Rp88
(dp89
g25
I01
sg26
g31
sg32
(lp90
I3
aI5
aI30
aI9
asg34
I6
sg35
g36
(g3
tp91
Rp92
sbsS'NSGA2'
p93
g2
(g3
g4
(lp94
(dp95
g7
g64
sg9
F0.030783891677856445
sg10
I100
sg11
I0
sa(dp96
g7
g64
sg9
F9.578166961669922
sg10
I100
sg11
I100
sa(dp97
g7
g64
sg9
F19.052660942077637
sg10
I100
sg11
I200
sa(dp98
g7
g64
sg9
F28.51053786277771
sg10
I100
sg11
I300
sa(dp99
g7
g64
sg9
F37.9122838973999
sg10
I100
sg11
I400
sa(dp100
g7
g64
sg9
F47.37322998046875
sg10
I100
sg11
I500
satp101
Rp102
(dp103
g25
I01
sg26
g31
sg32
(lp104
I3
aI5
aI30
aI9
asg34
I6
sg35
g36
(g3
tp105
Rp106
sbsS'IBEA-SIP'
p107
g2
(g3
g4
(lp108
(dp109
g7
(F0.12
F0.915
F0.034
I16
I26
tp110
sg9
F0.07262206077575684
sg10
I100
sg11
I0
sa(dp111
g7
(F0.2
F0.623
F0.033
I76
I100
tp112
sg9
F6.849575042724609
sg10
I100
sg11
I100
sa(dp113
g7
(F0.202
F0.68
F0.037
I72
I100
tp114
sg9
F13.681323051452637
sg10
I100
sg11
I200
sa(dp115
g7
(F0.202
F0.664
F0.034
I70
I100
tp116
sg9
F20.514219045639038
sg10
I100
sg11
I300
sa(dp117
g7
(F0.199
F0.732
F0.039
I66
I100
tp118
sg9
F27.353991985321045
sg10
I100
sg11
I400
sa(dp119
g7
(F0.203
F0.694
F0.039
I63
I100
tp120
sg9
F34.13979196548462
sg10
I100
sg11
I500
satp121
Rp122
(dp123
g25
I01
sg26
g31
sg32
(lp124
I3
aI5
aI30
aI9
asg34
I6
sg35
g36
(g3
tp125
Rp126
sbs.