(dp0
S'NSGA2-SIP'
p1
ccopy_reg
_reconstructor
p2
(cdeap.tools.support
Logbook
p3
c__builtin__
list
p4
(lp5
(dp6
S'hv|spread|igd|frontier#|valid#'
p7
(F0.105
F0.94
F0.036
I14
I23
tp8
sS'timestamp'
p9
F0.07316184043884277
sS'evals'
p10
I100
sS'gen'
p11
I0
sa(dp12
g7
(F0.201
F0.602
F0.029
I96
I100
tp13
sg9
F8.687721967697144
sg10
I100
sg11
I100
sa(dp14
g7
(F0.204
F0.604
F0.031
I97
I100
tp15
sg9
F17.088027954101562
sg10
I100
sg11
I200
sa(dp16
g7
(F0.207
F0.625
F0.033
I97
I100
tp17
sg9
F25.45031499862671
sg10
I100
sg11
I300
sa(dp18
g7
(F0.206
F0.607
F0.032
I97
I100
tp19
sg9
F33.772944927215576
sg10
I100
sg11
I400
sa(dp20
g7
(F0.207
F0.67
F0.033
I99
I100
tp21
sg9
F42.25599789619446
sg10
I100
sg11
I500
satp22
Rp23
(dp24
S'log_header'
p25
I01
sS'header'
p26
(S'gen'
p27
S'evals'
p28
S'hv|spread|igd|frontier#|valid#'
p29
S'timestamp'
p30
tp31
sS'columns_len'
p32
(lp33
I3
aI5
aI30
aI9
asS'buffindex'
p34
I6
sS'chapters'
p35
ccollections
defaultdict
p36
(g3
tp37
Rp38
sbsS'SPEA2-SIP'
p39
g2
(g3
g4
(lp40
(dp41
g7
(F0.117
F0.673
F0.034
I13
I19
tp42
sg9
F0.06864404678344727
sg10
I100
sg11
I0
sa(dp43
g7
(F0.203
F0.674
F0.033
I100
I100
tp44
sg9
F69.70139789581299
sg10
I100
sg11
I100
sa(dp45
g7
(F0.205
F0.565
F0.034
I100
I100
tp46
sg9
F148.66454696655273
sg10
I100
sg11
I200
sa(dp47
g7
(F0.208
F0.635
F0.035
I100
I100
tp48
sg9
F226.44895696640015
sg10
I100
sg11
I300
sa(dp49
g7
(F0.209
F0.673
F0.036
I100
I100
tp50
sg9
F303.477411031723
sg10
I100
sg11
I400
sa(dp51
g7
(F0.209
F0.637
F0.036
I100
I100
tp52
sg9
F382.601863861084
sg10
I100
sg11
I500
satp53
Rp54
(dp55
g25
I01
sg26
g31
sg32
(lp56
I3
aI5
aI31
aI9
asg34
I6
sg35
g36
(g3
tp57
Rp58
sbsS'SPEA2'
p59
g2
(g3
g4
(lp60
(dp61
g7
(I0
I0
I0
I0
I0
tp62
sg9
F0.03447103500366211
sg10
I100
sg11
I0
sa(dp63
g7
g62
sg9
F102.69025611877441
sg10
I100
sg11
I100
sa(dp64
g7
g62
sg9
F221.4594750404358
sg10
I100
sg11
I200
sa(dp65
g7
g62
sg9
F333.6912200450897
sg10
I100
sg11
I300
sa(dp66
g7
g62
sg9
F446.2207541465759
sg10
I100
sg11
I400
sa(dp67
g7
g62
sg9
F560.4670481681824
sg10
I100
sg11
I500
satp68
Rp69
(dp70
g25
I01
sg26
g31
sg32
(lp71
I3
aI5
aI30
aI9
asg34
I6
sg35
g36
(g3
tp72
Rp73
sbsS'IBEA-PEN'
p74
g2
(g3
g4
(lp75
(dp76
g7
(F0.146
F0.71
F0.029
I35
I47
tp77
sg9
F0.1925969123840332
sg10
I100
sg11
I0
sa(dp78
g7
(F0.028
F1.64
F0.051
I1
I1
tp79
sg9
F7.55098295211792
sg10
I100
sg11
I100
sa(dp80
g7
g62
sg9
F14.76926302909851
sg10
I100
sg11
I200
sa(dp81
g7
g62
sg9
F21.980089902877808
sg10
I100
sg11
I300
sa(dp82
g7
g62
sg9
F29.194661855697632
sg10
I100
sg11
I400
sa(dp83
g7
(F0.045
F0.978
F0.081
I2
I2
tp84
sg9
F36.410709857940674
sg10
I100
sg11
I500
satp85
Rp86
(dp87
g25
I01
sg26
g31
sg32
(lp88
I3
aI5
aI30
aI9
asg34
I6
sg35
g36
(g3
tp89
Rp90
sbsS'IBEA'
p91
g2
(g3
g4
(lp92
(dp93
g7
g62
sg9
F0.03450798988342285
sg10
I100
sg11
I0
sa(dp94
g7
(F0.065
F1.42
F0.051
I1
I1
tp95
sg9
F7.271378040313721
sg10
I100
sg11
I100
sa(dp96
g7
g62
sg9
F14.379178047180176
sg10
I100
sg11
I200
sa(dp97
g7
g62
sg9
F21.504194021224976
sg10
I100
sg11
I300
sa(dp98
g7
g62
sg9
F28.608793020248413
sg10
I100
sg11
I400
sa(dp99
g7
g62
sg9
F35.7347149848938
sg10
I100
sg11
I500
satp100
Rp101
(dp102
g25
I01
sg26
g31
sg32
(lp103
I3
aI5
aI30
aI9
asg34
I6
sg35
g36
(g3
tp104
Rp105
sbsS'NSGA2'
p106
g2
(g3
g4
(lp107
(dp108
g7
g62
sg9
F0.03456902503967285
sg10
I100
sg11
I0
sa(dp109
g7
(F0.077
F1.02
F0.024
I1
I1
tp110
sg9
F9.80036997795105
sg10
I100
sg11
I100
sa(dp111
g7
g62
sg9
F19.29175901412964
sg10
I100
sg11
I200
sa(dp112
g7
g62
sg9
F28.77848792076111
sg10
I100
sg11
I300
sa(dp113
g7
g62
sg9
F38.21328401565552
sg10
I100
sg11
I400
sa(dp114
g7
g62
sg9
F47.704850912094116
sg10
I100
sg11
I500
satp115
Rp116
(dp117
g25
I01
sg26
g31
sg32
(lp118
I3
aI5
aI30
aI9
asg34
I6
sg35
g36
(g3
tp119
Rp120
sbsS'IBEA-SIP'
p121
g2
(g3
g4
(lp122
(dp123
g7
(F0.107
F0.822
F0.04
I12
I17
tp124
sg9
F0.06520986557006836
sg10
I100
sg11
I0
sa(dp125
g7
(F0.199
F0.599
F0.033
I64
I100
tp126
sg9
F6.879961967468262
sg10
I100
sg11
I100
sa(dp127
g7
(F0.2
F0.73
F0.035
I66
I100
tp128
sg9
F13.581369876861572
sg10
I100
sg11
I200
sa(dp129
g7
(F0.202
F0.596
F0.038
I63
I100
tp130
sg9
F20.295461893081665
sg10
I100
sg11
I300
sa(dp131
g7
(F0.202
F0.633
F0.036
I59
I100
tp132
sg9
F26.897078037261963
sg10
I100
sg11
I400
sa(dp133
g7
(F0.204
F0.646
F0.038
I61
I100
tp134
sg9
F33.555444955825806
sg10
I100
sg11
I500
satp135
Rp136
(dp137
g25
I01
sg26
g31
sg32
(lp138
I3
aI5
aI30
aI9
asg34
I6
sg35
g36
(g3
tp139
Rp140
sbs.