(dp0
S'NSGA2-SIP'
p1
ccopy_reg
_reconstructor
p2
(cdeap.tools.support
Logbook
p3
c__builtin__
list
p4
(lp5
(dp6
S'hv|spread|igd|frontier#|valid#'
p7
(F0.101
F0.798
F0.033
I12
I20
tp8
sS'timestamp'
p9
F0.06816697120666504
sS'evals'
p10
I100
sS'gen'
p11
I0
sa(dp12
g7
(F0.196
F0.591
F0.029
I97
I100
tp13
sg9
F8.654689073562622
sg10
I100
sg11
I100
sa(dp14
g7
(F0.201
F0.595
F0.032
I96
I100
tp15
sg9
F17.042948961257935
sg10
I100
sg11
I200
sa(dp16
g7
(F0.201
F0.593
F0.03
I96
I100
tp17
sg9
F25.36087703704834
sg10
I100
sg11
I300
sa(dp18
g7
(F0.201
F0.612
F0.031
I98
I100
tp19
sg9
F33.66647005081177
sg10
I100
sg11
I400
sa(dp20
g7
(F0.202
F0.637
F0.029
I97
I100
tp21
sg9
F41.95972394943237
sg10
I100
sg11
I500
satp22
Rp23
(dp24
S'log_header'
p25
I01
sS'header'
p26
(S'gen'
p27
S'evals'
p28
S'hv|spread|igd|frontier#|valid#'
p29
S'timestamp'
p30
tp31
sS'columns_len'
p32
(lp33
I3
aI5
aI30
aI9
asS'buffindex'
p34
I6
sS'chapters'
p35
ccollections
defaultdict
p36
(g3
tp37
Rp38
sbsS'SPEA2-SIP'
p39
g2
(g3
g4
(lp40
(dp41
g7
(F0.137
F0.71
F0.032
I19
I30
tp42
sg9
F0.09250116348266602
sg10
I100
sg11
I0
sa(dp43
g7
(F0.199
F0.592
F0.032
I100
I100
tp44
sg9
F72.40614604949951
sg10
I100
sg11
I100
sa(dp45
g7
(F0.203
F0.622
F0.033
I100
I100
tp46
sg9
F153.39693808555603
sg10
I100
sg11
I200
sa(dp47
g7
(F0.205
F0.661
F0.035
I100
I100
tp48
sg9
F234.20203304290771
sg10
I100
sg11
I300
sa(dp49
g7
(F0.206
F0.565
F0.035
I100
I100
tp50
sg9
F313.7528109550476
sg10
I100
sg11
I400
sa(dp51
g7
(F0.209
F0.578
F0.035
I100
I100
tp52
sg9
F395.45975613594055
sg10
I100
sg11
I500
satp53
Rp54
(dp55
g25
I01
sg26
g31
sg32
(lp56
I3
aI5
aI31
aI9
asg34
I6
sg35
g36
(g3
tp57
Rp58
sbsS'SPEA2'
p59
g2
(g3
g4
(lp60
(dp61
g7
(I0
I0
I0
I0
I0
tp62
sg9
F0.03462791442871094
sg10
I100
sg11
I0
sa(dp63
g7
g62
sg9
F96.08204102516174
sg10
I100
sg11
I100
sa(dp64
g7
g62
sg9
F206.68270087242126
sg10
I100
sg11
I200
sa(dp65
g7
g62
sg9
F322.4489998817444
sg10
I100
sg11
I300
sa(dp66
g7
g62
sg9
F438.9229898452759
sg10
I100
sg11
I400
sa(dp67
g7
g62
sg9
F556.4846649169922
sg10
I100
sg11
I500
satp68
Rp69
(dp70
g25
I01
sg26
g31
sg32
(lp71
I3
aI5
aI30
aI9
asg34
I6
sg35
g36
(g3
tp72
Rp73
sbsS'IBEA-PEN'
p74
g2
(g3
g4
(lp75
(dp76
g7
(F0.116
F0.719
F0.029
I24
I39
tp77
sg9
F0.14226484298706055
sg10
I100
sg11
I0
sa(dp78
g7
g62
sg9
F7.6378889083862305
sg10
I100
sg11
I100
sa(dp79
g7
g62
sg9
F14.981560945510864
sg10
I100
sg11
I200
sa(dp80
g7
g62
sg9
F22.331681966781616
sg10
I100
sg11
I300
sa(dp81
g7
g62
sg9
F29.678268909454346
sg10
I100
sg11
I400
sa(dp82
g7
g62
sg9
F37.018348932266235
sg10
I100
sg11
I500
satp83
Rp84
(dp85
g25
I01
sg26
g31
sg32
(lp86
I3
aI5
aI30
aI9
asg34
I6
sg35
g36
(g3
tp87
Rp88
sbsS'IBEA'
p89
g2
(g3
g4
(lp90
(dp91
g7
(F0.06
F0.94
F0.037
I1
I1
tp92
sg9
F0.03803086280822754
sg10
I100
sg11
I0
sa(dp93
g7
g62
sg9
F7.483445882797241
sg10
I100
sg11
I100
sa(dp94
g7
g62
sg9
F14.815170049667358
sg10
I100
sg11
I200
sa(dp95
g7
g62
sg9
F22.12182593345642
sg10
I100
sg11
I300
sa(dp96
g7
g62
sg9
F29.349123001098633
sg10
I100
sg11
I400
sa(dp97
g7
g62
sg9
F36.57912588119507
sg10
I100
sg11
I500
satp98
Rp99
(dp100
g25
I01
sg26
g31
sg32
(lp101
I3
aI5
aI30
aI9
asg34
I6
sg35
g36
(g3
tp102
Rp103
sbsS'NSGA2'
p104
g2
(g3
g4
(lp105
(dp106
g7
g62
sg9
F0.034425973892211914
sg10
I100
sg11
I0
sa(dp107
g7
g62
sg9
F9.754971027374268
sg10
I100
sg11
I100
sa(dp108
g7
g62
sg9
F19.213156938552856
sg10
I100
sg11
I200
sa(dp109
g7
g62
sg9
F28.704087018966675
sg10
I100
sg11
I300
sa(dp110
g7
g62
sg9
F38.15882396697998
sg10
I100
sg11
I400
sa(dp111
g7
g62
sg9
F48.131542921066284
sg10
I100
sg11
I500
satp112
Rp113
(dp114
g25
I01
sg26
g31
sg32
(lp115
I3
aI5
aI30
aI9
asg34
I6
sg35
g36
(g3
tp116
Rp117
sbsS'IBEA-SIP'
p118
g2
(g3
g4
(lp119
(dp120
g7
(F0.115
F0.85
F0.038
I16
I21
tp121
sg9
F0.07983112335205078
sg10
I100
sg11
I0
sa(dp122
g7
(F0.2
F0.616
F0.036
I69
I100
tp123
sg9
F7.005038022994995
sg10
I100
sg11
I100
sa(dp124
g7
(F0.202
F0.66
F0.039
I69
I100
tp125
sg9
F13.799154996871948
sg10
I100
sg11
I200
sa(dp126
g7
(F0.207
F0.595
F0.036
I66
I100
tp127
sg9
F20.61053705215454
sg10
I100
sg11
I300
sa(dp128
g7
(F0.201
F0.54
F0.039
I70
I100
tp129
sg9
F27.438704013824463
sg10
I100
sg11
I400
sa(dp130
g7
(F0.199
F0.588
F0.038
I62
I100
tp131
sg9
F34.097841024398804
sg10
I100
sg11
I500
satp132
Rp133
(dp134
g25
I01
sg26
g31
sg32
(lp135
I3
aI5
aI30
aI9
asg34
I6
sg35
g36
(g3
tp136
Rp137
sbs.