(dp0
S'NSGA2-SIP'
p1
ccopy_reg
_reconstructor
p2
(cdeap.tools.support
Logbook
p3
c__builtin__
list
p4
(lp5
(dp6
S'hv|spread|igd|frontier#|valid#'
p7
(F0.11
F0.857
F0.028
I13
I25
tp8
sS'timestamp'
p9
F0.07519698143005371
sS'evals'
p10
I100
sS'gen'
p11
I0
sa(dp12
g7
(F0.202
F0.607
F0.03
I97
I100
tp13
sg9
F9.991038084030151
sg10
I100
sg11
I100
sa(dp14
g7
(F0.203
F0.579
F0.03
I99
I100
tp15
sg9
F19.787198066711426
sg10
I100
sg11
I200
sa(dp16
g7
(F0.202
F0.608
F0.032
I97
I100
tp17
sg9
F29.67636203765869
sg10
I100
sg11
I300
sa(dp18
g7
(F0.203
F0.575
F0.03
I99
I100
tp19
sg9
F39.54585814476013
sg10
I100
sg11
I400
sa(dp20
g7
(F0.206
F0.577
F0.033
I97
I100
tp21
sg9
F49.37616991996765
sg10
I100
sg11
I500
satp22
Rp23
(dp24
S'log_header'
p25
I01
sS'header'
p26
(S'gen'
p27
S'evals'
p28
S'hv|spread|igd|frontier#|valid#'
p29
S'timestamp'
p30
tp31
sS'columns_len'
p32
(lp33
I3
aI5
aI30
aI9
asS'buffindex'
p34
I6
sS'chapters'
p35
ccollections
defaultdict
p36
(g3
tp37
Rp38
sbsS'SPEA2-SIP'
p39
g2
(g3
g4
(lp40
(dp41
g7
(F0.105
F0.825
F0.04
I12
I14
tp42
sg9
F0.0686788558959961
sg10
I100
sg11
I0
sa(dp43
g7
(F0.202
F0.651
F0.033
I100
I100
tp44
sg9
F87.41826391220093
sg10
I100
sg11
I100
sa(dp45
g7
(F0.206
F0.634
F0.034
I100
I100
tp46
sg9
F180.7315058708191
sg10
I100
sg11
I200
sa(dp47
g7
(F0.21
F0.555
F0.036
I100
I100
tp48
sg9
F272.1164300441742
sg10
I100
sg11
I300
sa(dp49
g7
(F0.21
F0.551
F0.036
I100
I100
tp50
sg9
F364.23185992240906
sg10
I100
sg11
I400
sa(dp51
g7
(F0.211
F0.635
F0.036
I100
I100
tp52
sg9
F457.4203670024872
sg10
I100
sg11
I500
satp53
Rp54
(dp55
g25
I01
sg26
g31
sg32
(lp56
I3
aI5
aI31
aI9
asg34
I6
sg35
g36
(g3
tp57
Rp58
sbsS'SPEA2'
p59
g2
(g3
g4
(lp60
(dp61
g7
(F0.068
F0.94
F0.022
I1
I1
tp62
sg9
F0.04059886932373047
sg10
I100
sg11
I0
sa(dp63
g7
(I0
I0
I0
I0
I0
tp64
sg9
F106.9844560623169
sg10
I100
sg11
I100
sa(dp65
g7
g64
sg9
F236.02064990997314
sg10
I100
sg11
I200
sa(dp66
g7
g64
sg9
F364.2104470729828
sg10
I100
sg11
I300
sa(dp67
g7
g64
sg9
F501.4654378890991
sg10
I100
sg11
I400
sa(dp68
g7
g64
sg9
F633.1067769527435
sg10
I100
sg11
I500
satp69
Rp70
(dp71
g25
I01
sg26
g31
sg32
(lp72
I3
aI5
aI30
aI9
asg34
I6
sg35
g36
(g3
tp73
Rp74
sbsS'IBEA-PEN'
p75
g2
(g3
g4
(lp76
(dp77
g7
(F0.138
F0.727
F0.025
I27
I37
tp78
sg9
F0.15565705299377441
sg10
I100
sg11
I0
sa(dp79
g7
(F0.196
F0.631
F0.036
I46
I86
tp80
sg9
F10.541326999664307
sg10
I100
sg11
I100
sa(dp81
g7
(F0.196
F0.713
F0.037
I44
I86
tp82
sg9
F20.918356895446777
sg10
I100
sg11
I200
sa(dp83
g7
(F0.194
F0.685
F0.037
I47
I79
tp84
sg9
F31.36526894569397
sg10
I100
sg11
I300
sa(dp85
g7
(F0.192
F0.714
F0.039
I49
I86
tp86
sg9
F41.846909046173096
sg10
I100
sg11
I400
sa(dp87
g7
(F0.192
F0.663
F0.043
I46
I79
tp88
sg9
F52.27030897140503
sg10
I100
sg11
I500
satp89
Rp90
(dp91
g25
I01
sg26
g31
sg32
(lp92
I3
aI5
aI30
aI9
asg34
I6
sg35
g36
(g3
tp93
Rp94
sbsS'IBEA'
p95
g2
(g3
g4
(lp96
(dp97
g7
g64
sg9
F0.03724312782287598
sg10
I100
sg11
I0
sa(dp98
g7
g64
sg9
F8.534925937652588
sg10
I100
sg11
I100
sa(dp99
g7
g64
sg9
F17.07741904258728
sg10
I100
sg11
I200
sa(dp100
g7
g64
sg9
F25.66787815093994
sg10
I100
sg11
I300
sa(dp101
g7
g64
sg9
F34.20082402229309
sg10
I100
sg11
I400
sa(dp102
g7
g64
sg9
F42.73394513130188
sg10
I100
sg11
I500
satp103
Rp104
(dp105
g25
I01
sg26
g31
sg32
(lp106
I3
aI5
aI30
aI9
asg34
I6
sg35
g36
(g3
tp107
Rp108
sbsS'NSGA2'
p109
g2
(g3
g4
(lp110
(dp111
g7
g64
sg9
F0.03691411018371582
sg10
I100
sg11
I0
sa(dp112
g7
g64
sg9
F11.405402183532715
sg10
I100
sg11
I100
sa(dp113
g7
g64
sg9
F22.718115091323853
sg10
I100
sg11
I200
sa(dp114
g7
g64
sg9
F33.942376136779785
sg10
I100
sg11
I300
sa(dp115
g7
g64
sg9
F45.235905170440674
sg10
I100
sg11
I400
sa(dp116
g7
g64
sg9
F56.493025064468384
sg10
I100
sg11
I500
satp117
Rp118
(dp119
g25
I01
sg26
g31
sg32
(lp120
I3
aI5
aI30
aI9
asg34
I6
sg35
g36
(g3
tp121
Rp122
sbsS'IBEA-SIP'
p123
g2
(g3
g4
(lp124
(dp125
g7
(F0.124
F0.718
F0.036
I13
I19
tp126
sg9
F0.07247710227966309
sg10
I100
sg11
I0
sa(dp127
g7
(F0.198
F0.694
F0.033
I70
I100
tp128
sg9
F8.095936059951782
sg10
I100
sg11
I100
sa(dp129
g7
(F0.199
F0.625
F0.037
I77
I100
tp130
sg9
F16.201451063156128
sg10
I100
sg11
I200
sa(dp131
g7
(F0.204
F0.541
F0.037
I72
I100
tp132
sg9
F24.21361207962036
sg10
I100
sg11
I300
sa(dp133
g7
(F0.203
F0.682
F0.037
I65
I100
tp134
sg9
F32.173264026641846
sg10
I100
sg11
I400
sa(dp135
g7
(F0.194
F0.71
F0.037
I60
I100
tp136
sg9
F40.093080043792725
sg10
I100
sg11
I500
satp137
Rp138
(dp139
g25
I01
sg26
g31
sg32
(lp140
I3
aI5
aI30
aI9
asg34
I6
sg35
g36
(g3
tp141
Rp142
sbs.