(dp0
S'NSGA2-SIP'
p1
ccopy_reg
_reconstructor
p2
(cdeap.tools.support
Logbook
p3
c__builtin__
list
p4
(lp5
(dp6
S'hv|spread|igd|frontier#|valid#'
p7
(F0.105
F0.822
F0.035
I18
I24
tp8
sS'timestamp'
p9
F0.09270405769348145
sS'evals'
p10
I100
sS'gen'
p11
I0
sa(dp12
g7
(F0.203
F0.548
F0.031
I98
I100
tp13
sg9
F9.982237100601196
sg10
I100
sg11
I100
sa(dp14
g7
(F0.204
F0.695
F0.031
I99
I100
tp15
sg9
F19.815041065216064
sg10
I100
sg11
I200
sa(dp16
g7
(F0.205
F0.598
F0.032
I97
I100
tp17
sg9
F29.51911497116089
sg10
I100
sg11
I300
sa(dp18
g7
(F0.207
F0.645
F0.032
I98
I100
tp19
sg9
F39.39356017112732
sg10
I100
sg11
I400
sa(dp20
g7
(F0.207
F0.576
F0.031
I98
I100
tp21
sg9
F49.14313006401062
sg10
I100
sg11
I500
satp22
Rp23
(dp24
S'log_header'
p25
I01
sS'header'
p26
(S'gen'
p27
S'evals'
p28
S'hv|spread|igd|frontier#|valid#'
p29
S'timestamp'
p30
tp31
sS'columns_len'
p32
(lp33
I3
aI5
aI30
aI9
asS'buffindex'
p34
I6
sS'chapters'
p35
ccollections
defaultdict
p36
(g3
tp37
Rp38
sbsS'SPEA2-SIP'
p39
g2
(g3
g4
(lp40
(dp41
g7
(F0.114
F0.734
F0.042
I14
I18
tp42
sg9
F0.07643294334411621
sg10
I100
sg11
I0
sa(dp43
g7
(F0.199
F0.639
F0.033
I100
I100
tp44
sg9
F84.62226104736328
sg10
I100
sg11
I100
sa(dp45
g7
(F0.2
F0.559
F0.035
I100
I100
tp46
sg9
F179.84896516799927
sg10
I100
sg11
I200
sa(dp47
g7
(F0.201
F0.626
F0.035
I100
I100
tp48
sg9
F276.8888590335846
sg10
I100
sg11
I300
sa(dp49
g7
(F0.203
F0.676
F0.036
I100
I100
tp50
sg9
F371.3335270881653
sg10
I100
sg11
I400
sa(dp51
g7
(F0.207
F0.612
F0.037
I100
I100
tp52
sg9
F466.03852796554565
sg10
I100
sg11
I500
satp53
Rp54
(dp55
g25
I01
sg26
g31
sg32
(lp56
I3
aI5
aI31
aI9
asg34
I6
sg35
g36
(g3
tp57
Rp58
sbsS'SPEA2'
p59
g2
(g3
g4
(lp60
(dp61
g7
(F0.052
F1.02
F0.046
I1
I1
tp62
sg9
F0.03914308547973633
sg10
I100
sg11
I0
sa(dp63
g7
(I0
I0
I0
I0
I0
tp64
sg9
F110.02990007400513
sg10
I100
sg11
I100
sa(dp65
g7
g64
sg9
F237.56077098846436
sg10
I100
sg11
I200
sa(dp66
g7
g64
sg9
F374.7889621257782
sg10
I100
sg11
I300
sa(dp67
g7
g64
sg9
F504.19035506248474
sg10
I100
sg11
I400
sa(dp68
g7
g64
sg9
F633.1372020244598
sg10
I100
sg11
I500
satp69
Rp70
(dp71
g25
I01
sg26
g31
sg32
(lp72
I3
aI5
aI30
aI9
asg34
I6
sg35
g36
(g3
tp73
Rp74
sbsS'IBEA-PEN'
p75
g2
(g3
g4
(lp76
(dp77
g7
(F0.146
F0.706
F0.031
I28
I42
tp78
sg9
F0.16216492652893066
sg10
I100
sg11
I0
sa(dp79
g7
(F0.191
F0.655
F0.029
I46
I85
tp80
sg9
F10.255697965621948
sg10
I100
sg11
I100
sa(dp81
g7
(F0.191
F0.613
F0.03
I45
I74
tp82
sg9
F20.401505947113037
sg10
I100
sg11
I200
sa(dp83
g7
(F0.197
F0.594
F0.033
I59
I89
tp84
sg9
F30.75727605819702
sg10
I100
sg11
I300
sa(dp85
g7
(F0.195
F0.666
F0.038
I44
I72
tp86
sg9
F41.03803992271423
sg10
I100
sg11
I400
sa(dp87
g7
(F0.197
F0.574
F0.034
I52
I88
tp88
sg9
F51.399301052093506
sg10
I100
sg11
I500
satp89
Rp90
(dp91
g25
I01
sg26
g31
sg32
(lp92
I3
aI5
aI30
aI9
asg34
I6
sg35
g36
(g3
tp93
Rp94
sbsS'IBEA'
p95
g2
(g3
g4
(lp96
(dp97
g7
g64
sg9
F0.035681962966918945
sg10
I100
sg11
I0
sa(dp98
g7
g64
sg9
F8.325491905212402
sg10
I100
sg11
I100
sa(dp99
g7
g64
sg9
F16.681572914123535
sg10
I100
sg11
I200
sa(dp100
g7
g64
sg9
F25.002392053604126
sg10
I100
sg11
I300
sa(dp101
g7
g64
sg9
F33.283007860183716
sg10
I100
sg11
I400
sa(dp102
g7
g64
sg9
F41.64225387573242
sg10
I100
sg11
I500
satp103
Rp104
(dp105
g25
I01
sg26
g31
sg32
(lp106
I3
aI5
aI30
aI9
asg34
I6
sg35
g36
(g3
tp107
Rp108
sbsS'NSGA2'
p109
g2
(g3
g4
(lp110
(dp111
g7
g64
sg9
F0.035112857818603516
sg10
I100
sg11
I0
sa(dp112
g7
g64
sg9
F11.163119077682495
sg10
I100
sg11
I100
sa(dp113
g7
g64
sg9
F22.213643074035645
sg10
I100
sg11
I200
sa(dp114
g7
g64
sg9
F33.22036695480347
sg10
I100
sg11
I300
sa(dp115
g7
g64
sg9
F44.29029393196106
sg10
I100
sg11
I400
sa(dp116
g7
g64
sg9
F55.326377868652344
sg10
I100
sg11
I500
satp117
Rp118
(dp119
g25
I01
sg26
g31
sg32
(lp120
I3
aI5
aI30
aI9
asg34
I6
sg35
g36
(g3
tp121
Rp122
sbsS'IBEA-SIP'
p123
g2
(g3
g4
(lp124
(dp125
g7
(F0.118
F0.81
F0.041
I12
I20
tp126
sg9
F0.0691840648651123
sg10
I100
sg11
I0
sa(dp127
g7
(F0.199
F0.641
F0.037
I73
I100
tp128
sg9
F7.897200107574463
sg10
I100
sg11
I100
sa(dp129
g7
(F0.199
F0.645
F0.037
I74
I100
tp130
sg9
F15.748924970626831
sg10
I100
sg11
I200
sa(dp131
g7
(F0.204
F0.701
F0.04
I66
I100
tp132
sg9
F23.621614933013916
sg10
I100
sg11
I300
sa(dp133
g7
(F0.205
F0.66
F0.038
I75
I100
tp134
sg9
F31.40620708465576
sg10
I100
sg11
I400
sa(dp135
g7
(F0.2
F0.658
F0.036
I71
I100
tp136
sg9
F39.21923208236694
sg10
I100
sg11
I500
satp137
Rp138
(dp139
g25
I01
sg26
g31
sg32
(lp140
I3
aI5
aI30
aI9
asg34
I6
sg35
g36
(g3
tp141
Rp142
sbs.