(lp0
F28.455404317200312
aF8.68388526180512
aF2.1858720405169665
aF6.797697333577752
aF4.3700561600492325
aF18.81754780126473
aF13.763681507482103
aF18.727149242950595
aF12.330757853672385
aF2.7711274720174406
aF8.88956590363159
aF6.212373252083359
aF10.406173077798115
aF13.505896196718112
aF1.2903001033569284
aF2.3170872723007667
aF7.201097077995351
aF1.743777815060684
aF4.054775051204303
aF16.07637808763492
aF8.318692877459636
aF22.396841472264356
aF25.372565037436747
aF4.098804081714551
aF7.130802521766596
aF13.69595755887211
aF4.8340492873550875
aF7.671630606378805
aF6.817395512401793
aF6.043651728470191
aF15.517333735341408
aF15.910942511275671
aF4.631492809636397
aF9.49301116559349
aF16.47108570000885
aF12.720893037851216
aF6.7697562376358125
aF20.653808116264628
aF5.533903568736193
aF8.046876052065183
aF8.25895234851808
aF6.553687174090605
aF14.157067324743517
aF5.7565820471616895
aF8.699717774415829
aF9.889173293963452
aF12.726590157368092
aF7.0391638468650815
aF3.2154203650915676
aF15.443844078725256
aF12.560486959424985
aF13.150484795347825
aF1.9417983042148177
aF16.70309126735642
aF5.602495120334844
aF17.637452830832732
aF4.799818595995983
aF17.250089503358907
aF8.703476229172827
aF19.52143695866094
aF8.667427348731424
aF4.907634930441205
aF9.835551218925755
aF10.663195741103337
aF25.373364385302533
aF17.607361160122778
aF7.059208097526931
aF9.729904266486084
aF4.4841273172203895
aF24.593819447940778
aF3.8756873932936777
aF6.752802944666014
aF18.066558658365672
aF8.46569572028286
aF6.293555999732035
aF5.135458689280757
aF9.24128389616779
aF4.887094142626999
aF13.874778893074701
aF5.568884657515106
aF18.751187471516644
aF4.637218674762377
aF3.7037631358360934
aF12.25013380871647
aF15.087352001733164
aF7.718583884623114
aF5.54685261872901
aF7.720938007208168
aF28.75953700617338
aF18.487885322874888
a.