(lp0
F13.026254025364526
aF41.70142310641984
aF37.739445368362425
aF22.828764667244478
aF13.78908501976246
aF11.367847893255528
aF21.06096465577808
aF10.610196592516406
aF12.710205095470656
aF17.779847765732285
aF39.86275977527387
aF21.626807099743278
aF14.566552451216733
aF14.788210573284337
aF29.719233658927614
aF26.077731352521933
aF56.33521915448392
aF26.684647686323956
aF27.639690656661273
aF22.324269210166694
aF44.886608353676124
aF29.585174858806703
aF43.33598439509271
aF48.42878280956138
aF14.345451762975681
aF21.484291069404012
aF13.016971530804984
aF24.915392210296318
aF18.8475703443293
aF31.917034005556026
aF6.228332173964709
aF26.509352297742595
aF5.6862978132197615
aF35.09988722259828
aF14.130068458034762
aF10.267785885054225
aF29.89671170933486
aF19.29264825305742
aF29.809825192865183
aF44.672293458182864
aF21.24832374769823
aF14.030833872611664
aF46.663546463846714
aF36.30399204115831
aF37.11551522339243
aF29.558278805981338
aF7.436110444213455
aF28.461869512909374
aF14.151872374788052
aF20.18978876355741
aF56.643741583965124
aF14.902967542518281
aF9.955887556862614
aF27.0470630172125
aF9.71758763200673
aF38.11530206548361
aF8.671939579695085
aF7.924416061798304
aF13.21503439669479
aF25.417040129884136
aF11.959779503400679
aF24.356414229783894
aF8.68030753298974
aF23.78638522856485
aF20.504118316699504
aF16.55318731593442
aF54.74966635557124
aF37.6622664314349
aF7.689111767699817
aF6.457627134335154
aF42.50257064744247
aF5.510240229433694
aF34.22155843861931
aF31.225611786098163
aF21.851585522835297
aF27.021259638203002
aF30.337476882238708
aF12.396915600766633
aF10.833779910854936
aF54.06005474018756
aF38.319394247176554
aF50.94705758271519
aF21.916357560216326
aF13.852179291333504
aF22.558637618997142
aF44.91297513243457
aF21.73307833783761
aF25.81179836631673
aF37.50642598703292
aF36.223219035745075
a.