(lp0
F29.260193233776587
aF33.88005125291345
aF16.72261033355968
aF10.772945133495234
aF8.11343157901551
aF54.47899907181674
aF44.180952913322656
aF59.509428547412455
aF53.26903016933419
aF53.35815582499657
aF20.156435457358636
aF19.659303272002685
aF9.984435437214744
aF51.817777679322916
aF18.130186274446388
aF6.873784594195236
aF44.71497807568688
aF9.228596826801855
aF55.1457736357404
aF48.56657425741905
aF5.1218241655540915
aF13.700899433321428
aF17.574659568920268
aF29.12600248191201
aF14.87272112125837
aF11.410414633986978
aF7.766469582880592
aF44.84571967321202
aF29.94684703618311
aF30.192026080443803
aF10.615247154973957
aF20.29962893224876
aF41.024554342758385
aF15.079186580390271
aF47.10109568900731
aF10.982976192528632
aF12.047242385621036
aF57.249131522271
aF42.23205405462523
aF10.179992031023712
aF38.4432014472517
aF59.81561988944878
aF10.931972782552407
aF14.164570257300163
aF38.85956617541336
aF12.604241336716209
aF34.24905049643584
aF10.596747858450208
aF16.916479306873985
aF18.839000597905414
aF12.974206120787283
aF9.120061153949383
aF12.926017028970245
aF5.655317287928142
aF33.54310552761652
aF16.197365479422103
aF9.298272787777098
aF15.673811682148903
aF5.7288330037562005
aF21.749814989861335
aF49.912066745678544
aF11.547351098704098
aF35.20480003850765
aF16.01357673905804
aF28.948653351336812
aF21.437936555868312
aF38.43110329371302
aF34.622989009647156
aF18.040545371699693
aF24.03498405181132
aF9.747705604575476
aF12.505589903747541
aF20.266437414349944
aF15.328642511332262
aF59.67374678553807
aF23.796930461755018
aF8.920197647171943
aF31.213916098706886
aF12.906119538211712
aF59.324667437720635
aF18.60660177097412
aF26.60711949127978
aF42.40388157975232
aF40.594047032467
aF16.379672022087384
aF26.68915497455331
aF11.089403919543784
aF45.48886070481949
aF5.143187981091969
aF23.417092163038788
aF42.05757584077768
a.