(lp0
(lp1
F0.01
aF0.5
aF1.0
aF0.98
aa(lp2
F0.01
aF0.59
aF0.99
aF0.97
aa(lp3
F0.01
aF0.59
aF1.0
aF0.99
aa(lp4
F0.01
aF0.59
aF1.0
aF1.0
aa(lp5
F0.02
aF0.36
aF0.98
aF0.97
aa(lp6
F0.02
aF0.41
aF0.97
aF0.97
aa(lp7
F0.02
aF0.41
aF0.98
aF0.96
aa(lp8
F0.02
aF0.41
aF0.98
aF0.97
aa(lp9
F0.02
aF0.41
aF0.98
aF0.97
aa(lp10
F0.02
aF0.41
aF0.98
aF0.97
aa(lp11
F0.02
aF0.41
aF0.99
aF0.98
aa(lp12
F0.02
aF0.45
aF0.97
aF0.97
aa(lp13
F0.02
aF0.45
aF0.97
aF0.98
aa(lp14
F0.02
aF0.45
aF0.98
aF0.95
aa(lp15
F0.02
aF0.45
aF0.98
aF0.98
aa(lp16
F0.02
aF0.45
aF0.99
aF0.96
aa(lp17
F0.02
aF0.5
aF0.95
aF0.99
aa(lp18
F0.02
aF0.5
aF0.96
aF0.99
aa(lp19
F0.02
aF0.5
aF0.96
aF0.99
aa(lp20
F0.02
aF0.5
aF0.97
aF0.97
aa(lp21
F0.02
aF0.5
aF0.97
aF0.98
aa(lp22
F0.02
aF0.5
aF0.97
aF0.98
aa(lp23
F0.02
aF0.5
aF0.97
aF0.98
aa(lp24
F0.02
aF0.5
aF0.97
aF0.99
aa(lp25
F0.02
aF0.5
aF0.98
aF0.96
aa(lp26
F0.02
aF0.5
aF0.98
aF0.96
aa(lp27
F0.02
aF0.5
aF0.98
aF0.96
aa(lp28
F0.02
aF0.5
aF0.98
aF0.96
aa(lp29
F0.02
aF0.5
aF0.98
aF0.96
aa(lp30
F0.02
aF0.5
aF0.98
aF0.96
aa(lp31
F0.02
aF0.5
aF0.98
aF0.96
aa(lp32
F0.02
aF0.5
aF0.98
aF0.96
aa(lp33
F0.02
aF0.5
aF0.98
aF0.97
aa(lp34
F0.02
aF0.5
aF0.98
aF0.97
aa(lp35
F0.02
aF0.5
aF0.98
aF0.97
aa(lp36
F0.02
aF0.5
aF0.98
aF0.97
aa(lp37
F0.02
aF0.5
aF0.98
aF0.97
aa(lp38
F0.02
aF0.5
aF0.98
aF0.97
aa(lp39
F0.02
aF0.5
aF0.98
aF0.97
aa(lp40
F0.02
aF0.5
aF0.98
aF0.98
aa(lp41
F0.02
aF0.5
aF0.98
aF0.98
aa(lp42
F0.02
aF0.5
aF0.98
aF0.98
aa(lp43
F0.02
aF0.5
aF0.98
aF0.98
aa(lp44
F0.02
aF0.5
aF0.99
aF0.96
aa(lp45
F0.02
aF0.5
aF0.99
aF0.96
aa(lp46
F0.02
aF0.5
aF0.99
aF0.96
aa(lp47
F0.02
aF0.5
aF0.99
aF0.96
aa(lp48
F0.02
aF0.5
aF0.99
aF0.96
aa(lp49
F0.02
aF0.5
aF0.99
aF0.97
aa(lp50
F0.02
aF0.5
aF0.99
aF0.97
aa(lp51
F0.02
aF0.5
aF0.99
aF0.97
aa(lp52
F0.02
aF0.5
aF0.99
aF0.97
aa(lp53
F0.02
aF0.5
aF0.99
aF0.97
aa(lp54
F0.02
aF0.5
aF0.99
aF0.97
aa(lp55
F0.02
aF0.5
aF0.99
aF0.97
aa(lp56
F0.02
aF0.5
aF0.99
aF0.97
aa(lp57
F0.02
aF0.5
aF0.99
aF0.97
aa(lp58
F0.02
aF0.5
aF0.99
aF0.97
aa(lp59
F0.02
aF0.5
aF0.99
aF0.97
aa(lp60
F0.02
aF0.5
aF0.99
aF0.97
aa(lp61
F0.02
aF0.5
aF0.99
aF0.98
aa(lp62
F0.02
aF0.5
aF0.99
aF0.98
aa(lp63
F0.02
aF0.5
aF0.99
aF0.98
aa(lp64
F0.02
aF0.5
aF0.99
aF0.98
aa(lp65
F0.02
aF0.5
aF1.0
aF0.97
aa(lp66
F0.02
aF0.5
aF1.0
aF0.97
aa(lp67
F0.02
aF0.5
aF1.0
aF0.97
aa(lp68
F0.02
aF0.55
aF0.95
aF0.99
aa(lp69
F0.02
aF0.55
aF0.98
aF0.97
aa(lp70
F0.02
aF0.59
aF0.96
aF0.98
aa(lp71
F0.02
aF0.59
aF0.99
aF0.98
aa(lp72
F0.03
aF0.27
aF0.97
aF0.94
aa(lp73
F0.03
aF0.27
aF0.98
aF0.96
aa(lp74
F0.03
aF0.32
aF0.95
aF0.96
aa(lp75
F0.03
aF0.32
aF0.95
aF0.97
aa(lp76
F0.03
aF0.32
aF0.96
aF0.94
aa(lp77
F0.03
aF0.32
aF0.96
aF0.94
aa(lp78
F0.03
aF0.32
aF0.96
aF0.96
aa(lp79
F0.03
aF0.32
aF0.96
aF0.96
aa(lp80
F0.03
aF0.32
aF0.96
aF0.96
aa(lp81
F0.03
aF0.32
aF0.97
aF0.95
aa(lp82
F0.03
aF0.32
aF0.97
aF0.95
aa(lp83
F0.03
aF0.32
aF0.97
aF0.95
aa(lp84
F0.03
aF0.32
aF0.97
aF0.96
aa(lp85
F0.03
aF0.32
aF0.98
aF0.93
aa(lp86
F0.03
aF0.32
aF0.98
aF0.94
aa(lp87
F0.03
aF0.32
aF0.98
aF0.95
aa(lp88
F0.03
aF0.36
aF0.95
aF0.95
aa(lp89
F0.03
aF0.36
aF0.95
aF0.95
aa(lp90
F0.03
aF0.36
aF0.95
aF0.96
aa(lp91
F0.03
aF0.36
aF0.95
aF0.96
aa(lp92
F0.03
aF0.36
aF0.95
aF0.96
aa(lp93
F0.03
aF0.36
aF0.96
aF0.94
aa(lp94
F0.03
aF0.36
aF0.96
aF0.94
aa(lp95
F0.03
aF0.36
aF0.96
aF0.94
aa(lp96
F0.03
aF0.36
aF0.96
aF0.95
aa(lp97
F0.03
aF0.36
aF0.96
aF0.95
aa(lp98
F0.03
aF0.36
aF0.96
aF0.95
aa(lp99
F0.03
aF0.36
aF0.96
aF0.95
aa(lp100
F0.03
aF0.36
aF0.96
aF0.96
aa(lp101
F0.03
aF0.36
aF0.96
aF0.96
aa(lp102
F0.03
aF0.36
aF0.96
aF0.96
aa(lp103
F0.03
aF0.36
aF0.96
aF0.96
aa(lp104
F0.03
aF0.36
aF0.96
aF0.96
aa(lp105
F0.03
aF0.36
aF0.96
aF0.96
aa(lp106
F0.03
aF0.36
aF0.96
aF0.96
aa(lp107
F0.03
aF0.36
aF0.96
aF0.97
aa(lp108
F0.03
aF0.36
aF0.96
aF0.97
aa(lp109
F0.03
aF0.36
aF0.97
aF0.94
aa(lp110
F0.03
aF0.36
aF0.97
aF0.95
aa(lp111
F0.03
aF0.36
aF0.97
aF0.95
aa(lp112
F0.03
aF0.36
aF0.97
aF0.95
aa(lp113
F0.03
aF0.36
aF0.97
aF0.95
aa(lp114
F0.03
aF0.36
aF0.97
aF0.95
aa(lp115
F0.03
aF0.36
aF0.97
aF0.95
aa(lp116
F0.03
aF0.36
aF0.97
aF0.95
aa(lp117
F0.03
aF0.36
aF0.97
aF0.95
aa(lp118
F0.03
aF0.36
aF0.97
aF0.96
aa(lp119
F0.03
aF0.36
aF0.97
aF0.96
aa(lp120
F0.03
aF0.36
aF0.97
aF0.96
aa(lp121
F0.03
aF0.36
aF0.97
aF0.96
aa(lp122
F0.03
aF0.36
aF0.97
aF0.96
aa(lp123
F0.03
aF0.36
aF0.97
aF0.96
aa(lp124
F0.03
aF0.36
aF0.97
aF0.96
aa(lp125
F0.03
aF0.36
aF0.97
aF0.96
aa(lp126
F0.03
aF0.36
aF0.97
aF0.96
aa(lp127
F0.03
aF0.36
aF0.97
aF0.96
aa(lp128
F0.03
aF0.36
aF0.97
aF0.97
aa(lp129
F0.03
aF0.36
aF0.97
aF0.97
aa(lp130
F0.03
aF0.36
aF0.98
aF0.95
aa(lp131
F0.03
aF0.36
aF0.98
aF0.95
aa(lp132
F0.03
aF0.36
aF0.98
aF0.95
aa(lp133
F0.03
aF0.36
aF0.98
aF0.96
aa(lp134
F0.03
aF0.36
aF0.98
aF0.96
aa(lp135
F0.03
aF0.36
aF0.98
aF0.96
aa(lp136
F0.03
aF0.36
aF0.98
aF0.96
aa(lp137
F0.03
aF0.36
aF0.98
aF0.96
aa(lp138
F0.03
aF0.41
aF0.94
aF0.96
aa(lp139
F0.03
aF0.41
aF0.95
aF0.94
aa(lp140
F0.03
aF0.41
aF0.95
aF0.94
aa(lp141
F0.03
aF0.41
aF0.95
aF0.95
aa(lp142
F0.03
aF0.41
aF0.95
aF0.95
aa(lp143
F0.03
aF0.41
aF0.95
aF0.95
aa(lp144
F0.03
aF0.41
aF0.95
aF0.95
aa(lp145
F0.03
aF0.41
aF0.95
aF0.95
aa(lp146
F0.03
aF0.41
aF0.95
aF0.96
aa(lp147
F0.03
aF0.41
aF0.95
aF0.96
aa(lp148
F0.03
aF0.41
aF0.95
aF0.96
aa(lp149
F0.03
aF0.41
aF0.95
aF0.96
aa(lp150
F0.03
aF0.41
aF0.95
aF0.96
aa(lp151
F0.03
aF0.41
aF0.95
aF0.96
aa(lp152
F0.03
aF0.41
aF0.95
aF0.96
aa(lp153
F0.03
aF0.41
aF0.95
aF0.96
aa(lp154
F0.03
aF0.41
aF0.95
aF0.97
aa(lp155
F0.03
aF0.41
aF0.95
aF0.98
aa(lp156
F0.03
aF0.41
aF0.96
aF0.93
aa(lp157
F0.03
aF0.41
aF0.96
aF0.93
aa(lp158
F0.03
aF0.41
aF0.96
aF0.94
aa(lp159
F0.03
aF0.41
aF0.96
aF0.94
aa(lp160
F0.03
aF0.41
aF0.96
aF0.94
aa(lp161
F0.03
aF0.41
aF0.96
aF0.95
aa(lp162
F0.03
aF0.41
aF0.96
aF0.95
aa(lp163
F0.03
aF0.41
aF0.96
aF0.95
aa(lp164
F0.03
aF0.41
aF0.96
aF0.95
aa(lp165
F0.03
aF0.41
aF0.96
aF0.95
aa(lp166
F0.03
aF0.41
aF0.96
aF0.95
aa(lp167
F0.03
aF0.41
aF0.96
aF0.95
aa(lp168
F0.03
aF0.41
aF0.96
aF0.96
aa(lp169
F0.03
aF0.41
aF0.96
aF0.96
aa(lp170
F0.03
aF0.41
aF0.96
aF0.96
aa(lp171
F0.03
aF0.41
aF0.96
aF0.96
aa(lp172
F0.03
aF0.41
aF0.96
aF0.96
aa(lp173
F0.03
aF0.41
aF0.96
aF0.96
aa(lp174
F0.03
aF0.41
aF0.96
aF0.96
aa(lp175
F0.03
aF0.41
aF0.96
aF0.96
aa(lp176
F0.03
aF0.41
aF0.96
aF0.96
aa(lp177
F0.03
aF0.41
aF0.96
aF0.96
aa(lp178
F0.03
aF0.41
aF0.96
aF0.96
aa(lp179
F0.03
aF0.41
aF0.96
aF0.96
aa(lp180
F0.03
aF0.41
aF0.96
aF0.96
aa(lp181
F0.03
aF0.41
aF0.96
aF0.96
aa(lp182
F0.03
aF0.41
aF0.96
aF0.96
aa(lp183
F0.03
aF0.41
aF0.97
aF0.92
aa(lp184
F0.03
aF0.41
aF0.97
aF0.93
aa(lp185
F0.03
aF0.41
aF0.97
aF0.93
aa(lp186
F0.03
aF0.41
aF0.97
aF0.94
aa(lp187
F0.03
aF0.41
aF0.97
aF0.95
aa(lp188
F0.03
aF0.41
aF0.97
aF0.95
aa(lp189
F0.03
aF0.41
aF0.97
aF0.95
aa(lp190
F0.03
aF0.41
aF0.97
aF0.95
aa(lp191
F0.03
aF0.41
aF0.97
aF0.95
aa(lp192
F0.03
aF0.41
aF0.97
aF0.95
aa(lp193
F0.03
aF0.41
aF0.97
aF0.96
aa(lp194
F0.03
aF0.41
aF0.97
aF0.96
aa(lp195
F0.03
aF0.41
aF0.97
aF0.96
aa(lp196
F0.03
aF0.41
aF0.97
aF0.97
aa(lp197
F0.03
aF0.41
aF0.97
aF0.97
aa(lp198
F0.03
aF0.41
aF0.97
aF0.97
aa(lp199
F0.03
aF0.41
aF0.97
aF0.97
aa(lp200
F0.03
aF0.41
aF0.98
aF0.94
aa(lp201
F0.03
aF0.41
aF0.98
aF0.94
aa(lp202
F0.03
aF0.41
aF0.98
aF0.94
aa(lp203
F0.03
aF0.41
aF0.98
aF0.95
aa(lp204
F0.03
aF0.41
aF0.98
aF0.95
aa(lp205
F0.03
aF0.41
aF0.98
aF0.95
aa(lp206
F0.03
aF0.41
aF0.98
aF0.95
aa(lp207
F0.03
aF0.41
aF0.98
aF0.95
aa(lp208
F0.03
aF0.41
aF0.98
aF0.96
aa(lp209
F0.03
aF0.41
aF0.98
aF0.96
aa(lp210
F0.03
aF0.41
aF0.98
aF0.96
aa(lp211
F0.03
aF0.41
aF0.98
aF0.96
aa(lp212
F0.03
aF0.41
aF0.98
aF0.96
aa(lp213
F0.03
aF0.41
aF0.98
aF0.96
aa(lp214
F0.03
aF0.41
aF0.98
aF0.97
aa(lp215
F0.03
aF0.41
aF0.99
aF0.95
aa(lp216
F0.03
aF0.41
aF0.99
aF0.97
aa(lp217
F0.03
aF0.41
aF0.99
aF0.97
aa(lp218
F0.03
aF0.41
aF0.99
aF0.97
aa(lp219
F0.03
aF0.41
aF0.99
aF0.97
aa(lp220
F0.03
aF0.41
aF0.99
aF0.97
aa(lp221
F0.03
aF0.45
aF0.94
aF0.97
aa(lp222
F0.03
aF0.45
aF0.95
aF0.96
aa(lp223
F0.03
aF0.45
aF0.95
aF0.97
aa(lp224
F0.03
aF0.45
aF0.95
aF0.97
aa(lp225
F0.03
aF0.45
aF0.95
aF0.97
aa(lp226
F0.03
aF0.45
aF0.95
aF0.99
aa(lp227
F0.03
aF0.45
aF0.96
aF0.94
aa(lp228
F0.03
aF0.45
aF0.96
aF0.95
aa(lp229
F0.03
aF0.45
aF0.96
aF0.95
aa(lp230
F0.03
aF0.45
aF0.96
aF0.95
aa(lp231
F0.03
aF0.45
aF0.96
aF0.96
aa(lp232
F0.03
aF0.45
aF0.96
aF0.96
aa(lp233
F0.03
aF0.45
aF0.96
aF0.96
aa(lp234
F0.03
aF0.45
aF0.96
aF0.96
aa(lp235
F0.03
aF0.45
aF0.96
aF0.96
aa(lp236
F0.03
aF0.45
aF0.96
aF0.97
aa(lp237
F0.03
aF0.45
aF0.96
aF0.97
aa(lp238
F0.03
aF0.45
aF0.96
aF0.97
aa(lp239
F0.03
aF0.45
aF0.97
aF0.93
aa(lp240
F0.03
aF0.45
aF0.97
aF0.96
aa(lp241
F0.03
aF0.45
aF0.97
aF0.96
aa(lp242
F0.03
aF0.45
aF0.97
aF0.96
aa(lp243
F0.03
aF0.45
aF0.97
aF0.97
aa(lp244
F0.03
aF0.45
aF0.97
aF0.97
aa(lp245
F0.03
aF0.45
aF0.97
aF0.97
aa(lp246
F0.03
aF0.45
aF0.97
aF0.97
aa(lp247
F0.03
aF0.45
aF0.97
aF0.97
aa(lp248
F0.03
aF0.45
aF0.98
aF0.94
aa(lp249
F0.03
aF0.45
aF0.98
aF0.95
aa(lp250
F0.03
aF0.45
aF0.98
aF0.95
aa(lp251
F0.03
aF0.45
aF0.98
aF0.95
aa(lp252
F0.03
aF0.45
aF0.98
aF0.95
aa(lp253
F0.03
aF0.45
aF0.98
aF0.95
aa(lp254
F0.03
aF0.45
aF0.98
aF0.95
aa(lp255
F0.03
aF0.45
aF0.98
aF0.95
aa(lp256
F0.03
aF0.45
aF0.98
aF0.96
aa(lp257
F0.03
aF0.45
aF0.98
aF0.97
aa(lp258
F0.03
aF0.5
aF0.93
aF0.97
aa(lp259
F0.03
aF0.5
aF0.95
aF0.95
aa(lp260
F0.03
aF0.5
aF0.95
aF0.95
aa(lp261
F0.03
aF0.5
aF0.95
aF0.95
aa(lp262
F0.03
aF0.5
aF0.95
aF0.96
aa(lp263
F0.03
aF0.5
aF0.95
aF0.96
aa(lp264
F0.03
aF0.5
aF0.95
aF0.97
aa(lp265
F0.03
aF0.5
aF0.95
aF0.98
aa(lp266
F0.03
aF0.5
aF0.95
aF0.98
aa(lp267
F0.03
aF0.5
aF0.95
aF0.99
aa(lp268
F0.03
aF0.5
aF0.96
aF0.93
aa(lp269
F0.03
aF0.5
aF0.96
aF0.94
aa(lp270
F0.03
aF0.5
aF0.96
aF0.94
aa(lp271
F0.03
aF0.5
aF0.96
aF0.94
aa(lp272
F0.03
aF0.5
aF0.96
aF0.95
aa(lp273
F0.03
aF0.5
aF0.96
aF0.95
aa(lp274
F0.03
aF0.5
aF0.96
aF0.95
aa(lp275
F0.03
aF0.5
aF0.96
aF0.96
aa(lp276
F0.03
aF0.5
aF0.96
aF0.96
aa(lp277
F0.03
aF0.5
aF0.96
aF0.96
aa(lp278
F0.03
aF0.5
aF0.96
aF0.96
aa(lp279
F0.03
aF0.5
aF0.96
aF0.97
aa(lp280
F0.03
aF0.5
aF0.96
aF0.97
aa(lp281
F0.03
aF0.5
aF0.96
aF0.97
aa(lp282
F0.03
aF0.5
aF0.96
aF0.97
aa(lp283
F0.03
aF0.5
aF0.96
aF0.97
aa(lp284
F0.03
aF0.5
aF0.96
aF0.97
aa(lp285
F0.03
aF0.5
aF0.96
aF0.98
aa(lp286
F0.03
aF0.5
aF0.96
aF0.98
aa(lp287
F0.03
aF0.5
aF0.96
aF0.99
aa(lp288
F0.03
aF0.5
aF0.96
aF0.99
aa(lp289
F0.03
aF0.5
aF0.97
aF0.94
aa(lp290
F0.03
aF0.5
aF0.97
aF0.94
aa(lp291
F0.03
aF0.5
aF0.97
aF0.94
aa(lp292
F0.03
aF0.5
aF0.97
aF0.94
aa(lp293
F0.03
aF0.5
aF0.97
aF0.94
aa(lp294
F0.03
aF0.5
aF0.97
aF0.94
aa(lp295
F0.03
aF0.5
aF0.97
aF0.94
aa(lp296
F0.03
aF0.5
aF0.97
aF0.95
aa(lp297
F0.03
aF0.5
aF0.97
aF0.95
aa(lp298
F0.03
aF0.5
aF0.97
aF0.95
aa(lp299
F0.03
aF0.5
aF0.97
aF0.95
aa(lp300
F0.03
aF0.5
aF0.97
aF0.95
aa.