(lp0
F7.570693438448876
aF3.048147477495567
aF5.338495994663333
aF3.7509917537281883
aF25.423947343457005
aF2.6293673905227366
aF25.810641846885748
aF4.403622630722561
aF16.93056387665367
aF12.375421648189754
aF16.414860828585596
aF5.194633602285132
aF19.865725907190953
aF9.42676214454547
aF20.860950498252844
aF15.681682288417903
aF16.37842877624403
aF6.84919050290252
aF8.339966208239117
aF10.148415458133568
aF12.033613495803131
aF19.266521184372156
aF8.618448045688318
aF16.935147347717567
aF23.18996374779316
aF18.443118806195972
aF12.117306130610455
aF2.7542166602589626
aF14.249975915187669
aF11.65703103345968
aF5.8691346809187595
aF8.504432236673043
aF8.432194980643583
aF5.00880406836236
aF18.866600200822383
aF1.2825760062707445
aF5.334929649577597
aF19.75030393698745
aF13.968627779408957
aF9.131076101139318
aF15.137933215941654
aF18.229036641276583
aF5.219595410404377
aF1.2514515811236147
aF5.551288970356159
aF14.673643253543524
aF5.933386658854861
aF19.963286045107218
aF4.040321275605565
aF2.199258339167946
aF26.90931029626504
aF19.25314285562358
aF9.092115782518817
aF15.194872868689394
aF9.217926007441477
aF3.8821151022685623
aF3.4593495721504377
aF9.672668655720884
aF3.743554635329907
aF9.091257800067288
aF5.004569158718703
aF6.578510666258936
aF1.9190365501396793
aF4.49979602761934
aF9.73001776909944
aF5.997119537857199
aF8.852134016846284
aF7.235253985084469
aF8.089956935762112
aF14.67057739729471
aF6.949157012515814
aF3.8136507904401893
aF21.025523987922156
aF6.345256922753855
aF14.242458880240338
aF19.47046460669067
aF12.613940753308958
aF7.880833538539201
aF27.31113326988206
aF8.673190141096986
aF16.731482449028885
aF10.934664068152705
aF4.170240405578664
aF16.167726361808377
aF1.7851665884689563
aF9.646701713724418
aF7.243350487665085
aF8.694437883414647
aF29.529169459493733
aF2.407942421004691
aF12.609513055263822
a.