(lp0
F6.717523275792987
aF6.451402579808354
aF6.045452920621343
aF10.816408474406458
aF6.925617461558877
aF15.760986330062359
aF7.561850097487977
aF27.838844071413355
aF7.691135929190558
aF9.924350371711247
aF29.33385947637007
aF9.341422542330385
a.