(lp0
F6.992754628911347
aF7.034417750057916
aF4.237725181546736
aF6.154359467651954
aF21.79539097672335
aF5.766982511603862
aF6.037508084290295
aF25.640013837430978
aF8.835189294587252
aF5.8724380423631874
aF13.322709342115003
aF2.221979071020044
aF6.7722096324835555
aF18.035815115754843
aF5.46803908924276
aF23.63472012171664
aF18.458376889274422
aF17.423998012345923
aF7.590268079841248
aF17.343180278214167
aF5.5033782000221505
aF19.513108134603048
aF16.869462323504937
aF13.46507050144598
aF5.847176492819012
aF5.306812318244393
aF5.590086857869922
aF11.740472907949817
aF18.10987360143085
aF6.073807424871176
aF27.665032041464826
aF23.33485604737086
aF12.26527217096147
aF29.762878357063453
aF19.651997665686167
aF12.915127318235871
aF15.29953842189446
aF17.23342991260673
aF1.468934450499981
aF22.638273563257147
aF1.7700693578730422
aF10.50092278984765
aF5.234072548189843
aF4.678551234172563
aF6.706172558286932
aF7.737329758194691
aF29.65928158939714
aF21.527779250919323
aF13.638366569478134
aF28.370403149913827
aF20.411525566221698
aF4.656923695385482
aF3.8117954037276283
aF17.947856930003688
aF16.38098235412426
aF6.251024075158997
aF4.790769656547573
aF9.437315445368737
aF4.530214356983855
aF18.823359424237783
aF19.805440114364153
aF1.9797546811255609
aF6.771282907877335
aF25.762853194445686
aF6.410534292165164
aF19.376880811917225
aF7.946389738848439
aF2.4646007348497907
aF10.877413561562829
aF4.334127916382658
aF2.4149739303855995
aF3.4929136995109817
aF1.1594602541885397
aF6.285631497058442
aF4.017929576438629
aF6.242607893410609
aF7.738624666190423
aF5.454583997946119
aF19.04490784721461
aF25.14890029998032
aF6.978111305110522
aF23.252269562004788
aF8.98688366348337
aF6.082411730583395
aF2.863396000927208
aF5.832087952391948
aF15.954904517330842
aF15.31184521112575
aF2.377097796068583
aF28.636095842497486
aF4.585778511883014
aF9.695405927754727
aF16.94402435806831
aF1.9677482405493358
aF24.819639256687907
aF27.021000241926885
aF5.171537440345036
aF9.8814866372166
aF22.866346891054526
aF13.006287116191242
aF9.168396406988096
aF17.744724939437297
aF5.739300345744655
aF20.32736825694979
aF9.632918100498802
aF25.341552494440947
aF27.866619875162833
aF9.814839798604483
aF4.84234595150802
aF8.881291935725066
aF8.367935332086443
aF20.75763753143871
aF5.602220405276141
aF13.585136937132676
aF9.221078433024632
aF24.731226121909224
aF4.259411254682216
aF5.690570997107825
aF5.780906567955736
aF17.00865018894826
aF8.4985466449819
aF14.086621125764685
aF13.53786533929313
aF5.8808700716713
aF2.899593298493406
aF28.406502398202978
aF9.153034443279576
aF22.11048713293483
aF15.867508535516105
aF10.512647713959945
aF6.507955719301326
aF17.937187136863677
aF6.406176652738339
aF17.464125135985274
aF5.114228588670351
aF2.5758616779880503
aF7.4061141029597195
aF24.18672477731177
aF10.459166309914469
aF3.4009320541677184
aF23.128989698082627
aF7.179905071798747
aF3.687575189923399
aF7.322405076378793
aF2.310366331219729
aF11.164783849706431
aF9.742272492694928
aF17.70593630927734
aF7.770557968102484
aF17.377698135029416
aF29.21819493136386
aF3.148167331329054
aF20.712122726954725
aF5.3280569510928775
aF15.153023900559546
aF7.627143929205523
aF23.682123014235017
aF13.576094538446567
aF9.98281542442339
aF7.457351898401397
aF2.880798848929753
aF17.388462078532328
aF8.916453908950915
aF16.69633460499022
aF8.641460541898075
aF18.58452198807068
aF6.269925003667076
aF9.150377975940646
aF14.535925317848944
aF4.9151716709699915
aF5.027307921640582
aF7.358261164062554
aF19.438226279884862
aF2.2389026428846837
aF5.877534379719765
aF1.3001050711635997
aF7.42077399666783
aF6.06214447431115
aF3.761327770700529
aF2.313198593151377
aF4.864617333656958
aF9.545279231416092
aF13.878022084877871
aF6.395692383726004
aF8.943017387217601
aF5.2743788600327495
aF3.8042890200385315
aF13.611690738004135
aF15.468067275536974
aF2.796851230652428
aF6.449773904671152
aF5.856835797398057
aF9.099250271739262
aF3.206719499595954
aF3.3935865416517226
aF15.03436415658343
aF5.6864744820147495
aF2.926902546964648
aF8.289234884739269
aF8.33469407073428
aF7.107375894287083
aF1.8061939177370916
aF3.409365903952911
aF29.760237259996593
aF5.232599806899097
aF6.6037113342993905
aF21.28875378898477
aF5.179680656327427
aF8.738865316479444
aF18.392222170637467
aF8.190107139260832
aF8.797762303845587
aF26.38606326584751
aF21.60472697379817
aF6.193506008797534
aF14.505250144502085
aF9.672933567419014
aF6.924177172401088
aF4.764935073293361
aF12.549788972727557
aF6.474428344202684
aF5.167609652670605
aF7.048814800528556
aF14.593634425983053
aF11.734444536850726
aF8.536207005768524
aF2.690792446701481
aF4.696667663353968
aF4.342074886179141
aF17.153110454002622
aF15.238395402473634
aF4.406052939660139
aF3.3623738206092177
aF15.31905042608214
aF12.26930946923828
aF18.758304793608684
aF8.823871823071434
aF7.426151739106029
aF19.409776973884206
aF3.9095949353967847
aF4.808393583421922
aF3.3820143383022447
aF8.780202070732095
aF8.157695778925271
aF7.239635402973155
aF9.858665984685574
aF3.09331386244185
aF27.382048196395125
aF8.495424664597623
aF17.148823273443693
aF12.53042921390794
aF16.019725049731427
aF13.313023409039964
aF11.199106712171565
aF4.160863672684182
aF14.200718959218099
aF3.225308634859469
aF3.2929414924762157
aF8.083404018875044
aF7.812193948480256
aF14.146543581276912
aF9.551813052764818
aF3.2475578678894914
aF2.739893168877185
aF15.800266825435433
aF4.239634002892023
aF23.08543143260231
aF8.63489973324061
aF7.1510859537409655
aF13.044836836622567
aF27.52701797600796
aF26.72919521734278
aF24.72265098800383
aF5.095249396710369
aF5.876900384172852
aF21.301125332187702
aF4.371818989146895
aF7.555990664070775
aF6.534971333894058
aF16.614646344842306
aF5.622737315754266
aF8.064236181284652
aF17.05560201358721
aF6.191390188394619
aF7.982026158061512
aF5.631409569575383
aF1.295663542008543
aF3.3115582621242754
aF6.977459657329221
aF3.125069505270179
aF4.482703348081244
aF12.729859332734968
aF6.682561755042475
aF15.317450140033664
aF8.359414684523653
aF28.899208990888134
aF9.613641023218657
aF3.614220828538946
aF19.426062375057523
aF8.263968895249725
aF8.824961448068446
aF4.076135517258128
aF5.073088635060971
aF9.248875845875386
aF2.126367479788533
aF7.352501893939625
aF24.37905425739196
aF5.2570168262976
aF10.829950360486457
aF18.88684931565903
aF4.614680217522817
aF27.649777854549747
aF2.980159875769245
aF4.1152671017674445
aF8.965313117078617
aF3.0591500612741225
aF16.39822298685067
aF8.694355746737125
aF5.721819040521392
aF3.172005840809218
aF6.884929670017784
aF11.422484382913284
aF12.438907313683494
aF29.812813814667457
aF16.40561927113436
aF12.220898642665489
aF3.2475176749215198
aF3.174202894283134
aF6.696540223789837
aF6.204784368749964
aF2.988194214066934
aF22.38790842096715
aF9.843458549626355
aF8.293561707515588
aF2.758017055989434
aF5.506926084810153
aF17.913418798716066
aF2.0574422095720966
aF22.40606258306957
aF19.44616103813699
aF17.441129379301906
aF13.836145100466805
aF9.675848380378662
aF7.3115292581037705
aF4.749750516805907
aF6.388517439607809
aF18.741690331376926
aF9.506914396484165
aF10.217418016480632
aF7.712630262236049
aF9.696423739955716
aF16.161312751779914
aF4.36248419422462
aF8.383255505735045
aF7.701018385112361
aF17.997464977206928
aF8.260621650918544
aF18.608034416531236
aF7.361880424536306
aF29.582724965997134
aF14.705164935976278
aF6.221633522582731
aF29.35281710746965
aF27.6408804793964
aF22.618767639515568
aF9.953213769262964
aF7.393579278803063
aF10.02210294883745
aF17.100745548111334
aF25.791006197972283
aF17.245879549483934
aF8.63656340235451
aF2.5566493898562506
aF8.0804001351977
aF1.921972678259629
aF4.304721636277202
aF8.569939941659873
aF2.2613628716478873
aF16.057782942056757
aF3.439865332155553
aF20.555206255933005
aF4.106028652031152
aF3.106052780363093
aF7.127748563535635
aF12.286906649321985
a.