(lp0
F13.958791999915071
aF1.741870088016762
aF3.365409985359042
aF2.5285517527568215
aF22.949296602648893
aF8.05015016331317
aF8.476928170370368
aF5.698060595413583
aF5.707326369522734
aF10.657946341357697
aF18.21905046841208
aF25.983349910714413
aF16.89599954986978
aF9.745478926912492
aF23.742997861030528
aF17.697740576437486
aF6.92332802526576
aF11.005529367884254
aF7.356432627377846
aF11.391293956030319
aF4.601486598144421
aF26.64543494522092
aF17.514409129402534
aF4.19982305870235
aF17.761802698283656
aF15.566588756801638
aF8.52695793872605
aF7.9587734767178056
aF12.892754905279382
aF9.675062307488485
aF15.477597785331227
aF7.041236392686921
aF6.7713308205599665
aF6.535060380599034
aF13.22558963454333
aF7.166561516576634
aF13.483432347337395
aF4.698693126255344
aF21.238084751518056
aF18.944081579979343
aF8.368731153381045
aF23.091404111939788
aF10.46114382419986
aF16.382801927975706
aF9.22538724332836
aF8.462369338672342
aF4.700136616954708
aF14.250458689173163
aF7.6341582337681055
aF18.470777230405844
aF3.594814594461962
aF6.6529199422568945
aF2.9802619893507587
aF4.768366241010453
aF9.841777382522757
aF26.175238681529915
aF14.32220072332978
aF7.971921799967967
aF9.637611345853056
aF4.9043800147504895
aF4.2278979835174395
aF5.862468034561014
aF1.3634964290835319
aF12.462713834891952
aF10.712471904549862
aF4.486095881542066
aF3.031496135810311
aF27.123430163302608
aF20.24564180026939
aF2.5128594768439574
aF6.341790483782314
aF18.495647365100254
aF4.839612631774623
aF26.738236615482375
aF9.443957798149992
aF1.3667329946070848
aF1.6917542398887715
aF5.215824693682273
aF18.710653644626127
aF6.218581006217758
aF10.585506794074941
aF1.4718660519666265
aF8.028798497552158
aF8.230470535928296
aF27.01633664655818
aF7.067270007992663
aF7.864490821590751
aF13.398675748746014
aF3.29660703720916
aF8.816794323977746
aF8.01220059214655
aF1.427308342589042
aF18.26833199975384
aF8.63280515398281
aF4.503446712547348
aF19.55355291519218
aF6.895716420963518
aF22.52821314994364
aF8.569647957958308
aF18.831305179502507
aF19.545217356939045
aF4.5289457470697805
aF29.623523616809464
aF10.873365947045023
aF11.594266017743323
aF16.302687248986345
aF11.726675214335684
aF11.475953713064953
aF13.724934635999109
aF13.119707858852868
aF1.9111871728191987
aF4.043089519850056
aF6.634931194246343
aF7.970121496489702
aF28.67409495944017
aF16.31571927724254
aF21.815862409223225
aF7.742162549150633
aF9.701944662659969
aF4.301716106252304
aF10.935014694920213
aF10.195488267828749
aF6.031639896413512
aF2.11844769944849
aF16.643141696511403
aF6.028481667337442
aF13.408998008027536
aF4.699057146756251
aF12.267665622862953
aF12.782449695412414
aF9.432079452411484
aF6.113394116039211
aF5.024410274569583
aF11.057072964521485
aF5.254324753802647
aF6.654495992680593
aF19.56140214432758
aF14.240517486684535
aF7.24821963376678
aF17.706288289433775
aF3.6152048369627243
aF21.826518237945052
aF8.706653590004276
aF14.84401613933787
aF27.862759730331355
aF9.601525951730311
aF9.079191466413599
aF13.134313557956068
aF16.50364347052345
aF14.39970177284688
aF5.460392602564364
aF11.827344135634142
aF2.8907967568281574
aF4.115911197655674
aF5.797426956654676
aF20.942019421619996
aF24.493014933226256
aF4.538092673771807
aF16.628785742244716
aF1.3351971206996895
aF4.611746275183263
aF2.6017076149220264
aF2.8541931762716355
aF5.6742253788281065
aF5.6036205204761895
aF6.938303662129486
aF3.755778989403142
aF5.787373869026135
aF6.107130183022809
aF2.5247667569623395
aF9.516527565611478
aF1.9549513661414522
aF2.5755865222456347
aF17.993046600477534
aF4.842243797216928
aF15.502276979717399
aF14.953016756704145
aF10.459790940245995
aF9.516296757174684
aF26.077542234036194
aF1.810281977163983
aF7.057509459497493
aF10.904331334683368
aF15.713721331921981
aF29.68750508886767
aF11.34735336112894
aF19.337728869221543
aF3.9648187246938233
aF8.113475584724702
aF3.9555152072567865
aF18.012441711781133
aF1.0494434865118785
aF17.830309213034496
aF8.710895404628031
aF27.273518130013073
aF8.544158277284758
aF4.058102045544949
aF1.5176336375251829
aF21.823563200290003
aF15.84081349143924
aF4.6801245640902875
aF12.75630431927941
aF8.825240455900369
aF2.6585393327234703
aF8.143492174688804
aF23.1184537219483
aF11.720232290962398
aF5.126583051690359
aF17.126567260756257
aF1.147986856589878
aF14.488081816948206
aF5.288578718770605
aF6.110858341334958
aF18.635443158556928
aF29.571895272835476
aF18.842368368398496
aF8.921376429628893
aF8.783855341163552
aF11.788543739308034
aF18.686602505354223
aF5.518652759207588
aF18.650364598172814
aF17.97968659667385
aF24.359963818475176
aF10.055158037347157
aF7.7703968853839465
aF5.178539565617811
aF3.050870405543385
aF2.432279745743287
aF21.93415978506753
aF8.718045274536347
aF12.330649850956668
aF14.038738427341121
aF4.13481718932332
aF18.21243895530158
aF14.225007763872828
aF4.0486080116197325
aF29.22467824361372
aF5.740369857065973
aF6.071729784952574
aF17.227254296829305
aF7.401235280136991
aF3.3083399009944436
aF15.752595704620584
aF2.929655904706073
aF23.732437686848833
aF9.433188642216823
aF17.17896733498241
aF7.205505630233643
aF13.141052824814995
aF12.493958212438178
aF9.247979138217087
aF1.9291362905893252
aF8.51426067958432
aF17.64810005892965
aF7.654242694106896
aF11.005380758995395
aF8.577426828246553
aF1.360972536683457
aF13.978405503044181
aF10.762078878188394
aF5.453575081739578
aF4.197770690141699
aF5.832429333078236
aF2.697018839257584
aF4.9788535258675175
aF5.367412298842141
aF19.282920142495588
aF4.898589523585784
aF9.634657956595298
aF9.507831717675531
aF3.8574027419543953
aF19.63917991923599
aF4.640584850752978
aF7.915643758032664
aF9.761411148896881
aF21.903132352008356
aF3.0390565764062223
aF6.598103650481612
aF2.6275847571096724
aF14.408128131410827
aF1.8402827619927478
aF4.934298788745103
aF9.954058457096908
aF11.301846703830954
aF19.15433195082211
aF15.229299055632767
aF7.972506162929177
aF8.864673293266554
aF25.82162835613104
aF14.727079105199353
aF24.716178167976395
aF23.81132152821627
aF28.086071887400657
aF5.783012160436744
aF24.774345692180795
aF10.986548500175768
aF15.778105640291809
aF7.941497416958918
aF3.872943667212653
aF22.407426254352444
aF12.261364319382794
aF10.237076909831472
aF27.81558319645726
aF5.975519937679057
aF14.069369732683462
aF2.1862518522009258
aF3.5932346586263946
aF17.78293887262234
aF5.045517205839488
aF11.443751640277545
aF7.822207151634682
aF18.247868824383424
aF5.060956235921792
aF19.94205326697882
aF26.837946808205057
aF3.1091029786845255
aF7.7482422405299936
aF3.7102097422203792
aF12.93529035574376
aF9.486059575475332
aF7.184592537431168
aF6.078909231120697
aF15.774350128579862
aF29.05753246553003
aF5.091290503819764
aF7.793435791260935
aF6.909906235579006
aF14.575694619296886
aF8.877337259109318
aF8.275365928038163
aF3.0121067962122767
aF3.8790196882597536
aF24.394418881592966
aF5.291849029997543
aF2.7057928021985607
aF3.6138461799433417
aF22.77447028021351
aF18.879226479674248
aF8.818756467903293
aF9.074213157895644
aF16.189202879414587
aF13.081076537266636
aF9.702707215787223
aF26.135827095423025
aF9.969294268724493
aF5.667977405928693
aF7.137465768770908
aF7.385925704968143
aF14.266686909176908
aF18.529621784180996
aF9.465656933470294
aF22.615937097892417
aF15.072511447872156
aF19.596809284352478
aF5.974589362010202
aF6.506111498981865
aF10.427962114923869
aF7.899374731364415
aF7.041937722215955
aF14.349552348251647
aF5.378280644642247
aF6.546706345838399
aF9.479727693435539
aF15.61867992801281
aF7.528286725538633
aF1.413862596815622
aF5.980242204525193
aF17.534913726143767
aF27.098504814242148
aF4.390831228365491
aF5.863035631157715
aF15.450534536247499
aF9.203788364053205
aF25.18933029191939
aF10.249285384293175
aF21.591039131438833
aF1.0266344845184132
aF1.5186917472208568
aF29.586393816827844
aF4.48988445429563
aF20.42128966475807
aF7.04309323696281
aF14.874901631208374
aF9.169970393244123
a.