(lp0
F3.9441496705668144
aF4.503815847207008
aF5.766583532664629
aF8.544814230900782
aF7.113955073176446
aF4.546004075940875
aF9.43540131791447
aF3.887447758348731
aF1.6306003236707367
aF8.131716301492864
aF1.3291978795795
aF4.028640839493205
aF7.797966416375811
aF3.1072286058878653
aF4.8225732701940185
aF9.48964621892342
aF3.9990765010290352
aF8.43789597101199
aF6.547144022257675
aF7.594455190270467
aF4.263650293843362
aF9.798925499863063
aF3.615891389773501
aF3.693439023793471
aF1.2609313768137718
aF5.655745220866906
aF6.583120259082143
aF9.590532877402142
aF6.257710212508701
aF1.5312978185279684
aF6.71003887174275
aF3.44730256343238
aF1.9084965772456286
aF4.430712005807608
aF6.657211354601483
aF1.3025457913196865
aF4.9488042238622025
aF2.6875657349018978
aF8.897983506901186
aF3.051339335395227
aF8.091406848667896
aF6.9613917672273065
aF1.4796003492374745
aF9.129805097691397
aF9.485688254679278
aF6.69629560051897
aF9.741822531381175
aF1.9401816038978739
aF8.3666581707517
aF8.340929570629152
aF4.218060306565061
aF8.919970193672716
aF6.75601102990697
aF8.522174379666204
aF1.2836602667266854
aF2.324261385885001
aF7.459479358586364
aF3.0677205100671805
aF4.766910955555926
aF1.7404091322324016
aF8.039058395945325
aF1.0145582678072302
aF8.559049621423593
aF9.75834164398108
aF4.338230693627914
aF3.5240239690021355
aF6.393797941007849
aF7.13474902847522
aF2.0661139483380984
aF3.4652592013692276
aF3.298598288223526
aF4.194102968524073
aF2.6837401373651444
aF8.162503253828799
aF8.861839433255255
aF1.5482389607473297
aF2.8004741998527924
aF7.647790151550314
aF9.91778989576712
aF4.2461000668610485
aF9.301106843625822
aF3.0312781094189294
aF9.486812069899049
aF8.88345359749102
aF7.6930582717064695
aF3.1143300632727806
aF5.456324092123427
aF9.532424229025814
aF8.827257047406839
aF3.5505568933485634
aF5.3354559582882715
aF2.4461529059485576
aF1.6339005893646403
aF9.355842045232917
aF1.8469908069265328
aF3.807010123537067
aF1.0022925638538673
aF2.9946344150008066
aF6.585256608217995
aF9.246148411861759
aF8.391307554485412
aF7.654804913633876
aF1.9971055685987815
aF3.8652213343947732
aF9.429157617164186
aF2.329337364803153
aF7.301692041619553
aF1.6905357925808495
aF6.698890184512981
aF7.183305780378532
aF7.63057285767973
aF7.473297012385361
aF7.342873705570352
aF5.3455672462422426
aF4.807716386442275
aF9.019051892026493
aF5.341830793826103
aF6.124907364376375
aF8.411767540209736
aF5.688866492573635
aF5.956276862393931
aF2.169904081259161
aF4.668700693274804
aF8.361835419742174
aF7.448675941409764
aF2.3149603968430936
aF6.8395430932827015
aF1.64040379042682
aF7.7932179608488354
aF8.744875464605318
aF5.815127603289669
aF8.227398694450587
aF6.60307027833475
aF7.230516235778351
aF4.909801183656844
aF6.425079829260694
aF1.9092675747455994
aF6.7160765533494216
aF7.567894876232556
aF4.154521001182454
aF7.713399250432232
aF3.033094104080681
aF9.109663367150853
aF2.989810759092281
aF6.5688465064726405
aF7.307504140232393
aF9.168770500761534
aF1.4434411246721988
aF9.661502574044816
aF4.1199097053939155
aF4.84503957864911
aF7.438604939025479
aF4.352685591201018
aF7.515442581900329
aF3.234646668365874
aF1.320164639963985
aF4.973951546994428
aF3.8565487996476184
aF7.292712260010311
aF9.505806104868807
aF6.879142792199898
aF7.257249366766378
aF2.702504662723225
aF3.734754225195327
aF1.8289781669550134
aF3.9748297386992504
aF1.8440548105958707
aF1.6731935203886623
aF5.171230030669668
aF5.76700414284254
aF8.065092084643672
aF7.023999316956746
aF9.50778621424764
aF6.833714749925209
aF6.458446986744189
aF5.5754297965363095
aF6.873285960090618
aF6.254094469620609
aF7.918515110163112
aF1.545630838244688
aF1.1044240802556629
aF8.873478376003042
aF9.253242204022367
aF8.768556949255483
aF6.0353505113706785
aF5.33813479747393
aF5.33543365067708
aF1.8943550140195013
aF2.085116384461474
aF2.8935311457235358
aF1.0816008286214744
aF4.8852876847373725
aF9.126858699312281
aF6.387299132551004
aF4.0188438381025335
aF5.623855330774711
aF3.2002947857374973
aF4.6552312908950775
aF9.826733135526844
aF4.818039960441466
aF4.656642454567051
aF3.2954772934731076
aF1.0536921055190251
aF3.966469348355696
aF2.559330377672042
aF4.079869164669896
aF8.782833884389067
aF1.7966268038635436
aF5.923777452986426
aF6.906274247174767
aF2.3893933385515007
aF2.9076726602558303
aF3.1262532632282922
aF9.646980285164002
aF3.5406096532376266
aF3.2106045949096154
aF3.449087595811701
aF3.7705066148908086
aF4.029376679382304
aF2.5467201530841144
aF5.250410636539141
aF1.5963724461099877
aF8.329798889465486
aF6.821585646401168
aF2.297459893852365
aF1.0037022255389423
aF8.516501480616963
aF2.5246143785307362
aF8.63319759595987
aF8.56326689719519
aF3.3403196386694427
aF1.4639802125344041
aF8.230859215809026
aF6.836720904471864
aF5.09496086005102
aF3.2540278554763478
aF8.035999079229411
aF8.734575316949222
aF9.548831861011418
aF9.642759746798294
aF2.197926199648144
aF6.468529381029025
aF1.1796263029040104
aF7.256040994054594
aF3.523787280876207
aF6.278630667861051
aF3.6367323093993025
aF8.376544319615526
aF3.1962265205820266
aF1.4542449945824507
aF5.987056595918125
aF3.763524715014241
aF7.344569434182593
aF1.325104138165405
aF8.15838244916603
aF9.835841216990147
aF4.275176318091731
aF8.22951225550451
aF3.155155981984015
aF3.105968081752292
aF6.149954377069453
aF1.1683220520881838
aF4.4319348946375445
aF9.391808839798848
aF1.7156882889158949
aF6.75808764051372
aF2.257372249585299
aF7.676132727918185
aF7.374885958761163
aF5.550089506338723
aF9.3166426157204
aF1.025837517049971
aF2.107047460583762
aF1.3429406435911548
aF4.787664792359665
aF8.442931860979852
aF8.066290190870959
aF8.934360799291031
aF5.031422332983481
aF1.8388372928958838
aF3.8700002140025096
aF5.8566932535563
aF1.080222588480366
aF8.128740853153376
aF5.572767470124925
aF3.3970903112288022
aF5.118880398935633
aF3.848652223271838
aF6.148292410481622
aF7.553983192746486
aF1.3518997207773542
aF1.658697373777656
aF7.547438812650531
aF3.609822254112191
aF1.050322865739159
aF5.251226880667406
aF6.586755541235437
aF1.3886415452812981
aF5.778928755166196
aF7.844506563278301
aF7.423759271931584
aF6.078465833330347
aF7.3353053845616065
aF1.2873149420242356
aF6.199352742586995
aF4.7716106566020535
aF6.933987668711341
aF1.8881610065351804
aF8.74486862695273
aF5.434616526557135
aF5.040422249414793
aF3.1542350064602385
aF7.180894417525653
aF2.14172356578455
aF9.246745937521563
aF8.80111479060594
aF7.725421897723013
aF9.643387754816848
aF9.104536038301578
aF8.614613697690192
aF4.137618111878888
aF9.851305577098948
aF3.1633346205449624
aF1.477904372805561
aF4.506449533431502
aF6.986411558975568
aF7.799598380788264
aF9.938091882893314
aF2.562251805831866
aF2.6094736736608377
a.