(lp0
F15.635613017185849
aF42.71233839263478
aF34.14746177935922
aF47.19714336539924
aF8.35927093750202
aF30.650265041403962
aF58.78939199060949
aF12.195111126418293
aF19.82459157254764
aF36.58467312573223
aF49.54026819418135
aF26.06691687465009
aF36.91058610385855
aF14.045389195610822
aF40.95051414627466
aF37.65390366392894
aF31.99542030529914
aF32.51947772067542
aF51.41292175682767
aF29.805029595481763
aF23.641260918159702
aF41.6436916330305
aF27.140820375299086
aF26.33404273202693
aF10.94398879302881
aF14.799691329129562
aF5.498163767529769
aF58.82663424176771
aF12.560408747916359
aF14.668878640117974
aF33.97771077216318
aF50.47772141978726
aF37.355851628710624
aF42.19951733972198
aF32.6739920221725
aF18.654780839133608
aF17.065224712451244
aF13.387224645775412
aF5.249167250062784
aF20.23420945813077
aF21.0824058721563
aF19.384890327745318
aF7.516006694393443
aF45.69948593736801
aF54.5277875761654
aF57.249229493454635
aF11.72005339335329
aF19.549445647405957
aF33.61490012073084
aF8.198293355332371
aF14.406506886409563
aF10.800050856511774
aF23.465180102205117
aF53.77464564502247
aF14.776159990515044
aF33.47943726879109
aF25.931532304033293
aF41.215662101480675
aF44.15499943844547
aF25.785634224810103
aF27.484161976199587
aF5.09599260347572
aF31.657202057060662
aF38.272558903464024
aF37.72366411064662
aF53.3816177381929
aF20.396039435205996
aF52.70652294610756
aF14.870785845759249
aF5.046393282889172
aF23.419235828006723
aF36.74461931451813
aF32.232986039940585
aF14.848119857364729
aF5.887754994017037
aF34.2116326070946
aF57.83490681833514
aF23.25738231919744
aF27.1848743636071
aF6.24983943310407
aF10.702288683669277
aF5.133605981309132
aF29.876031574421464
aF17.033701004389172
aF31.811458211599692
aF19.43533403045807
aF13.29358799558577
aF18.719270555785577
aF7.9101604797943805
aF41.38251732864166
aF32.4217454008111
aF25.778995223616317
aF35.737858063115205
aF10.630772694284483
aF17.730676528263736
aF24.989201477560023
aF13.507619204226085
aF11.898075276933556
aF46.87799017285943
aF21.7190288255173
aF35.60632134602654
aF55.13063019627482
aF12.72396465359484
aF23.230290073624037
aF56.01466985005424
aF10.538243065248299
aF38.954593822620794
aF52.39550043835551
aF24.136436907252943
aF57.05620482018264
aF41.77206883192556
aF52.70538375360652
aF38.14476138554994
aF10.400241432145375
aF29.8331062228621
aF6.95126951015752
aF16.044275312516074
aF11.839440139658786
aF13.601052363526522
aF51.79559807495015
aF54.24005038197435
aF29.390994958968264
aF28.445606709199293
aF28.988944167316074
aF44.08811285129507
aF14.657843030424901
aF13.94020130999216
aF7.954523162604831
aF24.63330193856816
aF8.667408100126746
aF49.59044870293561
aF12.055399747870077
aF15.446369377961283
aF7.52762032160386
aF41.64961510457298
aF10.379662562250044
aF10.737569669466463
aF22.284428950584463
aF28.714182492614512
aF19.765466233788636
aF11.863700672807145
aF13.804027216594609
aF15.665456325476201
aF32.76252925613337
aF18.50837563323107
aF21.077825905783975
aF23.40948783579307
aF44.11679899160218
aF10.818654560444234
aF27.941838214627417
aF34.09160401040278
aF22.82722592485287
aF8.24141019856928
aF23.019744353872277
aF28.22634456874385
aF8.438803429414392
aF27.571388007986236
aF14.182145679130851
aF22.386826948728533
aF24.116915416315237
aF14.024735423781095
aF28.33829382686486
aF37.16579638043832
aF54.797016413266505
aF9.892332783852993
aF17.445328995014446
aF24.94601004644984
aF10.17578671535315
aF26.028771607278568
aF14.138425947919435
aF9.420369703460285
aF43.910947688279656
aF14.358246828697647
aF10.412120234237397
aF25.737055470750793
aF24.07435000082231
aF43.35690446770905
aF12.3589418979418
aF22.96169044296971
aF12.483943277548404
aF13.892700973477822
aF20.098093250419325
aF29.36624619361735
aF5.747159318254013
aF31.183997406080167
aF20.90662691948148
aF28.06807990445333
aF50.115168541823586
aF39.99219538413164
aF15.957745748589193
aF19.358633060669582
aF28.011272686522382
aF18.997651674463064
aF13.826139519917685
aF29.093409612009058
aF19.75308396967418
aF11.388163754832423
aF30.962173610105463
aF9.058005858901682
aF21.98835443354151
aF43.683881437637176
aF19.420430959492556
aF37.96079577818651
aF16.23384453260757
aF15.494349201179716
aF18.41950386983249
aF34.56901146836888
aF12.922829832245638
aF20.833367614783434
aF29.454346309163103
aF30.01912474938403
aF47.49916623652659
aF18.23757977664682
aF30.27923324281774
aF15.285569604276207
aF21.817822050379057
aF7.4248402756872025
aF29.57365739658441
aF21.824270407539057
aF33.1847492576624
aF33.97639726583533
aF15.972813021402308
aF29.12351824169645
aF22.35503988615685
aF20.510690604465527
aF39.576988217326495
aF22.244896246834
aF30.306055345160445
aF8.611960801983802
aF21.404684838240183
aF27.094124019404717
aF33.76607459787329
aF25.735125533214987
aF57.958789742445454
aF22.515851876625298
aF54.01621688558072
aF22.44954266560282
aF11.96268521714839
aF24.252423717212018
aF7.706670120079874
aF59.57038726963957
aF39.54472531315255
aF6.901486633896657
aF7.984192747954703
aF32.27551851601916
aF29.89957802546824
aF35.64157203347983
aF56.853577307158
aF8.89492112156971
aF10.637654248940336
aF26.723207414354317
aF17.323093489956335
aF30.732035939355377
aF32.58586633648228
aF19.44542532430077
aF29.26378841455916
aF16.3443806592524
aF8.825459978685231
aF59.586744181021054
aF13.93243079410228
aF25.41427012712518
aF8.349083602231357
aF39.871108757707546
aF9.52636928210801
aF18.814707685941222
aF7.879058305949962
aF26.80450444095437
aF7.446725955795834
aF14.576348807004536
aF14.67144415858132
aF19.040695194659683
aF46.781802601271025
aF15.670761049546474
aF40.13311469546009
aF17.064160225611587
aF6.504988607845016
aF33.87593201915422
aF7.911465654670764
aF13.19494269308606
aF26.968752208980824
aF21.662429389871996
aF15.745074091565826
aF43.95898403294734
aF44.48623061421436
aF7.217264407015179
aF11.7447048816212
aF21.580800734416577
aF19.60038442077504
aF23.40483060295099
aF12.569832915439484
aF14.360484136311555
aF41.82476686997795
aF27.813219650357194
aF34.146444129295084
aF23.277589539410663
aF31.821049004647392
aF42.4830967736502
aF57.22819786122503
aF21.4121295386083
aF40.20438738356279
aF16.23197387930206
aF10.741767406208549
aF8.980826771106392
aF13.304960550478082
aF29.464689675011716
aF21.338805433691697
aF17.42931720998333
aF48.5181374597344
aF20.054870083923092
aF10.96749496744425
aF6.04090177037634
aF44.22899593544817
aF8.72389012919091
aF13.751525780867164
aF21.62243783850381
aF12.308321015092224
aF37.154827386543886
aF11.789133551865474
aF30.0191522180996
aF10.9718091911888
aF40.24581756130752
aF33.32198010674595
aF22.171305656751993
aF19.539169323019976
aF26.660345694360053
aF25.450174778503825
aF16.37447766861507
aF29.646078617821665
aF28.580115802042844
aF7.834760642483428
a.