(lp0
F24.162691473002916
aF27.128270896140123
aF11.949657042761503
aF19.42995166254169
aF4.43814983220344
aF5.866227275689601
aF12.678895464968122
aF12.905476368315394
aF1.47033593304509
aF28.02237856094869
aF9.937903479050032
aF4.783890099137839
aF9.375701608512088
aF2.0310409753324663
aF8.19842168044828
aF2.844895726731177
aF1.3569322717458427
aF19.965476146531103
aF6.958520747676421
aF17.59010705315147
aF19.450306525513298
aF8.4924615807085
aF7.158771981424786
aF12.603615147248304
aF7.932012229578998
aF14.197707809619912
aF2.5281398421744834
aF18.049912565978453
aF3.814810388313343
aF10.631750522483463
aF2.3257321818302517
aF17.928700420658515
aF2.490568013360102
aF19.368653364716383
aF3.726995918626691
aF4.905990294630692
aF19.164853426469026
aF5.290164340318796
aF16.22607303485818
aF9.632429831637236
aF5.043796410371221
aF9.979675494232367
aF1.3563557762739835
aF11.020344866219686
aF14.275655241706225
aF16.716421975569546
aF8.335685094888856
aF16.299084242327723
aF16.82418864645271
aF3.516884126147084
aF14.74767484815824
aF19.093868216400338
aF3.602089968393172
aF18.496944544475692
aF16.13937262887611
aF7.514553534646894
aF15.175332595559606
aF6.110210905544921
aF3.7978435943507067
aF12.355059016802496
aF17.261562034317862
aF3.3139848893172577
aF4.3746272013660175
aF10.184088922649416
aF12.127386130704952
aF2.3716887924551315
aF11.863509281960713
aF3.288437333573081
aF11.636598475350356
aF5.472685084399819
aF2.701854753221995
aF4.005203246784379
aF22.55325439839793
aF3.522745114510842
aF23.46965995502575
aF19.578872025854174
aF8.760231276994979
aF27.448655234139686
aF1.4715801088890887
aF15.063399959920016
aF14.288150695340605
aF1.6068237341982832
aF4.8439827318251805
aF5.377290618159041
aF2.1370367234905405
aF9.524986612796209
aF8.556370060400857
aF8.860563249080863
aF5.715913139103484
aF3.4144939675091717
aF16.61531134107728
aF16.46528009359163
aF2.160359147077937
aF17.316520213922978
aF21.54838017770405
aF2.9062505214558403
aF5.502566278995752
aF16.95100456289525
aF25.65316417110475
aF13.288708835085917
aF6.993887761796257
aF9.903688346256494
aF9.200090111649498
aF8.35389175789781
aF8.078310333086222
aF8.807354459670925
aF28.373598238828645
aF14.953440582152819
aF14.858102848563226
aF7.953590942300799
aF4.068990745259008
aF12.639811059569606
aF4.570809246319046
aF11.144574040270694
aF6.843398214347621
aF25.266924064841845
aF1.9112772397749933
aF17.914385761982032
aF28.7209775081661
aF7.3026649669937065
aF16.800619226575858
aF1.1189866725689246
aF19.017590623689692
aF7.41332388367225
aF7.352512572613682
aF4.185985785148571
aF15.866470566525104
aF14.135367033760327
aF3.123642760545949
aF24.142078036531256
aF15.144434081688146
aF14.385278501740656
aF17.24746696480036
aF7.027295180770715
aF26.21697440707984
aF1.5153805229048125
aF11.176186207021718
aF8.528263200232601
aF5.811567161897685
aF2.724449458382708
aF4.998444847418708
aF7.069625334144762
aF4.526976454242357
aF3.7858053274954733
aF5.793687208068276
aF25.300432986584923
aF12.9581201841382
aF5.363129197543964
aF2.929790190752502
aF11.75667099488777
aF5.616454552046722
aF6.991032770133377
aF16.5317812802309
aF6.261008597639193
aF26.612806597769982
aF2.4147174498598387
aF3.651590018574561
aF8.17686152185735
aF4.322178178612531
aF4.278458251256993
aF16.3450170105894
aF9.91354327091527
aF5.3431133859698265
aF29.939730419591783
aF18.342222970442478
aF8.086275748209381
aF2.9251608900466364
aF3.2763529823779813
aF20.85055037820972
aF8.999468235684365
aF6.688153188749756
aF5.887677259463598
aF10.035712871263838
aF3.714177561127667
aF5.277554764533777
aF27.848917408696416
aF16.92486770558797
a.