(lp0
F9.73614730279729
aF7.949333074828361
aF6.378422664986131
aF9.32436603197102
aF12.729288028129039
aF8.650044771085254
aF4.556343878837987
aF5.490922061903542
aF8.73407875408525
aF10.208440801126176
aF5.656987628030906
aF3.5222335188621536
aF3.939409342535771
aF10.28926619486662
aF2.517945186295629
aF19.254291391262864
aF6.6096845709149035
aF7.1176220406449175
aF7.891274038781037
aF11.279444828085264
aF5.834294868669536
aF3.4292177499626684
aF26.8903530886056
aF17.839657697691386
aF25.07611541194506
aF24.502281824533853
aF24.669535638934473
aF10.745873294371371
aF24.895550368493033
aF4.625569427771657
aF3.5636907067773924
aF7.247527129973201
aF6.428550528205184
aF4.36266174321383
aF24.972739898688967
aF2.115146442237092
aF19.41978756218391
aF4.03002049403645
aF6.323382302777134
aF18.43534088843577
aF3.351865002137832
aF1.950633339312914
aF7.319928406004001
aF9.499602595948682
aF9.302024405317425
aF18.65379966115071
aF14.802473212490382
aF28.913067154017128
aF21.580622508369057
aF3.7345526997348917
aF23.49852985732993
aF2.5309895866612706
aF29.2975496225491
aF3.047098928569461
aF13.499185018604312
aF12.56005494827734
aF2.9822036473206306
aF18.500695685255952
aF13.519982949513297
aF13.335475840472064
aF19.781585872742614
aF3.908848073902741
aF4.9174732111058175
aF4.936302953909587
aF8.760756085595808
aF14.49894530276722
aF19.577489759643747
aF25.293372255541765
aF18.682017077334503
aF3.723634170219117
aF7.378361343357202
aF13.032803190588432
aF14.816010499812752
aF9.86040737854546
aF27.445693180317775
aF8.220197304257422
aF16.009050156316828
aF9.21033387257318
aF15.10253629147468
aF10.67746659322931
aF3.745071991677436
aF9.618052551809228
aF9.137037286003528
aF18.092020953184136
aF10.926392259721228
aF7.625722834796281
aF3.855325096103337
aF7.578371042387013
aF17.31270913590472
aF17.09576169092231
aF9.982301144153094
aF11.457433503349781
aF1.8430118373911255
aF12.80457525750217
aF6.940972842088424
aF9.097146092055473
aF2.6733720552735036
aF16.951870855692484
aF13.844656008336301
aF3.2678370346258987
aF8.847628370535379
aF18.47664797880266
aF7.413915042842615
aF6.926545904932082
aF23.629943291206075
aF8.451383568115757
aF5.228999914863532
aF4.562782670424984
aF8.463090569367393
aF14.288308155159896
a.