(lp0
F16.780870121934345
aF6.404494825229859
aF18.102011852047355
aF2.120248005547094
aF19.838804193978163
aF1.6666032710200054
aF23.717752343166392
aF1.0254362415891314
aF16.69392535167796
aF11.544165642030158
aF17.81851907577865
aF18.86735220726881
aF1.1393751174491682
aF24.54618322320921
aF19.033218038866927
aF7.236043649209794
aF4.33942919544942
aF24.482901570004895
aF2.3015439502861366
aF25.948509220257463
aF2.027622223029148
aF1.6069639474945139
aF15.254995133990766
aF7.2937281828961815
aF6.357204187582558
aF11.780875903650543
aF6.700481360018978
aF10.933418757846585
aF12.047984782044331
aF18.234129387947377
aF5.941775086239879
aF7.097609850295547
aF1.7979047073046246
aF6.423703923958161
aF3.485717712814802
aF4.768608834191201
aF28.380247256713993
aF10.753311253442636
aF7.007376208870335
aF12.758392439508063
aF8.532323965834225
aF17.51451319372676
aF6.731990363876963
aF8.675739831898754
aF16.088818890100942
aF28.812772529367784
aF2.274655101182084
aF12.02745303992782
aF6.703552532328995
aF20.731862058907463
aF16.59337946795616
aF17.002896513391683
aF3.041763892560698
aF4.9125890418986105
aF23.98389735194395
aF9.639931847397474
aF18.62473912586739
aF11.7599141097681
aF7.725645963880128
aF8.65980708307763
aF14.49364298867514
aF14.08002576467972
aF12.23614413327053
a.