(lp0
F59.779215810572126
aF26.654221704912477
aF27.717175935827218
aF11.174925455047758
aF44.488214543500504
aF23.016781323858908
aF28.982359505924876
aF9.769080122111248
aF19.056682988750325
aF13.140593008195864
aF21.44463341262071
aF10.36046562984189
aF29.921763003416324
aF25.841299441606616
aF12.066975008833088
aF15.23208992688884
aF9.910121198832389
aF36.056078516731354
aF10.522810202169863
aF26.08212284045894
aF23.57291776800191
aF41.11836261266594
aF30.759829061877284
aF12.139501817361342
aF43.12444629676514
aF15.32186125918866
aF55.627662055553905
aF18.77739248963047
aF12.356676751711003
aF41.53774197874773
aF42.60953892220421
aF34.714255401405936
aF39.97904783468344
aF44.677559362826656
aF26.36056063519748
aF13.899990958198291
aF9.500081166990036
aF49.791154241729316
aF28.456406522303727
aF5.681101117248276
aF11.642927254975268
aF19.385875703157648
aF56.83954048150171
aF12.488945582136544
aF13.046784863684861
aF31.89334463411302
aF53.687769806248426
aF35.627700366749124
aF14.906289128654288
aF7.78644587191406
aF43.14871204233775
aF26.655169576955778
aF32.93360914120332
aF57.54425191456348
aF15.669379427791839
aF19.04467470248231
aF10.8567343151451
aF18.432263436410388
aF17.94019100790574
aF29.302754654078736
aF15.792144193732888
aF36.993515738561136
aF29.439700589956757
a.