(lp0
F11.957786892557145
aF7.162599765122803
aF8.874009114411141
aF8.703105709485847
aF11.51445290825307
aF6.716116130315982
aF7.894082872514463
aF5.94505983750201
aF8.207898878160565
aF6.561584464786714
a.