(lp0
F0.3719238908281647
aF0.5357870296728934
aF0.42195788706974435
aF0.8301986580289544
aF0.5774282581443191
aF0.13892683232592284
aF0.8768703576498897
aF0.35737505905914346
aF0.08427442241464211
aF0.09292956432662647
aF0.31217335206928054
aF0.7426642631712417
aF0.5124615536206376
aF0.17036959067195356
aF0.7521076058058133
aF0.6109793219933559
aF0.9429035398964718
aF0.00279476520505495
aF0.6742830456505158
aF0.5071351884447696
aF0.6079821443640442
aF0.07035397519948128
aF0.7045951222401219
aF0.3010559983427973
aF0.32870031054507587
aF0.4787414550214544
aF0.04188864632258704
aF0.3309279726158558
aF0.7685128692302637
aF0.024486858098793918
aF0.6982661714923112
aF0.9664066904933347
aF0.9229947709903426
aF0.2110675759316759
aF0.9545661256893873
aF0.17758572172815656
aF0.5908168984680594
aF0.8840934666879909
aF0.426830745197912
aF0.6653949355675308
aF0.06514571079599452
aF0.02860615954823509
aF0.5929087239308091
aF0.7630437966058569
aF0.5504957059197981
aF0.08916610998964347
aF0.1878634237037018
aF0.0030677483062357958
aF0.8345455834166331
a.