(lp0
ccopy_reg
_reconstructor
p1
(cdeap.creator
Individual
p2
c__builtin__
list
p3
(lp4
I0
aI1
aI0
aI1
aI1
aI0
aI1
atp5
Rp6
(dp7
S'fulfill'
p8
(lp9
I1
aI1
aI1
aI0
aI1
aI0
aI1
aI1
aI0
aI1
asS'ibea_fitness'
p10
cnumpy.core.multiarray
scalar
p11
(cnumpy
dtype
p12
(S'f8'
p13
I0
I1
tp14
Rp15
(I3
S'<'
p16
NNNI-1
I-1
I0
tp17
bS' \xae\xf0\xb4\x15\x1c\xd6?'
p18
tp19
Rp20
sS'fitness'
p21
g1
(cdeap.creator
FitnessMin
p22
c__builtin__
object
p23
Ntp24
Rp25
(dp26
S'conVio'
p27
I0
sS'correct'
p28
I01
sS'wvalues'
p29
(F-0.3
F-0.0
F-0.2
F-1.0
F-0.72
tp30
sbsbag1
(g2
g3
(lp31
I1
aI1
aI0
aI1
aI1
aI1
aI1
atp32
Rp33
(dp34
g8
(lp35
I1
aI1
aI1
aI1
aI1
aI0
aI1
aI1
aI1
aI1
asg10
g11
(g15
S'\x88<`\xff\x86\xd9\xdc?'
p36
tp37
Rp38
sg21
g1
(g22
g23
Ntp39
Rp40
(dp41
g27
I2
sg28
I00
sg29
(F-0.1
F-0.1
F-0.0
F-1.0
F-0.9
tp42
sbsbag1
(g2
g3
(lp43
I0
aI1
aI0
aI0
aI1
aI1
aI1
atp44
Rp45
(dp46
g8
(lp47
I1
aI1
aI1
aI0
aI1
aI0
aI0
aI1
aI1
aI1
asg10
g11
(g15
S'P\x00+\xd8i\x06\xde?'
p48
tp49
Rp50
sg21
g1
(g22
g23
Ntp51
Rp52
(dp53
g27
I2
sg28
I00
sg29
(F-0.3
F-0.1
F-0.0
F-1.0
F-0.63
tp54
sbsbag1
(g2
g3
(lp55
I0
aI1
aI0
aI0
aI1
aI0
aI1
atp56
Rp57
(dp58
g8
(lp59
I1
aI1
aI1
aI0
aI1
aI0
aI0
aI1
aI0
aI1
asg10
g11
(g15
S'\xbc\xc5\xb0\xd5y\xc2\xe6?'
p60
tp61
Rp62
sg21
g1
(g22
g23
Ntp63
Rp64
(dp65
g27
I1
sg28
I00
sg29
(F-0.4
F-0.05
F-0.2
F-1.0
F-0.58
tp66
sbsbag1
(g2
g3
(lp67
I1
aI1
aI1
aI0
aI1
aI1
aI1
atp68
Rp69
(dp70
g8
(lp71
I1
aI1
aI1
aI1
aI1
aI1
aI0
aI1
aI1
aI1
asg10
g11
(g15
S'\xdcz\xf76".\xe7?'
p72
tp73
Rp74
sg21
g1
(g22
g23
Ntp75
Rp76
(dp77
g27
I3
sg28
I00
sg29
(F-0.1
F-0.14
F-0.0
F-1.0
F-0.86
tp78
sbsbag1
(g2
g3
(lp79
I0
aI0
aI1
aI0
aI1
aI1
aI0
atp80
Rp81
(dp82
g8
(lp83
I1
aI1
aI1
aI0
aI0
aI1
aI0
aI1
aI1
aI0
asg10
g11
(g15
S'8\xe3Z\xceP\xe9\xf0?'
p84
tp85
Rp86
sg21
g1
(g22
g23
Ntp87
Rp88
(dp89
g27
I1
sg28
I00
sg29
(F-0.4
F-0.05
F-0.4
F-0.87
F-0.57
tp90
sbsbag1
(g2
g3
(lp91
I0
aI1
aI1
aI0
aI0
aI1
aI1
atp92
Rp93
(dp94
g8
(lp95
I1
aI1
aI1
aI0
aI1
aI1
aI0
aI0
aI1
aI1
asg10
g11
(g15
S'\xa4\x1b\x9e\xae\x92\xef\xf3?'
p96
tp97
Rp98
sg21
g1
(g22
g23
Ntp99
Rp100
(dp101
g27
I4
sg28
I00
sg29
(F-0.3
F-0.19
F-0.2
F-0.67
F-0.65
tp102
sbsbag1
(g2
g3
(lp103
I0
aI0
aI1
aI1
aI0
aI1
aI0
atp104
Rp105
(dp106
g8
(lp107
I1
aI1
aI1
aI0
aI0
aI1
aI1
aI0
aI1
aI0
asg10
g11
(g15
S'\xb0\x06\n\xcc#\x99\xf6?'
p108
tp109
Rp110
sg21
g1
(g22
g23
Ntp111
Rp112
(dp113
g27
I2
sg28
I00
sg29
(F-0.4
F-0.1
F-0.6
F-0.53
F-0.62
tp114
sbsbag1
(g2
g3
(lp115
I1
aI0
aI0
aI0
aI1
aI1
aI1
atp116
Rp117
(dp118
g8
(lp119
I1
aI1
aI1
aI1
aI0
aI0
aI0
aI1
aI1
aI1
asg10
g11
(g15
S'\xde\xfe\x801H \xff?'
p120
tp121
Rp122
sg21
g1
(g22
g23
Ntp123
Rp124
(dp125
g27
I2
sg28
I00
sg29
(F-0.3
F-0.1
F-0.2
F-0.87
F-0.69
tp126
sbsbag1
(g2
g3
(lp127
I1
aI0
aI0
aI0
aI1
aI1
aI1
atp128
Rp129
(dp130
g8
(lp131
I1
aI1
aI1
aI1
aI0
aI0
aI0
aI1
aI1
aI1
asg10
g11
(g15
S'\xde\xfe\x801H \xff?'
p132
tp133
Rp134
sg21
g1
(g22
g23
Ntp135
Rp136
(dp137
g27
I2
sg28
I00
sg29
(F-0.3
F-0.1
F-0.2
F-0.87
F-0.69
tp138
sbsbag1
(g2
g3
(lp139
I0
aI0
aI0
aI0
aI0
aI1
aI0
atp140
Rp141
(dp142
g8
(lp143
I1
aI1
aI1
aI0
aI0
aI0
aI0
aI0
aI1
aI0
asg10
g11
(g15
S'U\x9e\xf0\xeei\xab\x00@'
p144
tp145
Rp146
sg21
g1
(g22
g23
Ntp147
Rp148
(dp149
g27
I2
sg28
I00
sg29
(F-0.6
F-0.1
F-0.6
F-0.53
F-0.39
tp150
sbsbag1
(g2
g3
(lp151
I0
aI0
aI0
aI0
aI0
aI1
aI0
atp152
Rp153
(dp154
g8
(lp155
I1
aI1
aI1
aI0
aI0
aI0
aI0
aI0
aI1
aI0
asg10
g11
(g15
S'U\x9e\xf0\xeei\xab\x00@'
p156
tp157
Rp158
sg21
g1
(g22
g23
Ntp159
Rp160
(dp161
g27
I2
sg28
I00
sg29
(F-0.6
F-0.1
F-0.6
F-0.53
F-0.39
tp162
sbsbag1
(g2
g3
(lp163
I1
aI1
aI0
aI0
aI0
aI1
aI1
atp164
Rp165
(dp166
g8
(lp167
I1
aI1
aI1
aI1
aI1
aI0
aI0
aI0
aI1
aI1
asg10
g11
(g15
S'\xac\x8b\xbfT\xb6\x96\x01@'
p168
tp169
Rp170
sg21
g1
(g22
g23
Ntp171
Rp172
(dp173
g27
I4
sg28
I00
sg29
(F-0.3
F-0.19
F-0.2
F-0.67
F-0.68
tp174
sbsbag1
(g2
g3
(lp175
I1
aI0
aI1
aI0
aI1
aI1
aI1
atp176
Rp177
(dp178
g8
(lp179
I1
aI1
aI1
aI1
aI0
aI1
aI0
aI1
aI1
aI1
asg10
g11
(g15
S'\xe9\xae\xf5\xb8\x93O\x02@'
p180
tp181
Rp182
sg21
g1
(g22
g23
Ntp183
Rp184
(dp185
g27
I3
sg28
I00
sg29
(F-0.2
F-0.14
F-0.2
F-0.87
F-0.78
tp186
sbsbag1
(g2
g3
(lp187
I0
aI0
aI1
aI1
aI1
aI1
aI1
atp188
Rp189
(dp190
g8
(lp191
I1
aI1
aI1
aI0
aI0
aI1
aI1
aI1
aI1
aI1
asg10
g11
(g15
S'\xf8\xf5\xf6\xde\x1d\\\x02@'
p192
tp193
Rp194
sg21
g1
(g22
g23
Ntp195
Rp196
(dp197
g27
I1
sg28
I00
sg29
(F-0.2
F-0.05
F-0.2
F-0.87
F-0.8
tp198
sbsbag1
(g2
g3
(lp199
I0
aI0
aI1
aI1
aI1
aI1
aI1
atp200
Rp201
(dp202
g8
(lp203
I1
aI1
aI1
aI0
aI0
aI1
aI1
aI1
aI1
aI1
asg10
g11
(g15
S'\xf8\xf5\xf6\xde\x1d\\\x02@'
p204
tp205
Rp206
sg21
g1
(g22
g23
Ntp207
Rp208
(dp209
g27
I1
sg28
I00
sg29
(F-0.2
F-0.05
F-0.2
F-0.87
F-0.8
tp210
sbsbag1
(g2
g3
(lp211
I0
aI0
aI1
aI1
aI1
aI1
aI1
atp212
Rp213
(dp214
g8
(lp215
I1
aI1
aI1
aI0
aI0
aI1
aI1
aI1
aI1
aI1
asg10
g11
(g15
S'\xf8\xf5\xf6\xde\x1d\\\x02@'
p216
tp217
Rp218
sg21
g1
(g22
g23
Ntp219
Rp220
(dp221
g27
I1
sg28
I00
sg29
(F-0.2
F-0.05
F-0.2
F-0.87
F-0.8
tp222
sbsbag1
(g2
g3
(lp223
I0
aI0
aI0
aI0
aI0
aI1
aI1
atp224
Rp225
(dp226
g8
(lp227
I1
aI1
aI1
aI0
aI0
aI0
aI0
aI0
aI1
aI1
asg10
g11
(g15
S'2\xcd\xee\x17\xbb\x13\x04@'
p228
tp229
Rp230
sg21
g1
(g22
g23
Ntp231
Rp232
(dp233
g27
I4
sg28
I00
sg29
(F-0.5
F-0.19
F-0.4
F-0.53
F-0.47
tp234
sbsbag225
ag1
(g2
g3
(lp235
I0
aI0
aI0
aI0
aI0
aI1
aI1
atp236
Rp237
(dp238
g8
(lp239
I1
aI1
aI1
aI0
aI0
aI0
aI0
aI0
aI1
aI1
asg10
g11
(g15
S'2\xcd\xee\x17\xbb\x13\x04@'
p240
tp241
Rp242
sg21
g1
(g22
g23
Ntp243
Rp244
(dp245
g27
I4
sg28
I00
sg29
(F-0.5
F-0.19
F-0.4
F-0.53
F-0.47
tp246
sbsbag1
(g2
g3
(lp247
I0
aI0
aI1
aI1
aI0
aI0
aI1
atp248
Rp249
(dp250
g8
(lp251
I1
aI1
aI1
aI0
aI0
aI1
aI1
aI0
aI0
aI1
asg10
g11
(g15
S'\xf4\xfbQA\xa6\x19\x08@'
p252
tp253
Rp254
sg21
g1
(g22
g23
Ntp255
Rp256
(dp257
g27
I2
sg28
I00
sg29
(F-0.4
F-0.1
F-0.6
F-0.53
F-0.66
tp258
sbsbag1
(g2
g3
(lp259
I0
aI0
aI1
aI1
aI0
aI0
aI1
atp260
Rp261
(dp262
g8
(lp263
I1
aI1
aI1
aI0
aI0
aI1
aI1
aI0
aI0
aI1
asg10
g11
(g15
S'\xf4\xfbQA\xa6\x19\x08@'
p264
tp265
Rp266
sg21
g1
(g22
g23
Ntp267
Rp268
(dp269
g27
I2
sg28
I00
sg29
(F-0.4
F-0.1
F-0.6
F-0.53
F-0.66
tp270
sbsbag1
(g2
g3
(lp271
I0
aI1
aI1
aI0
aI0
aI0
aI1
atp272
Rp273
(dp274
g8
(lp275
I1
aI1
aI1
aI0
aI1
aI1
aI0
aI0
aI0
aI1
asg10
g11
(g15
S'\x12\x1cs<6\xb6\x08@'
p276
tp277
Rp278
sg21
g1
(g22
g23
Ntp279
Rp280
(dp281
g27
I2
sg28
I00
sg29
(F-0.4
F-0.1
F-0.4
F-0.67
F-0.59
tp282
sbsbag1
(g2
g3
(lp283
I0
aI1
aI0
aI1
aI1
aI1
aI1
atp284
Rp285
(dp286
g8
(lp287
I1
aI1
aI1
aI0
aI1
aI0
aI1
aI1
aI1
aI1
asg10
g11
(g15
S'\xcc\xc5f\x9d\x1f2\t@'
p288
tp289
Rp290
sg21
g1
(g22
g23
Ntp291
Rp292
(dp293
g27
I1
sg28
I00
sg29
(F-0.2
F-0.05
F-0.0
F-1.0
F-0.77
tp294
sbsbag285
ag1
(g2
g3
(lp295
I0
aI1
aI0
aI1
aI1
aI1
aI1
atp296
Rp297
(dp298
g8
(lp299
I1
aI1
aI1
aI0
aI1
aI0
aI1
aI1
aI1
aI1
asg10
g11
(g15
S'\xcc\xc5f\x9d\x1f2\t@'
p300
tp301
Rp302
sg21
g1
(g22
g23
Ntp303
Rp304
(dp305
g27
I1
sg28
I00
sg29
(F-0.2
F-0.05
F-0.0
F-1.0
F-0.77
tp306
sbsbag1
(g2
g3
(lp307
I0
aI1
aI0
aI1
aI1
aI1
aI1
atp308
Rp309
(dp310
g8
(lp311
I1
aI1
aI1
aI0
aI1
aI0
aI1
aI1
aI1
aI1
asg10
g11
(g15
S'\xcc\xc5f\x9d\x1f2\t@'
p312
tp313
Rp314
sg21
g1
(g22
g23
Ntp315
Rp316
(dp317
g27
I1
sg28
I00
sg29
(F-0.2
F-0.05
F-0.0
F-1.0
F-0.77
tp318
sbsbag1
(g2
g3
(lp319
I1
aI0
aI1
aI1
aI0
aI1
aI0
atp320
Rp321
(dp322
g8
(lp323
I1
aI1
aI1
aI1
aI0
aI1
aI1
aI0
aI1
aI0
asg10
g11
(g15
S'\x00\xa0\xb1\x85\x7fv\n@'
p324
tp325
Rp326
sg21
g1
(g22
g23
Ntp327
Rp328
(dp329
g27
I3
sg28
I00
sg29
(F-0.3
F-0.14
F-0.6
F-0.53
F-0.75
tp330
sbsbag321
ag1
(g2
g3
(lp331
I1
aI0
aI1
aI1
aI0
aI1
aI0
atp332
Rp333
(dp334
g8
(lp335
I1
aI1
aI1
aI1
aI0
aI1
aI1
aI0
aI1
aI0
asg10
g11
(g15
S'\x00\xa0\xb1\x85\x7fv\n@'
p336
tp337
Rp338
sg21
g1
(g22
g23
Ntp339
Rp340
(dp341
g27
I3
sg28
I00
sg29
(F-0.3
F-0.14
F-0.6
F-0.53
F-0.75
tp342
sbsbag1
(g2
g3
(lp343
I0
aI1
aI0
aI0
aI0
aI0
aI0
atp344
Rp345
(dp346
g8
(lp347
I1
aI1
aI1
aI0
aI1
aI0
aI0
aI0
aI0
aI0
asg10
g11
(g15
S'(\xd8}\xb8\xc4\xca\x0c@'
p348
tp349
Rp350
sg21
g1
(g22
g23
Ntp351
Rp352
(dp353
g27
I1
sg28
I00
sg29
(F-0.6
F-0.05
F-0.6
F-0.67
F-0.41
tp354
sbsbag345
ag1
(g2
g3
(lp355
I0
aI1
aI0
aI0
aI0
aI0
aI0
atp356
Rp357
(dp358
g8
(lp359
I1
aI1
aI1
aI0
aI1
aI0
aI0
aI0
aI0
aI0
asg10
g11
(g15
S'(\xd8}\xb8\xc4\xca\x0c@'
p360
tp361
Rp362
sg21
g1
(g22
g23
Ntp363
Rp364
(dp365
g27
I1
sg28
I00
sg29
(F-0.6
F-0.05
F-0.6
F-0.67
F-0.41
tp366
sbsbag1
(g2
g3
(lp367
I0
aI0
aI1
aI1
aI1
aI0
aI0
atp368
Rp369
(dp370
g8
(lp371
I1
aI1
aI1
aI0
aI0
aI1
aI1
aI1
aI0
aI0
asg10
g11
(g15
S'\xa6k}.\x1f\xb2\x0e@'
p372
tp373
Rp374
sg21
g1
(g22
g23
Ntp375
Rp376
(dp377
g27
I1
sg28
I00
sg29
(F-0.4
F-0.05
F-0.6
F-0.87
F-0.66
tp378
sbsbag1
(g2
g3
(lp379
I0
aI0
aI0
aI0
aI0
aI0
aI1
atp380
Rp381
(dp382
g8
(lp383
I1
aI1
aI1
aI0
aI0
aI0
aI0
aI0
aI0
aI1
asg10
g11
(g15
S'\x82\xc2\xe6\x92m\xe0\x0e@'
p384
tp385
Rp386
sg21
g1
(g22
g23
Ntp387
Rp388
(dp389
g27
I2
sg28
I00
sg29
(F-0.6
F-0.1
F-0.6
F-0.53
F-0.42
tp390
sbsbag1
(g2
g3
(lp391
I0
aI0
aI0
aI0
aI0
aI0
aI1
atp392
Rp393
(dp394
g8
(lp395
I1
aI1
aI1
aI0
aI0
aI0
aI0
aI0
aI0
aI1
asg10
g11
(g15
S'\x82\xc2\xe6\x92m\xe0\x0e@'
p396
tp397
Rp398
sg21
g1
(g22
g23
Ntp399
Rp400
(dp401
g27
I2
sg28
I00
sg29
(F-0.6
F-0.1
F-0.6
F-0.53
F-0.42
tp402
sbsbag1
(g2
g3
(lp403
I1
aI0
aI1
aI1
aI0
aI0
aI1
atp404
Rp405
(dp406
g8
(lp407
I1
aI1
aI1
aI1
aI0
aI1
aI1
aI0
aI0
aI1
asg10
g11
(g15
S'\x84\xb8.\x89\xb5\xab\x0f@'
p408
tp409
Rp410
sg21
g1
(g22
g23
Ntp411
Rp412
(dp413
g27
I3
sg28
I00
sg29
(F-0.3
F-0.14
F-0.6
F-0.53
F-0.78
tp414
sbsbag1
(g2
g3
(lp415
I0
aI0
aI1
aI0
aI0
aI1
aI0
atp416
Rp417
(dp418
g8
(lp419
I1
aI1
aI1
aI0
aI0
aI1
aI0
aI0
aI1
aI0
asg10
g11
(g15
S'\xb6\x92\xeaI\xb9\x93\x12@'
p420
tp421
Rp422
sg21
g1
(g22
g23
Ntp423
Rp424
(dp425
g27
I1
sg28
I00
sg29
(F-0.5
F-0.05
F-0.6
F-0.53
F-0.48
tp426
sbsbag1
(g2
g3
(lp427
I0
aI0
aI1
aI0
aI0
aI1
aI0
atp428
Rp429
(dp430
g8
(lp431
I1
aI1
aI1
aI0
aI0
aI1
aI0
aI0
aI1
aI0
asg10
g11
(g15
S'\xb6\x92\xeaI\xb9\x93\x12@'
p432
tp433
Rp434
sg21
g1
(g22
g23
Ntp435
Rp436
(dp437
g27
I1
sg28
I00
sg29
(F-0.5
F-0.05
F-0.6
F-0.53
F-0.48
tp438
sbsbag1
(g2
g3
(lp439
I0
aI0
aI1
aI0
aI0
aI1
aI0
atp440
Rp441
(dp442
g8
(lp443
I1
aI1
aI1
aI0
aI0
aI1
aI0
aI0
aI1
aI0
asg10
g11
(g15
S'\xb6\x92\xeaI\xb9\x93\x12@'
p444
tp445
Rp446
sg21
g1
(g22
g23
Ntp447
Rp448
(dp449
g27
I1
sg28
I00
sg29
(F-0.5
F-0.05
F-0.6
F-0.53
F-0.48
tp450
sbsbag1
(g2
g3
(lp451
I0
aI0
aI1
aI0
aI0
aI1
aI0
atp452
Rp453
(dp454
g8
(lp455
I1
aI1
aI1
aI0
aI0
aI1
aI0
aI0
aI1
aI0
asg10
g11
(g15
S'\xb6\x92\xeaI\xb9\x93\x12@'
p456
tp457
Rp458
sg21
g1
(g22
g23
Ntp459
Rp460
(dp461
g27
I1
sg28
I00
sg29
(F-0.5
F-0.05
F-0.6
F-0.53
F-0.48
tp462
sbsbag1
(g2
g3
(lp463
I1
aI1
aI0
aI0
aI0
aI0
aI1
atp464
Rp465
(dp466
g8
(lp467
I1
aI1
aI1
aI1
aI1
aI0
aI0
aI0
aI0
aI1
asg10
g11
(g15
S'S\x94\xfe\x99\xfbO\x17@'
p468
tp469
Rp470
sg21
g1
(g22
g23
Ntp471
Rp472
(dp473
g27
I2
sg28
I00
sg29
(F-0.4
F-0.1
F-0.4
F-0.67
F-0.62
tp474
sbsbag1
(g2
g3
(lp475
I1
aI1
aI0
aI0
aI0
aI0
aI1
atp476
Rp477
(dp478
g8
(lp479
I1
aI1
aI1
aI1
aI1
aI0
aI0
aI0
aI0
aI1
asg10
g11
(g15
S'S\x94\xfe\x99\xfbO\x17@'
p480
tp481
Rp482
sg21
g1
(g22
g23
Ntp483
Rp484
(dp485
g27
I2
sg28
I00
sg29
(F-0.4
F-0.1
F-0.4
F-0.67
F-0.62
tp486
sbsbag1
(g2
g3
(lp487
I1
aI1
aI0
aI0
aI0
aI0
aI1
atp488
Rp489
(dp490
g8
(lp491
I1
aI1
aI1
aI1
aI1
aI0
aI0
aI0
aI0
aI1
asg10
g11
(g15
S'S\x94\xfe\x99\xfbO\x17@'
p492
tp493
Rp494
sg21
g1
(g22
g23
Ntp495
Rp496
(dp497
g27
I2
sg28
I00
sg29
(F-0.4
F-0.1
F-0.4
F-0.67
F-0.62
tp498
sbsbag1
(g2
g3
(lp499
I0
aI0
aI0
aI0
aI0
aI0
aI0
atp500
Rp501
(dp502
g8
(lp503
I1
aI1
aI1
aI0
aI0
aI0
aI0
aI0
aI0
aI0
asg10
g11
(g15
S'>\xeb\x06U\xe7\x99\x18@'
p504
tp505
Rp506
sg21
g1
(g22
g23
Ntp507
Rp508
(dp509
g27
I1
sg28
I00
sg29
(F-0.7
F-0.05
F-0.8
F-0.53
F-0.33
tp510
sbsbag1
(g2
g3
(lp511
I0
aI0
aI0
aI0
aI0
aI0
aI0
atp512
Rp513
(dp514
g8
(lp515
I1
aI1
aI1
aI0
aI0
aI0
aI0
aI0
aI0
aI0
asg10
g11
(g15
S'>\xeb\x06U\xe7\x99\x18@'
p516
tp517
Rp518
sg21
g1
(g22
g23
Ntp519
Rp520
(dp521
g27
I1
sg28
I00
sg29
(F-0.7
F-0.05
F-0.8
F-0.53
F-0.33
tp522
sbsbag1
(g2
g3
(lp523
I0
aI0
aI0
aI0
aI0
aI0
aI0
atp524
Rp525
(dp526
g8
(lp527
I1
aI1
aI1
aI0
aI0
aI0
aI0
aI0
aI0
aI0
asg10
g11
(g15
S'>\xeb\x06U\xe7\x99\x18@'
p528
tp529
Rp530
sg21
g1
(g22
g23
Ntp531
Rp532
(dp533
g27
I1
sg28
I00
sg29
(F-0.7
F-0.05
F-0.8
F-0.53
F-0.33
tp534
sbsbag1
(g2
g3
(lp535
I0
aI0
aI0
aI0
aI0
aI0
aI0
atp536
Rp537
(dp538
g8
(lp539
I1
aI1
aI1
aI0
aI0
aI0
aI0
aI0
aI0
aI0
asg10
g11
(g15
S'>\xeb\x06U\xe7\x99\x18@'
p540
tp541
Rp542
sg21
g1
(g22
g23
Ntp543
Rp544
(dp545
g27
I1
sg28
I00
sg29
(F-0.7
F-0.05
F-0.8
F-0.53
F-0.33
tp546
sbsbag525
ag1
(g2
g3
(lp547
I0
aI0
aI0
aI0
aI0
aI0
aI0
atp548
Rp549
(dp550
g8
(lp551
I1
aI1
aI1
aI0
aI0
aI0
aI0
aI0
aI0
aI0
asg10
g11
(g15
S'>\xeb\x06U\xe7\x99\x18@'
p552
tp553
Rp554
sg21
g1
(g22
g23
Ntp555
Rp556
(dp557
g27
I1
sg28
I00
sg29
(F-0.7
F-0.05
F-0.8
F-0.53
F-0.33
tp558
sbsbag1
(g2
g3
(lp559
I0
aI0
aI0
aI0
aI0
aI0
aI0
atp560
Rp561
(dp562
g8
(lp563
I1
aI1
aI1
aI0
aI0
aI0
aI0
aI0
aI0
aI0
asg10
g11
(g15
S'>\xeb\x06U\xe7\x99\x18@'
p564
tp565
Rp566
sg21
g1
(g22
g23
Ntp567
Rp568
(dp569
g27
(lp570
sg28
I00
sg29
g546
sbsbag1
(g2
g3
(lp571
I0
aI1
aI1
aI0
aI1
aI1
aI1
atp572
Rp573
(dp574
g8
(lp575
I1
aI1
aI1
aI0
aI1
aI1
aI0
aI1
aI1
aI1
asg10
g11
(g15
S'Kz\xa0t\x15\x15\x19@'
p576
tp577
Rp578
sg21
g1
(g22
g23
Ntp579
Rp580
(dp581
g27
I3
sg28
I00
sg29
(F-0.2
F-0.14
F-0.0
F-1.0
F-0.73
tp582
sbsbag573
ag573
ag573
ag573
ag573
ag1
(g2
g3
(lp583
I0
aI1
aI0
aI1
aI0
aI0
aI1
atp584
Rp585
(dp586
g8
(lp587
I1
aI1
aI1
aI0
aI1
aI0
aI1
aI0
aI0
aI1
asg10
g11
(g15
S'\xf6C\xda\xd2\xdf:\x19@'
p588
tp589
Rp590
sg21
g1
(g22
g23
Ntp591
Rp592
(dp593
g27
I2
sg28
I00
sg29
(F-0.4
F-0.1
F-0.4
F-0.67
F-0.63
tp594
sbsbag1
(g2
g3
(lp595
I0
aI1
aI0
aI0
aI0
aI1
aI0
atp596
Rp597
(dp598
g8
(lp599
I1
aI1
aI1
aI0
aI1
aI0
aI0
aI0
aI1
aI0
asg10
g11
(g15
S'\xefu~\x05&C\x19@'
p600
tp601
Rp602
sg21
g1
(g22
g23
Ntp603
Rp604
(dp605
g27
I2
sg28
I00
sg29
(F-0.5
F-0.1
F-0.4
F-0.67
F-0.46
tp606
sbsbag1
(g2
g3
(lp607
I0
aI0
aI1
aI1
aI1
aI1
aI0
atp608
Rp609
(dp610
g8
(lp611
I1
aI1
aI1
aI0
aI0
aI1
aI1
aI1
aI1
aI0
asg10
g11
(g15
S'\xc5M\x1046v\x1b@'
p612
tp613
Rp614
sg21
g1
(g22
g23
Ntp615
Rp616
(dp617
g27
I0
sg28
I01
sg29
(F-0.3
F-0.0
F-0.4
F-0.87
F-0.71
tp618
sbsbag609
ag1
(g2
g3
(lp619
I0
aI0
aI1
aI1
aI1
aI1
aI0
atp620
Rp621
(dp622
g8
(lp623
I1
aI1
aI1
aI0
aI0
aI1
aI1
aI1
aI1
aI0
asg10
g11
(g15
S'\xc5M\x1046v\x1b@'
p624
tp625
Rp626
sg21
g1
(g22
g23
Ntp627
Rp628
(dp629
g27
I0
sg28
I01
sg29
(F-0.3
F-0.0
F-0.4
F-0.87
F-0.71
tp630
sbsbag621
ag621
ag1
(g2
g3
(lp631
I0
aI0
aI1
aI1
aI1
aI1
aI0
atp632
Rp633
(dp634
g8
(lp635
I1
aI1
aI1
aI0
aI0
aI1
aI1
aI1
aI1
aI0
asg10
g11
(g15
S'\xc5M\x1046v\x1b@'
p636
tp637
Rp638
sg21
g1
(g22
g23
Ntp639
Rp640
(dp641
g27
I0
sg28
I01
sg29
(F-0.3
F-0.0
F-0.4
F-0.87
F-0.71
tp642
sbsbag1
(g2
g3
(lp643
I0
aI0
aI1
aI1
aI1
aI1
aI0
atp644
Rp645
(dp646
g8
(lp647
I1
aI1
aI1
aI0
aI0
aI1
aI1
aI1
aI1
aI0
asg10
g11
(g15
S'\xc5M\x1046v\x1b@'
p648
tp649
Rp650
sg21
g1
(g22
g23
Ntp651
Rp652
(dp653
g27
(lp654
sg28
I00
sg29
g630
sbsbag1
(g2
g3
(lp655
I1
aI0
aI1
aI1
aI0
aI1
aI1
atp656
Rp657
(dp658
g8
(lp659
I1
aI1
aI1
aI1
aI0
aI1
aI1
aI0
aI1
aI1
asg10
g11
(g15
S'KL\x15\xc8$\x86\x1b@'
p660
tp661
Rp662
sg21
g1
(g22
g23
Ntp663
Rp664
(dp665
g27
I5
sg28
I00
sg29
(F-0.2
F-0.24
F-0.4
F-0.53
F-0.84
tp666
sbsbag1
(g2
g3
(lp667
I1
aI0
aI1
aI1
aI0
aI1
aI1
atp668
Rp669
(dp670
g8
(lp671
I1
aI1
aI1
aI1
aI0
aI1
aI1
aI0
aI1
aI1
asg10
g11
(g15
S'KL\x15\xc8$\x86\x1b@'
p672
tp673
Rp674
sg21
g1
(g22
g23
Ntp675
Rp676
(dp677
g27
I5
sg28
I00
sg29
(F-0.2
F-0.24
F-0.4
F-0.53
F-0.84
tp678
sbsbag1
(g2
g3
(lp679
I1
aI0
aI1
aI1
aI0
aI1
aI1
atp680
Rp681
(dp682
g8
(lp683
I1
aI1
aI1
aI1
aI0
aI1
aI1
aI0
aI1
aI1
asg10
g11
(g15
S'KL\x15\xc8$\x86\x1b@'
p684
tp685
Rp686
sg21
g1
(g22
g23
Ntp687
Rp688
(dp689
g27
I5
sg28
I00
sg29
(F-0.2
F-0.24
F-0.4
F-0.53
F-0.84
tp690
sbsbag1
(g2
g3
(lp691
I1
aI0
aI1
aI1
aI0
aI1
aI1
atp692
Rp693
(dp694
g8
(lp695
I1
aI1
aI1
aI1
aI0
aI1
aI1
aI0
aI1
aI1
asg10
g11
(g15
S'KL\x15\xc8$\x86\x1b@'
p696
tp697
Rp698
sg21
g1
(g22
g23
Ntp699
Rp700
(dp701
g27
I5
sg28
I00
sg29
(F-0.2
F-0.24
F-0.4
F-0.53
F-0.84
tp702
sbsbag1
(g2
g3
(lp703
I1
aI0
aI1
aI1
aI0
aI1
aI1
atp704
Rp705
(dp706
g8
(lp707
I1
aI1
aI1
aI1
aI0
aI1
aI1
aI0
aI1
aI1
asg10
g11
(g15
S'KL\x15\xc8$\x86\x1b@'
p708
tp709
Rp710
sg21
g1
(g22
g23
Ntp711
Rp712
(dp713
g27
I5
sg28
I00
sg29
(F-0.2
F-0.24
F-0.4
F-0.53
F-0.84
tp714
sbsbag1
(g2
g3
(lp715
I1
aI0
aI1
aI1
aI0
aI1
aI1
atp716
Rp717
(dp718
g8
(lp719
I1
aI1
aI1
aI1
aI0
aI1
aI1
aI0
aI1
aI1
asg10
g11
(g15
S'KL\x15\xc8$\x86\x1b@'
p720
tp721
Rp722
sg21
g1
(g22
g23
Ntp723
Rp724
(dp725
g27
I5
sg28
I00
sg29
(F-0.2
F-0.24
F-0.4
F-0.53
F-0.84
tp726
sbsbag1
(g2
g3
(lp727
I1
aI0
aI1
aI1
aI0
aI1
aI1
atp728
Rp729
(dp730
g8
(lp731
I1
aI1
aI1
aI1
aI0
aI1
aI1
aI0
aI1
aI1
asg10
g11
(g15
S'KL\x15\xc8$\x86\x1b@'
p732
tp733
Rp734
sg21
g1
(g22
g23
Ntp735
Rp736
(dp737
g27
I5
sg28
I00
sg29
(F-0.2
F-0.24
F-0.4
F-0.53
F-0.84
tp738
sbsbag1
(g2
g3
(lp739
I1
aI1
aI1
aI1
aI0
aI0
aI1
atp740
Rp741
(dp742
g8
(lp743
I1
aI1
aI1
aI1
aI1
aI1
aI1
aI0
aI0
aI1
asg10
g11
(g15
S'Dj,\x047B\x1d@'
p744
tp745
Rp746
sg21
g1
(g22
g23
Ntp747
Rp748
(dp749
g27
I3
sg28
I00
sg29
(F-0.2
F-0.14
F-0.4
F-0.67
F-0.86
tp750
sbsbag741
ag741
ag741
ag1
(g2
g3
(lp751
I1
aI1
aI1
aI1
aI0
aI0
aI1
atp752
Rp753
(dp754
g8
(lp755
I1
aI1
aI1
aI1
aI1
aI1
aI1
aI0
aI0
aI1
asg10
g11
(g15
S'Dj,\x047B\x1d@'
p756
tp757
Rp758
sg21
g1
(g22
g23
Ntp759
Rp760
(dp761
g27
I3
sg28
I00
sg29
(F-0.2
F-0.14
F-0.4
F-0.67
F-0.86
tp762
sbsbag1
(g2
g3
(lp763
I1
aI1
aI1
aI1
aI0
aI0
aI1
atp764
Rp765
(dp766
g8
(lp767
I1
aI1
aI1
aI1
aI1
aI1
aI1
aI0
aI0
aI1
asg10
g11
(g15
S'Dj,\x047B\x1d@'
p768
tp769
Rp770
sg21
g1
(g22
g23
Ntp771
Rp772
(dp773
g27
I3
sg28
I00
sg29
(F-0.2
F-0.14
F-0.4
F-0.67
F-0.86
tp774
sbsbag1
(g2
g3
(lp775
I1
aI1
aI1
aI1
aI0
aI0
aI1
atp776
Rp777
(dp778
g8
(lp779
I1
aI1
aI1
aI1
aI1
aI1
aI1
aI0
aI0
aI1
asg10
g11
(g15
S'Dj,\x047B\x1d@'
p780
tp781
Rp782
sg21
g1
(g22
g23
Ntp783
Rp784
(dp785
g27
I3
sg28
I00
sg29
(F-0.2
F-0.14
F-0.4
F-0.67
F-0.86
tp786
sbsbag1
(g2
g3
(lp787
I0
aI1
aI0
aI1
aI1
aI1
aI0
atp788
Rp789
(dp790
g8
(lp791
I1
aI1
aI1
aI0
aI1
aI0
aI1
aI1
aI1
aI0
asg10
g11
(g15
S'w1\xac\xb3\xbbE @'
p792
tp793
Rp794
sg21
g1
(g22
g23
Ntp795
Rp796
(dp797
g27
(lp798
sg28
I00
sg29
(F-0.3
F-0.05
F-0.2
F-1.0
F-0.69
tp799
sbsbag789
ag1
(g2
g3
(lp800
I0
aI1
aI0
aI1
aI1
aI1
aI0
atp801
Rp802
(dp803
g8
(lp804
I1
aI1
aI1
aI0
aI1
aI0
aI1
aI1
aI1
aI0
asg10
g11
(g15
S'w1\xac\xb3\xbbE @'
p805
tp806
Rp807
sg21
g1
(g22
g23
Ntp808
Rp809
(dp810
g27
I1
sg28
I00
sg29
(F-0.3
F-0.05
F-0.2
F-1.0
F-0.69
tp811
sbsbag802
ag1
(g2
g3
(lp812
I0
aI1
aI0
aI1
aI1
aI1
aI0
atp813
Rp814
(dp815
g8
(lp816
I1
aI1
aI1
aI0
aI1
aI0
aI1
aI1
aI1
aI0
asg10
g11
(g15
S'w1\xac\xb3\xbbE @'
p817
tp818
Rp819
sg21
g1
(g22
g23
Ntp820
Rp821
(dp822
g27
I1
sg28
I00
sg29
(F-0.3
F-0.05
F-0.2
F-1.0
F-0.69
tp823
sbsbag1
(g2
g3
(lp824
I0
aI1
aI0
aI1
aI1
aI1
aI0
atp825
Rp826
(dp827
g8
(lp828
I1
aI1
aI1
aI0
aI1
aI0
aI1
aI1
aI1
aI0
asg10
g11
(g15
S'w1\xac\xb3\xbbE @'
p829
tp830
Rp831
sg21
g1
(g22
g23
Ntp832
Rp833
(dp834
g27
I1
sg28
I00
sg29
(F-0.3
F-0.05
F-0.2
F-1.0
F-0.69
tp835
sbsbag1
(g2
g3
(lp836
I0
aI1
aI0
aI1
aI1
aI1
aI0
atp837
Rp838
(dp839
g8
(lp840
I1
aI1
aI1
aI0
aI1
aI0
aI1
aI1
aI1
aI0
asg10
g11
(g15
S'w1\xac\xb3\xbbE @'
p841
tp842
Rp843
sg21
g1
(g22
g23
Ntp844
Rp845
(dp846
g27
I1
sg28
I00
sg29
(F-0.3
F-0.05
F-0.2
F-1.0
F-0.69
tp847
sbsbag1
(g2
g3
(lp848
I0
aI1
aI0
aI1
aI1
aI1
aI0
atp849
Rp850
(dp851
g8
(lp852
I1
aI1
aI1
aI0
aI1
aI0
aI1
aI1
aI1
aI0
asg10
g11
(g15
S'w1\xac\xb3\xbbE @'
p853
tp854
Rp855
sg21
g1
(g22
g23
Ntp856
Rp857
(dp858
g27
I1
sg28
I00
sg29
(F-0.3
F-0.05
F-0.2
F-1.0
F-0.69
tp859
sbsbag1
(g2
g3
(lp860
I1
aI0
aI0
aI1
aI1
aI1
aI0
atp861
Rp862
(dp863
g8
(lp864
I1
aI1
aI1
aI1
aI0
aI0
aI1
aI1
aI1
aI0
asg10
g11
(g15
S'\x1a\xb3\xc6\x1b\xb6U @'
p865
tp866
Rp867
sg21
g1
(g22
g23
Ntp868
Rp869
(dp870
g27
I0
sg28
I01
sg29
(F-0.3
F-0.0
F-0.4
F-0.87
F-0.74
tp871
sbsbag1
(g2
g3
(lp872
I1
aI0
aI0
aI1
aI1
aI1
aI0
atp873
Rp874
(dp875
g8
(lp876
I1
aI1
aI1
aI1
aI0
aI0
aI1
aI1
aI1
aI0
asg10
g11
(g15
S'\x1a\xb3\xc6\x1b\xb6U @'
p877
tp878
Rp879
sg21
g1
(g22
g23
Ntp880
Rp881
(dp882
g27
(lp883
sg28
I00
sg29
g871
sbsbag1
(g2
g3
(lp884
I0
aI1
aI1
aI0
aI1
aI1
aI0
atp885
Rp886
(dp887
g8
(lp888
I1
aI1
aI1
aI0
aI1
aI1
aI0
aI1
aI1
aI0
asg10
g11
(g15
S'\xdb\x0b\xce\xa7/\xc0 @'
p889
tp890
Rp891
sg21
g1
(g22
g23
Ntp892
Rp893
(dp894
g27
I3
sg28
I00
sg29
(F-0.3
F-0.14
F-0.2
F-1.0
F-0.65
tp895
sbsbag1
(g2
g3
(lp896
I0
aI1
aI1
aI0
aI1
aI1
aI0
atp897
Rp898
(dp899
g8
(lp900
I1
aI1
aI1
aI0
aI1
aI1
aI0
aI1
aI1
aI0
asg10
g11
(g15
S'\xdb\x0b\xce\xa7/\xc0 @'
p901
tp902
Rp903
sg21
g1
(g22
g23
Ntp904
Rp905
(dp906
g27
I3
sg28
I00
sg29
(F-0.3
F-0.14
F-0.2
F-1.0
F-0.65
tp907
sbsbag1
(g2
g3
(lp908
I0
aI1
aI1
aI0
aI1
aI1
aI0
atp909
Rp910
(dp911
g8
(lp912
I1
aI1
aI1
aI0
aI1
aI1
aI0
aI1
aI1
aI0
asg10
g11
(g15
S'\xdb\x0b\xce\xa7/\xc0 @'
p913
tp914
Rp915
sg21
g1
(g22
g23
Ntp916
Rp917
(dp918
g27
I3
sg28
I00
sg29
(F-0.3
F-0.14
F-0.2
F-1.0
F-0.65
tp919
sbsbag1
(g2
g3
(lp920
I0
aI1
aI1
aI0
aI1
aI1
aI0
atp921
Rp922
(dp923
g8
(lp924
I1
aI1
aI1
aI0
aI1
aI1
aI0
aI1
aI1
aI0
asg10
g11
(g15
S'\xdb\x0b\xce\xa7/\xc0 @'
p925
tp926
Rp927
sg21
g1
(g22
g23
Ntp928
Rp929
(dp930
g27
I3
sg28
I00
sg29
(F-0.3
F-0.14
F-0.2
F-1.0
F-0.65
tp931
sbsbag1
(g2
g3
(lp932
I0
aI1
aI0
aI0
aI0
aI1
aI1
atp933
Rp934
(dp935
g8
(lp936
I1
aI1
aI1
aI0
aI1
aI0
aI0
aI0
aI1
aI1
asg10
g11
(g15
S'G\xc2t\x9dB\xdb @'
p937
tp938
Rp939
sg21
g1
(g22
g23
Ntp940
Rp941
(dp942
g27
I3
sg28
I00
sg29
(F-0.4
F-0.14
F-0.2
F-0.67
F-0.55
tp943
sbsbag1
(g2
g3
(lp944
I0
aI1
aI0
aI0
aI0
aI1
aI1
atp945
Rp946
(dp947
g8
(lp948
I1
aI1
aI1
aI0
aI1
aI0
aI0
aI0
aI1
aI1
asg10
g11
(g15
S'G\xc2t\x9dB\xdb @'
p949
tp950
Rp951
sg21
g1
(g22
g23
Ntp952
Rp953
(dp954
g27
I3
sg28
I00
sg29
(F-0.4
F-0.14
F-0.2
F-0.67
F-0.55
tp955
sbsbag1
(g2
g3
(lp956
I0
aI1
aI0
aI0
aI0
aI1
aI1
atp957
Rp958
(dp959
g8
(lp960
I1
aI1
aI1
aI0
aI1
aI0
aI0
aI0
aI1
aI1
asg10
g11
(g15
S'G\xc2t\x9dB\xdb @'
p961
tp962
Rp963
sg21
g1
(g22
g23
Ntp964
Rp965
(dp966
g27
I3
sg28
I00
sg29
(F-0.4
F-0.14
F-0.2
F-0.67
F-0.55
tp967
sbsbag1
(g2
g3
(lp968
I0
aI1
aI0
aI0
aI0
aI1
aI1
atp969
Rp970
(dp971
g8
(lp972
I1
aI1
aI1
aI0
aI1
aI0
aI0
aI0
aI1
aI1
asg10
g11
(g15
S'G\xc2t\x9dB\xdb @'
p973
tp974
Rp975
sg21
g1
(g22
g23
Ntp976
Rp977
(dp978
g27
I3
sg28
I00
sg29
(F-0.4
F-0.14
F-0.2
F-0.67
F-0.55
tp979
sbsbag958
ag1
(g2
g3
(lp980
I0
aI1
aI0
aI0
aI0
aI1
aI1
atp981
Rp982
(dp983
g8
(lp984
I1
aI1
aI1
aI0
aI1
aI0
aI0
aI0
aI1
aI1
asg10
g11
(g15
S'G\xc2t\x9dB\xdb @'
p985
tp986
Rp987
sg21
g1
(g22
g23
Ntp988
Rp989
(dp990
g27
I3
sg28
I00
sg29
(F-0.4
F-0.14
F-0.2
F-0.67
F-0.55
tp991
sbsba.