ccopy_reg
_reconstructor
p0
(cdeap.tools.support
Logbook
p1
c__builtin__
list
p2
(lp3
(dp4
S'hv|spread|igd|frontier#|valid#'
p5
(F0.033
F0.75
F-1.0
I2
I5
tp6
sS'timestamp'
p7
F0.005529880523681641
sS'gen'
p8
I0
sS'nevals'
p9
I100
satp10
Rp11
(dp12
S'log_header'
p13
I01
sS'header'
p14
(lp15
g8
ag9
ag5
ag7
asS'columns_len'
p16
(lp17
I3
aI6
aI30
aI10
asS'buffindex'
p18
I1
sS'chapters'
p19
ccollections
defaultdict
p20
(g1
tp21
Rp22
sb.