(lp0
F0.06041703322658509
aF0.223299645086377
aF0.820400992799386
aF0.7259195588251945
aF0.23630502829653044
aF0.23619270262327974
aF0.04746908240591363
aF0.12425506047479062
aF0.8983245669409714
aF0.5898661542982223
aF0.5543390340707258
aF0.3790288115418212
a.