ccopy_reg
_reconstructor
p0
(cdeap.tools.support
Logbook
p1
c__builtin__
list
p2
(lp3
(dp4
S'hv|spread|igd|frontier#|valid#'
p5
(F0.361
F0.615
F0.003
I15
I4
tp6
sS'timestamp'
p7
F0.04935789108276367
sS'evals'
p8
I1000
sS'gen'
p9
I0
sa(dp10
g5
(F0.361
F0.716
F0.003
I15
I4
tp11
sg7
F2.3693668842315674
sg8
I1000
sg9
I1
sa(dp12
g5
(F0.361
F0.615
F0.003
I15
I4
tp13
sg7
F4.7175610065460205
sg8
I1000
sg9
I2
sa(dp14
g5
(F0.361
F0.561
F0.003
I15
I4
tp15
sg7
F7.139914035797119
sg8
I1000
sg9
I3
sa(dp16
g5
(F0.361
F0.716
F0.003
I15
I4
tp17
sg7
F9.548091888427734
sg8
I1000
sg9
I4
sa(dp18
g5
(F0.361
F0.674
F0.003
I15
I4
tp19
sg7
F11.996377944946289
sg8
I1000
sg9
I5
sa(dp20
g5
(F0.361
F0.561
F0.003
I15
I4
tp21
sg7
F14.438746929168701
sg8
I1000
sg9
I6
sa(dp22
g5
(F0.361
F0.716
F0.003
I15
I4
tp23
sg7
F17.03668999671936
sg8
I1000
sg9
I7
sa(dp24
g5
(F0.361
F0.674
F0.003
I15
I4
tp25
sg7
F19.433584928512573
sg8
I1000
sg9
I8
sa(dp26
g5
(F0.361
F0.716
F0.003
I15
I4
tp27
sg7
F21.90539789199829
sg8
I1000
sg9
I9
sa(dp28
g5
(F0.361
F0.676
F0.003
I15
I4
tp29
sg7
F24.309720993041992
sg8
I1000
sg9
I10
sa(dp30
g5
(F0.361
F0.615
F0.003
I15
I4
tp31
sg7
F26.709723949432373
sg8
I1000
sg9
I11
sa(dp32
g5
(F0.361
F0.561
F0.003
I15
I4
tp33
sg7
F29.08445906639099
sg8
I1000
sg9
I12
sa(dp34
g5
(F0.361
F0.615
F0.003
I15
I4
tp35
sg7
F31.53144407272339
sg8
I1000
sg9
I13
sa(dp36
g5
(F0.361
F0.716
F0.003
I15
I4
tp37
sg7
F34.004709005355835
sg8
I1000
sg9
I14
sa(dp38
g5
(F0.361
F0.674
F0.003
I15
I4
tp39
sg7
F36.355473041534424
sg8
I1000
sg9
I15
sa(dp40
g5
(F0.361
F0.676
F0.003
I15
I4
tp41
sg7
F38.77700686454773
sg8
I1000
sg9
I16
sa(dp42
g5
(F0.361
F0.561
F0.003
I15
I4
tp43
sg7
F41.12623691558838
sg8
I1000
sg9
I17
sa(dp44
g5
(F0.361
F0.716
F0.003
I15
I4
tp45
sg7
F43.531837940216064
sg8
I1000
sg9
I18
sa(dp46
g5
(F0.361
F0.716
F0.003
I15
I4
tp47
sg7
F45.90504193305969
sg8
I1000
sg9
I19
sa(dp48
g5
(F0.361
F0.674
F0.003
I15
I4
tp49
sg7
F48.348448038101196
sg8
I1000
sg9
I20
sa(dp50
g5
(F0.361
F0.716
F0.003
I15
I4
tp51
sg7
F50.703304052352905
sg8
I1000
sg9
I21
sa(dp52
g5
(F0.361
F0.674
F0.003
I15
I4
tp53
sg7
F53.06688690185547
sg8
I1000
sg9
I22
sa(dp54
g5
(F0.361
F0.716
F0.003
I15
I4
tp55
sg7
F55.42046499252319
sg8
I1000
sg9
I23
sa(dp56
g5
(F0.361
F0.615
F0.003
I15
I4
tp57
sg7
F57.819262981414795
sg8
I1000
sg9
I24
sa(dp58
g5
(F0.361
F0.561
F0.003
I15
I4
tp59
sg7
F60.19321298599243
sg8
I1000
sg9
I25
sa(dp60
g5
(F0.361
F0.615
F0.003
I15
I4
tp61
sg7
F62.55873894691467
sg8
I1000
sg9
I26
sa(dp62
g5
(F0.361
F0.674
F0.003
I15
I4
tp63
sg7
F64.9458019733429
sg8
I1000
sg9
I27
sa(dp64
g5
(F0.361
F0.615
F0.003
I15
I4
tp65
sg7
F67.34104585647583
sg8
I1000
sg9
I28
sa(dp66
g5
(F0.361
F0.561
F0.003
I15
I4
tp67
sg7
F69.73257303237915
sg8
I1000
sg9
I29
sa(dp68
g5
(F0.361
F0.615
F0.003
I15
I4
tp69
sg7
F72.12999987602234
sg8
I1000
sg9
I30
sa(dp70
g5
(F0.361
F0.674
F0.003
I15
I4
tp71
sg7
F74.5010359287262
sg8
I1000
sg9
I31
sa(dp72
g5
(F0.361
F0.561
F0.003
I15
I4
tp73
sg7
F76.90374708175659
sg8
I1000
sg9
I32
sa(dp74
g5
(F0.361
F0.561
F0.003
I15
I4
tp75
sg7
F79.27935791015625
sg8
I1000
sg9
I33
sa(dp76
g5
(F0.361
F0.615
F0.003
I15
I4
tp77
sg7
F81.65525698661804
sg8
I1000
sg9
I34
sa(dp78
g5
(F0.361
F0.716
F0.003
I15
I4
tp79
sg7
F84.00677990913391
sg8
I1000
sg9
I35
sa(dp80
g5
(F0.361
F0.615
F0.003
I15
I4
tp81
sg7
F86.40952706336975
sg8
I1000
sg9
I36
sa(dp82
g5
(F0.361
F0.561
F0.003
I15
I4
tp83
sg7
F88.76756405830383
sg8
I1000
sg9
I37
sa(dp84
g5
(F0.361
F0.615
F0.003
I15
I4
tp85
sg7
F91.16214799880981
sg8
I1000
sg9
I38
sa(dp86
g5
(F0.361
F0.561
F0.003
I15
I4
tp87
sg7
F93.59490585327148
sg8
I1000
sg9
I39
sa(dp88
g5
(F0.361
F0.615
F0.003
I15
I4
tp89
sg7
F95.95260095596313
sg8
I1000
sg9
I40
sa(dp90
g5
(F0.361
F0.561
F0.003
I15
I4
tp91
sg7
F98.2993369102478
sg8
I1000
sg9
I41
sa(dp92
g5
(F0.361
F0.615
F0.003
I15
I4
tp93
sg7
F100.6842749118805
sg8
I1000
sg9
I42
sa(dp94
g5
(F0.361
F0.561
F0.003
I15
I4
tp95
sg7
F103.07099604606628
sg8
I1000
sg9
I43
sa(dp96
g5
(F0.361
F0.716
F0.003
I15
I4
tp97
sg7
F105.4413230419159
sg8
I1000
sg9
I44
sa(dp98
g5
(F0.361
F0.695
F0.003
I15
I4
tp99
sg7
F107.7806339263916
sg8
I1000
sg9
I45
sa(dp100
g5
(F0.361
F0.716
F0.003
I15
I4
tp101
sg7
F110.12804698944092
sg8
I1000
sg9
I46
sa(dp102
g5
(F0.361
F0.674
F0.003
I15
I4
tp103
sg7
F112.53584694862366
sg8
I1000
sg9
I47
sa(dp104
g5
(F0.361
F0.716
F0.003
I15
I4
tp105
sg7
F114.94666194915771
sg8
I1000
sg9
I48
sa(dp106
g5
(F0.361
F0.615
F0.003
I15
I4
tp107
sg7
F117.33482193946838
sg8
I1000
sg9
I49
satp108
Rp109
(dp110
S'log_header'
p111
I01
sS'header'
p112
(S'gen'
p113
S'evals'
p114
g5
S'timestamp'
p115
tp116
sS'columns_len'
p117
(lp118
I3
aI5
aI30
aI9
asS'buffindex'
p119
I50
sS'chapters'
p120
ccollections
defaultdict
p121
(g1
tp122
Rp123
sb.