(lp0
ccopy_reg
_reconstructor
p1
(cdeap.creator
Individual
p2
c__builtin__
list
p3
(lp4
I1
aI1
aI0
aI0
aI0
aI1
aI1
aI1
aI0
aI1
aI1
aI1
aI1
aI0
aI0
aI1
aI1
aI1
aI1
aI1
aI1
aI0
aI1
aI1
aI1
aI1
aI0
aI1
aI0
atp5
Rp6
(dp7
S'ibea_fitness'
p8
cnumpy.core.multiarray
scalar
p9
(cnumpy
dtype
p10
(S'f8'
p11
I0
I1
tp12
Rp13
(I3
S'<'
p14
NNNI-1
I-1
I0
tp15
bS'\xc7\x87\x94\x0c\xaf\xf9\x14@'
p16
tp17
Rp18
sS'fitness'
p19
g1
(cdeap.creator
FitnessMin
p20
c__builtin__
object
p21
Ntp22
Rp23
(dp24
S'correct_ft'
p25
I01
sS'vioCons'
p26
(lp27
sS'conVio'
p28
I0
sS'correct'
p29
I01
sS'wvalues'
p30
(F-0.18
F-0.0
F-0.72
F-0.81
F-0.17
tp31
sbsbag1
(g2
g3
(lp32
I0
aI0
aI0
aI0
aI0
aI0
aI0
aI0
aI0
aI1
aI0
aI0
aI0
aI0
aI0
aI0
aI0
aI0
aI0
aI0
aI0
aI0
aI0
aI0
aI0
aI0
aI0
aI0
aI0
atp33
Rp34
(dp35
g8
g9
(g13
S'bWh\xb0\x97\xe0#@'
p36
tp37
Rp38
sg19
g1
(g20
g21
Ntp39
Rp40
(dp41
g25
I01
sg26
(lp42
sg28
I0
sg29
I01
sg30
(F-0.88
F-0.0
F-0.09
F-0.14
F-0.87
tp43
sbsbag1
(g2
g3
(lp44
I1
aI1
aI0
aI0
aI0
aI1
aI1
aI1
aI0
aI1
aI1
aI1
aI1
aI0
aI0
aI1
aI0
aI1
aI1
aI1
aI0
aI0
aI1
aI0
aI0
aI0
aI0
aI1
aI0
atp45
Rp46
(dp47
g8
g9
(g13
S'\x9a>\x8e\x8e\x1e\xa7\x19@'
p48
tp49
Rp50
sg19
g1
(g20
g21
Ntp51
Rp52
(dp53
g25
I01
sg26
(lp54
sg28
I0
sg29
I01
sg30
(F-0.33
F-0.0
F-0.55
F-0.69
F-0.3
tp55
sbsbag1
(g2
g3
(lp56
I1
aI1
aI0
aI0
aI1
aI1
aI1
aI1
aI0
aI1
aI0
aI1
aI0
aI0
aI1
aI1
aI1
aI1
aI0
aI1
aI1
aI0
aI1
aI1
aI1
aI1
aI0
aI1
aI1
atp57
Rp58
(dp59
g8
g9
(g13
S'\xde\x9a\xc3*\xba\x05\x1c@'
p60
tp61
Rp62
sg19
g1
(g20
g21
Ntp63
Rp64
(dp65
g25
I01
sg26
(lp66
sg28
I0
sg29
I01
sg30
(F-0.27
F-0.0
F-0.69
F-0.7
F-0.26
tp67
sbsbag1
(g2
g3
(lp68
I0
aI0
aI0
aI0
aI0
aI0
aI0
aI0
aI0
aI1
aI0
aI0
aI0
aI0
aI0
aI0
aI0
aI0
aI0
aI0
aI0
aI0
aI0
aI0
aI0
aI0
aI0
aI1
aI0
atp69
Rp70
(dp71
g8
g9
(g13
S'\xca>G\x83\x05y\x1c@'
p72
tp73
Rp74
sg19
g1
(g20
g21
Ntp75
Rp76
(dp77
g25
I01
sg26
(lp78
sg28
I0
sg29
I01
sg30
(F-0.82
F-0.0
F-0.12
F-0.23
F-0.81
tp79
sbsbag1
(g2
g3
(lp80
I1
aI1
aI1
aI1
aI1
aI1
aI1
aI1
aI0
aI1
aI1
aI1
aI1
aI0
aI1
aI1
aI1
aI1
aI1
aI1
aI1
aI0
aI1
aI1
aI1
aI1
aI0
aI1
aI0
atp81
Rp82
(dp83
g8
g9
(g13
S'\xc1\x144v\xf61#@'
p84
tp85
Rp86
sg19
g1
(g20
g21
Ntp87
Rp88
(dp89
g25
I01
sg26
(lp90
sg28
I0
sg29
I01
sg30
(F-0.1
F-0.0
F-0.85
F-0.89
F-0.1
tp91
sbsbag34
ag1
(g2
g3
(lp92
I0
aI1
aI1
aI1
aI1
aI1
aI1
aI1
aI0
aI1
aI0
aI1
aI1
aI0
aI1
aI1
aI1
aI1
aI1
aI1
aI1
aI0
aI1
aI1
aI1
aI1
aI0
aI1
aI0
atp93
Rp94
(dp95
g8
g9
(g13
S'E\x9cM\x16\x0e<$@'
p96
tp97
Rp98
sg19
g1
(g20
g21
Ntp99
Rp100
(dp101
g25
I01
sg26
(lp102
sg28
I0
sg29
I01
sg30
(F-0.14
F-0.0
F-0.81
F-0.84
F-0.15
tp103
sbsbag1
(g2
g3
(lp104
I1
aI1
aI0
aI0
aI0
aI1
aI1
aI1
aI0
aI1
aI1
aI1
aI1
aI0
aI1
aI0
aI0
aI1
aI1
aI1
aI1
aI0
aI1
aI1
aI0
aI0
aI1
aI0
aI0
atp105
Rp106
(dp107
g8
g9
(g13
S'\xadj\xa8\xc6\xc5V\x11@'
p108
tp109
Rp110
sg19
g1
(g20
g21
Ntp111
Rp112
(dp113
g25
I01
sg26
(lp114
sg28
I0
sg29
I01
sg30
(F-0.24
F-0.0
F-0.65
F-0.76
F-0.25
tp115
sbsbag1
(g2
g3
(lp116
I1
aI1
aI0
aI1
aI1
aI1
aI1
aI1
aI0
aI1
aI1
aI0
aI1
aI0
aI1
aI0
aI0
aI1
aI1
aI1
aI1
aI0
aI1
aI1
aI0
aI0
aI1
aI0
aI1
atp117
Rp118
(dp119
g8
g9
(g13
S"\xf4K'V\x840\x17@"
p120
tp121
Rp122
sg19
g1
(g20
g21
Ntp123
Rp124
(dp125
g25
I01
sg26
(lp126
sg28
I0
sg29
I01
sg30
(F-0.24
F-0.0
F-0.7
F-0.72
F-0.25
tp127
sbsbag1
(g2
g3
(lp128
I1
aI1
aI0
aI0
aI1
aI1
aI1
aI1
aI0
aI1
aI1
aI1
aI1
aI0
aI0
aI1
aI1
aI1
aI1
aI1
aI1
aI0
aI1
aI0
aI0
aI0
aI0
aI1
aI0
atp129
Rp130
(dp131
g8
g9
(g13
S'\xc7\xbe\xb3u\x0f\xa1\x14@'
p132
tp133
Rp134
sg19
g1
(g20
g21
Ntp135
Rp136
(dp137
g25
I01
sg26
(lp138
sg28
I0
sg29
I01
sg30
(F-0.27
F-0.0
F-0.62
F-0.73
F-0.25
tp139
sbsbag1
(g2
g3
(lp140
I1
aI1
aI0
aI0
aI1
aI1
aI0
aI1
aI0
aI1
aI1
aI1
aI1
aI0
aI0
aI0
aI0
aI1
aI0
aI1
aI1
aI0
aI1
aI0
aI0
aI0
aI0
aI0
aI1
atp141
Rp142
(dp143
g8
g9
(g13
S'\xa8\xee\x86VV\xd0\x1e@'
p144
tp145
Rp146
sg19
g1
(g20
g21
Ntp147
Rp148
(dp149
g25
I01
sg26
(lp150
sg28
I0
sg29
I01
sg30
(F-0.39
F-0.0
F-0.49
F-0.59
F-0.36
tp151
sbsbag1
(g2
g3
(lp152
I1
aI1
aI0
aI0
aI1
aI1
aI0
aI1
aI0
aI1
aI1
aI1
aI1
aI0
aI0
aI1
aI0
aI1
aI0
aI0
aI1
aI0
aI1
aI0
aI0
aI0
aI0
aI0
aI0
atp153
Rp154
(dp155
g8
g9
(g13
S'\xc1d\xd5\xea\x95\xa8"@'
p156
tp157
Rp158
sg19
g1
(g20
g21
Ntp159
Rp160
(dp161
g25
I01
sg26
(lp162
sg28
I0
sg29
I01
sg30
(F-0.41
F-0.0
F-0.52
F-0.54
F-0.39
tp163
sbsbag1
(g2
g3
(lp164
I1
aI1
aI0
aI0
aI0
aI1
aI0
aI1
aI0
aI1
aI0
aI0
aI1
aI0
aI1
aI0
aI0
aI1
aI1
aI1
aI1
aI0
aI1
aI1
aI0
aI0
aI1
aI0
aI1
atp165
Rp166
(dp167
g8
g9
(g13
S'\xe6\xd2\xcb\x12\xb2\xe5\x1f@'
p168
tp169
Rp170
sg19
g1
(g20
g21
Ntp171
Rp172
(dp173
g25
I01
sg26
(lp174
sg28
I0
sg29
I01
sg30
(F-0.33
F-0.0
F-0.62
F-0.65
F-0.33
tp175
sbsbag166
ag34
ag166
ag1
(g2
g3
(lp176
I1
aI1
aI0
aI1
aI1
aI1
aI1
aI1
aI0
aI1
aI1
aI1
aI1
aI0
aI0
aI1
aI1
aI1
aI0
aI1
aI1
aI0
aI1
aI1
aI1
aI1
aI0
aI1
aI0
atp177
Rp178
(dp179
g8
g9
(g13
S'd\x1c\xf6# \xd5 @'
p180
tp181
Rp182
sg19
g1
(g20
g21
Ntp183
Rp184
(dp185
g25
I01
sg26
(lp186
sg28
I0
sg29
I01
sg30
(F-0.16
F-0.0
F-0.76
F-0.81
F-0.16
tp187
sbsbag6
ag1
(g2
g3
(lp188
I1
aI1
aI0
aI0
aI1
aI1
aI1
aI1
aI0
aI1
aI1
aI1
aI1
aI0
aI1
aI1
aI1
aI1
aI0
aI1
aI1
aI0
aI1
aI1
aI1
aI1
aI0
aI1
aI1
atp189
Rp190
(dp191
g8
g9
(g13
S'\x02\xcb\x9e\xe0\xf4\x1c\x1f@'
p192
tp193
Rp194
sg19
g1
(g20
g21
Ntp195
Rp196
(dp197
g25
I01
sg26
(lp198
sg28
I0
sg29
I01
sg30
(F-0.18
F-0.0
F-0.76
F-0.78
F-0.17
tp199
sbsbag1
(g2
g3
(lp200
I1
aI1
aI0
aI0
aI0
aI1
aI1
aI1
aI0
aI1
aI1
aI1
aI1
aI0
aI0
aI1
aI1
aI1
aI1
aI1
aI1
aI0
aI1
aI0
aI0
aI0
aI0
aI1
aI0
atp201
Rp202
(dp203
g8
g9
(g13
S'nR\xcd\xb2\xa8$\x17@'
p204
tp205
Rp206
sg19
g1
(g20
g21
Ntp207
Rp208
(dp209
g25
I01
sg26
(lp210
sg28
I0
sg29
I01
sg30
(F-0.29
F-0.0
F-0.59
F-0.73
F-0.26
tp211
sbsbag1
(g2
g3
(lp212
I1
aI1
aI1
aI1
aI1
aI1
aI1
aI1
aI0
aI0
aI0
aI1
aI0
aI0
aI0
aI1
aI1
aI1
aI1
aI1
aI1
aI0
aI1
aI1
aI1
aI1
aI0
aI1
aI1
atp213
Rp214
(dp215
g8
g9
(g13
S'\x8ekJP\xe8I\x1b@'
p216
tp217
Rp218
sg19
g1
(g20
g21
Ntp219
Rp220
(dp221
g25
I01
sg26
(lp222
sg28
I0
sg29
I01
sg30
(F-0.29
F-0.0
F-0.7
F-0.67
F-0.29
tp223
sbsbag190
ag190
ag1
(g2
g3
(lp224
I1
aI1
aI1
aI1
aI1
aI1
aI1
aI1
aI0
aI1
aI1
aI1
aI1
aI0
aI1
aI1
aI1
aI1
aI1
aI1
aI1
aI0
aI1
aI1
aI1
aI1
aI0
aI1
aI1
atp225
Rp226
(dp227
g8
g9
(g13
S',/\x01\x8b\xc7\xa6\x1e@'
p228
tp229
Rp230
sg19
g1
(g20
g21
Ntp231
Rp232
(dp233
g25
I01
sg26
(lp234
sg28
I0
sg29
I01
sg30
(F-0.12
F-0.0
F-0.85
F-0.85
F-0.11
tp235
sbsbag1
(g2
g3
(lp236
I1
aI1
aI1
aI1
aI1
aI1
aI0
aI1
aI0
aI1
aI1
aI1
aI1
aI0
aI1
aI1
aI1
aI1
aI0
aI1
aI1
aI0
aI1
aI1
aI1
aI1
aI0
aI1
aI0
atp237
Rp238
(dp239
g8
g9
(g13
S'u\x9en\xcf\xf0\xf6!@'
p240
tp241
Rp242
sg19
g1
(g20
g21
Ntp243
Rp244
(dp245
g25
I01
sg26
(lp246
sg28
I0
sg29
I01
sg30
(F-0.14
F-0.0
F-0.82
F-0.83
F-0.14
tp247
sbsbag34
ag1
(g2
g3
(lp248
I0
aI0
aI0
aI0
aI1
aI1
aI0
aI1
aI0
aI1
aI1
aI1
aI0
aI0
aI0
aI0
aI0
aI0
aI0
aI1
aI1
aI0
aI1
aI1
aI0
aI0
aI0
aI1
aI0
atp249
Rp250
(dp251
g8
g9
(g13
S'\xb3&\x12>\xb7t1@'
p252
tp253
Rp254
sg19
g1
(g20
g21
Ntp255
Rp256
(dp257
g25
I01
sg26
(lp258
sg28
I0
sg29
I01
sg30
(F-0.47
F-0.0
F-0.41
F-0.53
F-0.47
tp259
sbsbag1
(g2
g3
(lp260
I1
aI1
aI0
aI0
aI1
aI1
aI0
aI1
aI0
aI1
aI1
aI1
aI1
aI0
aI0
aI0
aI0
aI0
aI0
aI0
aI0
aI0
aI1
aI1
aI0
aI0
aI0
aI0
aI1
atp261
Rp262
(dp263
g8
g9
(g13
S"\xf4\x92m\xd88'(@"
p264
tp265
Rp266
sg19
g1
(g20
g21
Ntp267
Rp268
(dp269
g25
I01
sg26
(lp270
sg28
I0
sg29
I01
sg30
(F-0.43
F-0.0
F-0.47
F-0.56
F-0.41
tp271
sbsbag1
(g2
g3
(lp272
I1
aI1
aI0
aI0
aI0
aI1
aI1
aI1
aI0
aI1
aI1
aI1
aI1
aI0
aI0
aI1
aI1
aI1
aI1
aI1
aI1
aI0
aI1
aI0
aI0
aI0
aI0
aI1
aI0
atp273
Rp274
(dp275
g8
g9
(g13
S'nR\xcd\xb2\xa8$\x17@'
p276
tp277
Rp278
sg19
g1
(g20
g21
Ntp279
Rp280
(dp281
g25
I01
sg26
(lp282
sg28
I0
sg29
I01
sg30
(F-0.29
F-0.0
F-0.59
F-0.73
F-0.26
tp283
sbsbag190
ag1
(g2
g3
(lp284
I0
aI0
aI0
aI0
aI0
aI1
aI0
aI1
aI0
aI1
aI1
aI1
aI0
aI0
aI0
aI0
aI0
aI1
aI1
aI1
aI1
aI0
aI1
aI0
aI0
aI0
aI0
aI1
aI0
atp285
Rp286
(dp287
g8
g9
(g13
S'\x07N~\xca74!@'
p288
tp289
Rp290
sg19
g1
(g20
g21
Ntp291
Rp292
(dp293
g25
I01
sg26
(lp294
sg28
I0
sg29
I01
sg30
(F-0.51
F-0.0
F-0.34
F-0.5
F-0.5
tp295
sbsbag1
(g2
g3
(lp296
I0
aI1
aI1
aI1
aI1
aI1
aI0
aI0
aI0
aI1
aI0
aI0
aI0
aI0
aI0
aI0
aI0
aI0
aI0
aI0
aI0
aI0
aI0
aI0
aI0
aI0
aI0
aI0
aI0
atp297
Rp298
(dp299
g8
g9
(g13
S'\xc7\xdbR\xca\xe4\xd4,@'
p300
tp301
Rp302
sg19
g1
(g20
g21
Ntp303
Rp304
(dp305
g25
I01
sg26
(lp306
sg28
I0
sg29
I01
sg30
(F-0.73
F-0.0
F-0.25
F-0.26
F-0.72
tp307
sbsbag130
ag1
(g2
g3
(lp308
I0
aI0
aI0
aI0
aI1
aI1
aI0
aI0
aI0
aI1
aI1
aI1
aI0
aI0
aI0
aI0
aI0
aI1
aI1
aI0
aI0
aI0
aI1
aI0
aI0
aI0
aI0
aI0
aI1
atp309
Rp310
(dp311
g8
g9
(g13
S"\x15yG\xe6\xfb')@"
p312
tp313
Rp314
sg19
g1
(g20
g21
Ntp315
Rp316
(dp317
g25
I01
sg26
(lp318
sg28
I0
sg29
I01
sg30
(F-0.57
F-0.0
F-0.33
F-0.42
F-0.57
tp319
sbsbag1
(g2
g3
(lp320
I1
aI1
aI1
aI0
aI0
aI1
aI0
aI1
aI0
aI1
aI1
aI1
aI0
aI0
aI0
aI0
aI1
aI1
aI0
aI1
aI1
aI0
aI1
aI1
aI1
aI1
aI0
aI0
aI0
atp321
Rp322
(dp323
g8
g9
(g13
S'\xd7\xb7\x8c%\xb8\x90\x18@'
p324
tp325
Rp326
sg19
g1
(g20
g21
Ntp327
Rp328
(dp329
g25
I01
sg26
(lp330
sg28
I0
sg29
I01
sg30
(F-0.35
F-0.0
F-0.62
F-0.6
F-0.33
tp331
sbsbag190
ag178
ag1
(g2
g3
(lp332
I1
aI1
aI1
aI0
aI0
aI1
aI0
aI1
aI0
aI1
aI1
aI1
aI1
aI0
aI0
aI1
aI0
aI1
aI1
aI1
aI1
aI0
aI1
aI0
aI0
aI0
aI0
aI1
aI0
atp333
Rp334
(dp335
g8
g9
(g13
S'.\x85\xf3E\x96\xa4\x1b@'
p336
tp337
Rp338
sg19
g1
(g20
g21
Ntp339
Rp340
(dp341
g25
I01
sg26
(lp342
sg28
I0
sg29
I01
sg30
(F-0.31
F-0.0
F-0.58
F-0.7
F-0.28
tp343
sbsbag34
ag334
ag82
ag1
(g2
g3
(lp344
I1
aI0
aI0
aI0
aI0
aI1
aI1
aI1
aI0
aI1
aI1
aI1
aI1
aI0
aI1
aI0
aI0
aI0
aI1
aI1
aI1
aI0
aI1
aI0
aI0
aI0
aI1
aI0
aI0
atp345
Rp346
(dp347
g8
g9
(g13
S';\xaf\xa8;O\xbb&@'
p348
tp349
Rp350
sg19
g1
(g20
g21
Ntp351
Rp352
(dp353
g25
I01
sg26
(lp354
sg28
I0
sg29
I01
sg30
(F-0.37
F-0.0
F-0.53
F-0.66
F-0.36
tp355
sbsbag1
(g2
g3
(lp356
I0
aI0
aI0
aI0
aI0
aI1
aI1
aI1
aI0
aI1
aI1
aI1
aI1
aI0
aI0
aI1
aI1
aI1
aI1
aI1
aI1
aI0
aI1
aI0
aI0
aI0
aI0
aI0
aI0
atp357
Rp358
(dp359
g8
g9
(g13
S'\x83\x86\xcc<\xdf\xb7&@'
p360
tp361
Rp362
sg19
g1
(g20
g21
Ntp363
Rp364
(dp365
g25
I01
sg26
(lp366
sg28
I0
sg29
I01
sg30
(F-0.41
F-0.0
F-0.49
F-0.58
F-0.4
tp367
sbsbag1
(g2
g3
(lp368
I1
aI1
aI0
aI0
aI1
aI1
aI0
aI1
aI0
aI1
aI1
aI1
aI0
aI0
aI0
aI0
aI0
aI0
aI0
aI0
aI1
aI0
aI1
aI0
aI0
aI0
aI0
aI0
aI0
atp369
Rp370
(dp371
g8
g9
(g13
S'\xc8\xbc=\xec\x94\xf0&@'
p372
tp373
Rp374
sg19
g1
(g20
g21
Ntp375
Rp376
(dp377
g25
I01
sg26
(lp378
sg28
I0
sg29
I01
sg30
(F-0.55
F-0.0
F-0.37
F-0.43
F-0.53
tp379
sbsbag178
ag1
(g2
g3
(lp380
I0
aI0
aI0
aI0
aI0
aI0
aI0
aI1
aI0
aI1
aI0
aI0
aI0
aI0
aI0
aI0
aI0
aI0
aI0
aI0
aI0
aI0
aI0
aI0
aI0
aI0
aI0
aI0
aI0
atp381
Rp382
(dp383
g8
g9
(g13
S'\x0e2x\xb5\xfb\xf7\x19@'
p384
tp385
Rp386
sg19
g1
(g20
g21
Ntp387
Rp388
(dp389
g25
I01
sg26
(lp390
sg28
I0
sg29
I01
sg30
(F-0.84
F-0.0
F-0.12
F-0.17
F-0.83
tp391
sbsbag190
ag142
ag178
ag1
(g2
g3
(lp392
I0
aI1
aI1
aI1
aI1
aI1
aI0
aI1
aI0
aI1
aI1
aI1
aI0
aI1
aI0
aI1
aI1
aI1
aI0
aI1
aI1
aI0
aI1
aI1
aI1
aI1
aI0
aI1
aI0
atp393
Rp394
(dp395
g8
g9
(g13
S'B\\-^~\xde\x1c@'
p396
tp397
Rp398
sg19
g1
(g20
g21
Ntp399
Rp400
(dp401
g25
I01
sg26
(lp402
sg28
I0
sg29
I01
sg30
(F-0.18
F-0.0
F-0.78
F-0.77
F-0.18
tp403
sbsbag1
(g2
g3
(lp404
I0
aI1
aI1
aI1
aI1
aI1
aI0
aI1
aI0
aI1
aI1
aI1
aI0
aI1
aI0
aI1
aI1
aI1
aI0
aI0
aI0
aI0
aI1
aI1
aI1
aI1
aI0
aI1
aI0
atp405
Rp406
(dp407
g8
g9
(g13
S'\xb0\xd4\x1dds[\x18@'
p408
tp409
Rp410
sg19
g1
(g20
g21
Ntp411
Rp412
(dp413
g25
I01
sg26
(lp414
sg28
I0
sg29
I01
sg30
(F-0.22
F-0.0
F-0.76
F-0.73
F-0.23
tp415
sbsbag178
ag46
ag214
ag106
ag1
(g2
g3
(lp416
I1
aI1
aI0
aI0
aI0
aI1
aI1
aI1
aI0
aI1
aI1
aI1
aI1
aI0
aI1
aI1
aI1
aI1
aI0
aI1
aI1
aI0
aI1
aI1
aI1
aI1
aI0
aI1
aI0
atp417
Rp418
(dp419
g8
g9
(g13
S'\xca\x80;\x07;= @'
p420
tp421
Rp422
sg19
g1
(g20
g21
Ntp423
Rp424
(dp425
g25
I01
sg26
(lp426
sg28
I0
sg29
I01
sg30
(F-0.18
F-0.0
F-0.74
F-0.82
F-0.18
tp427
sbsbag286
ag1
(g2
g3
(lp428
I0
aI0
aI0
aI0
aI1
aI1
aI0
aI0
aI0
aI1
aI1
aI1
aI0
aI0
aI0
aI0
aI0
aI1
aI0
aI0
aI0
aI0
aI0
aI0
aI0
aI0
aI0
aI0
aI0
atp429
Rp430
(dp431
g8
g9
(g13
S'\xe9z\x8b\n7\x11*@'
p432
tp433
Rp434
sg19
g1
(g20
g21
Ntp435
Rp436
(dp437
g25
I01
sg26
(lp438
sg28
I0
sg29
I01
sg30
(F-0.71
F-0.0
F-0.23
F-0.26
F-0.71
tp439
sbsbag178
ag202
ag34
ag46
ag130
ag1
(g2
g3
(lp440
I1
aI1
aI1
aI1
aI1
aI1
aI1
aI1
aI0
aI1
aI0
aI1
aI1
aI0
aI1
aI1
aI1
aI1
aI1
aI1
aI1
aI0
aI1
aI1
aI1
aI1
aI0
aI1
aI0
atp441
Rp442
(dp443
g8
g9
(g13
S'\xf2\x11\xc6;\xb82&@'
p444
tp445
Rp446
sg19
g1
(g20
g21
Ntp447
Rp448
(dp449
g25
I01
sg26
(lp450
sg28
I0
sg29
I01
sg30
(F-0.12
F-0.0
F-0.84
F-0.87
F-0.12
tp451
sbsbag142
ag370
ag394
ag334
ag82
ag1
(g2
g3
(lp452
I1
aI1
aI0
aI0
aI0
aI1
aI0
aI1
aI0
aI1
aI1
aI1
aI0
aI0
aI0
aI0
aI0
aI0
aI0
aI0
aI0
aI0
aI1
aI0
aI0
aI0
aI0
aI0
aI0
atp453
Rp454
(dp455
g8
g9
(g13
S'5\x96\xc9\x8d@I0@'
p456
tp457
Rp458
sg19
g1
(g20
g21
Ntp459
Rp460
(dp461
g25
I01
sg26
(lp462
sg28
I0
sg29
I01
sg30
(F-0.63
F-0.0
F-0.27
F-0.36
F-0.6
tp463
sbsbag1
(g2
g3
(lp464
I0
aI0
aI0
aI0
aI1
aI1
aI1
aI1
aI0
aI1
aI1
aI1
aI1
aI0
aI0
aI1
aI0
aI1
aI1
aI1
aI1
aI0
aI1
aI0
aI0
aI0
aI1
aI0
aI0
atp465
Rp466
(dp467
g8
g9
(g13
S'h\xb8L\x8fj\x8b\x1c@'
p468
tp469
Rp470
sg19
g1
(g20
g21
Ntp471
Rp472
(dp473
g25
I01
sg26
(lp474
sg28
I0
sg29
I01
sg30
(F-0.35
F-0.0
F-0.53
F-0.63
F-0.35
tp475
sbsbag166
ag202
ag190
ag226
ag1
(g2
g3
(lp476
I0
aI0
aI0
aI0
aI0
aI1
aI0
aI0
aI0
aI0
aI1
aI1
aI0
aI0
aI0
aI0
aI0
aI0
aI0
aI0
aI0
aI0
aI1
aI0
aI0
aI0
aI0
aI0
aI0
atp477
Rp478
(dp479
g8
g9
(g13
S'1\x05\xf8\x1f\xffs$@'
p480
tp481
Rp482
sg19
g1
(g20
g21
Ntp483
Rp484
(dp485
g25
I01
sg26
(lp486
sg28
I0
sg29
I01
sg30
(F-0.78
F-0.0
F-0.16
F-0.22
F-0.76
tp487
sbsbag1
(g2
g3
(lp488
I0
aI0
aI0
aI0
aI0
aI1
aI0
aI0
aI0
aI1
aI0
aI0
aI0
aI0
aI0
aI0
aI0
aI0
aI0
aI0
aI0
aI0
aI1
aI0
aI0
aI0
aI0
aI0
aI0
atp489
Rp490
(dp491
g8
g9
(g13
S'd\xb5\xb3Z\x92\xba"@'
p492
tp493
Rp494
sg19
g1
(g20
g21
Ntp495
Rp496
(dp497
g25
I01
sg26
(lp498
sg28
I0
sg29
I01
sg30
(F-0.78
F-0.0
F-0.15
F-0.23
F-0.76
tp499
sbsbag142
ag1
(g2
g3
(lp500
I0
aI0
aI0
aI0
aI1
aI1
aI1
aI1
aI0
aI1
aI1
aI1
aI1
aI0
aI1
aI1
aI0
aI1
aI1
aI1
aI0
aI0
aI1
aI0
aI0
aI0
aI0
aI1
aI0
atp501
Rp502
(dp503
g8
g9
(g13
S'zI\xdd\x00\x94}"@'
p504
tp505
Rp506
sg19
g1
(g20
g21
Ntp507
Rp508
(dp509
g25
I01
sg26
(lp510
sg28
I0
sg29
I01
sg30
(F-0.35
F-0.0
F-0.54
F-0.66
F-0.35
tp511
sbsbag70
ag1
(g2
g3
(lp512
I0
aI1
aI0
aI0
aI1
aI1
aI0
aI1
aI0
aI1
aI1
aI1
aI0
aI0
aI0
aI0
aI0
aI0
aI0
aI0
aI0
aI0
aI1
aI1
aI0
aI0
aI0
aI1
aI0
atp513
Rp514
(dp515
g8
g9
(g13
S'\xeb\xf6\x1b\xdb\xb8\xef+@'
p516
tp517
Rp518
sg19
g1
(g20
g21
Ntp519
Rp520
(dp521
g25
I01
sg26
(lp522
sg28
I0
sg29
I01
sg30
(F-0.51
F-0.0
F-0.38
F-0.48
F-0.51
tp523
sbsbag202
ag322
ag478
ag118
ag6
ag286
ag34
ag274
ag214
ag490
ag34
ag82
ag478
ag1
(g2
g3
(lp524
I1
aI1
aI1
aI1
aI1
aI1
aI1
aI0
aI0
aI0
aI0
aI1
aI1
aI0
aI1
aI1
aI1
aI1
aI1
aI1
aI1
aI0
aI1
aI1
aI1
aI1
aI0
aI1
aI0
atp525
Rp526
(dp527
g8
g9
(g13
S'\xd6\x9d\xa4\xd7\t/*@'
p528
tp529
Rp530
sg19
g1
(g20
g21
Ntp531
Rp532
(dp533
g25
I01
sg26
(lp534
sg28
I0
sg29
I01
sg30
(F-0.2
F-0.0
F-0.79
F-0.79
F-0.21
tp535
sbsbag34
ag118
ag118
ag34
a.