ccopy_reg
_reconstructor
p0
(cdeap.tools.support
Logbook
p1
c__builtin__
list
p2
(lp3
(dp4
S'hv|spread|igd|frontier#|valid#'
p5
(F0.039
F0.55
F0.029
I66
I0
tp6
sS'timestamp'
p7
F2.691380023956299
sS'evals'
p8
I100
sS'gen'
p9
I0
sa(dp10
g5
(F0.086
F0.633
F0.05
I100
I12
tp11
sg7
F84.07858204841614
sg8
I100
sg9
I100
sa(dp12
g5
(F0.095
F0.677
F0.059
I100
I39
tp13
sg7
F174.65596890449524
sg8
I100
sg9
I200
sa(dp14
g5
(F0.097
F0.656
F0.064
I100
I28
tp15
sg7
F267.44320702552795
sg8
I100
sg9
I300
sa(dp16
g5
(F0.099
F0.621
F0.068
I100
I35
tp17
sg7
F358.4270009994507
sg8
I100
sg9
I400
sa(dp18
g5
(F0.099
F0.655
F0.069
I100
I36
tp19
sg7
F456.68468284606934
sg8
I100
sg9
I500
sa(dp20
g5
(F0.099
F0.571
F0.071
I100
I29
tp21
sg7
F552.6522510051727
sg8
I100
sg9
I600
sa(dp22
g5
(F0.099
F0.647
F0.076
I100
I32
tp23
sg7
F651.2100820541382
sg8
I100
sg9
I700
sa(dp24
g5
(F0.1
F0.634
F0.08
I100
I30
tp25
sg7
F749.3460779190063
sg8
I100
sg9
I800
sa(dp26
g5
(F0.101
F0.604
F0.081
I100
I22
tp27
sg7
F843.7643048763275
sg8
I100
sg9
I900
sa(dp28
g5
(F0.102
F0.63
F0.08
I100
I36
tp29
sg7
F939.4147980213165
sg8
I100
sg9
I1000
sa(dp30
g5
(F0.102
F0.544
F0.076
I100
I36
tp31
sg7
F1035.6419529914856
sg8
I100
sg9
I1100
sa(dp32
g5
(F0.102
F0.61
F0.076
I100
I35
tp33
sg7
F1132.0567219257355
sg8
I100
sg9
I1200
sa(dp34
g5
(F0.102
F0.591
F0.075
I100
I37
tp35
sg7
F1223.535444021225
sg8
I100
sg9
I1300
sa(dp36
g5
(F0.103
F0.634
F0.075
I100
I30
tp37
sg7
F1321.4820420742035
sg8
I100
sg9
I1400
sa(dp38
g5
(F0.103
F0.641
F0.072
I100
I22
tp39
sg7
F1418.9082489013672
sg8
I100
sg9
I1500
sa(dp40
g5
(F0.104
F0.64
F0.078
I100
I30
tp41
sg7
F1516.6454629898071
sg8
I100
sg9
I1600
sa(dp42
g5
(F0.103
F0.649
F0.078
I100
I31
tp43
sg7
F1610.9340019226074
sg8
I100
sg9
I1700
sa(dp44
g5
(F0.103
F0.606
F0.073
I100
I37
tp45
sg7
F1708.6900169849396
sg8
I100
sg9
I1800
sa(dp46
g5
(F0.104
F0.664
F0.074
I100
I33
tp47
sg7
F1806.515867948532
sg8
I100
sg9
I1900
sa(dp48
g5
(F0.104
F0.63
F0.081
I100
I31
tp49
sg7
F1900.310154914856
sg8
I100
sg9
I2000
sa(dp50
g5
(F0.105
F0.585
F0.08
I100
I25
tp51
sg7
F1993.8252539634705
sg8
I100
sg9
I2100
satp52
Rp53
(dp54
S'log_header'
p55
I01
sS'header'
p56
(S'gen'
p57
S'evals'
p58
S'hv|spread|igd|frontier#|valid#'
p59
S'timestamp'
p60
tp61
sS'columns_len'
p62
(lp63
I4
aI5
aI30
aI9
asS'buffindex'
p64
I22
sS'chapters'
p65
ccollections
defaultdict
p66
(g1
tp67
Rp68
sb.