(lp0
I7
aI1
aI2
aI7
aI1
aI2
aI8
aI0
aI4
aI8
aI2
aI4
aI6
aI0
aI9
aI3
aI8
aI10
aI0
aI10
aI9
aI4
aI6
aI5
aI3
aI9
aI8
aI8
aI3
aI5
aI8
aI10
aI1
aI5
aI8
aI1
aI5
aI4
aI1
aI9
aI4
aI2
aI10
aI9
aI6
aI1
aI8
aI5
aI10
aI6
aI9
aI4
aI3
aI5
aI6
aI6
aI8
aI3
aI10
aI1
aI1
aI4
aI7
a.