(lp0
I22
aI64
aI47
aI45
aI52
aI72
aI61
aI85
aI72
aI67
aI72
aI36
aI68
aI37
aI27
aI78
aI82
aI90
aI72
aI69
aI27
aI60
aI47
aI38
aI42
aI45
aI75
aI19
aI85
aI50
aI43
aI91
aI49
aI31
aI19
aI84
aI90
aI67
aI73
aI97
aI84
aI58
aI75
aI12
aI22
aI82
aI93
aI78
aI35
aI57
aI81
aI45
aI16
aI37
aI75
aI22
aI90
aI25
aI45
aI95
aI43
aI39
aI90
a.