(lp0
F6.9296634678458755
aF5.812689128120382
aF5.069242875170681
aF9.28730579068631
aF9.27229952514252
aF5.586729547004085
aF6.482723974890001
aF7.405572985230672
aF7.2790067954295745
aF5.353127783912806
aF8.372638032647211
aF9.836726722828145
aF8.489027061234188
aF5.621634443338234
aF9.430936691015809
aF9.640767720403673
aF9.076822181791577
aF7.455312102120526
aF9.207395890878757
aF9.45278755449023
aF9.179875733290979
aF5.751602271364121
aF5.344872216431317
aF8.261967814054469
aF8.884637715258322
aF8.346136925606068
aF8.316922415372455
aF9.865806838150931
aF6.866660893246291
aF8.368136711297154
aF6.851061048148587
aF7.695117516481883
aF9.25939901388757
aF9.037120766691789
aF6.939646819770569
aF6.323378221192675
aF7.960283140556179
aF5.706482705022291
aF6.801633435531036
aF9.52713417580064
aF9.853253919054168
aF8.996265906194935
aF6.0215693155586125
aF5.574833779135357
aF5.513512270569524
aF8.40615615657867
aF8.297380176138507
aF6.931330950939998
aF8.746306805817007
aF7.021509939855551
aF9.278831838530522
aF5.818489408007267
aF6.115643706754268
aF7.132999479087219
aF8.81060594009525
aF9.392567027979712
aF9.068046414629618
aF8.85067568410853
aF5.982728576611631
aF5.949408472938867
aF9.88885166714842
aF5.065529437496167
aF8.937461831523748
a.