(dp0
S'NSGA2_SIP'
p1
ccopy_reg
_reconstructor
p2
(cdeap.tools.support
Logbook
p3
c__builtin__
list
p4
(lp5
(dp6
S'hv|spread|igd|frontier#|valid#'
p7
(I0
I0
I0
I0
I0
tp8
sS'timestamp'
p9
F0.0376431941986084
sS'evals'
p10
I100
sS'gen'
p11
I0
sa(dp12
g7
g8
sg9
F8.163449048995972
sg10
I100
sg11
I100
sa(dp13
g7
g8
sg9
F16.284319162368774
sg10
I100
sg11
I200
sa(dp14
g7
g8
sg9
F24.44031000137329
sg10
I100
sg11
I300
sa(dp15
g7
g8
sg9
F32.480977058410645
sg10
I100
sg11
I400
sa(dp16
g7
g8
sg9
F40.51368808746338
sg10
I100
sg11
I500
satp17
Rp18
(dp19
S'log_header'
p20
I01
sS'header'
p21
(S'gen'
p22
S'evals'
p23
S'hv|spread|igd|frontier#|valid#'
p24
S'timestamp'
p25
tp26
sS'columns_len'
p27
(lp28
I3
aI5
aI30
aI9
asS'buffindex'
p29
I6
sS'chapters'
p30
ccollections
defaultdict
p31
(g3
tp32
Rp33
sbsS'SPEA2'
p34
g2
(g3
g4
(lp35
(dp36
g7
g8
sg9
F0.062380075454711914
sg10
I100
sg11
I0
sa(dp37
g7
g8
sg9
F125.55634903907776
sg10
I100
sg11
I100
sa(dp38
g7
g8
sg9
F270.7695059776306
sg10
I100
sg11
I200
sa(dp39
g7
g8
sg9
F418.9696800708771
sg10
I100
sg11
I300
sa(dp40
g7
g8
sg9
F564.3714380264282
sg10
I100
sg11
I400
sa(dp41
g7
g8
sg9
F709.1129810810089
sg10
I100
sg11
I500
satp42
Rp43
(dp44
g20
I01
sg21
g26
sg27
(lp45
I3
aI5
aI30
aI9
asg29
I6
sg30
g31
(g3
tp46
Rp47
sbsS'IBEA_SIP'
p48
g2
(g3
g4
(lp49
(dp50
g7
g8
sg9
F0.038046836853027344
sg10
I100
sg11
I0
sa(dp51
g7
g8
sg9
F6.85283899307251
sg10
I100
sg11
I100
sa(dp52
g7
g8
sg9
F13.769209861755371
sg10
I100
sg11
I200
sa(dp53
g7
g8
sg9
F20.751839876174927
sg10
I100
sg11
I300
sa(dp54
g7
g8
sg9
F27.91603398323059
sg10
I100
sg11
I400
sa(dp55
g7
g8
sg9
F35.298481941223145
sg10
I100
sg11
I500
satp56
Rp57
(dp58
g20
I01
sg21
g26
sg27
(lp59
I3
aI5
aI30
aI9
asg29
I6
sg30
g31
(g3
tp60
Rp61
sbsS'IBEA'
p62
g2
(g3
g4
(lp63
(dp64
g7
g8
sg9
F0.062499046325683594
sg10
I100
sg11
I0
sa(dp65
g7
g8
sg9
F10.847187995910645
sg10
I100
sg11
I100
sa(dp66
g7
g8
sg9
F21.722702980041504
sg10
I100
sg11
I200
sa(dp67
g7
g8
sg9
F32.50595808029175
sg10
I100
sg11
I300
sa(dp68
g7
g8
sg9
F43.252198934555054
sg10
I100
sg11
I400
sa(dp69
g7
g8
sg9
F54.065629959106445
sg10
I100
sg11
I500
satp70
Rp71
(dp72
g20
I01
sg21
g26
sg27
(lp73
I3
aI5
aI30
aI9
asg29
I6
sg30
g31
(g3
tp74
Rp75
sbsS'SPEA2_SIP'
p76
g2
(g3
g4
(lp77
(dp78
g7
g8
sg9
F0.03764700889587402
sg10
I100
sg11
I0
sa(dp79
g7
g8
sg9
F56.44327092170715
sg10
I100
sg11
I100
sa(dp80
g7
g8
sg9
F121.78088903427124
sg10
I100
sg11
I200
sa(dp81
g7
g8
sg9
F189.46224689483643
sg10
I100
sg11
I300
sa(dp82
g7
g8
sg9
F254.94693088531494
sg10
I100
sg11
I400
sa(dp83
g7
g8
sg9
F324.69963693618774
sg10
I100
sg11
I500
satp84
Rp85
(dp86
g20
I01
sg21
g26
sg27
(lp87
I3
aI5
aI30
aI9
asg29
I6
sg30
g31
(g3
tp88
Rp89
sbsS'NSGA2'
p90
g2
(g3
g4
(lp91
(dp92
g7
g8
sg9
F0.061593055725097656
sg10
I100
sg11
I0
sa(dp93
g7
g8
sg9
F13.649790048599243
sg10
I100
sg11
I100
sa(dp94
g7
g8
sg9
F27.232113122940063
sg10
I100
sg11
I200
sa(dp95
g7
g8
sg9
F40.898086071014404
sg10
I100
sg11
I300
sa(dp96
g7
g8
sg9
F54.55714797973633
sg10
I100
sg11
I400
sa(dp97
g7
g8
sg9
F68.1396541595459
sg10
I100
sg11
I500
satp98
Rp99
(dp100
g20
I01
sg21
g26
sg27
(lp101
I3
aI5
aI30
aI9
asg29
I6
sg30
g31
(g3
tp102
Rp103
sbs.