(dp0
S'NSGA2_SIP'
p1
ccopy_reg
_reconstructor
p2
(cdeap.tools.support
Logbook
p3
c__builtin__
list
p4
(lp5
(dp6
S'hv|spread|igd|frontier#|valid#'
p7
(F0.114
F0.824
F0.0
I5
I31
tp8
sS'timestamp'
p9
F0.013134956359863281
sS'evals'
p10
I100
sS'gen'
p11
I0
sa(dp12
g7
(F0.102
F0.813
F0.0
I2
I86
tp13
sg9
F1.9946329593658447
sg10
I100
sg11
I100
sa(dp14
g7
(F0.102
F0.813
F0.0
I2
I80
tp15
sg9
F3.974259853363037
sg10
I100
sg11
I200
sa(dp16
g7
(F0.102
F0.813
F0.0
I2
I4
tp17
sg9
F5.951349973678589
sg10
I100
sg11
I300
sa(dp18
g7
(F0.102
F0.813
F0.0
I2
I4
tp19
sg9
F7.902621030807495
sg10
I100
sg11
I400
sa(dp20
g7
(F0.102
F0.813
F0.0
I2
I4
tp21
sg9
F9.855654001235962
sg10
I100
sg11
I500
satp22
Rp23
(dp24
S'log_header'
p25
I01
sS'header'
p26
(S'gen'
p27
S'evals'
p28
S'hv|spread|igd|frontier#|valid#'
p29
S'timestamp'
p30
tp31
sS'columns_len'
p32
(lp33
I3
aI5
aI30
aI9
asS'buffindex'
p34
I6
sS'chapters'
p35
ccollections
defaultdict
p36
(g3
tp37
Rp38
sbsS'SPEA2'
p39
g2
(g3
g4
(lp40
(dp41
g7
(I0
I0
I0
I0
I0
tp42
sg9
F0.014944791793823242
sg10
I100
sg11
I0
sa(dp43
g7
g42
sg9
F126.4547348022461
sg10
I100
sg11
I100
sa(dp44
g7
g42
sg9
F255.32255387306213
sg10
I100
sg11
I200
sa(dp45
g7
g42
sg9
F383.4742147922516
sg10
I100
sg11
I300
sa(dp46
g7
g42
sg9
F513.51837682724
sg10
I100
sg11
I400
sa(dp47
g7
g42
sg9
F640.7492938041687
sg10
I100
sg11
I500
satp48
Rp49
(dp50
g25
I01
sg26
g31
sg32
(lp51
I3
aI5
aI30
aI9
asg34
I6
sg35
g36
(g3
tp52
Rp53
sbsS'IBEA_SIP'
p54
g2
(g3
g4
(lp55
(dp56
g7
(F0.103
F0.803
F0.048
I4
I17
tp57
sg9
F0.012074947357177734
sg10
I100
sg11
I0
sa(dp58
g7
(F0.102
F0.813
F0.0
I2
I18
tp59
sg9
F5.4698381423950195
sg10
I100
sg11
I100
sa(dp60
g7
(F0.102
F0.813
F0.0
I2
I12
tp61
sg9
F11.076596021652222
sg10
I100
sg11
I200
sa(dp62
g7
(F0.102
F0.813
F0.0
I2
I32
tp63
sg9
F16.646913051605225
sg10
I100
sg11
I300
sa(dp64
g7
(F0.062
F0.84
F0.0
I1
I15
tp65
sg9
F22.191956043243408
sg10
I100
sg11
I400
sa(dp66
g7
(F0.102
F0.813
F0.0
I2
I16
tp67
sg9
F27.802775144577026
sg10
I100
sg11
I500
satp68
Rp69
(dp70
g25
I01
sg26
g31
sg32
(lp71
I3
aI5
aI30
aI9
asg34
I6
sg35
g36
(g3
tp72
Rp73
sbsS'IBEA'
p74
g2
(g3
g4
(lp75
(dp76
g7
(F0.07
F0.942
F0.072
I3
I3
tp77
sg9
F0.0161130428314209
sg10
I100
sg11
I0
sa(dp78
g7
g42
sg9
F6.165724992752075
sg10
I100
sg11
I100
sa(dp79
g7
g42
sg9
F12.377649068832397
sg10
I100
sg11
I200
sa(dp80
g7
g42
sg9
F18.538615942001343
sg10
I100
sg11
I300
sa(dp81
g7
g42
sg9
F24.43037509918213
sg10
I100
sg11
I400
sa(dp82
g7
g42
sg9
F30.454587936401367
sg10
I100
sg11
I500
satp83
Rp84
(dp85
g25
I01
sg26
g31
sg32
(lp86
I3
aI5
aI30
aI9
asg34
I6
sg35
g36
(g3
tp87
Rp88
sbsS'SPEA2_SIP'
p89
g2
(g3
g4
(lp90
(dp91
g7
(F0.114
F0.824
F0.0
I5
I26
tp92
sg9
F0.012534141540527344
sg10
I100
sg11
I0
sa(dp93
g7
(F0.102
F0.813
F0.0
I2
I22
tp94
sg9
F153.15870714187622
sg10
I100
sg11
I100
sa(dp95
g7
(F0.102
F0.813
F0.0
I2
I22
tp96
sg9
F307.07948899269104
sg10
I100
sg11
I200
sa(dp97
g7
(F0.102
F0.813
F0.0
I2
I22
tp98
sg9
F465.2405090332031
sg10
I100
sg11
I300
sa(dp99
g7
(F0.102
F0.813
F0.0
I2
I22
tp100
sg9
F620.3424940109253
sg10
I100
sg11
I400
sa(dp101
g7
(F0.102
F0.813
F0.0
I2
I22
tp102
sg9
F778.7163860797882
sg10
I100
sg11
I500
satp103
Rp104
(dp105
g25
I01
sg26
g31
sg32
(lp106
I3
aI5
aI30
aI9
asg34
I6
sg35
g36
(g3
tp107
Rp108
sbsS'NSGA2'
p109
g2
(g3
g4
(lp110
(dp111
g7
(F0.047
F1.0
F0.079
I2
I2
tp112
sg9
F0.015256881713867188
sg10
I100
sg11
I0
sa(dp113
g7
g42
sg9
F5.720180988311768
sg10
I100
sg11
I100
sa(dp114
g7
g42
sg9
F11.329355001449585
sg10
I100
sg11
I200
sa(dp115
g7
g42
sg9
F17.004799842834473
sg10
I100
sg11
I300
sa(dp116
g7
g42
sg9
F22.601310968399048
sg10
I100
sg11
I400
sa(dp117
g7
g42
sg9
F28.28006386756897
sg10
I100
sg11
I500
satp118
Rp119
(dp120
g25
I01
sg26
g31
sg32
(lp121
I3
aI5
aI30
aI9
asg34
I6
sg35
g36
(g3
tp122
Rp123
sbs.