(dp0
S'NSGA2_SIP'
p1
ccopy_reg
_reconstructor
p2
(cdeap.tools.support
Logbook
p3
c__builtin__
list
p4
(lp5
(dp6
S'hv|spread|igd|frontier#|valid#'
p7
(F0.093
F0.873
F0.027
I5
I7
tp8
sS'timestamp'
p9
F0.04908490180969238
sS'evals'
p10
I100
sS'gen'
p11
I0
sa(dp12
g7
(F0.064
F0.954
F0.028
I5
I5
tp13
sg9
F9.140726089477539
sg10
I100
sg11
I100
sa(dp14
g7
(F0.085
F0.826
F0.027
I8
I9
tp15
sg9
F18.45699405670166
sg10
I100
sg11
I200
sa(dp16
g7
(F0.135
F0.768
F0.031
I21
I21
tp17
sg9
F27.884342908859253
sg10
I100
sg11
I300
sa(dp18
g7
(F0.091
F0.864
F0.025
I18
I19
tp19
sg9
F37.253801107406616
sg10
I100
sg11
I400
sa(dp20
g7
(F0.084
F0.816
F0.032
I14
I15
tp21
sg9
F46.71275305747986
sg10
I100
sg11
I500
satp22
Rp23
(dp24
S'log_header'
p25
I01
sS'header'
p26
(S'gen'
p27
S'evals'
p28
g7
S'timestamp'
p29
tp30
sS'columns_len'
p31
(lp32
I3
aI5
aI30
aI9
asS'buffindex'
p33
I6
sS'chapters'
p34
ccollections
defaultdict
p35
(g3
tp36
Rp37
sbsS'SPEA2'
p38
g2
(g3
g4
(lp39
(dp40
g7
(I0
I0
I0
I0
I0
tp41
sg9
F0.043456077575683594
sg10
I100
sg11
I0
sa(dp42
g7
g41
sg9
F70.40289306640625
sg10
I100
sg11
I100
sa(dp43
g7
g41
sg9
F153.78466391563416
sg10
I100
sg11
I200
sa(dp44
g7
g41
sg9
F236.78315687179565
sg10
I100
sg11
I300
sa(dp45
g7
g41
sg9
F321.29867696762085
sg10
I100
sg11
I400
sa(dp46
g7
g41
sg9
F401.2495789527893
sg10
I100
sg11
I500
satp47
Rp48
(dp49
g25
I01
sg26
g30
sg31
(lp50
I3
aI5
aI30
aI9
asg33
I6
sg34
g35
(g3
tp51
Rp52
sbsS'IBEA_SIP'
p53
g2
(g3
g4
(lp54
(dp55
g7
(F0.099
F0.913
F0.024
I9
I10
tp56
sg9
F0.057008981704711914
sg10
I100
sg11
I0
sa(dp57
g7
g41
sg9
F7.522955894470215
sg10
I100
sg11
I100
sa(dp58
g7
g41
sg9
F15.284540891647339
sg10
I100
sg11
I200
sa(dp59
g7
g41
sg9
F22.968858003616333
sg10
I100
sg11
I300
sa(dp60
g7
g41
sg9
F30.699007034301758
sg10
I100
sg11
I400
sa(dp61
g7
(F0.07
F0.972
F0.031
I2
I3
tp62
sg9
F38.04041600227356
sg10
I100
sg11
I500
satp63
Rp64
(dp65
g25
I01
sg26
g30
sg31
(lp66
I3
aI5
aI30
aI9
asg33
I6
sg34
g35
(g3
tp67
Rp68
sbsS'IBEA'
p69
g2
(g3
g4
(lp70
(dp71
g7
g41
sg9
F0.04385685920715332
sg10
I100
sg11
I0
sa(dp72
g7
g41
sg9
F8.503959894180298
sg10
I100
sg11
I100
sa(dp73
g7
g41
sg9
F16.57711100578308
sg10
I100
sg11
I200
sa(dp74
g7
g41
sg9
F24.468504905700684
sg10
I100
sg11
I300
sa(dp75
g7
g41
sg9
F32.36756896972656
sg10
I100
sg11
I400
sa(dp76
g7
g41
sg9
F40.282840967178345
sg10
I100
sg11
I500
satp77
Rp78
(dp79
g25
I01
sg26
g30
sg31
(lp80
I3
aI5
aI30
aI9
asg33
I6
sg34
g35
(g3
tp81
Rp82
sbsS'SPEA2_SIP'
p83
g2
(g3
g4
(lp84
(dp85
g7
(F0.087
F0.914
F0.027
I5
I5
tp86
sg9
F0.046649932861328125
sg10
I100
sg11
I0
sa(dp87
g7
g41
sg9
F54.68041515350342
sg10
I100
sg11
I100
sa(dp88
g7
g41
sg9
F118.35896515846252
sg10
I100
sg11
I200
sa(dp89
g7
g41
sg9
F183.16921710968018
sg10
I100
sg11
I300
sa(dp90
g7
g41
sg9
F251.43092393875122
sg10
I100
sg11
I400
sa(dp91
g7
g41
sg9
F319.4173240661621
sg10
I100
sg11
I500
satp92
Rp93
(dp94
g25
I01
sg26
g30
sg31
(lp95
I3
aI5
aI30
aI9
asg33
I6
sg34
g35
(g3
tp96
Rp97
sbsS'NSGA2'
p98
g2
(g3
g4
(lp99
(dp100
g7
g41
sg9
F0.04453897476196289
sg10
I100
sg11
I0
sa(dp101
g7
g41
sg9
F10.485962867736816
sg10
I100
sg11
I100
sa(dp102
g7
g41
sg9
F20.95099186897278
sg10
I100
sg11
I200
sa(dp103
g7
g41
sg9
F31.774791955947876
sg10
I100
sg11
I300
sa(dp104
g7
g41
sg9
F42.809799909591675
sg10
I100
sg11
I400
sa(dp105
g7
g41
sg9
F53.830265045166016
sg10
I100
sg11
I500
satp106
Rp107
(dp108
g25
I01
sg26
g30
sg31
(lp109
I3
aI5
aI30
aI9
asg33
I6
sg34
g35
(g3
tp110
Rp111
sbs.