(dp0
S'NSGA2_SIP'
p1
ccopy_reg
_reconstructor
p2
(cdeap.tools.support
Logbook
p3
c__builtin__
list
p4
(lp5
(dp6
S'hv|spread|igd|frontier#|valid#'
p7
(I0
I0
I0
I0
I0
tp8
sS'timestamp'
p9
F0.1957409381866455
sS'evals'
p10
I100
sS'gen'
p11
I0
sa(dp12
g7
g8
sg9
F20.2088840007782
sg10
I100
sg11
I100
sa(dp13
g7
g8
sg9
F41.05151391029358
sg10
I100
sg11
I200
sa(dp14
g7
g8
sg9
F61.5523579120636
sg10
I100
sg11
I300
sa(dp15
g7
g8
sg9
F82.56989192962646
sg10
I100
sg11
I400
sa(dp16
g7
g8
sg9
F103.39418411254883
sg10
I100
sg11
I500
satp17
Rp18
(dp19
S'log_header'
p20
I01
sS'header'
p21
(S'gen'
p22
S'evals'
p23
S'hv|spread|igd|frontier#|valid#'
p24
S'timestamp'
p25
tp26
sS'columns_len'
p27
(lp28
I3
aI5
aI30
aI9
asS'buffindex'
p29
I6
sS'chapters'
p30
ccollections
defaultdict
p31
(g3
tp32
Rp33
sbsS'SPEA2'
p34
g2
(g3
g4
(lp35
(dp36
g7
g8
sg9
F0.3266909122467041
sg10
I100
sg11
I0
sa(dp37
g7
g8
sg9
F67.99384093284607
sg10
I100
sg11
I100
sa(dp38
g7
g8
sg9
F134.349534034729
sg10
I100
sg11
I200
sa(dp39
g7
g8
sg9
F199.95099806785583
sg10
I100
sg11
I300
sa(dp40
g7
g8
sg9
F266.8326950073242
sg10
I100
sg11
I400
sa(dp41
g7
g8
sg9
F332.6511609554291
sg10
I100
sg11
I500
satp42
Rp43
(dp44
g20
I01
sg21
g26
sg27
(lp45
I3
aI5
aI30
aI9
asg29
I6
sg30
g31
(g3
tp46
Rp47
sbsS'IBEA_SIP'
p48
g2
(g3
g4
(lp49
(dp50
g7
g8
sg9
F0.17870020866394043
sg10
I100
sg11
I0
sa(dp51
g7
g8
sg9
F19.060227155685425
sg10
I100
sg11
I100
sa(dp52
g7
g8
sg9
F38.298696994781494
sg10
I100
sg11
I200
sa(dp53
g7
g8
sg9
F57.79511308670044
sg10
I100
sg11
I300
sa(dp54
g7
g8
sg9
F76.7153091430664
sg10
I100
sg11
I400
sa(dp55
g7
g8
sg9
F95.56352019309998
sg10
I100
sg11
I500
satp56
Rp57
(dp58
g20
I01
sg21
g26
sg27
(lp59
I3
aI5
aI30
aI9
asg29
I6
sg30
g31
(g3
tp60
Rp61
sbsS'IBEA'
p62
g2
(g3
g4
(lp63
(dp64
g7
g8
sg9
F0.35256218910217285
sg10
I100
sg11
I0
sa(dp65
g7
g8
sg9
F31.767646074295044
sg10
I100
sg11
I100
sa(dp66
g7
g8
sg9
F62.46662521362305
sg10
I100
sg11
I200
sa(dp67
g7
g8
sg9
F93.26109504699707
sg10
I100
sg11
I300
sa(dp68
g7
g8
sg9
F123.95663714408875
sg10
I100
sg11
I400
sa(dp69
g7
g8
sg9
F154.7545850276947
sg10
I100
sg11
I500
satp70
Rp71
(dp72
g20
I01
sg21
g26
sg27
(lp73
I3
aI5
aI30
aI9
asg29
I6
sg30
g31
(g3
tp74
Rp75
sbsS'SPEA2_SIP'
p76
g2
(g3
g4
(lp77
(dp78
g7
g8
sg9
F0.18065690994262695
sg10
I100
sg11
I0
sa(dp79
g7
g8
sg9
F60.45967388153076
sg10
I100
sg11
I100
sa(dp80
g7
g8
sg9
F120.13515090942383
sg10
I100
sg11
I200
sa(dp81
g7
g8
sg9
F179.0114028453827
sg10
I100
sg11
I300
sa(dp82
g7
g8
sg9
F237.57682299613953
sg10
I100
sg11
I400
sa(dp83
g7
g8
sg9
F295.5068938732147
sg10
I100
sg11
I500
satp84
Rp85
(dp86
g20
I01
sg21
g26
sg27
(lp87
I3
aI5
aI30
aI9
asg29
I6
sg30
g31
(g3
tp88
Rp89
sbsS'NSGA2'
p90
g2
(g3
g4
(lp91
(dp92
g7
g8
sg9
F0.32605600357055664
sg10
I100
sg11
I0
sa(dp93
g7
g8
sg9
F34.41374897956848
sg10
I100
sg11
I100
sa(dp94
g7
g8
sg9
F69.22392916679382
sg10
I100
sg11
I200
sa(dp95
g7
g8
sg9
F104.4561870098114
sg10
I100
sg11
I300
sa(dp96
g7
g8
sg9
F139.54577708244324
sg10
I100
sg11
I400
sa(dp97
g7
g8
sg9
F174.56271815299988
sg10
I100
sg11
I500
satp98
Rp99
(dp100
g20
I01
sg21
g26
sg27
(lp101
I3
aI5
aI30
aI9
asg29
I6
sg30
g31
(g3
tp102
Rp103
sbs.