(dp0
S'NSGA2_SIP'
p1
ccopy_reg
_reconstructor
p2
(cdeap.tools.support
Logbook
p3
c__builtin__
list
p4
(lp5
(dp6
S'hv|spread|igd|frontier#|valid#'
p7
(I0
I0
I0
I0
I0
tp8
sS'timestamp'
p9
F0.21928095817565918
sS'evals'
p10
I100
sS'gen'
p11
I0
sa(dp12
g7
(F0.114
F0.947
F0.094
I8
I8
tp13
sg9
F24.490824937820435
sg10
I100
sg11
I100
sa(dp14
g7
(F0.085
F0.906
F0.078
I12
I12
tp15
sg9
F49.179198026657104
sg10
I100
sg11
I200
sa(dp16
g7
(F0.13
F0.903
F0.094
I28
I28
tp17
sg9
F74.27357697486877
sg10
I100
sg11
I300
sa(dp18
g7
(F0.108
F0.836
F0.097
I14
I14
tp19
sg9
F99.1140410900116
sg10
I100
sg11
I400
sa(dp20
g7
(F0.096
F0.883
F0.11
I15
I15
tp21
sg9
F123.84994792938232
sg10
I100
sg11
I500
satp22
Rp23
(dp24
S'log_header'
p25
I01
sS'header'
p26
(S'gen'
p27
S'evals'
p28
S'hv|spread|igd|frontier#|valid#'
p29
S'timestamp'
p30
tp31
sS'columns_len'
p32
(lp33
I3
aI5
aI30
aI9
asS'buffindex'
p34
I6
sS'chapters'
p35
ccollections
defaultdict
p36
(g3
tp37
Rp38
sbsS'SPEA2'
p39
g2
(g3
g4
(lp40
(dp41
g7
g8
sg9
F0.1472949981689453
sg10
I100
sg11
I0
sa(dp42
g7
g8
sg9
F60.59051513671875
sg10
I100
sg11
I100
sa(dp43
g7
g8
sg9
F129.52207493782043
sg10
I100
sg11
I200
sa(dp44
g7
g8
sg9
F204.12732601165771
sg10
I100
sg11
I300
sa(dp45
g7
g8
sg9
F284.50615096092224
sg10
I100
sg11
I400
sa(dp46
g7
g8
sg9
F367.9682490825653
sg10
I100
sg11
I500
satp47
Rp48
(dp49
g25
I01
sg26
g31
sg32
(lp50
I3
aI5
aI30
aI9
asg34
I6
sg35
g36
(g3
tp51
Rp52
sbsS'IBEA_SIP'
p53
g2
(g3
g4
(lp54
(dp55
g7
g8
sg9
F0.23628997802734375
sg10
I100
sg11
I0
sa(dp56
g7
(F0.092
F0.901
F0.039
I11
I32
tp57
sg9
F23.448018789291382
sg10
I100
sg11
I100
sa(dp58
g7
(F0.055
F0.991
F0.023
I3
I10
tp59
sg9
F46.550760984420776
sg10
I100
sg11
I200
sa(dp60
g7
(F0.087
F0.994
F0.031
I5
I27
tp61
sg9
F70.18817687034607
sg10
I100
sg11
I300
sa(dp62
g7
(F0.072
F0.91
F0.075
I8
I30
tp63
sg9
F94.28210091590881
sg10
I100
sg11
I400
sa(dp64
g7
(F0.09
F0.976
F0.035
I8
I22
tp65
sg9
F117.97591090202332
sg10
I100
sg11
I500
satp66
Rp67
(dp68
g25
I01
sg26
g31
sg32
(lp69
I3
aI5
aI30
aI9
asg34
I6
sg35
g36
(g3
tp70
Rp71
sbsS'IBEA'
p72
g2
(g3
g4
(lp73
(dp74
g7
g8
sg9
F0.17478680610656738
sg10
I100
sg11
I0
sa(dp75
g7
g8
sg9
F15.7063729763031
sg10
I100
sg11
I100
sa(dp76
g7
g8
sg9
F31.011863946914673
sg10
I100
sg11
I200
sa(dp77
g7
g8
sg9
F46.37993597984314
sg10
I100
sg11
I300
sa(dp78
g7
g8
sg9
F61.777490854263306
sg10
I100
sg11
I400
sa(dp79
g7
g8
sg9
F77.24569988250732
sg10
I100
sg11
I500
satp80
Rp81
(dp82
g25
I01
sg26
g31
sg32
(lp83
I3
aI5
aI30
aI9
asg34
I6
sg35
g36
(g3
tp84
Rp85
sbsS'SPEA2_SIP'
p86
g2
(g3
g4
(lp87
(dp88
g7
(F0.057
F0.76
F0.014
I1
I1
tp89
sg9
F0.2245481014251709
sg10
I100
sg11
I0
sa(dp90
g7
(F0.093
F0.799
F0.107
I68
I68
tp91
sg9
F64.75876998901367
sg10
I100
sg11
I100
sa(dp92
g7
(F0.108
F0.756
F0.112
I72
I72
tp93
sg9
F132.75031900405884
sg10
I100
sg11
I200
sa(dp94
g7
(F0.11
F0.704
F0.105
I74
I74
tp95
sg9
F200.93718600273132
sg10
I100
sg11
I300
sa(dp96
g7
(F0.111
F0.688
F0.108
I72
I72
tp97
sg9
F269.5166771411896
sg10
I100
sg11
I400
sa(dp98
g7
(F0.117
F0.702
F0.107
I78
I78
tp99
sg9
F338.0815920829773
sg10
I100
sg11
I500
satp100
Rp101
(dp102
g25
I01
sg26
g31
sg32
(lp103
I3
aI5
aI30
aI9
asg34
I6
sg35
g36
(g3
tp104
Rp105
sbsS'NSGA2'
p106
g2
(g3
g4
(lp107
(dp108
g7
g8
sg9
F0.14769983291625977
sg10
I100
sg11
I0
sa(dp109
g7
g8
sg9
F18.42987084388733
sg10
I100
sg11
I100
sa(dp110
g7
g8
sg9
F36.629833936691284
sg10
I100
sg11
I200
sa(dp111
g7
g8
sg9
F54.906678915023804
sg10
I100
sg11
I300
sa(dp112
g7
g8
sg9
F73.26189184188843
sg10
I100
sg11
I400
sa(dp113
g7
g8
sg9
F91.48944187164307
sg10
I100
sg11
I500
satp114
Rp115
(dp116
g25
I01
sg26
g31
sg32
(lp117
I3
aI5
aI30
aI9
asg34
I6
sg35
g36
(g3
tp118
Rp119
sbs.