(dp0
S'NSGA2_SIP'
p1
ccopy_reg
_reconstructor
p2
(cdeap.tools.support
Logbook
p3
c__builtin__
list
p4
(lp5
(dp6
S'hv|spread|igd|frontier#|valid#'
p7
(I0
I0
I0
I0
I0
tp8
sS'timestamp'
p9
F0.11324691772460938
sS'evals'
p10
I100
sS'gen'
p11
I0
sa(dp12
g7
(F0.167
F0.584
F0.052
I57
I57
tp13
sg9
F12.743597030639648
sg10
I100
sg11
I100
sa(dp14
g7
(F0.172
F0.627
F0.069
I42
I42
tp15
sg9
F25.332021951675415
sg10
I100
sg11
I200
sa(dp16
g7
(F0.18
F0.636
F0.05
I39
I39
tp17
sg9
F37.52448296546936
sg10
I100
sg11
I300
sa(dp18
g7
(F0.179
F0.623
F0.054
I42
I42
tp19
sg9
F49.880934953689575
sg10
I100
sg11
I400
sa(dp20
g7
(F0.179
F0.584
F0.057
I58
I58
tp21
sg9
F62.40542793273926
sg10
I100
sg11
I500
satp22
Rp23
(dp24
S'log_header'
p25
I01
sS'header'
p26
(S'gen'
p27
S'evals'
p28
S'hv|spread|igd|frontier#|valid#'
p29
S'timestamp'
p30
tp31
sS'columns_len'
p32
(lp33
I3
aI5
aI30
aI9
asS'buffindex'
p34
I6
sS'chapters'
p35
ccollections
defaultdict
p36
(g3
tp37
Rp38
sbsS'SPEA2'
p39
g2
(g3
g4
(lp40
(dp41
g7
g8
sg9
F0.11129498481750488
sg10
I100
sg11
I0
sa(dp42
g7
g8
sg9
F75.86621499061584
sg10
I100
sg11
I100
sa(dp43
g7
g8
sg9
F171.88725090026855
sg10
I100
sg11
I200
sa(dp44
g7
g8
sg9
F273.75648188591003
sg10
I100
sg11
I300
sa(dp45
g7
g8
sg9
F378.79927802085876
sg10
I100
sg11
I400
sa(dp46
g7
g8
sg9
F491.5271680355072
sg10
I100
sg11
I500
satp47
Rp48
(dp49
g25
I01
sg26
g31
sg32
(lp50
I3
aI5
aI30
aI9
asg34
I6
sg35
g36
(g3
tp51
Rp52
sbsS'IBEA_SIP'
p53
g2
(g3
g4
(lp54
(dp55
g7
(F0.06
F2.264
F0.032
I1
I1
tp56
sg9
F0.0956430435180664
sg10
I100
sg11
I0
sa(dp57
g7
(F0.114
F0.844
F0.027
I11
I42
tp58
sg9
F11.167515993118286
sg10
I100
sg11
I100
sa(dp59
g7
(F0.14
F0.871
F0.053
I21
I53
tp60
sg9
F22.338356018066406
sg10
I100
sg11
I200
sa(dp61
g7
(F0.141
F0.722
F0.036
I16
I44
tp62
sg9
F33.40776205062866
sg10
I100
sg11
I300
sa(dp63
g7
(F0.139
F0.866
F0.033
I10
I35
tp64
sg9
F44.38904595375061
sg10
I100
sg11
I400
sa(dp65
g7
(F0.147
F0.528
F0.04
I16
I25
tp66
sg9
F55.10482883453369
sg10
I100
sg11
I500
satp67
Rp68
(dp69
g25
I01
sg26
g31
sg32
(lp70
I3
aI5
aI30
aI9
asg34
I6
sg35
g36
(g3
tp71
Rp72
sbsS'IBEA'
p73
g2
(g3
g4
(lp74
(dp75
g7
g8
sg9
F0.1395251750946045
sg10
I100
sg11
I0
sa(dp76
g7
g8
sg9
F13.350726127624512
sg10
I100
sg11
I100
sa(dp77
g7
g8
sg9
F26.289704084396362
sg10
I100
sg11
I200
sa(dp78
g7
g8
sg9
F39.180095195770264
sg10
I100
sg11
I300
sa(dp79
g7
g8
sg9
F52.04540205001831
sg10
I100
sg11
I400
sa(dp80
g7
g8
sg9
F64.91497611999512
sg10
I100
sg11
I500
satp81
Rp82
(dp83
g25
I01
sg26
g31
sg32
(lp84
I3
aI5
aI30
aI9
asg34
I6
sg35
g36
(g3
tp85
Rp86
sbsS'SPEA2_SIP'
p87
g2
(g3
g4
(lp88
(dp89
g7
g8
sg9
F0.09282898902893066
sg10
I100
sg11
I0
sa(dp90
g7
(F0.137
F0.832
F0.052
I40
I40
tp91
sg9
F49.0889208316803
sg10
I100
sg11
I100
sa(dp92
g7
(F0.138
F0.837
F0.059
I30
I30
tp93
sg9
F109.03026580810547
sg10
I100
sg11
I200
sa(dp94
g7
(F0.143
F0.752
F0.065
I27
I27
tp95
sg9
F167.7831928730011
sg10
I100
sg11
I300
sa(dp96
g7
(F0.145
F0.676
F0.065
I23
I23
tp97
sg9
F227.06775188446045
sg10
I100
sg11
I400
sa(dp98
g7
(F0.146
F0.693
F0.064
I30
I30
tp99
sg9
F289.4215757846832
sg10
I100
sg11
I500
satp100
Rp101
(dp102
g25
I01
sg26
g31
sg32
(lp103
I3
aI5
aI30
aI9
asg34
I6
sg35
g36
(g3
tp104
Rp105
sbsS'NSGA2'
p106
g2
(g3
g4
(lp107
(dp108
g7
g8
sg9
F0.11190485954284668
sg10
I100
sg11
I0
sa(dp109
g7
g8
sg9
F16.273053884506226
sg10
I100
sg11
I100
sa(dp110
g7
g8
sg9
F32.57377290725708
sg10
I100
sg11
I200
sa(dp111
g7
g8
sg9
F48.83157181739807
sg10
I100
sg11
I300
sa(dp112
g7
g8
sg9
F64.77690291404724
sg10
I100
sg11
I400
sa(dp113
g7
g8
sg9
F80.70548295974731
sg10
I100
sg11
I500
satp114
Rp115
(dp116
g25
I01
sg26
g31
sg32
(lp117
I3
aI5
aI30
aI9
asg34
I6
sg35
g36
(g3
tp118
Rp119
sbs.