(dp0
S'NSGA2_SIP'
p1
ccopy_reg
_reconstructor
p2
(cdeap.tools.support
Logbook
p3
c__builtin__
list
p4
(lp5
(dp6
S'hv|spread|igd|frontier#|valid#'
p7
(F0.044
F0.6
F0.024
I1
I1
tp8
sS'timestamp'
p9
F0.04410290718078613
sS'evals'
p10
I100
sS'gen'
p11
I0
sa(dp12
g7
(F0.034
F1.56
F0.117
I1
I1
tp13
sg9
F10.466320991516113
sg10
I100
sg11
I100
sa(dp14
g7
(I0
I0
I0
I0
I0
tp15
sg9
F20.588968992233276
sg10
I100
sg11
I200
sa(dp16
g7
g15
sg9
F30.741867065429688
sg10
I100
sg11
I300
sa(dp17
g7
(F0.068
F0.891
F0.056
I2
I2
tp18
sg9
F40.938129901885986
sg10
I100
sg11
I400
sa(dp19
g7
g15
sg9
F51.14350891113281
sg10
I100
sg11
I500
satp20
Rp21
(dp22
S'log_header'
p23
I01
sS'header'
p24
(S'gen'
p25
S'evals'
p26
S'hv|spread|igd|frontier#|valid#'
p27
S'timestamp'
p28
tp29
sS'columns_len'
p30
(lp31
I3
aI5
aI30
aI9
asS'buffindex'
p32
I6
sS'chapters'
p33
ccollections
defaultdict
p34
(g3
tp35
Rp36
sbsS'SPEA2'
p37
g2
(g3
g4
(lp38
(dp39
g7
g15
sg9
F0.07113218307495117
sg10
I100
sg11
I0
sa(dp40
g7
g15
sg9
F63.524291038513184
sg10
I100
sg11
I100
sa(dp41
g7
g15
sg9
F142.4878430366516
sg10
I100
sg11
I200
sa(dp42
g7
g15
sg9
F232.96332621574402
sg10
I100
sg11
I300
sa(dp43
g7
g15
sg9
F324.76423501968384
sg10
I100
sg11
I400
sa(dp44
g7
g15
sg9
F414.53928804397583
sg10
I100
sg11
I500
satp45
Rp46
(dp47
g23
I01
sg24
g29
sg30
(lp48
I3
aI5
aI30
aI9
asg32
I6
sg33
g34
(g3
tp49
Rp50
sbsS'IBEA_SIP'
p51
g2
(g3
g4
(lp52
(dp53
g7
g15
sg9
F0.04259896278381348
sg10
I100
sg11
I0
sa(dp54
g7
(F0.089
F0.903
F0.098
I2
I3
tp55
sg9
F8.651036024093628
sg10
I100
sg11
I100
sa(dp56
g7
g15
sg9
F16.824108123779297
sg10
I100
sg11
I200
sa(dp57
g7
g15
sg9
F25.028473138809204
sg10
I100
sg11
I300
sa(dp58
g7
(F0.075
F0.972
F0.037
I2
I2
tp59
sg9
F33.337321043014526
sg10
I100
sg11
I400
sa(dp60
g7
(F0.067
F0.68
F0.051
I1
I2
tp61
sg9
F41.56823205947876
sg10
I100
sg11
I500
satp62
Rp63
(dp64
g23
I01
sg24
g29
sg30
(lp65
I3
aI5
aI30
aI9
asg32
I6
sg33
g34
(g3
tp66
Rp67
sbsS'IBEA'
p68
g2
(g3
g4
(lp69
(dp70
g7
g15
sg9
F0.07537698745727539
sg10
I100
sg11
I0
sa(dp71
g7
g15
sg9
F8.875610113143921
sg10
I100
sg11
I100
sa(dp72
g7
g15
sg9
F17.42966389656067
sg10
I100
sg11
I200
sa(dp73
g7
g15
sg9
F25.885191917419434
sg10
I100
sg11
I300
sa(dp74
g7
g15
sg9
F34.3837149143219
sg10
I100
sg11
I400
sa(dp75
g7
g15
sg9
F42.80522108078003
sg10
I100
sg11
I500
satp76
Rp77
(dp78
g23
I01
sg24
g29
sg30
(lp79
I3
aI5
aI30
aI9
asg32
I6
sg33
g34
(g3
tp80
Rp81
sbsS'SPEA2_SIP'
p82
g2
(g3
g4
(lp83
(dp84
g7
g15
sg9
F0.04457807540893555
sg10
I100
sg11
I0
sa(dp85
g7
(F0.077
F0.986
F0.046
I5
I5
tp86
sg9
F62.15681505203247
sg10
I100
sg11
I100
sa(dp87
g7
(F0.062
F2.077
F0.062
I1
I1
tp88
sg9
F130.16911101341248
sg10
I100
sg11
I200
sa(dp89
g7
g15
sg9
F199.13695001602173
sg10
I100
sg11
I300
sa(dp90
g7
g15
sg9
F270.826868057251
sg10
I100
sg11
I400
sa(dp91
g7
g15
sg9
F340.5166189670563
sg10
I100
sg11
I500
satp92
Rp93
(dp94
g23
I01
sg24
g29
sg30
(lp95
I3
aI5
aI30
aI9
asg32
I6
sg33
g34
(g3
tp96
Rp97
sbsS'NSGA2'
p98
g2
(g3
g4
(lp99
(dp100
g7
g15
sg9
F0.06478095054626465
sg10
I100
sg11
I0
sa(dp101
g7
g15
sg9
F11.435941934585571
sg10
I100
sg11
I100
sa(dp102
g7
g15
sg9
F22.598931074142456
sg10
I100
sg11
I200
sa(dp103
g7
g15
sg9
F33.7904589176178
sg10
I100
sg11
I300
sa(dp104
g7
g15
sg9
F44.96340298652649
sg10
I100
sg11
I400
sa(dp105
g7
g15
sg9
F56.37234592437744
sg10
I100
sg11
I500
satp106
Rp107
(dp108
g23
I01
sg24
g29
sg30
(lp109
I3
aI5
aI30
aI9
asg32
I6
sg33
g34
(g3
tp110
Rp111
sbs.