(dp0
S'NSGA2_SIP'
p1
ccopy_reg
_reconstructor
p2
(cdeap.tools.support
Logbook
p3
c__builtin__
list
p4
(lp5
(dp6
S'hv|spread|igd|frontier#|valid#'
p7
(F0.093
F0.82
F0.035
I11
I21
tp8
sS'timestamp'
p9
F0.04394698143005371
sS'evals'
p10
I100
sS'gen'
p11
I0
sa(dp12
g7
(F0.176
F0.627
F0.035
I96
I100
tp13
sg9
F8.798353910446167
sg10
I100
sg11
I100
sa(dp14
g7
(F0.179
F0.71
F0.035
I96
I100
tp15
sg9
F17.635936975479126
sg10
I100
sg11
I200
sa(dp16
g7
(F0.178
F0.61
F0.034
I95
I100
tp17
sg9
F26.311465978622437
sg10
I100
sg11
I300
sa(dp18
g7
(F0.179
F0.63
F0.035
I94
I100
tp19
sg9
F34.977200984954834
sg10
I100
sg11
I400
sa(dp20
g7
(F0.18
F0.595
F0.035
I96
I100
tp21
sg9
F43.64056992530823
sg10
I100
sg11
I500
satp22
Rp23
(dp24
S'log_header'
p25
I01
sS'header'
p26
(S'gen'
p27
S'evals'
p28
S'hv|spread|igd|frontier#|valid#'
p29
S'timestamp'
p30
tp31
sS'columns_len'
p32
(lp33
I3
aI5
aI30
aI9
asS'buffindex'
p34
I6
sS'chapters'
p35
ccollections
defaultdict
p36
(g3
tp37
Rp38
sbsS'SPEA2'
p39
g2
(g3
g4
(lp40
(dp41
g7
(I0
I0
I0
I0
I0
tp42
sg9
F0.05095696449279785
sg10
I100
sg11
I0
sa(dp43
g7
g42
sg9
F82.4898750782013
sg10
I100
sg11
I100
sa(dp44
g7
(F0.0
F2.828
F0.141
I1
I1
tp45
sg9
F177.24721217155457
sg10
I100
sg11
I200
sa(dp46
g7
(F0.0
F2.828
F0.141
I1
I1
tp47
sg9
F276.2005400657654
sg10
I100
sg11
I300
sa(dp48
g7
(F0.0
F2.828
F0.141
I1
I1
tp49
sg9
F371.5922210216522
sg10
I100
sg11
I400
sa(dp50
g7
(F0.0
F2.828
F0.141
I1
I1
tp51
sg9
F475.8191120624542
sg10
I100
sg11
I500
satp52
Rp53
(dp54
g25
I01
sg26
g31
sg32
(lp55
I3
aI5
aI30
aI9
asg34
I6
sg35
g36
(g3
tp56
Rp57
sbsS'IBEA_SIP'
p58
g2
(g3
g4
(lp59
(dp60
g7
(F0.112
F0.733
F0.04
I17
I19
tp61
sg9
F0.05495095252990723
sg10
I100
sg11
I0
sa(dp62
g7
(F0.159
F0.797
F0.027
I32
I100
tp63
sg9
F6.866144895553589
sg10
I100
sg11
I100
sa(dp64
g7
(F0.163
F0.645
F0.027
I39
I100
tp65
sg9
F13.776078939437866
sg10
I100
sg11
I200
sa(dp66
g7
(F0.165
F0.584
F0.026
I37
I100
tp67
sg9
F20.658912897109985
sg10
I100
sg11
I300
sa(dp68
g7
(F0.158
F0.711
F0.029
I39
I100
tp69
sg9
F27.542880058288574
sg10
I100
sg11
I400
sa(dp70
g7
(F0.164
F0.608
F0.031
I44
I100
tp71
sg9
F34.40675497055054
sg10
I100
sg11
I500
satp72
Rp73
(dp74
g25
I01
sg26
g31
sg32
(lp75
I3
aI5
aI30
aI9
asg34
I6
sg35
g36
(g3
tp76
Rp77
sbsS'IBEA'
p78
g2
(g3
g4
(lp79
(dp80
g7
g42
sg9
F0.05141806602478027
sg10
I100
sg11
I0
sa(dp81
g7
g42
sg9
F7.513449192047119
sg10
I100
sg11
I100
sa(dp82
g7
g42
sg9
F14.921802043914795
sg10
I100
sg11
I200
sa(dp83
g7
g42
sg9
F22.291506052017212
sg10
I100
sg11
I300
sa(dp84
g7
g42
sg9
F29.615246057510376
sg10
I100
sg11
I400
sa(dp85
g7
g42
sg9
F36.922741174697876
sg10
I100
sg11
I500
satp86
Rp87
(dp88
g25
I01
sg26
g31
sg32
(lp89
I3
aI5
aI30
aI9
asg34
I6
sg35
g36
(g3
tp90
Rp91
sbsS'SPEA2_SIP'
p92
g2
(g3
g4
(lp93
(dp94
g7
(F0.112
F0.852
F0.031
I17
I26
tp95
sg9
F0.07917594909667969
sg10
I100
sg11
I0
sa(dp96
g7
(F0.147
F0.603
F0.04
I100
I100
tp97
sg9
F63.345149993896484
sg10
I100
sg11
I100
sa(dp98
g7
(F0.154
F0.691
F0.041
I100
I100
tp99
sg9
F132.49211597442627
sg10
I100
sg11
I200
sa(dp100
g7
(F0.155
F0.684
F0.042
I100
I100
tp101
sg9
F202.0477590560913
sg10
I100
sg11
I300
sa(dp102
g7
(F0.162
F0.665
F0.042
I100
I100
tp103
sg9
F270.5661129951477
sg10
I100
sg11
I400
sa(dp104
g7
(F0.166
F0.655
F0.041
I100
I100
tp105
sg9
F342.15049386024475
sg10
I100
sg11
I500
satp106
Rp107
(dp108
g25
I01
sg26
g31
sg32
(lp109
I3
aI5
aI31
aI9
asg34
I6
sg35
g36
(g3
tp110
Rp111
sbsS'NSGA2'
p112
g2
(g3
g4
(lp113
(dp114
g7
g42
sg9
F0.03884601593017578
sg10
I100
sg11
I0
sa(dp115
g7
g42
sg9
F9.843480110168457
sg10
I100
sg11
I100
sa(dp116
g7
(F0.01
F2.718
F0.024
I1
I1
tp117
sg9
F19.61338496208191
sg10
I100
sg11
I200
sa(dp118
g7
g42
sg9
F29.40827202796936
sg10
I100
sg11
I300
sa(dp119
g7
g42
sg9
F39.23990607261658
sg10
I100
sg11
I400
sa(dp120
g7
(F0.0
F2.828
F0.141
I1
I2
tp121
sg9
F49.00589203834534
sg10
I100
sg11
I500
satp122
Rp123
(dp124
g25
I01
sg26
g31
sg32
(lp125
I3
aI5
aI30
aI9
asg34
I6
sg35
g36
(g3
tp126
Rp127
sbs.