(dp0
S'NSGA2_SIP'
p1
ccopy_reg
_reconstructor
p2
(cdeap.tools.support
Logbook
p3
c__builtin__
list
p4
(lp5
(dp6
S'hv|spread|igd|frontier#|valid#'
p7
(F0.099
F0.885
F0.04
I9
I14
tp8
sS'timestamp'
p9
F0.047347068786621094
sS'evals'
p10
I100
sS'gen'
p11
I0
sa(dp12
g7
(F0.211
F0.617
F0.042
I98
I100
tp13
sg9
F8.07984709739685
sg10
I100
sg11
I100
sa(dp14
g7
(F0.209
F0.588
F0.039
I96
I100
tp15
sg9
F16.069865942001343
sg10
I100
sg11
I200
sa(dp16
g7
(F0.209
F0.58
F0.04
I95
I100
tp17
sg9
F24.092628002166748
sg10
I100
sg11
I300
sa(dp18
g7
(F0.21
F0.535
F0.041
I93
I100
tp19
sg9
F31.887794971466064
sg10
I100
sg11
I400
sa(dp20
g7
(F0.208
F0.549
F0.042
I96
I100
tp21
sg9
F40.02097702026367
sg10
I100
sg11
I500
satp22
Rp23
(dp24
S'log_header'
p25
I01
sS'header'
p26
(S'gen'
p27
S'evals'
p28
S'hv|spread|igd|frontier#|valid#'
p29
S'timestamp'
p30
tp31
sS'columns_len'
p32
(lp33
I3
aI5
aI30
aI9
asS'buffindex'
p34
I6
sS'chapters'
p35
ccollections
defaultdict
p36
(g3
tp37
Rp38
sbsS'SPEA2'
p39
g2
(g3
g4
(lp40
(dp41
g7
(I0
I0
I0
I0
I0
tp42
sg9
F0.031132936477661133
sg10
I100
sg11
I0
sa(dp43
g7
g42
sg9
F84.26028299331665
sg10
I100
sg11
I100
sa(dp44
g7
g42
sg9
F191.62474989891052
sg10
I100
sg11
I200
sa(dp45
g7
g42
sg9
F302.6637399196625
sg10
I100
sg11
I300
sa(dp46
g7
g42
sg9
F402.6242628097534
sg10
I100
sg11
I400
sa(dp47
g7
g42
sg9
F505.2015869617462
sg10
I100
sg11
I500
satp48
Rp49
(dp50
g25
I01
sg26
g31
sg32
(lp51
I3
aI5
aI30
aI9
asg34
I6
sg35
g36
(g3
tp52
Rp53
sbsS'IBEA_SIP'
p54
g2
(g3
g4
(lp55
(dp56
g7
(F0.113
F0.823
F0.041
I16
I25
tp57
sg9
F0.07333207130432129
sg10
I100
sg11
I0
sa(dp58
g7
(F0.187
F0.614
F0.034
I38
I100
tp59
sg9
F6.8076441287994385
sg10
I100
sg11
I100
sa(dp60
g7
(F0.19
F0.617
F0.033
I39
I100
tp61
sg9
F13.322922229766846
sg10
I100
sg11
I200
sa(dp62
g7
(F0.184
F0.659
F0.028
I36
I100
tp63
sg9
F19.68323516845703
sg10
I100
sg11
I300
sa(dp64
g7
(F0.193
F0.671
F0.031
I38
I100
tp65
sg9
F26.39729619026184
sg10
I100
sg11
I400
sa(dp66
g7
(F0.193
F0.73
F0.03
I46
I100
tp67
sg9
F33.122371196746826
sg10
I100
sg11
I500
satp68
Rp69
(dp70
g25
I01
sg26
g31
sg32
(lp71
I3
aI5
aI30
aI9
asg34
I6
sg35
g36
(g3
tp72
Rp73
sbsS'IBEA'
p74
g2
(g3
g4
(lp75
(dp76
g7
g42
sg9
F0.03029799461364746
sg10
I100
sg11
I0
sa(dp77
g7
g42
sg9
F7.332414150238037
sg10
I100
sg11
I100
sa(dp78
g7
g42
sg9
F14.62280011177063
sg10
I100
sg11
I200
sa(dp79
g7
g42
sg9
F21.825399160385132
sg10
I100
sg11
I300
sa(dp80
g7
g42
sg9
F29.140480995178223
sg10
I100
sg11
I400
sa(dp81
g7
g42
sg9
F36.59599208831787
sg10
I100
sg11
I500
satp82
Rp83
(dp84
g25
I01
sg26
g31
sg32
(lp85
I3
aI5
aI30
aI9
asg34
I6
sg35
g36
(g3
tp86
Rp87
sbsS'SPEA2_SIP'
p88
g2
(g3
g4
(lp89
(dp90
g7
(F0.12
F0.856
F0.036
I15
I19
tp91
sg9
F0.06846499443054199
sg10
I100
sg11
I0
sa(dp92
g7
(F0.19
F0.642
F0.049
I100
I100
tp93
sg9
F69.13331294059753
sg10
I100
sg11
I100
sa(dp94
g7
(F0.192
F0.645
F0.049
I100
I100
tp95
sg9
F145.12225008010864
sg10
I100
sg11
I200
sa(dp96
g7
(F0.199
F0.657
F0.05
I100
I100
tp97
sg9
F222.248300075531
sg10
I100
sg11
I300
sa(dp98
g7
(F0.201
F0.703
F0.049
I100
I100
tp99
sg9
F297.6808829307556
sg10
I100
sg11
I400
sa(dp100
g7
(F0.201
F0.682
F0.049
I100
I100
tp101
sg9
F371.92902302742004
sg10
I100
sg11
I500
satp102
Rp103
(dp104
g25
I01
sg26
g31
sg32
(lp105
I3
aI5
aI31
aI9
asg34
I6
sg35
g36
(g3
tp106
Rp107
sbsS'NSGA2'
p108
g2
(g3
g4
(lp109
(dp110
g7
g42
sg9
F0.031594038009643555
sg10
I100
sg11
I0
sa(dp111
g7
g42
sg9
F9.751668930053711
sg10
I100
sg11
I100
sa(dp112
g7
g42
sg9
F19.23422384262085
sg10
I100
sg11
I200
sa(dp113
g7
g42
sg9
F28.899322986602783
sg10
I100
sg11
I300
sa(dp114
g7
g42
sg9
F38.5829598903656
sg10
I100
sg11
I400
sa(dp115
g7
g42
sg9
F47.91827893257141
sg10
I100
sg11
I500
satp116
Rp117
(dp118
g25
I01
sg26
g31
sg32
(lp119
I3
aI5
aI30
aI9
asg34
I6
sg35
g36
(g3
tp120
Rp121
sbs.