(lp0
I5
aI9
aI8
aI3
aI4
aI0
aI3
aI8
aI1
aI5
aI5
aI7
aI5
aI10
aI5
aI9
aI1
aI6
aI1
aI0
aI5
aI0
aI9
aI9
aI1
aI10
aI0
aI9
aI4
aI3
aI1
aI2
aI5
aI5
aI3
aI3
aI1
aI8
aI3
aI4
aI9
aI5
aI0
aI2
aI5
aI10
aI0
aI10
aI7
aI6
aI6
aI10
aI1
aI9
aI6
aI2
aI7
aI7
aI7
aI7
aI8
aI6
aI6
aI1
aI4
aI4
aI7
aI3
aI5
aI1
aI2
aI8
aI0
aI7
aI5
aI8
aI8
aI10
aI0
aI2
aI6
aI8
aI0
aI2
aI3
aI5
aI8
aI9
aI2
aI2
aI3
a.