(lp0
I3
aI2
aI3
aI3
aI3
aI4
aI10
aI3
aI6
aI10
aI1
aI7
aI10
aI7
aI5
aI7
aI4
aI10
aI2
aI5
aI2
aI6
aI7
aI2
aI0
aI10
aI2
aI0
aI6
aI8
aI2
aI8
aI5
aI6
aI9
aI4
aI8
aI8
aI5
aI3
aI3
aI6
aI6
aI3
aI2
aI7
aI2
aI0
aI6
aI7
aI4
aI10
aI3
aI9
aI0
aI8
aI5
aI6
aI2
aI4
aI4
aI4
aI7
aI2
aI6
aI3
aI2
aI6
aI9
aI8
aI1
aI9
aI4
aI9
aI5
aI8
aI10
aI2
aI0
aI8
aI1
aI7
aI3
aI10
aI5
aI8
aI7
aI4
aI4
aI10
a.