(lp0
I44
aI16
aI34
aI76
aI54
aI25
aI84
aI53
aI45
aI27
aI95
aI56
aI33
aI50
aI47
aI46
aI17
aI87
aI68
aI76
aI64
aI91
aI13
aI14
aI59
aI80
aI39
aI11
aI67
aI72
aI32
aI51
aI93
aI82
aI34
aI49
aI40
aI28
aI16
aI63
aI47
aI28
aI30
aI71
aI41
aI84
aI82
aI24
aI85
aI40
aI57
aI82
aI84
aI33
aI33
aI85
aI73
aI99
aI90
aI71
aI33
aI91
aI19
aI54
aI54
aI52
aI11
aI56
aI85
aI14
aI11
aI84
aI84
aI66
aI67
aI44
aI26
aI68
aI98
aI77
aI83
aI19
aI95
aI12
aI79
aI70
aI94
aI16
aI40
aI86
a.