(lp0
F0.9613187451519184
aF0.6312724077833535
aF0.08192453260900834
aF0.31240669156969325
aF0.5602257830451124
aF0.899360749309526
aF0.1300234370031621
aF0.996473197513482
aF0.22836094628624548
aF0.6673358524345985
aF0.42120921421988244
aF0.4075028269890474
a.