(lp0
F0.32849558706633064
aF0.4395697183198424
aF0.21287038626273835
aF0.4828135914564008
aF0.7486275215209081
aF0.7576519775679579
aF0.8188549014229682
aF0.20871319544443412
aF0.8335253170569997
aF0.13983041718221834
aF0.7269493430501499
aF0.8324333639015723
aF0.3984162876815286
aF0.28440960178751584
aF0.5192542649867381
aF0.9970981196193978
aF0.43249700785368683
aF0.5908146176736576
aF0.8825004806632875
aF0.3967376467348953
aF0.09681320441859087
aF0.7932169516831764
aF0.5282543635493736
aF0.7265657429623917
aF0.6610748512334075
aF0.6759987607652419
aF0.9205570092047649
aF0.05239096533094145
aF0.9879827027867206
aF0.7320785602388643
aF0.15125755611757108
aF0.6756872454757178
aF0.08166583326264709
aF0.8894315472516081
aF0.8514000434496196
aF0.9898799551528615
aF0.7457199004319686
aF0.3320656790568166
aF0.8084219576131065
aF0.9486088084068406
aF0.9025612984437926
aF0.8193278235392281
aF0.8440751156888711
aF0.780557502578924
aF0.6274847741424779
aF0.8181209204317558
aF0.46770087988254627
aF0.03133179138463582
aF0.5024070934261079
aF0.14558011161486573
aF0.2331507135238281
aF0.3468160227940016
aF0.6614141339340261
aF0.48749702381874427
aF0.4992964574851144
aF0.5246777298184838
aF0.2221756907616682
aF0.6647130952959062
aF0.23135182901604145
aF0.4466262696760067
aF0.2433503943761921
aF0.8293587730501516
aF0.538855121374527
aF0.6414860066982498
aF0.5039002906238236
aF0.4336516119496483
aF0.6021846540228807
aF0.1412110359379004
aF0.037293022449542024
aF0.4037767218229641
aF0.20871361700217217
aF0.5028991008477762
aF0.2603801922837733
aF0.7593162061134808
aF0.9658578718352436
aF0.4474454102966332
aF0.0487187636985309
aF0.5261200226039437
aF0.3274577211097207
aF0.03892375386439306
aF0.09734641171239256
aF0.851151992973565
aF0.8927761951684408
aF0.40334841528729304
aF0.22087442253198697
aF0.8447320108043401
aF0.04730364637384055
aF0.967307808221924
aF0.8187306295268381
aF0.2966879105977195
aF0.7488216191613354
aF0.5198888340652815
aF0.9399493872949294
aF0.9151505360896672
aF0.060538302885566386
aF0.8759524939701276
aF0.12890209056169055
aF0.9697519649525835
aF0.28628159509133866
aF0.9501275860643749
aF0.5127275344720834
aF0.5368089904965635
aF0.29842543534292043
aF0.7437477089369188
aF0.2959523541089577
aF0.9769509638378108
aF0.46692761767222113
aF0.2655659687105013
aF0.7230506581366453
aF0.8404492749213549
aF0.1616678731922936
aF0.840802614021587
aF0.17040677743397037
aF0.4724013765552767
aF0.31817570981576426
aF0.6769557272387479
aF0.15470482808300534
aF0.9771860101019487
aF0.5215668576454098
aF0.1849037872936895
aF0.7816154782681441
aF0.31057757004312747
aF0.5632350844913097
aF0.2617666679385646
aF0.8121069607389725
aF0.17595854500903174
aF0.6246886525768469
aF0.7853889790494815
aF0.6121682933236444
aF0.5500133019552551
aF0.9950568635813938
aF0.5940720187675134
aF0.830197960060178
aF0.4305401549015092
aF0.5319816792759683
aF0.11268744292821031
aF0.32953785864916685
aF0.8036122460688685
aF0.8919339253292706
aF0.18698938465888781
aF0.6318876725269292
aF0.3526220861504714
aF0.8891479619874932
aF0.4147872194724854
aF0.06280980011287707
aF0.6154080898061332
aF0.78289339611869
aF0.15592757860204343
aF0.20430306674509136
aF0.988160972570089
aF0.4552255786782453
aF0.45878281129995757
aF0.2737707341603002
aF0.3373955171286541
aF0.21497075090885687
aF0.42730316440315375
aF0.3675684714012931
aF0.3400350052263166
aF0.4642757355176659
aF0.13827805340984567
aF0.9156864642819283
aF0.7883254336546646
aF0.11276133658865284
aF0.5935107800760095
aF0.3773788258976395
aF0.8965774186072204
aF0.016448289760905843
aF0.9430143647246919
aF0.6414421158415207
aF0.5536947871705515
aF0.12794879587842456
aF0.2286635910442426
aF0.9387667516566874
aF0.7952563544965651
aF0.35217273058352094
aF0.4327524573130861
aF0.7274684469109646
aF0.8961470725314783
aF0.06291227742128047
aF0.905576083738546
aF0.3728210051501626
aF0.8220931317597411
aF0.06327768455307237
aF0.49057798532218044
aF0.12173451309507188
aF0.8326649092548354
aF0.9576218928381243
aF0.4051987757905594
aF0.35567019238011155
aF0.1847949520045259
aF0.3257012820073295
aF0.3982793065215894
aF0.5084332300295995
aF0.8727285500758599
aF0.09264627728703656
aF0.3392954822281712
aF0.9223762438303935
aF0.6961323787422679
aF0.7949406865660765
aF0.9562600220523985
aF0.294917365903835
aF0.40352261410585666
aF0.4526774958229308
aF0.3960137796773804
aF0.6294965311866255
aF0.7383422901918868
aF0.6322694869640763
aF0.2635473426797409
aF0.2057530175654284
aF0.056844779241032706
aF0.2532534154419325
aF0.26548511574086076
aF0.7005692212403053
aF0.5159457084432321
aF0.007949574700930828
aF0.4585271383403705
aF0.4996089477860446
aF0.8478485261146849
aF0.2768125162427617
aF0.4515331609792872
aF0.07730012998194158
aF0.9188639536975296
aF0.4631520336641063
aF0.8420894228875921
aF0.20182367666721734
aF0.8417054235178404
aF0.8334217263199603
aF0.496628662798304
aF0.6036948483383368
aF0.19250818047170903
aF0.4295774382109876
aF0.42312818508261185
aF0.22792523871118864
aF0.1733189263517546
aF0.5219400772723416
aF0.4608920494284061
aF0.020910648354494632
aF0.25098982969720995
aF0.8319441607904874
aF0.8876843142713724
aF0.02618544008133883
aF0.4875091186634035
aF0.42438807916682664
aF0.42045500474220454
aF0.6240387751207452
aF0.19841397446660514
aF0.4873783111712513
aF0.003070815221431822
aF0.06868322548116701
aF0.8146203949402946
aF0.6651577705740589
aF0.8967957784537874
aF0.05501951231155777
aF0.018534560850604342
aF0.7393819036420316
aF0.25044043066951993
aF0.6087054677771495
aF0.5896234561384358
aF0.5709669899985114
aF0.6587194700805558
aF0.6069715636539175
aF0.5196060744813386
aF0.302079862840528
aF0.08706231231010508
aF0.9874817748267847
aF0.35395348873545407
aF0.028065629053343644
aF0.6889960404271966
aF0.5691517567703068
aF0.9119306298970531
aF0.07666980197209683
aF0.200542986241951
aF0.5531042163617566
aF0.4483707284199099
aF0.5791410118889871
aF0.012500559472369499
aF0.6208227581598822
aF0.5149858114162698
aF0.38865474166513125
aF0.36210695474482946
aF0.30348875097227457
aF0.4261609472990219
aF0.9050853102056365
aF0.3037940170159541
aF0.41475292662570507
aF0.5865166471518742
aF0.17772271203521584
aF0.26140300711440534
aF0.6308328329514858
aF0.2236194193452392
aF0.8804071557777327
aF0.42249424426218785
aF0.5125478395137003
aF0.42496059757605065
aF0.9001440895548837
aF0.4045306810971917
aF0.7184427206260979
aF0.4596141702768468
aF0.7670561367447046
aF0.6352072421787714
aF0.9391056314759734
aF0.10170908266034417
aF0.891757048323501
aF0.035650232909232527
aF0.677524990707405
aF0.030049280568057557
aF0.6857820390862792
aF0.41286517932379296
aF0.1462360734216145
aF0.8973553766975302
aF0.07541304887869849
aF0.06725686772621509
aF0.5251833052444369
aF0.9783348531523789
aF0.2905303875784382
aF0.6559173029583841
aF0.06800735977248007
aF0.7014444105832562
aF0.8363306456356371
aF0.372910569097717
aF0.34026568277028446
aF0.1888257125925219
aF0.6625971858319449
aF0.6365337870767862
aF0.6592935947201299
aF0.3002910967975586
aF0.13282619509851568
aF0.8765750226177439
aF0.8366215810003335
aF0.06719286916448697
aF0.2516258778892779
aF0.5098810490553358
aF0.6962978585337051
aF0.6000599033833178
aF0.9792652657650172
aF0.7287038649069171
aF0.31417974573898966
aF0.08831616550933341
aF0.212130039048803
aF0.6695157171684543
aF0.20718221656236147
aF0.2587086073178335
aF0.7956347514887375
aF0.16369269225182914
aF0.46952451227405745
aF0.28573289230482934
aF0.8975614437207521
aF0.8734449153238786
aF0.665120427731378
aF0.4531182050924125
aF0.33152658369772603
aF0.15953541184600228
aF0.04416893849921322
aF0.35008305600974754
aF0.10984825893831163
aF0.37678233404523775
aF0.7859280775016558
aF0.8072533251860359
aF0.11345993245051667
aF0.1275721273692435
aF0.7560412063743568
aF0.9698406866779842
aF0.4773830073934553
aF0.753303713705053
aF0.262164318517351
aF0.9880948917198731
aF0.5784598697519906
aF0.3172643276908478
aF0.03317115184095176
aF0.7828519307294449
aF0.758838670428174
aF0.8433282365114492
aF0.27574964962666904
aF0.2676448352838958
aF0.904008717909396
aF0.25550924926336416
aF0.17540198508502614
aF0.38488082205137863
aF0.2480622403259316
aF0.7656142308102162
aF0.45251102086433403
aF0.8255476836153596
aF0.19320094485458406
aF0.5158036024117065
aF0.021412257859735218
a.