(lp0
F0.5655115438833713
aF0.9076214411277859
aF0.17064125977947187
aF0.9724659204080787
aF0.965117881149416
aF0.1147218100378593
aF0.670941437251265
aF0.1412534460379531
aF0.2302055382810947
aF0.4151356952134969
aF0.6147285396832738
aF0.9510848095457344
aF0.34019944407881686
aF0.11363929525750938
aF0.42592446252036287
aF0.8505647459305075
aF0.8021117135018885
aF0.6964438983530399
aF0.19264796819342545
aF0.05859852118392639
aF0.6175555039692796
aF0.09948809341499809
aF0.8689706395950717
aF0.9814841411051642
aF0.22319548647295273
aF0.4676567635989741
aF0.9241418528798442
aF0.7572010326643311
aF0.2677845199404162
aF0.5607180453854153
aF0.1982372323668612
aF0.05736130824922214
aF0.3279846363922162
aF0.5470109755751323
aF0.6830738620471241
aF0.46401615295187104
aF0.27180339207426774
aF0.31845824149413593
aF0.6604694236970486
aF0.3448770135670979
aF0.32112017797975445
aF0.9705105862432686
aF0.10597542052267739
aF0.21359737443867088
aF0.5373611505497726
aF0.8542532585821757
aF0.9012383602505843
aF0.8665882756648414
aF0.1152201048563194
aF0.7478160568119652
aF0.6058642635885696
aF0.28877889603727236
aF0.9887669676913202
aF0.10520521643089586
aF0.7642448387024092
aF0.33551708596886587
aF0.07981189094976293
aF0.9404857584459347
aF0.5610745888073473
aF0.7422910787874845
aF0.6124891318173635
aF0.6868691502163617
aF0.21656768757864964
aF0.20874203810825298
aF0.04753202301139969
aF0.7999256054255114
aF0.030774655418883134
aF0.428400588300365
aF0.5946653508188642
aF0.5271064815591775
aF0.38983820417261095
aF0.2843408407054959
aF0.8185695955518787
aF0.6797341247825976
aF0.7085264491689155
aF0.7602880774203963
aF0.19339098222651552
aF0.7996626639555408
aF0.6581167170759693
aF0.995554869887869
aF0.6611994566968824
aF0.3516022576145711
aF0.7764993255598359
aF0.2039245429138392
aF0.8755567298515913
aF0.10986577976582934
aF0.8152997174643511
aF0.9336987539442658
aF0.05378401514492859
aF0.6882851675888738
aF0.04332813250373746
aF0.2654197832334275
aF0.7104441443199558
aF0.2554264226903574
aF0.31523162519254977
aF0.5833956737729622
aF0.5298367944267561
aF0.8519666707791275
aF0.6811509121413147
aF0.9139236673492173
aF0.11205690482517261
aF0.9940595876879763
aF0.7572647157205326
aF0.6824870157561644
aF0.7377350243859153
aF0.21205846107293913
aF0.3236114488872801
aF0.7098353712726946
aF0.8527041973135852
aF0.7789924727508883
aF0.9292011948374354
aF0.2002372305595005
aF0.7658260695957555
aF0.6286641499938154
aF0.536796919045533
aF0.3013273768030532
aF0.34412349405184617
aF0.5247598241603095
aF0.5112898387464769
aF0.5806539155220108
aF0.4114276111158902
aF0.8861004991465266
aF0.7937401002976663
aF0.8970941176790642
aF0.37931660824027547
aF0.2472006377941932
aF0.9742642848985864
aF0.42725336564526906
aF0.7672967020729731
aF0.04754579070390064
aF0.3921462321767567
aF0.26886061834876784
aF0.24625277916038513
aF0.891392015094132
aF0.6491298175539945
aF0.27423899423851184
aF0.5209031755288643
aF0.5857747090515206
aF0.14098642748022683
aF0.7116538728437418
aF0.6434365762689479
aF0.948057241453016
aF0.7335428144045881
aF0.8015389402510574
aF0.4552803640008053
aF0.08159110176839457
aF0.09406147434985468
aF0.6172496392641872
aF0.6185567486768644
aF0.3348826109802424
aF0.7390218307915808
aF0.5465844627631602
aF0.7988350756128733
aF0.9822455176612225
aF0.4710479572475478
aF0.10409403768241454
aF0.7594109334380971
aF0.0037320054880314313
aF0.1836600906967455
aF0.8823131649779462
aF0.2021606364877
aF0.3172946805177773
aF0.41166958417605215
aF0.7160079555256396
aF0.10113758307799303
aF0.3999460141257283
aF0.6876589841947554
aF0.06204261067231076
aF0.4587917610625325
aF0.23117263712676828
aF0.49673871512102574
aF0.7444432514585657
aF0.5792795881181502
aF0.19856639455421343
aF0.8427689030215252
aF0.15991806938188302
aF0.3371284987583115
aF0.1239467541437409
aF0.09702429626275422
aF0.5123276855266713
aF0.42967512115981077
aF0.29283174248100374
aF0.6558917211690221
aF0.9246235439882238
aF0.004644668617025616
aF0.7601180997680536
aF0.7359022574349091
aF0.9369620612964789
aF0.4620193358054576
aF0.7142387215521909
aF0.43038079966554954
aF0.7511238219929176
aF0.7880995030062083
aF0.37388740688842503
aF0.8067686342564492
aF0.48317332148393344
aF0.8117569282929085
aF0.40132125877914115
aF0.1021396969227375
aF0.37326428361891684
aF0.13621944571793254
aF0.3569581629543481
aF0.3828238504277428
aF0.745781574885555
aF0.1794558197333853
aF0.5725696593146946
aF0.9268249619537106
aF0.2062560888744801
aF0.12562836143964395
aF0.20578296649277716
aF0.6083426251010811
aF0.12892233819960397
aF0.21249480918349883
aF0.43203793889248765
aF0.10018480947506037
aF0.6287281605625868
aF0.21613504761686542
aF0.24419472450142565
aF0.8358463101185372
aF0.7547694362637639
aF0.20504582745479094
aF0.3810606374726849
aF0.94540242983046
aF0.09635201479383249
aF0.2746781054099192
aF0.7987457921959746
aF0.9116236982539692
aF0.29149730114922523
aF0.5142981116807096
aF0.07653671083309999
aF0.648914045089079
aF0.9375125849018319
aF0.3194110037044652
aF0.02153696828447682
aF0.0832664274027981
aF0.21625554844206873
aF0.29316277328713025
aF0.43222760278805483
aF0.4307958760544761
aF0.35679662461338846
aF0.8993601862764925
aF0.17853822670754582
aF0.7683349286179297
aF0.08818079318145178
aF0.2578183449520367
aF0.00098105829212769
aF0.4994343040051181
aF0.3480999215090371
aF0.7703602384971696
aF0.1624146515490833
aF0.9384226099711095
aF0.5857501880776165
aF0.4992561024709474
aF0.8799805066340249
aF0.181846412185943
aF0.5060846431844902
aF0.7657956963826238
aF0.08363015678334129
aF0.12388327889259121
aF0.02845134257578419
aF0.44963011381628304
aF0.36703828971649
aF0.7249670307004517
aF0.26461375178735413
aF0.3815350488396445
aF0.5258381312687639
aF0.5875664422803795
aF0.28794587849420306
aF0.7176142658993594
aF0.5776433164561349
aF0.2088547359077767
aF0.6857078537387113
aF0.8513758729094735
aF0.11846666106775927
aF0.3775084268018275
aF0.8034027317979272
aF0.595927136999673
aF0.9298383185939041
aF0.7008669002799014
aF0.027411825700065506
aF0.28107254619458477
aF0.7359077306334907
aF0.6252351331217436
aF0.9106491562722601
aF0.8550127940993556
aF0.2707523488583119
aF0.8082175589253421
aF0.11606454209328376
aF0.1354093466933608
aF0.8518659672068358
aF0.820643422453988
aF0.7111660468181125
aF0.805403981314855
aF0.59548740845336
aF0.3768274006367719
aF0.5555483689116207
aF0.8173444739849718
aF0.58675810924646
aF0.931409287286759
aF0.41485496526341925
aF0.8851129266576182
aF0.6336515391818024
aF0.2496787596768414
aF0.6466034835258951
aF0.7883471017042613
aF0.7892955318795013
aF0.3387753740728945
aF0.14058090778211918
aF0.8609247560700813
aF0.2106927549904386
aF0.8130616491107283
aF0.43935491107050084
aF0.32066060750330905
aF0.5640145853819016
aF0.44880731852306266
aF0.904069927791698
aF0.09051762916247863
aF0.9150887709923653
aF0.9381189018288832
aF0.24985882741535137
aF0.5858963667434808
aF0.34265117254057886
aF0.27763649602221574
aF0.9870541659542181
aF0.37724217218980105
aF0.052754069476366516
aF0.9507002733718933
aF0.01211423179054405
aF0.41021457900512937
aF0.1404798572855177
a.