(lp0
I0
aI0
aI0
aI0
aI0
aI0
aI0
aI0
aI0
aI1
aI0
aI0
aI0
aI8
aI0
aI0
aI2
aI0
aI0
aI3
aI4
aI9
aI0
aI0
aI7
aI0
aI0
aI0
aI0
aI0
aI9
aI2
aI1
aI0
aI0
aI4
aI0
aI3
aI0
aI0
aI5
aI6
aI1
aI7
aI3
aI0
aI7
aI8
aI0
aI0
aI0
aI5
aI0
aI0
aI0
aI0
aI3
aI2
aI0
aI9
aI3
aI0
aI4
aI0
aI7
aI0
aI0
aI5
aI2
aI0
aI0
aI0
aI7
aI2
aI1
aI0
aI0
aI0
aI2
aI5
aI0
aI8
aI0
aI0
aI0
aI0
aI9
aI8
aI0
aI0
aI0
aI2
aI0
aI1
aI1
aI0
aI0
aI0
aI9
aI5
aI0
aI0
aI0
aI0
aI5
aI1
aI4
aI0
aI6
aI0
aI0
aI6
aI0
aI0
aI5
aI0
aI0
aI0
aI0
aI0
aI3
aI0
aI0
aI0
aI0
aI0
aI0
aI5
aI0
aI2
aI0
aI0
aI5
aI1
aI7
aI0
aI4
aI3
aI0
aI7
aI0
aI1
aI0
aI0
aI7
aI0
aI9
aI0
aI3
aI2
aI8
aI9
aI0
aI5
aI2
aI0
aI3
aI8
aI0
aI4
aI0
aI3
aI0
aI0
aI0
aI4
aI0
aI3
aI0
aI4
aI0
aI5
aI0
aI0
aI0
aI0
aI0
aI0
aI0
aI8
aI0
aI0
aI0
aI0
aI5
aI0
aI9
aI0
aI9
aI0
aI2
aI9
aI7
aI0
aI0
aI0
aI0
aI0
aI1
aI8
aI8
aI9
aI0
aI0
aI0
aI6
aI0
aI5
aI0
aI0
aI5
aI0
aI0
aI2
aI0
aI0
aI0
aI5
aI4
aI0
aI0
aI0
aI1
aI4
aI0
aI4
aI1
aI0
aI0
aI0
aI0
aI0
aI0
aI2
aI0
aI7
aI0
aI4
aI0
aI8
aI0
aI0
aI0
aI6
aI0
aI0
aI0
aI0
aI0
aI3
aI7
aI0
aI0
aI0
aI0
aI6
aI4
aI0
aI7
aI0
aI2
aI7
aI7
aI0
aI1
aI0
aI1
aI0
aI0
aI1
aI0
aI0
aI5
aI8
aI0
aI0
aI0
aI5
aI0
aI0
aI7
aI2
aI0
aI4
aI2
aI6
aI2
aI0
aI6
aI6
aI6
aI0
aI0
aI0
aI0
aI0
aI0
aI7
aI0
aI1
aI3
aI0
aI0
aI0
aI0
aI5
aI0
aI0
aI0
aI0
aI0
aI0
aI9
aI5
aI0
aI0
aI1
aI0
aI0
aI0
aI0
aI0
aI7
aI0
aI1
aI0
aI3
aI0
aI0
aI6
a.