(lp0
F6.97315974733943
aF6.677062575117391
aF5.723021035553127
aF8.137344619913927
aF5.753162632448852
aF6.270165160815991
aF7.747025471842664
aF8.652355566131236
aF8.964699251654537
aF9.797645203508328
aF5.244253174121893
aF7.598215951221192
aF6.231841468975691
aF8.850252049984194
aF6.878721452600841
aF8.281629499836136
aF6.9507193803979215
aF7.539680148710197
aF7.529892881640834
aF9.296161807084992
aF8.395217394261316
aF7.8968332691509815
aF7.262590542381275
aF7.984710360816587
aF7.7294228243029535
aF6.1563549442261465
aF6.872683978710591
aF9.416188676488568
aF9.52289309882987
aF6.928283626154203
aF8.764956115306479
aF8.066977260986114
aF5.276199496230194
aF9.925637188637594
aF8.31672990544436
aF9.517044329155643
aF5.076026454282479
aF7.576812576677224
aF8.757868085793525
aF7.561807539085096
aF9.85998348533198
aF7.167056714389091
aF9.053138081263771
aF8.143981276987073
aF6.943225059759252
aF7.711772832050229
aF8.160821949187062
aF5.512359973279643
aF8.35023229559486
aF9.064044768085154
aF9.302939602629863
aF5.012933078198146
aF6.675104142146102
aF9.47023218708351
aF7.315931089830078
aF6.270702434906651
aF7.277320080005609
aF7.454963543904472
aF8.768589942515625
aF8.246852852977531
aF8.941361943465935
aF9.950901219791973
aF8.279824875907494
aF9.600201656167862
aF6.555233920768218
aF8.301474434044284
aF7.710044216789044
aF8.442300825442073
aF9.044283753773843
aF9.46699248191818
aF6.436478139172793
aF6.9581924970278495
aF6.297092272217789
aF5.131432916654327
aF8.55641006142144
aF8.991694649398926
aF8.672711329004494
aF5.7055033790784755
aF6.515718890538259
aF9.549063991251957
aF9.783207773309782
aF9.699649740726153
aF5.299152852415904
aF6.69892437296257
aF7.004748122588615
aF8.589238817569521
aF9.246894807056147
aF6.09872187780048
aF7.675350990645645
aF9.156745303473148
aF6.296743641732229
aF8.409040653465345
aF9.027923050205835
aF6.4616050136315275
aF5.893773599432327
aF5.87604642438298
aF9.112560081617168
aF5.697280715306843
aF8.763146106170296
aF6.784864214560731
aF8.045715814279973
aF5.535671935535809
aF8.850471330470393
aF5.3038389201524385
aF5.210015713711104
aF5.592337150578505
aF5.923609809601414
aF7.366454945453136
aF5.794689363399248
aF8.207306331079286
aF7.245445467027269
aF9.535968772071726
aF6.040718310548394
aF8.786884462400607
aF5.601372066574892
aF7.458382367597474
aF8.607264417223899
aF5.980027141064763
aF6.894232122973864
aF7.341019396053906
aF9.11392133326478
aF8.650317483073625
aF8.354079048431238
aF6.911530974469949
aF7.59593256473602
aF8.905772009368773
aF9.956605969830719
aF6.921147318761444
aF7.489411250007958
aF8.839575171532202
aF8.265710842790295
aF8.690358677392608
aF5.008230672856166
aF7.307166372453469
aF8.647814890613597
aF5.304738252452168
aF7.876210479733971
aF5.027518426573484
aF9.05605503721645
aF9.768068708919142
aF7.8777531435159265
aF8.441106601025123
aF5.2737419677840585
aF8.27798556170255
aF6.579896562757694
aF5.676527707687072
aF8.045601677086744
aF7.82440357991082
aF8.406399954952883
aF7.24740259563506
aF5.7672059614871305
aF6.036222509270797
aF9.148403324355721
aF8.340417948834006
aF7.362055415459144
aF6.130896347965362
aF6.575588278958651
aF7.934157407628079
aF9.17027730544606
aF5.415287148030219
aF7.784151992629502
aF5.181795565759632
aF8.44666165725171
aF6.987978489623561
aF6.722667316948223
aF6.567860699251654
aF9.371107969278079
aF6.288877419331959
aF7.848405821844331
aF9.511277058621879
aF9.367082544658189
aF6.766306711478609
aF7.453568519824839
aF8.34001320043367
aF8.165318391644973
aF8.122361808150712
aF7.9999641786804325
aF9.836009020418379
aF7.9956888744758245
aF5.327299481421803
aF7.197922523672965
aF7.190992402278098
aF7.043574192821145
aF6.301796743077544
aF8.34804312754528
aF5.930535776131319
aF9.065728707990846
aF9.978718827112267
aF7.362142463637757
aF9.17532488821977
aF8.086845820954887
aF5.155678535705656
aF7.809029875353937
aF5.067450712826186
aF9.271028934907928
aF9.254851875074571
aF6.137699798922993
aF8.405099098931055
aF7.384984208427854
aF6.714889823341997
aF8.872604724697664
aF5.652413982573268
aF8.012506058335456
aF6.970787330653985
aF7.325960177785313
aF5.272320581969026
aF9.538861467954433
aF5.61474264697975
aF7.165511527881357
aF6.099165358937775
aF8.24314344575492
aF5.279430449094733
aF7.59115797215107
aF6.274390016090544
aF8.739256915885305
aF5.5392474392696425
aF8.144075377620474
aF5.640120232641015
aF9.933200462493001
aF6.195886029202318
aF7.708300349862399
aF6.6791946409188085
aF5.410162683700854
aF5.3640411068237555
aF5.676847140320604
aF9.111206031915167
aF9.916388340580156
aF6.256392771987025
aF8.685679441631482
aF7.3494586869769805
aF9.970656548527828
aF9.324713954891552
aF9.131410037228427
aF6.559992981114747
aF9.107897331896526
aF6.560273669764982
aF9.775424388949464
aF6.593895612487506
aF6.793294696707025
aF7.346338717921025
aF8.606211933957113
aF7.5536702351114755
aF8.70113323431744
aF9.205425349537023
aF5.47950100414355
aF7.6518642225941145
aF7.044821521059378
aF6.866395212194165
aF8.350204787585241
aF6.273734721503292
aF8.100253201455795
aF6.489886306009948
aF8.571880132671891
aF6.904735119657479
aF8.823669372889057
aF8.05395671142125
aF5.663488972431223
aF8.956346528688368
aF6.131388848173023
aF6.29884309545475
aF5.024788275889003
aF8.416488726984406
aF5.046779233469067
aF7.250590168148573
aF8.07202998338295
aF7.549558639186089
aF7.141481528266679
aF5.179717129343182
aF5.935995402219012
aF6.2334660940307955
aF9.35814299118919
aF9.142086226528642
aF5.586404057105184
aF7.670633271714724
aF9.880828553595068
aF6.813307067344574
aF7.708847402831308
aF7.786967327489346
aF5.321728749990891
aF9.830821555908997
aF6.215659050655572
aF6.887287018438883
aF8.572484491879134
aF7.198653098108172
aF9.446495079437675
aF8.274522247200848
aF8.584656865448006
aF8.888440825417574
aF6.643234943471814
aF5.587970256917725
aF7.355600872844093
aF9.067793879443386
aF8.156646634508027
aF9.262433231303348
aF8.968576638116904
aF9.914641026310656
aF5.483679142975971
aF9.335636125320011
aF6.014207904157317
aF7.398405637682046
aF8.514769306470523
aF6.902031771182056
aF9.518739495524226
aF8.229846016171715
aF5.8645622539817746
aF7.1099455378989695
aF7.572291011766517
aF9.469306373325155
aF9.595181182023431
aF6.975986442297576
aF6.427168247048334
aF8.653215106345554
aF6.354247349157765
aF6.769029389576495
aF9.10932650282518
aF6.639488298334375
aF8.701485070477096
aF5.449533789872469
aF6.970002175247689
aF9.790088101690177
aF7.919276457759724
aF6.347804707757662
aF8.062551395574417
aF7.302014981407284
aF7.500299794098103
aF8.782113744072024
aF9.553747118085063
aF6.724829259168329
aF5.544287001267155
aF7.250291265986732
a.