(lp0
I438
aI753
aI952
aI105
aI390
aI782
aI944
aI816
aI720
aI194
aI591
aI374
aI178
aI325
aI989
aI333
aI336
aI247
aI905
aI204
aI296
aI392
aI195
aI269
aI817
aI870
aI606
aI428
aI907
aI671
aI45
aI936
aI865
aI600
aI425
aI232
aI449
aI763
aI421
aI366
aI424
aI402
aI34
aI920
aI837
aI988
aI917
aI340
aI550
aI341
aI86
aI66
aI55
aI334
aI463
aI50
aI288
aI707
aI708
aI853
aI354
aI250
aI96
aI204
aI95
aI846
aI86
aI207
aI374
aI992
aI811
aI483
aI290
aI267
aI978
aI954
aI782
aI596
aI52
aI237
aI99
aI282
aI833
aI536
aI342
aI252
aI912
aI214
aI287
aI434
aI366
aI852
aI780
aI265
aI597
aI611
aI143
aI664
aI411
aI239
aI388
aI972
aI113
aI937
aI526
aI204
aI259
aI504
aI100
aI141
aI484
aI20
aI629
aI607
aI70
aI463
aI810
aI472
aI281
aI798
aI314
aI931
aI634
aI133
aI593
aI584
aI804
aI223
aI663
aI724
aI615
aI39
aI295
aI568
aI131
aI42
aI132
aI953
aI859
aI502
aI982
aI116
aI493
aI282
aI468
aI216
aI43
aI820
aI987
aI514
aI206
aI954
aI785
aI458
aI588
aI504
aI172
aI622
aI640
aI242
aI523
aI482
aI108
aI389
aI493
aI563
aI638
aI243
aI547
aI409
aI819
aI528
aI488
aI348
aI392
aI975
aI677
aI267
aI758
aI704
aI113
aI370
aI837
aI960
aI827
aI592
aI408
aI716
aI785
aI637
aI228
aI65
aI879
aI415
aI699
aI913
aI338
aI815
aI758
aI142
aI826
aI296
aI487
aI76
aI909
aI861
aI607
aI996
aI840
aI215
aI561
aI39
aI27
aI270
aI765
aI246
aI913
aI428
aI861
aI155
aI359
aI288
aI711
aI63
aI213
aI27
aI642
aI675
aI566
aI183
aI729
aI976
aI48
aI469
aI53
aI151
aI939
aI442
aI576
aI669
aI243
aI458
aI338
aI174
aI272
aI629
aI289
aI627
aI720
aI129
aI488
aI452
aI341
aI42
aI481
aI650
aI808
aI929
aI790
aI688
aI334
aI26
aI194
aI96
aI210
aI157
aI294
aI971
aI520
aI316
aI460
aI113
aI907
aI808
aI986
aI179
aI633
aI986
aI211
aI846
aI485
aI847
aI732
aI89
aI968
aI279
aI646
aI751
aI772
aI447
aI20
aI810
aI95
aI346
aI151
aI420
aI389
aI281
aI897
aI684
aI484
aI877
aI473
aI88
aI595
aI464
aI469
aI452
aI128
aI345
aI610
aI601
aI820
aI550
aI890
aI772
aI217
aI996
aI561
aI675
aI79
aI893
aI464
aI862
aI418
aI531
aI94
aI575
aI512
aI451
a.