(lp0
I75
aI51
aI26
aI44
aI17
aI27
aI29
aI64
aI87
aI26
aI93
aI18
aI96
aI45
aI73
aI34
aI81
aI68
aI10
aI98
aI72
aI36
aI41
aI86
aI11
aI75
aI34
aI67
aI26
aI13
aI15
aI47
aI72
aI46
aI37
aI87
aI97
aI84
aI77
aI98
aI60
aI31
aI62
aI36
aI90
aI40
aI56
aI20
aI32
aI87
aI75
aI15
aI44
aI93
aI79
aI32
aI15
aI44
aI26
aI76
aI41
aI68
aI44
aI66
aI44
aI17
aI42
aI89
aI24
aI76
aI59
aI59
aI95
aI73
aI10
aI58
aI45
aI26
aI20
aI94
aI75
aI61
aI43
aI38
aI35
aI46
aI25
aI97
aI61
aI29
aI90
aI60
aI23
aI50
aI46
aI31
aI22
aI55
aI14
aI78
aI73
aI12
aI26
aI24
aI14
aI96
aI22
aI51
aI11
aI25
aI59
aI56
aI15
aI57
aI87
aI14
aI86
aI88
aI73
aI83
aI30
aI17
aI35
aI81
aI13
aI66
aI68
aI95
aI28
aI69
aI49
aI57
aI58
aI11
aI64
aI54
aI87
aI29
aI59
aI50
aI74
aI20
aI28
aI29
aI28
aI98
aI66
aI82
aI56
aI43
aI40
aI41
aI44
aI59
aI43
aI96
aI30
aI53
aI97
aI69
aI12
aI82
aI81
aI10
aI89
aI79
aI17
aI27
aI38
aI24
aI86
aI88
aI84
aI69
aI17
aI79
aI28
aI99
aI77
aI43
aI71
aI94
aI86
aI31
aI62
aI39
aI57
aI81
aI43
aI38
aI24
aI32
aI85
aI28
aI92
aI55
aI68
aI69
aI11
aI74
aI97
aI55
aI89
aI48
aI13
aI76
aI84
aI43
aI41
aI55
aI66
aI54
aI52
aI65
aI25
aI20
aI37
aI53
aI59
aI31
aI49
aI72
aI11
aI34
aI72
aI52
aI53
aI64
aI38
aI69
aI54
aI38
aI63
aI27
aI93
aI80
aI38
aI38
aI91
aI15
aI77
aI78
aI26
aI32
aI47
aI79
aI14
aI70
aI50
aI93
aI84
aI41
aI77
aI23
aI36
aI66
aI16
aI73
aI46
aI56
aI62
aI21
aI84
aI95
aI67
aI83
aI31
aI93
aI82
aI88
aI45
aI30
aI27
aI17
aI46
aI74
aI59
aI55
aI49
aI56
aI32
aI96
aI52
aI10
aI27
aI81
aI97
aI10
aI52
aI14
aI31
aI50
aI97
aI94
aI99
aI48
aI13
aI21
aI79
aI97
aI29
aI76
aI79
aI28
aI73
aI96
aI34
aI52
aI27
aI53
aI30
aI86
aI63
aI85
aI90
aI65
aI19
aI50
aI12
aI77
aI65
aI13
aI70
aI12
aI47
aI29
aI33
aI53
aI73
aI46
aI24
aI18
aI42
aI54
aI86
aI52
aI79
aI10
aI32
aI83
aI87
aI39
aI35
aI71
aI92
aI23
aI45
aI26
aI17
aI53
aI52
aI92
aI24
aI10
aI71
aI79
aI78
aI63
aI33
aI74
aI10
aI77
aI90
aI84
aI43
aI77
aI93
aI80
aI39
aI93
aI32
aI79
aI19
aI39
aI94
aI84
aI93
aI14
aI80
aI78
aI54
aI66
aI84
aI23
aI92
a.