(lp0
(lp1
F0.29
aF0.0
aF0.73
aF0.65
aF0.29
aF0.68
aa(lp2
F0.31
aF0.0
aF0.69
aF0.65
aF0.31
aF0.63
aa(lp3
F0.33
aF0.0
aF0.65
aF0.64
aF0.32
aF0.61
aa(lp4
F0.28
aF0.0
aF0.71
aF0.69
aF0.29
aF0.67
aa(lp5
F0.29
aF0.0
aF0.7
aF0.69
aF0.3
aF0.66
aa(lp6
F0.28
aF0.0
aF0.72
aF0.67
aF0.29
aF0.68
aa(lp7
F0.28
aF0.0
aF0.76
aF0.67
aF0.28
aF0.68
aa(lp8
F0.31
aF0.0
aF0.68
aF0.65
aF0.3
aF0.66
aa(lp9
F0.31
aF0.0
aF0.67
aF0.67
aF0.3
aF0.63
aa(lp10
F0.3
aF0.0
aF0.67
aF0.7
aF0.31
aF0.64
aa(lp11
F0.32
aF0.33
aF0.67
aF0.63
aF0.31
aF0.65
aa(lp12
F0.31
aF0.0
aF0.68
aF0.66
aF0.3
aF0.64
aa(lp13
F0.3
aF0.0
aF0.71
aF0.63
aF0.31
aF0.68
aa(lp14
F0.29
aF0.0
aF0.71
aF0.68
aF0.29
aF0.66
aa(lp15
F0.28
aF0.0
aF0.71
aF0.67
aF0.29
aF0.7
aa(lp16
F0.31
aF0.0
aF0.66
aF0.7
aF0.31
aF0.64
aa(lp17
F0.32
aF0.0
aF0.65
aF0.64
aF0.32
aF0.64
aa(lp18
F0.28
aF0.0
aF0.72
aF0.66
aF0.29
aF0.7
aa(lp19
F0.28
aF0.0
aF0.7
aF0.7
aF0.29
aF0.7
aa(lp20
F0.29
aF0.0
aF0.72
aF0.69
aF0.29
aF0.65
aa(lp21
F0.29
aF0.0
aF0.71
aF0.72
aF0.29
aF0.64
aa(lp22
F0.29
aF0.0
aF0.73
aF0.64
aF0.29
aF0.7
aa(lp23
F0.31
aF0.0
aF0.68
aF0.65
aF0.31
aF0.64
aa(lp24
F0.3
aF0.0
aF0.69
aF0.66
aF0.3
aF0.65
aa(lp25
F0.32
aF0.0
aF0.66
aF0.65
aF0.32
aF0.62
aa(lp26
F0.28
aF0.0
aF0.72
aF0.68
aF0.28
aF0.69
aa(lp27
F0.28
aF0.33
aF0.73
aF0.67
aF0.28
aF0.69
aa(lp28
F0.28
aF0.0
aF0.75
aF0.67
aF0.28
aF0.7
aa(lp29
F0.31
aF0.0
aF0.7
aF0.63
aF0.31
aF0.66
aa(lp30
F0.29
aF0.0
aF0.72
aF0.7
aF0.29
aF0.63
aa(lp31
F0.31
aF0.0
aF0.66
aF0.69
aF0.31
aF0.66
aa(lp32
F0.32
aF0.0
aF0.68
aF0.61
aF0.32
aF0.66
aa(lp33
F0.31
aF0.0
aF0.7
aF0.64
aF0.31
aF0.64
aa(lp34
F0.28
aF0.33
aF0.72
aF0.68
aF0.28
aF0.68
aa(lp35
F0.28
aF0.0
aF0.74
aF0.64
aF0.29
aF0.72
aa(lp36
F0.29
aF0.0
aF0.72
aF0.66
aF0.29
aF0.67
aa(lp37
F0.3
aF0.0
aF0.67
aF0.69
aF0.3
aF0.65
aa(lp38
F0.28
aF0.0
aF0.73
aF0.7
aF0.28
aF0.65
aa(lp39
F0.32
aF0.33
aF0.66
aF0.64
aF0.31
aF0.64
aa(lp40
F0.32
aF0.0
aF0.65
aF0.65
aF0.32
aF0.63
aa(lp41
F0.33
aF0.0
aF0.64
aF0.65
aF0.33
aF0.64
aa(lp42
F0.32
aF0.0
aF0.66
aF0.63
aF0.32
aF0.64
aa(lp43
F0.31
aF0.0
aF0.68
aF0.67
aF0.3
aF0.62
aa(lp44
F0.3
aF0.0
aF0.68
aF0.66
aF0.3
aF0.66
aa(lp45
F0.28
aF0.0
aF0.73
aF0.69
aF0.29
aF0.66
aa(lp46
F0.28
aF0.0
aF0.72
aF0.71
aF0.29
aF0.65
aa(lp47
F0.31
aF0.0
aF0.7
aF0.64
aF0.3
aF0.65
aa(lp48
F0.29
aF0.0
aF0.72
aF0.65
aF0.29
aF0.69
aa(lp49
F0.28
aF0.0
aF0.72
aF0.7
aF0.28
aF0.66
aa(lp50
F0.28
aF0.0
aF0.74
aF0.69
aF0.28
aF0.66
aa(lp51
F0.28
aF0.0
aF0.73
aF0.65
aF0.29
aF0.71
aa(lp52
F0.29
aF0.0
aF0.71
aF0.71
aF0.3
aF0.64
aa(lp53
F0.31
aF0.0
aF0.69
aF0.64
aF0.31
aF0.65
aa(lp54
F0.29
aF0.0
aF0.72
aF0.67
aF0.29
aF0.66
aa(lp55
F0.3
aF0.0
aF0.7
aF0.64
aF0.3
aF0.66
aa(lp56
F0.29
aF0.0
aF0.71
aF0.7
aF0.29
aF0.65
aa(lp57
F0.28
aF0.0
aF0.74
aF0.67
aF0.28
aF0.71
aa(lp58
F0.29
aF0.0
aF0.69
aF0.72
aF0.3
aF0.68
aa(lp59
F0.33
aF0.0
aF0.66
aF0.62
aF0.32
aF0.63
aa(lp60
F0.32
aF0.0
aF0.67
aF0.62
aF0.32
aF0.64
aa(lp61
F0.33
aF0.0
aF0.66
aF0.63
aF0.32
aF0.61
aa(lp62
F0.3
aF0.0
aF0.68
aF0.67
aF0.3
aF0.64
aa(lp63
F0.32
aF0.0
aF0.66
aF0.64
aF0.31
aF0.65
aa(lp64
F0.31
aF0.0
aF0.69
aF0.66
aF0.3
aF0.63
aa(lp65
F0.29
aF0.0
aF0.73
aF0.69
aF0.29
aF0.64
aa(lp66
F0.28
aF0.0
aF0.73
aF0.69
aF0.28
aF0.67
aa(lp67
F0.29
aF0.0
aF0.74
aF0.68
aF0.29
aF0.65
aa(lp68
F0.3
aF0.0
aF0.71
aF0.63
aF0.3
aF0.69
aa(lp69
F0.31
aF0.0
aF0.69
aF0.64
aF0.3
aF0.66
aa(lp70
F0.31
aF0.0
aF0.67
aF0.68
aF0.31
aF0.62
aa(lp71
F0.28
aF0.0
aF0.73
aF0.68
aF0.28
aF0.68
aa(lp72
F0.28
aF0.0
aF0.71
aF0.68
aF0.29
aF0.68
aa(lp73
F0.28
aF0.0
aF0.7
aF0.71
aF0.29
aF0.69
aa(lp74
F0.3
aF0.0
aF0.69
aF0.64
aF0.31
aF0.68
aa(lp75
F0.31
aF0.0
aF0.69
aF0.63
aF0.31
aF0.67
aa(lp76
F0.32
aF0.0
aF0.66
aF0.64
aF0.32
aF0.63
aa(lp77
F0.28
aF0.0
aF0.73
aF0.66
aF0.29
aF0.69
aa(lp78
F0.33
aF0.0
aF0.67
aF0.61
aF0.32
aF0.64
aa(lp79
F0.28
aF0.0
aF0.72
aF0.68
aF0.29
aF0.67
aa(lp80
F0.33
aF0.0
aF0.64
aF0.67
aF0.33
aF0.62
aa(lp81
F0.28
aF0.0
aF0.74
aF0.65
aF0.29
aF0.7
aa(lp82
F0.3
aF0.0
aF0.68
aF0.68
aF0.3
aF0.63
aa(lp83
F0.3
aF0.0
aF0.67
aF0.68
aF0.3
aF0.68
aa(lp84
F0.29
aF0.0
aF0.71
aF0.67
aF0.29
aF0.68
aa(lp85
F0.3
aF0.0
aF0.69
aF0.64
aF0.3
aF0.69
aa(lp86
F0.31
aF0.0
aF0.7
aF0.62
aF0.31
aF0.67
aa(lp87
F0.33
aF0.0
aF0.64
aF0.66
aF0.33
aF0.63
aa(lp88
F0.31
aF0.0
aF0.69
aF0.65
aF0.3
aF0.64
aa(lp89
F0.3
aF0.0
aF0.69
aF0.65
aF0.3
aF0.66
aa(lp90
F0.28
aF0.0
aF0.75
aF0.68
aF0.28
aF0.67
aa(lp91
F0.28
aF0.0
aF0.7
aF0.72
aF0.3
aF0.67
aa(lp92
F0.32
aF0.0
aF0.64
aF0.66
aF0.32
aF0.65
aa.