(lp0
F8.902472866204487
aF8.995288309701927
aF7.559022587968914
aF9.9036778416257
aF9.369241515282852
aF8.81329588165566
aF5.3652765915896055
aF7.768651247530908
aF9.694912326033833
aF9.705184923922678
aF7.950200310885099
aF9.426402421627667
a.