ccopy_reg
_reconstructor
p0
(cdeap.tools.support
HallOfFame
p1
c__builtin__
object
p2
Ntp3
Rp4
(dp5
S'keys'
p6
(lp7
g0
(cdeap.creator
FitnessMin
p8
g2
Ntp9
Rp10
(dp11
S'wvalues'
p12
(F-0.33
F-0.0
F-0.43
F-0.67
tp13
sbag0
(g8
g2
Ntp14
Rp15
(dp16
g12
(F-0.25
F-0.67
F-0.86
F-0.79
tp17
sbag0
(g8
g2
Ntp18
Rp19
(dp20
g12
(F-0.25
F-0.67
F-0.86
F-0.79
tp21
sbag0
(g8
g2
Ntp22
Rp23
(dp24
g12
(F-0.25
F-0.67
F-0.86
F-0.79
tp25
sbag0
(g8
g2
Ntp26
Rp27
(dp28
g12
(F-0.25
F-0.67
F-0.85
F-0.74
tp29
sbag0
(g8
g2
Ntp30
Rp31
(dp32
g12
(F-0.25
F-0.67
F-0.85
F-0.74
tp33
sbag0
(g8
g2
Ntp34
Rp35
(dp36
g12
(F-0.25
F-0.67
F-0.85
F-0.74
tp37
sbag0
(g8
g2
Ntp38
Rp39
(dp40
g12
(F-0.25
F-0.67
F-0.83
F-0.84
tp41
sbag0
(g8
g2
Ntp42
Rp43
(dp44
g12
(F-0.25
F-0.67
F-0.83
F-0.84
tp45
sbag0
(g8
g2
Ntp46
Rp47
(dp48
g12
(F-0.25
F-0.67
F-0.83
F-0.84
tp49
sbag0
(g8
g2
Ntp50
Rp51
(dp52
g12
(F-0.25
F-0.67
F-0.82
F-0.79
tp53
sbag0
(g8
g2
Ntp54
Rp55
(dp56
g12
(F-0.25
F-0.67
F-0.8
F-0.83
tp57
sbag0
(g8
g2
Ntp58
Rp59
(dp60
g12
(F-0.25
F-0.67
F-0.79
F-0.84
tp61
sbag0
(g8
g2
Ntp62
Rp63
(dp64
g12
(F-0.25
F-0.67
F-0.79
F-0.83
tp65
sbag0
(g8
g2
Ntp66
Rp67
(dp68
g12
(F-0.25
F-0.67
F-0.79
F-0.78
tp69
sbag0
(g8
g2
Ntp70
Rp71
(dp72
g12
(F-0.25
F-0.67
F-0.76
F-0.88
tp73
sbag0
(g8
g2
Ntp74
Rp75
(dp76
g12
(F-0.25
F-0.67
F-0.71
F-0.75
tp77
sbag0
(g8
g2
Ntp78
Rp79
(dp80
g12
(F-0.25
F-0.67
F-0.71
F-0.74
tp81
sbag0
(g8
g2
Ntp82
Rp83
(dp84
g12
(F-0.25
F-0.67
F-0.71
F-0.74
tp85
sbag0
(g8
g2
Ntp86
Rp87
(dp88
g12
(F-0.25
F-0.67
F-0.7
F-0.8
tp89
sbag0
(g8
g2
Ntp90
Rp91
(dp92
g12
(F-0.25
F-0.67
F-0.7
F-0.79
tp93
sbag0
(g8
g2
Ntp94
Rp95
(dp96
g12
(F-0.25
F-0.67
F-0.7
F-0.79
tp97
sbag0
(g8
g2
Ntp98
Rp99
(dp100
g12
(F-0.25
F-0.67
F-0.7
F-0.69
tp101
sbag0
(g8
g2
Ntp102
Rp103
(dp104
g12
(F-0.25
F-0.67
F-0.69
F-0.74
tp105
sbag0
(g8
g2
Ntp106
Rp107
(dp108
g12
(F-0.25
F-0.67
F-0.68
F-0.79
tp109
sbag0
(g8
g2
Ntp110
Rp111
(dp112
g12
(F-0.25
F-0.67
F-0.67
F-0.84
tp113
sbag0
(g8
g2
Ntp114
Rp115
(dp116
g12
(F-0.25
F-0.67
F-0.65
F-0.79
tp117
sbag0
(g8
g2
Ntp118
Rp119
(dp120
g12
(F-0.25
F-0.67
F-0.64
F-0.83
tp121
sbag0
(g8
g2
Ntp122
Rp123
(dp124
g12
(F-0.25
F-0.67
F-0.55
F-0.75
tp125
sbag0
(g8
g2
Ntp126
Rp127
(dp128
g12
(F-0.25
F-0.33
F-0.87
F-0.75
tp129
sbag0
(g8
g2
Ntp130
Rp131
(dp132
g12
(F-0.25
F-0.33
F-0.86
F-0.75
tp133
sbag0
(g8
g2
Ntp134
Rp135
(dp136
g12
(F-0.25
F-0.33
F-0.86
F-0.75
tp137
sbag0
(g8
g2
Ntp138
Rp139
(dp140
g12
(F-0.25
F-0.33
F-0.86
F-0.71
tp141
sbag0
(g8
g2
Ntp142
Rp143
(dp144
g12
(F-0.25
F-0.33
F-0.86
F-0.7
tp145
sbag0
(g8
g2
Ntp146
Rp147
(dp148
g12
(F-0.25
F-0.33
F-0.86
F-0.7
tp149
sbag0
(g8
g2
Ntp150
Rp151
(dp152
g12
(F-0.25
F-0.33
F-0.85
F-0.76
tp153
sbag0
(g8
g2
Ntp154
Rp155
(dp156
g12
(F-0.25
F-0.33
F-0.85
F-0.7
tp157
sbag0
(g8
g2
Ntp158
Rp159
(dp160
g12
(F-0.25
F-0.33
F-0.84
F-0.8
tp161
sbag0
(g8
g2
Ntp162
Rp163
(dp164
g12
(F-0.25
F-0.33
F-0.84
F-0.8
tp165
sbag0
(g8
g2
Ntp166
Rp167
(dp168
g12
(F-0.25
F-0.33
F-0.84
F-0.8
tp169
sbag0
(g8
g2
Ntp170
Rp171
(dp172
g12
(F-0.25
F-0.33
F-0.84
F-0.79
tp173
sbag0
(g8
g2
Ntp174
Rp175
(dp176
g12
(F-0.25
F-0.33
F-0.84
F-0.79
tp177
sbag0
(g8
g2
Ntp178
Rp179
(dp180
g12
(F-0.25
F-0.33
F-0.84
F-0.78
tp181
sbag0
(g8
g2
Ntp182
Rp183
(dp184
g12
(F-0.25
F-0.33
F-0.84
F-0.74
tp185
sbag0
(g8
g2
Ntp186
Rp187
(dp188
g12
(F-0.25
F-0.33
F-0.84
F-0.74
tp189
sbag0
(g8
g2
Ntp190
Rp191
(dp192
g12
(F-0.25
F-0.33
F-0.84
F-0.74
tp193
sbag0
(g8
g2
Ntp194
Rp195
(dp196
g12
(F-0.25
F-0.33
F-0.84
F-0.69
tp197
sbag0
(g8
g2
Ntp198
Rp199
(dp200
g12
(F-0.25
F-0.33
F-0.83
F-0.8
tp201
sbag0
(g8
g2
Ntp202
Rp203
(dp204
g12
(F-0.25
F-0.33
F-0.83
F-0.78
tp205
sbag0
(g8
g2
Ntp206
Rp207
(dp208
g12
(F-0.25
F-0.33
F-0.83
F-0.78
tp209
sbag0
(g8
g2
Ntp210
Rp211
(dp212
g12
(F-0.25
F-0.33
F-0.83
F-0.76
tp213
sbag0
(g8
g2
Ntp214
Rp215
(dp216
g12
(F-0.25
F-0.33
F-0.83
F-0.75
tp217
sbag0
(g8
g2
Ntp218
Rp219
(dp220
g12
(F-0.25
F-0.33
F-0.83
F-0.75
tp221
sbag0
(g8
g2
Ntp222
Rp223
(dp224
g12
(F-0.25
F-0.33
F-0.83
F-0.75
tp225
sbag0
(g8
g2
Ntp226
Rp227
(dp228
g12
(F-0.25
F-0.33
F-0.83
F-0.74
tp229
sbag0
(g8
g2
Ntp230
Rp231
(dp232
g12
(F-0.25
F-0.33
F-0.83
F-0.73
tp233
sbag0
(g8
g2
Ntp234
Rp235
(dp236
g12
(F-0.25
F-0.33
F-0.83
F-0.69
tp237
sbag0
(g8
g2
Ntp238
Rp239
(dp240
g12
(F-0.25
F-0.33
F-0.83
F-0.69
tp241
sbag0
(g8
g2
Ntp242
Rp243
(dp244
g12
(F-0.25
F-0.33
F-0.82
F-0.8
tp245
sbag0
(g8
g2
Ntp246
Rp247
(dp248
g12
(F-0.25
F-0.33
F-0.81
F-0.84
tp249
sbag0
(g8
g2
Ntp250
Rp251
(dp252
g12
(F-0.25
F-0.33
F-0.81
F-0.79
tp253
sbag0
(g8
g2
Ntp254
Rp255
(dp256
g12
(F-0.25
F-0.33
F-0.81
F-0.79
tp257
sbag0
(g8
g2
Ntp258
Rp259
(dp260
g12
(F-0.25
F-0.33
F-0.81
F-0.79
tp261
sbag0
(g8
g2
Ntp262
Rp263
(dp264
g12
(F-0.25
F-0.33
F-0.8
F-0.83
tp265
sbag0
(g8
g2
Ntp266
Rp267
(dp268
g12
(F-0.25
F-0.33
F-0.8
F-0.8
tp269
sbag0
(g8
g2
Ntp270
Rp271
(dp272
g12
(F-0.25
F-0.33
F-0.8
F-0.8
tp273
sbag0
(g8
g2
Ntp274
Rp275
(dp276
g12
(F-0.25
F-0.33
F-0.8
F-0.79
tp277
sbag0
(g8
g2
Ntp278
Rp279
(dp280
g12
(F-0.25
F-0.33
F-0.8
F-0.74
tp281
sbag0
(g8
g2
Ntp282
Rp283
(dp284
g12
(F-0.25
F-0.33
F-0.8
F-0.74
tp285
sbag0
(g8
g2
Ntp286
Rp287
(dp288
g12
(F-0.25
F-0.33
F-0.79
F-0.8
tp289
sbag0
(g8
g2
Ntp290
Rp291
(dp292
g12
(F-0.25
F-0.33
F-0.79
F-0.75
tp293
sbag0
(g8
g2
Ntp294
Rp295
(dp296
g12
(F-0.25
F-0.33
F-0.79
F-0.74
tp297
sbag0
(g8
g2
Ntp298
Rp299
(dp300
g12
(F-0.25
F-0.33
F-0.78
F-0.79
tp301
sbag0
(g8
g2
Ntp302
Rp303
(dp304
g12
(F-0.25
F-0.33
F-0.78
F-0.78
tp305
sbag0
(g8
g2
Ntp306
Rp307
(dp308
g12
(F-0.25
F-0.33
F-0.78
F-0.78
tp309
sbag0
(g8
g2
Ntp310
Rp311
(dp312
g12
(F-0.25
F-0.33
F-0.77
F-0.85
tp313
sbag0
(g8
g2
Ntp314
Rp315
(dp316
g12
(F-0.25
F-0.33
F-0.77
F-0.84
tp317
sbag0
(g8
g2
Ntp318
Rp319
(dp320
g12
(F-0.25
F-0.33
F-0.77
F-0.84
tp321
sbag0
(g8
g2
Ntp322
Rp323
(dp324
g12
(F-0.25
F-0.33
F-0.77
F-0.84
tp325
sbag0
(g8
g2
Ntp326
Rp327
(dp328
g12
(F-0.25
F-0.33
F-0.77
F-0.82
tp329
sbag0
(g8
g2
Ntp330
Rp331
(dp332
g12
(F-0.25
F-0.33
F-0.77
F-0.73
tp333
sbag0
(g8
g2
Ntp334
Rp335
(dp336
g12
(F-0.25
F-0.33
F-0.76
F-0.79
tp337
sbag0
(g8
g2
Ntp338
Rp339
(dp340
g12
(F-0.25
F-0.33
F-0.75
F-0.83
tp341
sbag0
(g8
g2
Ntp342
Rp343
(dp344
g12
(F-0.25
F-0.33
F-0.72
F-0.71
tp345
sbag0
(g8
g2
Ntp346
Rp347
(dp348
g12
(F-0.25
F-0.33
F-0.72
F-0.71
tp349
sbag0
(g8
g2
Ntp350
Rp351
(dp352
g12
(F-0.25
F-0.33
F-0.72
F-0.71
tp353
sbag0
(g8
g2
Ntp354
Rp355
(dp356
g12
(F-0.25
F-0.33
F-0.71
F-0.76
tp357
sbag0
(g8
g2
Ntp358
Rp359
(dp360
g12
(F-0.25
F-0.33
F-0.71
F-0.76
tp361
sbag0
(g8
g2
Ntp362
Rp363
(dp364
g12
(F-0.25
F-0.33
F-0.71
F-0.75
tp365
sbag0
(g8
g2
Ntp366
Rp367
(dp368
g12
(F-0.25
F-0.33
F-0.71
F-0.71
tp369
sbag0
(g8
g2
Ntp370
Rp371
(dp372
g12
(F-0.25
F-0.33
F-0.71
F-0.66
tp373
sbag0
(g8
g2
Ntp374
Rp375
(dp376
g12
(F-0.25
F-0.33
F-0.71
F-0.66
tp377
sbag0
(g8
g2
Ntp378
Rp379
(dp380
g12
(F-0.25
F-0.33
F-0.71
F-0.66
tp381
sbag0
(g8
g2
Ntp382
Rp383
(dp384
g12
(F-0.25
F-0.33
F-0.7
F-0.75
tp385
sbag0
(g8
g2
Ntp386
Rp387
(dp388
g12
(F-0.25
F-0.33
F-0.7
F-0.71
tp389
sbag0
(g8
g2
Ntp390
Rp391
(dp392
g12
(F-0.25
F-0.33
F-0.7
F-0.7
tp393
sbag0
(g8
g2
Ntp394
Rp395
(dp396
g12
(F-0.25
F-0.33
F-0.7
F-0.7
tp397
sbag0
(g8
g2
Ntp398
Rp399
(dp400
g12
(F-0.25
F-0.33
F-0.7
F-0.69
tp401
sbag0
(g8
g2
Ntp402
Rp403
(dp404
g12
(F-0.25
F-0.33
F-0.69
F-0.76
tp405
sbag0
(g8
g2
Ntp406
Rp407
(dp408
g12
(F-0.25
F-0.33
F-0.69
F-0.75
tp409
sbag0
(g8
g2
Ntp410
Rp411
(dp412
g12
(F-0.25
F-0.33
F-0.69
F-0.75
tp413
sbag0
(g8
g2
Ntp414
Rp415
(dp416
g12
(F-0.25
F-0.33
F-0.69
F-0.75
tp417
sbag0
(g8
g2
Ntp418
Rp419
(dp420
g12
(F-0.25
F-0.33
F-0.69
F-0.74
tp421
sbag0
(g8
g2
Ntp422
Rp423
(dp424
g12
(F-0.25
F-0.33
F-0.69
F-0.73
tp425
sbag0
(g8
g2
Ntp426
Rp427
(dp428
g12
(F-0.25
F-0.33
F-0.69
F-0.7
tp429
sbag0
(g8
g2
Ntp430
Rp431
(dp432
g12
(F-0.25
F-0.33
F-0.69
F-0.69
tp433
sbag0
(g8
g2
Ntp434
Rp435
(dp436
g12
(F-0.25
F-0.33
F-0.69
F-0.64
tp437
sbag0
(g8
g2
Ntp438
Rp439
(dp440
g12
(F-0.25
F-0.33
F-0.68
F-0.81
tp441
sbag0
(g8
g2
Ntp442
Rp443
(dp444
g12
(F-0.25
F-0.33
F-0.68
F-0.8
tp445
sbag0
(g8
g2
Ntp446
Rp447
(dp448
g12
(F-0.25
F-0.33
F-0.68
F-0.8
tp449
sbag0
(g8
g2
Ntp450
Rp451
(dp452
g12
(F-0.25
F-0.33
F-0.68
F-0.8
tp453
sbag0
(g8
g2
Ntp454
Rp455
(dp456
g12
(F-0.25
F-0.33
F-0.68
F-0.78
tp457
sbag0
(g8
g2
Ntp458
Rp459
(dp460
g12
(F-0.25
F-0.33
F-0.68
F-0.75
tp461
sbag0
(g8
g2
Ntp462
Rp463
(dp464
g12
(F-0.25
F-0.33
F-0.68
F-0.74
tp465
sbag0
(g8
g2
Ntp466
Rp467
(dp468
g12
(F-0.25
F-0.33
F-0.68
F-0.71
tp469
sbag0
(g8
g2
Ntp470
Rp471
(dp472
g12
(F-0.25
F-0.33
F-0.67
F-0.75
tp473
sbag0
(g8
g2
Ntp474
Rp475
(dp476
g12
(F-0.25
F-0.33
F-0.67
F-0.69
tp477
sbag0
(g8
g2
Ntp478
Rp479
(dp480
g12
(F-0.25
F-0.33
F-0.66
F-0.75
tp481
sbag0
(g8
g2
Ntp482
Rp483
(dp484
g12
(F-0.25
F-0.33
F-0.66
F-0.74
tp485
sbag0
(g8
g2
Ntp486
Rp487
(dp488
g12
(F-0.25
F-0.33
F-0.65
F-0.79
tp489
sbag0
(g8
g2
Ntp490
Rp491
(dp492
g12
(F-0.25
F-0.33
F-0.65
F-0.79
tp493
sbag0
(g8
g2
Ntp494
Rp495
(dp496
g12
(F-0.25
F-0.33
F-0.65
F-0.75
tp497
sbag0
(g8
g2
Ntp498
Rp499
(dp500
g12
(F-0.25
F-0.33
F-0.65
F-0.75
tp501
sbag0
(g8
g2
Ntp502
Rp503
(dp504
g12
(F-0.25
F-0.33
F-0.64
F-0.8
tp505
sbag0
(g8
g2
Ntp506
Rp507
(dp508
g12
(F-0.25
F-0.33
F-0.64
F-0.79
tp509
sbag0
(g8
g2
Ntp510
Rp511
(dp512
g12
(F-0.25
F-0.33
F-0.64
F-0.7
tp513
sbag0
(g8
g2
Ntp514
Rp515
(dp516
g12
(F-0.25
F-0.33
F-0.63
F-0.74
tp517
sbag0
(g8
g2
Ntp518
Rp519
(dp520
g12
(F-0.25
F-0.33
F-0.63
F-0.74
tp521
sbag0
(g8
g2
Ntp522
Rp523
(dp524
g12
(F-0.25
F-0.33
F-0.62
F-0.8
tp525
sbag0
(g8
g2
Ntp526
Rp527
(dp528
g12
(F-0.25
F-0.33
F-0.62
F-0.78
tp529
sbag0
(g8
g2
Ntp530
Rp531
(dp532
g12
(F-0.25
F-0.33
F-0.61
F-0.84
tp533
sbag0
(g8
g2
Ntp534
Rp535
(dp536
g12
(F-0.25
F-0.33
F-0.56
F-0.71
tp537
sbag0
(g8
g2
Ntp538
Rp539
(dp540
g12
(F-0.25
F-0.33
F-0.56
F-0.71
tp541
sbag0
(g8
g2
Ntp542
Rp543
(dp544
g12
(F-0.25
F-0.33
F-0.56
F-0.71
tp545
sbag0
(g8
g2
Ntp546
Rp547
(dp548
g12
(F-0.25
F-0.33
F-0.55
F-0.66
tp549
sbag0
(g8
g2
Ntp550
Rp551
(dp552
g12
(F-0.25
F-0.33
F-0.54
F-0.7
tp553
sbag0
(g8
g2
Ntp554
Rp555
(dp556
g12
(F-0.25
F-0.33
F-0.53
F-0.76
tp557
sbag0
(g8
g2
Ntp558
Rp559
(dp560
g12
(F-0.25
F-0.33
F-0.49
F-0.75
tp561
sbag0
(g8
g2
Ntp562
Rp563
(dp564
g12
(F-0.25
F-0.0
F-0.87
F-0.71
tp565
sbag0
(g8
g2
Ntp566
Rp567
(dp568
g12
(F-0.25
F-0.0
F-0.86
F-0.72
tp569
sbag0
(g8
g2
Ntp570
Rp571
(dp572
g12
(F-0.25
F-0.0
F-0.86
F-0.72
tp573
sbag0
(g8
g2
Ntp574
Rp575
(dp576
g12
(F-0.25
F-0.0
F-0.86
F-0.66
tp577
sbag0
(g8
g2
Ntp578
Rp579
(dp580
g12
(F-0.25
F-0.0
F-0.85
F-0.76
tp581
sbag0
(g8
g2
Ntp582
Rp583
(dp584
g12
(F-0.25
F-0.0
F-0.85
F-0.75
tp585
sbag0
(g8
g2
Ntp586
Rp587
(dp588
g12
(F-0.25
F-0.0
F-0.85
F-0.72
tp589
sbag0
(g8
g2
Ntp590
Rp591
(dp592
g12
(F-0.25
F-0.0
F-0.85
F-0.67
tp593
sbag0
(g8
g2
Ntp594
Rp595
(dp596
g12
(F-0.25
F-0.0
F-0.85
F-0.66
tp597
sbag0
(g8
g2
Ntp598
Rp599
(dp600
g12
(F-0.25
F-0.0
F-0.84
F-0.76
tp601
sbag0
(g8
g2
Ntp602
Rp603
(dp604
g12
(F-0.25
F-0.0
F-0.84
F-0.76
tp605
sbag0
(g8
g2
Ntp606
Rp607
(dp608
g12
(F-0.25
F-0.0
F-0.84
F-0.72
tp609
sbag0
(g8
g2
Ntp610
Rp611
(dp612
g12
(F-0.25
F-0.0
F-0.84
F-0.72
tp613
sbag0
(g8
g2
Ntp614
Rp615
(dp616
g12
(F-0.25
F-0.0
F-0.84
F-0.71
tp617
sbag0
(g8
g2
Ntp618
Rp619
(dp620
g12
(F-0.25
F-0.0
F-0.84
F-0.71
tp621
sbag0
(g8
g2
Ntp622
Rp623
(dp624
g12
(F-0.25
F-0.0
F-0.84
F-0.7
tp625
sbag0
(g8
g2
Ntp626
Rp627
(dp628
g12
(F-0.25
F-0.0
F-0.84
F-0.7
tp629
sbag0
(g8
g2
Ntp630
Rp631
(dp632
g12
(F-0.25
F-0.0
F-0.84
F-0.7
tp633
sbag0
(g8
g2
Ntp634
Rp635
(dp636
g12
(F-0.25
F-0.0
F-0.84
F-0.7
tp637
sbag0
(g8
g2
Ntp638
Rp639
(dp640
g12
(F-0.25
F-0.0
F-0.83
F-0.77
tp641
sbag0
(g8
g2
Ntp642
Rp643
(dp644
g12
(F-0.25
F-0.0
F-0.83
F-0.76
tp645
sbag0
(g8
g2
Ntp646
Rp647
(dp648
g12
(F-0.25
F-0.0
F-0.83
F-0.74
tp649
sbag0
(g8
g2
Ntp650
Rp651
(dp652
g12
(F-0.25
F-0.0
F-0.83
F-0.67
tp653
sbag0
(g8
g2
Ntp654
Rp655
(dp656
g12
(F-0.25
F-0.0
F-0.83
F-0.65
tp657
sbag0
(g8
g2
Ntp658
Rp659
(dp660
g12
(F-0.25
F-0.0
F-0.82
F-0.8
tp661
sbag0
(g8
g2
Ntp662
Rp663
(dp664
g12
(F-0.25
F-0.0
F-0.82
F-0.8
tp665
sbag0
(g8
g2
Ntp666
Rp667
(dp668
g12
(F-0.25
F-0.0
F-0.82
F-0.75
tp669
sbag0
(g8
g2
Ntp670
Rp671
(dp672
g12
(F-0.25
F-0.0
F-0.82
F-0.74
tp673
sbag0
(g8
g2
Ntp674
Rp675
(dp676
g12
(F-0.25
F-0.0
F-0.82
F-0.74
tp677
sbag0
(g8
g2
Ntp678
Rp679
(dp680
g12
(F-0.25
F-0.0
F-0.82
F-0.71
tp681
sbag0
(g8
g2
Ntp682
Rp683
(dp684
g12
(F-0.25
F-0.0
F-0.82
F-0.71
tp685
sbag0
(g8
g2
Ntp686
Rp687
(dp688
g12
(F-0.25
F-0.0
F-0.81
F-0.81
tp689
sbag0
(g8
g2
Ntp690
Rp691
(dp692
g12
(F-0.25
F-0.0
F-0.81
F-0.78
tp693
sbag0
(g8
g2
Ntp694
Rp695
(dp696
g12
(F-0.25
F-0.0
F-0.81
F-0.77
tp697
sbag0
(g8
g2
Ntp698
Rp699
(dp700
g12
(F-0.25
F-0.0
F-0.81
F-0.75
tp701
sbag0
(g8
g2
Ntp702
Rp703
(dp704
g12
(F-0.25
F-0.0
F-0.81
F-0.75
tp705
sbag0
(g8
g2
Ntp706
Rp707
(dp708
g12
(F-0.25
F-0.0
F-0.81
F-0.69
tp709
sbag0
(g8
g2
Ntp710
Rp711
(dp712
g12
(F-0.25
F-0.0
F-0.8
F-0.76
tp713
sbag0
(g8
g2
Ntp714
Rp715
(dp716
g12
(F-0.25
F-0.0
F-0.8
F-0.76
tp717
sbag0
(g8
g2
Ntp718
Rp719
(dp720
g12
(F-0.25
F-0.0
F-0.8
F-0.76
tp721
sbag0
(g8
g2
Ntp722
Rp723
(dp724
g12
(F-0.25
F-0.0
F-0.79
F-0.79
tp725
sbag0
(g8
g2
Ntp726
Rp727
(dp728
g12
(F-0.25
F-0.0
F-0.79
F-0.71
tp729
sbag0
(g8
g2
Ntp730
Rp731
(dp732
g12
(F-0.25
F-0.0
F-0.78
F-0.8
tp733
sbag0
(g8
g2
Ntp734
Rp735
(dp736
g12
(F-0.25
F-0.0
F-0.78
F-0.8
tp737
sbag0
(g8
g2
Ntp738
Rp739
(dp740
g12
(F-0.25
F-0.0
F-0.78
F-0.8
tp741
sbag0
(g8
g2
Ntp742
Rp743
(dp744
g12
(F-0.25
F-0.0
F-0.78
F-0.76
tp745
sbag0
(g8
g2
Ntp746
Rp747
(dp748
g12
(F-0.25
F-0.0
F-0.77
F-0.81
tp749
sbag0
(g8
g2
Ntp750
Rp751
(dp752
g12
(F-0.25
F-0.0
F-0.77
F-0.75
tp753
sbag0
(g8
g2
Ntp754
Rp755
(dp756
g12
(F-0.25
F-0.0
F-0.77
F-0.75
tp757
sbag0
(g8
g2
Ntp758
Rp759
(dp760
g12
(F-0.25
F-0.0
F-0.76
F-0.79
tp761
sbag0
(g8
g2
Ntp762
Rp763
(dp764
g12
(F-0.25
F-0.0
F-0.75
F-0.85
tp765
sbag0
(g8
g2
Ntp766
Rp767
(dp768
g12
(F-0.25
F-0.0
F-0.72
F-0.67
tp769
sbag0
(g8
g2
Ntp770
Rp771
(dp772
g12
(F-0.25
F-0.0
F-0.71
F-0.72
tp773
sbag0
(g8
g2
Ntp774
Rp775
(dp776
g12
(F-0.25
F-0.0
F-0.71
F-0.67
tp777
sbag0
(g8
g2
Ntp778
Rp779
(dp780
g12
(F-0.25
F-0.0
F-0.71
F-0.67
tp781
sbag0
(g8
g2
Ntp782
Rp783
(dp784
g12
(F-0.25
F-0.0
F-0.71
F-0.62
tp785
sbag0
(g8
g2
Ntp786
Rp787
(dp788
g12
(F-0.25
F-0.0
F-0.7
F-0.72
tp789
sbag0
(g8
g2
Ntp790
Rp791
(dp792
g12
(F-0.25
F-0.0
F-0.7
F-0.72
tp793
sbag0
(g8
g2
Ntp794
Rp795
(dp796
g12
(F-0.25
F-0.0
F-0.7
F-0.72
tp797
sbag0
(g8
g2
Ntp798
Rp799
(dp800
g12
(F-0.25
F-0.0
F-0.7
F-0.71
tp801
sbag0
(g8
g2
Ntp802
Rp803
(dp804
g12
(F-0.25
F-0.0
F-0.7
F-0.71
tp805
sbag0
(g8
g2
Ntp806
Rp807
(dp808
g12
(F-0.25
F-0.0
F-0.7
F-0.67
tp809
sbag0
(g8
g2
Ntp810
Rp811
(dp812
g12
(F-0.25
F-0.0
F-0.69
F-0.76
tp813
sbag0
(g8
g2
Ntp814
Rp815
(dp816
g12
(F-0.25
F-0.0
F-0.69
F-0.76
tp817
sbag0
(g8
g2
Ntp818
Rp819
(dp820
g12
(F-0.25
F-0.0
F-0.69
F-0.76
tp821
sbag0
(g8
g2
Ntp822
Rp823
(dp824
g12
(F-0.25
F-0.0
F-0.69
F-0.67
tp825
sbag0
(g8
g2
Ntp826
Rp827
(dp828
g12
(F-0.25
F-0.0
F-0.69
F-0.66
tp829
sbag0
(g8
g2
Ntp830
Rp831
(dp832
g12
(F-0.25
F-0.0
F-0.69
F-0.66
tp833
sbag0
(g8
g2
Ntp834
Rp835
(dp836
g12
(F-0.25
F-0.0
F-0.68
F-0.72
tp837
sbag0
(g8
g2
Ntp838
Rp839
(dp840
g12
(F-0.25
F-0.0
F-0.68
F-0.72
tp841
sbag0
(g8
g2
Ntp842
Rp843
(dp844
g12
(F-0.25
F-0.0
F-0.68
F-0.71
tp845
sbag0
(g8
g2
Ntp846
Rp847
(dp848
g12
(F-0.25
F-0.0
F-0.68
F-0.7
tp849
sbag0
(g8
g2
Ntp850
Rp851
(dp852
g12
(F-0.25
F-0.0
F-0.67
F-0.76
tp853
sbag0
(g8
g2
Ntp854
Rp855
(dp856
g12
(F-0.25
F-0.0
F-0.67
F-0.76
tp857
sbag0
(g8
g2
Ntp858
Rp859
(dp860
g12
(F-0.25
F-0.0
F-0.67
F-0.7
tp861
sbag0
(g8
g2
Ntp862
Rp863
(dp864
g12
(F-0.25
F-0.0
F-0.66
F-0.81
tp865
sbag0
(g8
g2
Ntp866
Rp867
(dp868
g12
(F-0.25
F-0.0
F-0.66
F-0.74
tp869
sbag0
(g8
g2
Ntp870
Rp871
(dp872
g12
(F-0.25
F-0.0
F-0.65
F-0.71
tp873
sbag0
(g8
g2
Ntp874
Rp875
(dp876
g12
(F-0.25
F-0.0
F-0.64
F-0.76
tp877
sbag0
(g8
g2
Ntp878
Rp879
(dp880
g12
(F-0.25
F-0.0
F-0.63
F-0.75
tp881
sbag0
(g8
g2
Ntp882
Rp883
(dp884
g12
(F-0.25
F-0.0
F-0.62
F-0.8
tp885
sbag0
(g8
g2
Ntp886
Rp887
(dp888
g12
(F-0.25
F-0.0
F-0.56
F-0.67
tp889
sbag0
(g8
g2
Ntp890
Rp891
(dp892
g12
(F-0.25
F-0.0
F-0.54
F-0.71
tp893
sbag0
(g8
g2
Ntp894
Rp895
(dp896
g12
(F-0.17
F-0.67
F-0.91
F-0.87
tp897
sbag0
(g8
g2
Ntp898
Rp899
(dp900
g12
(F-0.17
F-0.67
F-0.9
F-0.88
tp901
sbag0
(g8
g2
Ntp902
Rp903
(dp904
g12
(F-0.17
F-0.67
F-0.9
F-0.87
tp905
sbag0
(g8
g2
Ntp906
Rp907
(dp908
g12
(F-0.17
F-0.67
F-0.89
F-0.82
tp909
sbag0
(g8
g2
Ntp910
Rp911
(dp912
g12
(F-0.17
F-0.67
F-0.87
F-0.92
tp913
sbag0
(g8
g2
Ntp914
Rp915
(dp916
g12
(F-0.17
F-0.67
F-0.84
F-0.91
tp917
sbag0
(g8
g2
Ntp918
Rp919
(dp920
g12
(F-0.17
F-0.67
F-0.75
F-0.83
tp921
sbag0
(g8
g2
Ntp922
Rp923
(dp924
g12
(F-0.17
F-0.67
F-0.74
F-0.87
tp925
sbag0
(g8
g2
Ntp926
Rp927
(dp928
g12
(F-0.17
F-0.33
F-0.91
F-0.84
tp929
sbag0
(g8
g2
Ntp930
Rp931
(dp932
g12
(F-0.17
F-0.33
F-0.91
F-0.84
tp933
sbag0
(g8
g2
Ntp934
Rp935
(dp936
g12
(F-0.17
F-0.33
F-0.91
F-0.83
tp937
sbag0
(g8
g2
Ntp938
Rp939
(dp940
g12
(F-0.17
F-0.33
F-0.9
F-0.84
tp941
sbag0
(g8
g2
Ntp942
Rp943
(dp944
g12
(F-0.17
F-0.33
F-0.9
F-0.79
tp945
sbag0
(g8
g2
Ntp946
Rp947
(dp948
g12
(F-0.17
F-0.33
F-0.9
F-0.78
tp949
sbag0
(g8
g2
Ntp950
Rp951
(dp952
g12
(F-0.17
F-0.33
F-0.9
F-0.78
tp953
sbag0
(g8
g2
Ntp954
Rp955
(dp956
g12
(F-0.17
F-0.33
F-0.89
F-0.82
tp957
sbag0
(g8
g2
Ntp958
Rp959
(dp960
g12
(F-0.17
F-0.33
F-0.89
F-0.82
tp961
sbag0
(g8
g2
Ntp962
Rp963
(dp964
g12
(F-0.17
F-0.33
F-0.88
F-0.89
tp965
sbag0
(g8
g2
Ntp966
Rp967
(dp968
g12
(F-0.17
F-0.33
F-0.88
F-0.88
tp969
sbag0
(g8
g2
Ntp970
Rp971
(dp972
g12
(F-0.17
F-0.33
F-0.88
F-0.88
tp973
sbag0
(g8
g2
Ntp974
Rp975
(dp976
g12
(F-0.17
F-0.33
F-0.88
F-0.88
tp977
sbag0
(g8
g2
Ntp978
Rp979
(dp980
g12
(F-0.17
F-0.33
F-0.88
F-0.86
tp981
sbag0
(g8
g2
Ntp982
Rp983
(dp984
g12
(F-0.17
F-0.33
F-0.88
F-0.83
tp985
sbag0
(g8
g2
Ntp986
Rp987
(dp988
g12
(F-0.17
F-0.33
F-0.88
F-0.77
tp989
sbag0
(g8
g2
Ntp990
Rp991
(dp992
g12
(F-0.17
F-0.33
F-0.87
F-0.83
tp993
sbag0
(g8
g2
Ntp994
Rp995
(dp996
g12
(F-0.17
F-0.33
F-0.86
F-0.87
tp997
sbag0
(g8
g2
Ntp998
Rp999
(dp1000
g12
(F-0.17
F-0.33
F-0.85
F-0.88
tp1001
sbag0
(g8
g2
Ntp1002
Rp1003
(dp1004
g12
(F-0.17
F-0.33
F-0.85
F-0.88
tp1005
sbag0
(g8
g2
Ntp1006
Rp1007
(dp1008
g12
(F-0.17
F-0.33
F-0.84
F-0.88
tp1009
sbag0
(g8
g2
Ntp1010
Rp1011
(dp1012
g12
(F-0.17
F-0.33
F-0.84
F-0.83
tp1013
sbag0
(g8
g2
Ntp1014
Rp1015
(dp1016
g12
(F-0.17
F-0.33
F-0.82
F-0.92
tp1017
sbag0
(g8
g2
Ntp1018
Rp1019
(dp1020
g12
(F-0.17
F-0.33
F-0.82
F-0.86
tp1021
sbag0
(g8
g2
Ntp1022
Rp1023
(dp1024
g12
(F-0.17
F-0.33
F-0.77
F-0.79
tp1025
sbag0
(g8
g2
Ntp1026
Rp1027
(dp1028
g12
(F-0.17
F-0.33
F-0.76
F-0.83
tp1029
sbag0
(g8
g2
Ntp1030
Rp1031
(dp1032
g12
(F-0.17
F-0.33
F-0.76
F-0.79
tp1033
sbag0
(g8
g2
Ntp1034
Rp1035
(dp1036
g12
(F-0.17
F-0.33
F-0.76
F-0.79
tp1037
sbag0
(g8
g2
Ntp1038
Rp1039
(dp1040
g12
(F-0.17
F-0.33
F-0.75
F-0.84
tp1041
sbag0
(g8
g2
Ntp1042
Rp1043
(dp1044
g12
(F-0.17
F-0.33
F-0.75
F-0.83
tp1045
sbag0
(g8
g2
Ntp1046
Rp1047
(dp1048
g12
(F-0.17
F-0.33
F-0.75
F-0.74
tp1049
sbag0
(g8
g2
Ntp1050
Rp1051
(dp1052
g12
(F-0.17
F-0.33
F-0.74
F-0.79
tp1053
sbag0
(g8
g2
Ntp1054
Rp1055
(dp1056
g12
(F-0.17
F-0.33
F-0.74
F-0.78
tp1057
sbag0
(g8
g2
Ntp1058
Rp1059
(dp1060
g12
(F-0.17
F-0.33
F-0.73
F-0.84
tp1061
sbag0
(g8
g2
Ntp1062
Rp1063
(dp1064
g12
(F-0.17
F-0.33
F-0.73
F-0.82
tp1065
sbag0
(g8
g2
Ntp1066
Rp1067
(dp1068
g12
(F-0.17
F-0.33
F-0.72
F-0.88
tp1069
sbag0
(g8
g2
Ntp1070
Rp1071
(dp1072
g12
(F-0.17
F-0.33
F-0.7
F-0.83
tp1073
sbag0
(g8
g2
Ntp1074
Rp1075
(dp1076
g12
(F-0.17
F-0.33
F-0.69
F-0.88
tp1077
sbag0
(g8
g2
Ntp1078
Rp1079
(dp1080
g12
(F-0.17
F-0.33
F-0.6
F-0.79
tp1081
sbag0
(g8
g2
Ntp1082
Rp1083
(dp1084
g12
(F-0.17
F-0.0
F-0.91
F-0.8
tp1085
sbag0
(g8
g2
Ntp1086
Rp1087
(dp1088
g12
(F-0.17
F-0.0
F-0.91
F-0.8
tp1089
sbag0
(g8
g2
Ntp1090
Rp1091
(dp1092
g12
(F-0.17
F-0.0
F-0.91
F-0.8
tp1093
sbag0
(g8
g2
Ntp1094
Rp1095
(dp1096
g12
(F-0.17
F-0.0
F-0.9
F-0.75
tp1097
sbag0
(g8
g2
Ntp1098
Rp1099
(dp1100
g12
(F-0.17
F-0.0
F-0.89
F-0.84
tp1101
sbag0
(g8
g2
Ntp1102
Rp1103
(dp1104
g12
(F-0.17
F-0.0
F-0.89
F-0.84
tp1105
sbag0
(g8
g2
Ntp1106
Rp1107
(dp1108
g12
(F-0.17
F-0.0
F-0.89
F-0.84
tp1109
sbag0
(g8
g2
Ntp1110
Rp1111
(dp1112
g12
(F-0.17
F-0.0
F-0.89
F-0.8
tp1113
sbag0
(g8
g2
Ntp1114
Rp1115
(dp1116
g12
(F-0.17
F-0.0
F-0.88
F-0.85
tp1117
sbag0
(g8
g2
Ntp1118
Rp1119
(dp1120
g12
(F-0.17
F-0.0
F-0.88
F-0.79
tp1121
sbag0
(g8
g2
Ntp1122
Rp1123
(dp1124
g12
(F-0.17
F-0.0
F-0.88
F-0.79
tp1125
sbag0
(g8
g2
Ntp1126
Rp1127
(dp1128
g12
(F-0.17
F-0.0
F-0.87
F-0.83
tp1129
sbag0
(g8
g2
Ntp1130
Rp1131
(dp1132
g12
(F-0.17
F-0.0
F-0.86
F-0.89
tp1133
sbag0
(g8
g2
Ntp1134
Rp1135
(dp1136
g12
(F-0.17
F-0.0
F-0.84
F-0.84
tp1137
sbag0
(g8
g2
Ntp1138
Rp1139
(dp1140
g12
(F-0.17
F-0.0
F-0.83
F-0.88
tp1141
sbag0
(g8
g2
Ntp1142
Rp1143
(dp1144
g12
(F-0.17
F-0.0
F-0.76
F-0.75
tp1145
sbag0
(g8
g2
Ntp1146
Rp1147
(dp1148
g12
(F-0.17
F-0.0
F-0.75
F-0.8
tp1149
sbag0
(g8
g2
Ntp1150
Rp1151
(dp1152
g12
(F-0.17
F-0.0
F-0.74
F-0.79
tp1153
sbag0
(g8
g2
Ntp1154
Rp1155
(dp1156
g12
(F-0.17
F-0.0
F-0.73
F-0.84
tp1157
sbag0
(g8
g2
Ntp1158
Rp1159
(dp1160
g12
(F-0.08
F-0.67
F-0.95
F-0.96
tp1161
sbag0
(g8
g2
Ntp1162
Rp1163
(dp1164
g12
(F-0.08
F-0.33
F-0.96
F-0.92
tp1165
sbag0
(g8
g2
Ntp1166
Rp1167
(dp1168
g12
(F-0.08
F-0.33
F-0.96
F-0.92
tp1169
sbag0
(g8
g2
Ntp1170
Rp1171
(dp1172
g12
(F-0.08
F-0.33
F-0.95
F-0.92
tp1173
sbag0
(g8
g2
Ntp1174
Rp1175
(dp1176
g12
(F-0.08
F-0.33
F-0.95
F-0.87
tp1177
sbag0
(g8
g2
Ntp1178
Rp1179
(dp1180
g12
(F-0.08
F-0.33
F-0.93
F-0.97
tp1181
sbag0
(g8
g2
Ntp1182
Rp1183
(dp1184
g12
(F-0.08
F-0.33
F-0.93
F-0.91
tp1185
sbag0
(g8
g2
Ntp1186
Rp1187
(dp1188
g12
(F-0.08
F-0.33
F-0.89
F-0.96
tp1189
sbag0
(g8
g2
Ntp1190
Rp1191
(dp1192
g12
(F-0.08
F-0.33
F-0.81
F-0.87
tp1193
sbag0
(g8
g2
Ntp1194
Rp1195
(dp1196
g12
(F-0.08
F-0.33
F-0.8
F-0.92
tp1197
sbag0
(g8
g2
Ntp1198
Rp1199
(dp1200
g12
(F-0.08
F-0.0
F-0.95
F-0.88
tp1201
sbag0
(g8
g2
Ntp1202
Rp1203
(dp1204
g12
(F-0.08
F-0.0
F-0.94
F-0.92
tp1205
sbag0
(g8
g2
Ntp1206
Rp1207
(dp1208
g12
(F-0.0
F-0.33
F-1.0
F-1.0
tp1209
sbasS'items'
p1210
(lp1211
g0
(cdeap.creator
Individual
p1212
c__builtin__
list
p1213
(lp1214
I1
aI1
aI1
aI1
aI1
aI1
aI1
aI1
aI1
aI1
aI1
aI1
atp1215
Rp1216
(dp1217
S'ibea_fitness'
p1218
cnumpy.core.multiarray
scalar
p1219
(cnumpy
dtype
p1220
(S'f8'
p1221
I0
I1
tp1222
Rp1223
(I3
S'<'
p1224
NNNI-1
I-1
I0
tp1225
bS'xu\xc2\x08\xddP\x04@'
p1226
tp1227
Rp1228
sS'fitness'
p1229
g1207
sbag0
(g1212
g1213
(lp1230
I1
aI1
aI1
aI1
aI1
aI1
aI1
aI1
aI1
aI1
aI1
aI0
atp1231
Rp1232
(dp1233
g1218
g1219
(g1223
S'L<\xa9\xcd\x18\xcc\x0f@'
p1234
tp1235
Rp1236
sg1229
g1203
sbag0
(g1212
g1213
(lp1237
I1
aI1
aI1
aI1
aI0
aI1
aI1
aI1
aI1
aI1
aI1
aI1
atp1238
Rp1239
(dp1240
g1218
g1219
(g1223
S'\xb0\x04\x8a\x1c\xa3\xa7\x0c@'
p1241
tp1242
Rp1243
sg1229
g1199
sbag0
(g1212
g1213
(lp1244
I1
aI1
aI1
aI1
aI1
aI1
aI1
aI1
aI1
aI1
aI0
aI1
atp1245
Rp1246
(dp1247
g1218
g1219
(g1223
S'\xdalA\xb3\xbd1O@'
p1248
tp1249
Rp1250
sg1229
g1195
sbag0
(g1212
g1213
(lp1251
I1
aI1
aI1
aI1
aI1
aI1
aI1
aI0
aI1
aI1
aI1
aI1
atp1252
Rp1253
(dp1254
g1218
g1219
(g1223
S'\x17\xa3\xba6A;%@'
p1255
tp1256
Rp1257
sg1229
g1191
sbag0
(g1212
g1213
(lp1258
I1
aI1
aI1
aI1
aI1
aI0
aI1
aI1
aI1
aI1
aI1
aI1
atp1259
Rp1260
(dp1261
g1218
g1219
(g1223
S'\xd9\x83\xca\xf6\xca\x9bB@'
p1262
tp1263
Rp1264
sg1229
g1187
sbag0
(g1212
g1213
(lp1265
I1
aI1
aI1
aI1
aI1
aI1
aI1
aI1
aI1
aI0
aI1
aI1
atp1266
Rp1267
(dp1268
g1218
g1219
(g1223
S'\x9e\xff\x95\xed6J[@'
p1269
tp1270
Rp1271
sg1229
g1183
sbag0
(g1212
g1213
(lp1272
I1
aI1
aI1
aI0
aI1
aI1
aI1
aI1
aI1
aI1
aI1
aI1
atp1273
Rp1274
(dp1275
g1218
g1219
(g1223
S'b\r4$fzk@'
p1276
tp1277
Rp1278
sg1229
g1179
sbag0
(g1212
g1213
(lp1279
I1
aI1
aI1
aI1
aI1
aI1
aI1
aI1
aI0
aI1
aI1
aI1
atp1280
Rp1281
(dp1282
g1218
g1219
(g1223
S'\x9aP\xe9\x0cCWG@'
p1283
tp1284
Rp1285
sg1229
g1175
sbag0
(g1212
g1213
(lp1286
I0
aI1
aI1
aI1
aI1
aI1
aI1
aI1
aI1
aI1
aI1
aI1
atp1287
Rp1288
(dp1289
g1218
g1219
(g1223
S'v\xce\xb4\x88\x81:+@'
p1290
tp1291
Rp1292
sg1229
g1171
sbag0
(g1212
g1213
(lp1293
I1
aI1
aI0
aI1
aI1
aI1
aI1
aI1
aI1
aI1
aI1
aI1
atp1294
Rp1295
(dp1296
g1218
g1219
(g1223
S'0\xabZ\x82\xc1fK@'
p1297
tp1298
Rp1299
sg1229
g1167
sbag0
(g1212
g1213
(lp1300
I1
aI0
aI1
aI1
aI1
aI1
aI1
aI1
aI1
aI1
aI1
aI1
atp1301
Rp1302
(dp1303
g1218
g1219
(g1223
S'0\xabZ\x82\xc1fK@'
p1304
tp1305
Rp1306
sg1229
g1163
sbag0
(g1212
g1213
(lp1307
I1
aI1
aI1
aI1
aI1
aI1
aI0
aI1
aI1
aI1
aI1
aI1
atp1308
Rp1309
(dp1310
g1218
g1219
(g1223
S'y1\xb6p\xb100@'
p1311
tp1312
Rp1313
sg1229
g1159
sbag0
(g1212
g1213
(lp1314
I1
aI1
aI1
aI1
aI1
aI1
aI1
aI1
aI1
aI1
aI0
aI0
atp1315
Rp1316
(dp1317
g1218
g1219
(g1223
S"kpC\xc6{8'@"
p1318
tp1319
Rp1320
sg1229
g1155
sbag0
(g1212
g1213
(lp1321
I1
aI1
aI1
aI1
aI1
aI1
aI1
aI0
aI1
aI1
aI1
aI0
atp1322
Rp1323
(dp1324
g1218
g1219
(g1223
S'<\x10;4\xe8`E@'
p1325
tp1326
Rp1327
sg1229
g1151
sbag0
(g1212
g1213
(lp1328
I1
aI1
aI1
aI1
aI0
aI1
aI1
aI1
aI1
aI1
aI0
aI1
atp1329
Rp1330
(dp1331
g1218
g1219
(g1223
S'\xeb\xce\x1026w)@'
p1332
tp1333
Rp1334
sg1229
g1147
sbag0
(g1212
g1213
(lp1335
I1
aI1
aI1
aI1
aI0
aI1
aI1
aI0
aI1
aI1
aI1
aI1
atp1336
Rp1337
(dp1338
g1218
g1219
(g1223
S's\xcd\xb6K\xf3{D@'
p1339
tp1340
Rp1341
sg1229
g1143
sbag0
(g1212
g1213
(lp1342
I1
aI1
aI1
aI1
aI1
aI0
aI1
aI1
aI1
aI1
aI1
aI0
atp1343
Rp1344
(dp1345
g1218
g1219
(g1223
S'\xa2\x98g\xd0>\xfde@'
p1346
tp1347
Rp1348
sg1229
g1139
sbag0
(g1212
g1213
(lp1349
I1
aI1
aI1
aI1
aI0
aI0
aI1
aI1
aI1
aI1
aI1
aI1
atp1350
Rp1351
(dp1352
g1218
g1219
(g1223
S'\x149\x98\x08\x03\xf31@'
p1353
tp1354
Rp1355
sg1229
g1135
sbag0
(g1212
g1213
(lp1356
I1
aI1
aI1
aI0
aI1
aI1
aI1
aI1
aI1
aI1
aI1
aI0
atp1357
Rp1358
(dp1359
g1218
g1219
(g1223
S'~\xf7\xe3\xcb\x0eZ4@'
p1360
tp1361
Rp1362
sg1229
g1131
sbag0
(g1212
g1213
(lp1363
I1
aI1
aI1
aI1
aI1
aI1
aI1
aI1
aI1
aI0
aI1
aI0
atp1364
Rp1365
(dp1366
g1218
g1219
(g1223
S'\x97\x91!\x1b\xfa\xf22@'
p1367
tp1368
Rp1369
sg1229
g1127
sbag0
(g1212
g1213
(lp1370
I1
aI1
aI1
aI1
aI0
aI1
aI1
aI1
aI1
aI0
aI1
aI1
atp1371
Rp1372
(dp1373
g1218
g1219
(g1223
S'\xb81P\x16\xab"M@'
p1374
tp1375
Rp1376
sg1229
g1123
sbag0
(g1212
g1213
(lp1377
I1
aI1
aI1
aI1
aI1
aI1
aI1
aI1
aI0
aI1
aI1
aI0
atp1378
Rp1379
(dp1380
g1218
g1219
(g1223
S'\xb8 \x14\x98"\xc4/@'
p1381
tp1382
Rp1383
sg1229
g1119
sbag0
(g1212
g1213
(lp1384
I1
aI1
aI1
aI0
aI0
aI1
aI1
aI1
aI1
aI1
aI1
aI1
atp1385
Rp1386
(dp1387
g1218
g1219
(g1223
S'\x0c1\xb7\x06\x7f\x12S@'
p1388
tp1389
Rp1390
sg1229
g1115
sbag0
(g1212
g1213
(lp1391
I1
aI1
aI1
aI1
aI0
aI1
aI1
aI1
aI1
aI1
aI1
aI0
atp1392
Rp1393
(dp1394
g1218
g1219
(g1223
S'\r\xeb~\xb1\xbc\x051@'
p1395
tp1396
Rp1397
sg1229
g1111
sbag0
(g1212
g1213
(lp1398
I0
aI1
aI1
aI1
aI1
aI1
aI1
aI1
aI1
aI1
aI1
aI0
atp1399
Rp1400
(dp1401
g1218
g1219
(g1223
S'M\xe9\xb8&\x08\x8db@'
p1402
tp1403
Rp1404
sg1229
g1107
sbag0
(g1212
g1213
(lp1405
I1
aI1
aI0
aI1
aI1
aI1
aI1
aI1
aI1
aI1
aI1
aI0
atp1406
Rp1407
(dp1408
g1218
g1219
(g1223
S'M\xe9\xb8&\x08\x8db@'
p1409
tp1410
Rp1411
sg1229
g1103
sbag0
(g1212
g1213
(lp1412
I1
aI0
aI1
aI1
aI1
aI1
aI1
aI1
aI1
aI1
aI1
aI0
atp1413
Rp1414
(dp1415
g1218
g1219
(g1223
S'\x11hZ\x0f\xcd3S@'
p1416
tp1417
Rp1418
sg1229
g1099
sbag0
(g1212
g1213
(lp1419
I1
aI1
aI1
aI1
aI0
aI1
aI1
aI1
aI0
aI1
aI1
aI1
atp1420
Rp1421
(dp1422
g1218
g1219
(g1223
S'\x08\xf4\x83:\xc4\xf7F@'
p1423
tp1424
Rp1425
sg1229
g1095
sbag0
(g1212
g1213
(lp1426
I0
aI1
aI1
aI1
aI0
aI1
aI1
aI1
aI1
aI1
aI1
aI1
atp1427
Rp1428
(dp1429
g1218
g1219
(g1223
S'\x0b\x88z1\xc1_e@'
p1430
tp1431
Rp1432
sg1229
g1091
sbag0
(g1212
g1213
(lp1433
I1
aI0
aI1
aI1
aI0
aI1
aI1
aI1
aI1
aI1
aI1
aI1
atp1434
Rp1435
(dp1436
g1218
g1219
(g1223
S'\x0b\x88z1\xc1_e@'
p1437
tp1438
Rp1439
sg1229
g1087
sbag0
(g1212
g1213
(lp1440
I1
aI1
aI0
aI1
aI0
aI1
aI1
aI1
aI1
aI1
aI1
aI1
atp1441
Rp1442
(dp1443
g1218
g1219
(g1223
S'\xf4\x1aM2\xa7\x84O@'
p1444
tp1445
Rp1446
sg1229
g1083
sbag0
(g1212
g1213
(lp1447
I1
aI1
aI1
aI1
aI1
aI1
aI1
aI0
aI1
aI1
aI0
aI1
atp1448
Rp1449
(dp1450
g1218
g1219
(g1223
S'\\oQ\xbb\xc8\xa61@'
p1451
tp1452
Rp1453
sg1229
g1079
sbag0
(g1212
g1213
(lp1454
I1
aI1
aI1
aI1
aI1
aI0
aI1
aI1
aI1
aI1
aI0
aI1
atp1455
Rp1456
(dp1457
g1218
g1219
(g1223
S'\xd7\xc980\x86Qd@'
p1458
tp1459
Rp1460
sg1229
g1075
sbag0
(g1212
g1213
(lp1461
I1
aI1
aI1
aI1
aI1
aI0
aI1
aI0
aI1
aI1
aI1
aI1
atp1462
Rp1463
(dp1464
g1218
g1219
(g1223
S'IL\x97\x85u\xe5P@'
p1465
tp1466
Rp1467
sg1229
g1071
sbag0
(g1212
g1213
(lp1468
I1
aI1
aI1
aI0
aI1
aI1
aI1
aI1
aI1
aI1
aI0
aI1
atp1469
Rp1470
(dp1471
g1218
g1219
(g1223
S'zJ\xf6\xc4K%?@'
p1472
tp1473
Rp1474
sg1229
g1067
sbag0
(g1212
g1213
(lp1475
I1
aI1
aI1
aI1
aI1
aI1
aI1
aI1
aI1
aI0
aI0
aI1
atp1476
Rp1477
(dp1478
g1218
g1219
(g1223
S'\xeb\xaai\x01\xda\xb9T@'
p1479
tp1480
Rp1481
sg1229
g1063
sbag0
(g1212
g1213
(lp1482
I1
aI1
aI1
aI0
aI1
aI1
aI1
aI0
aI1
aI1
aI1
aI1
atp1483
Rp1484
(dp1485
g1218
g1219
(g1223
S'x~\xcf\xec\xbc3e@'
p1486
tp1487
Rp1488
sg1229
g1059
sbag0
(g1212
g1213
(lp1489
I1
aI1
aI1
aI1
aI1
aI1
aI1
aI0
aI1
aI0
aI1
aI1
atp1490
Rp1491
(dp1492
g1218
g1219
(g1223
S'\x14j\x87I_\x8ef@'
p1493
tp1494
Rp1495
sg1229
g1055
sbag0
(g1212
g1213
(lp1496
I1
aI1
aI1
aI1
aI1
aI1
aI1
aI1
aI0
aI1
aI0
aI1
atp1497
Rp1498
(dp1499
g1218
g1219
(g1223
S'\x07\x9b\x8dDbYc@'
p1500
tp1501
Rp1502
sg1229
g1051
sbag0
(g1212
g1213
(lp1503
I1
aI1
aI1
aI1
aI1
aI1
aI1
aI0
aI0
aI1
aI1
aI1
atp1504
Rp1505
(dp1506
g1218
g1219
(g1223
S'\xc2O\x06E\x18\x0e>@'
p1507
tp1508
Rp1509
sg1229
g1047
sbag0
(g1212
g1213
(lp1510
I1
aI0
aI1
aI1
aI1
aI1
aI1
aI1
aI1
aI1
aI0
aI1
atp1511
Rp1512
(dp1513
g1218
g1219
(g1223
S'%9\xdc\x1c\xfafB@'
p1514
tp1515
Rp1516
sg1229
g1043
sbag0
(g1212
g1213
(lp1517
I0
aI1
aI1
aI1
aI1
aI1
aI1
aI1
aI1
aI1
aI0
aI1
atp1518
Rp1519
(dp1520
g1218
g1219
(g1223
S'\xd1\x950g\x00\xb2g@'
p1521
tp1522
Rp1523
sg1229
g1039
sbag0
(g1212
g1213
(lp1524
I1
aI0
aI1
aI1
aI1
aI1
aI1
aI0
aI1
aI1
aI1
aI1
atp1525
Rp1526
(dp1527
g1218
g1219
(g1223
S'\xb4q\xf0\x7fa\x05W@'
p1528
tp1529
Rp1530
sg1229
g1035
sbag0
(g1212
g1213
(lp1531
I0
aI1
aI1
aI1
aI1
aI1
aI1
aI0
aI1
aI1
aI1
aI1
atp1532
Rp1533
(dp1534
g1218
g1219
(g1223
S'\xd2w\x9b\xf6\xd2\rB@'
p1535
tp1536
Rp1537
sg1229
g1031
sbag0
(g1212
g1213
(lp1538
I1
aI1
aI0
aI1
aI1
aI1
aI1
aI1
aI1
aI1
aI0
aI1
atp1539
Rp1540
(dp1541
g1218
g1219
(g1223
S'Z\xf2\x99\xce"\x9fY@'
p1542
tp1543
Rp1544
sg1229
g1027
sbag0
(g1212
g1213
(lp1545
I1
aI1
aI0
aI1
aI1
aI1
aI1
aI0
aI1
aI1
aI1
aI1
atp1546
Rp1547
(dp1548
g1218
g1219
(g1223
S'\x05\xc7\xfc\x1d\xea\x90B@'
p1549
tp1550
Rp1551
sg1229
g1023
sbag0
(g1212
g1213
(lp1552
I1
aI1
aI1
aI1
aI1
aI0
aI1
aI1
aI1
aI0
aI1
aI1
atp1553
Rp1554
(dp1555
g1218
g1219
(g1223
S'\x1c\xecB\x05\x9e\xe8^@'
p1556
tp1557
Rp1558
sg1229
g1019
sbag0
(g1212
g1213
(lp1559
I1
aI1
aI1
aI0
aI1
aI0
aI1
aI1
aI1
aI1
aI1
aI1
atp1560
Rp1561
(dp1562
g1218
g1219
(g1223
S'V\x11\x8c\xec+BH@'
p1563
tp1564
Rp1565
sg1229
g1015
sbag0
(g1212
g1213
(lp1566
I1
aI1
aI1
aI1
aI1
aI0
aI1
aI1
aI0
aI1
aI1
aI1
atp1567
Rp1568
(dp1569
g1218
g1219
(g1223
S'\x05\xacY\xbc\x17hx@'
p1570
tp1571
Rp1572
sg1229
g1011
sbag0
(g1212
g1213
(lp1573
I0
aI1
aI1
aI1
aI1
aI0
aI1
aI1
aI1
aI1
aI1
aI1
atp1574
Rp1575
(dp1576
g1218
g1219
(g1223
S'C\x9f\x9a2\xc5\xfeI@'
p1577
tp1578
Rp1579
sg1229
g1007
sbag0
(g1212
g1213
(lp1580
I1
aI0
aI1
aI1
aI1
aI0
aI1
aI1
aI1
aI1
aI1
aI1
atp1581
Rp1582
(dp1583
g1218
g1219
(g1223
S'\x04>9\xb6\xa1\xe5\x80@'
p1584
tp1585
Rp1586
sg1229
g1003
sbag0
(g1212
g1213
(lp1587
I1
aI1
aI0
aI1
aI1
aI0
aI1
aI1
aI1
aI1
aI1
aI1
atp1588
Rp1589
(dp1590
g1218
g1219
(g1223
S'\\J\xf6\xb3\x85\x7fa@'
p1591
tp1592
Rp1593
sg1229
g999
sbag0
(g1212
g1213
(lp1594
I1
aI1
aI1
aI0
aI1
aI1
aI1
aI1
aI1
aI0
aI1
aI1
atp1595
Rp1596
(dp1597
g1218
g1219
(g1223
S'\x81\xd1\xc9\xe0\x05XK@'
p1598
tp1599
Rp1600
sg1229
g995
sbag0
(g1212
g1213
(lp1601
I1
aI1
aI1
aI0
aI1
aI1
aI1
aI1
aI0
aI1
aI1
aI1
atp1602
Rp1603
(dp1604
g1218
g1219
(g1223
S'D\xda\xbe\xfd\x86\xfax@'
p1605
tp1606
Rp1607
sg1229
g991
sbag0
(g1212
g1213
(lp1608
I1
aI1
aI1
aI1
aI1
aI1
aI1
aI1
aI0
aI0
aI1
aI1
atp1609
Rp1610
(dp1611
g1218
g1219
(g1223
S'\xe1E\xee\xd2\xd4|X@'
p1612
tp1613
Rp1614
sg1229
g987
sbag0
(g1212
g1213
(lp1615
I0
aI1
aI1
aI1
aI1
aI1
aI1
aI1
aI1
aI0
aI1
aI1
atp1616
Rp1617
(dp1618
g1218
g1219
(g1223
S'\xb2\xe2\xec\xf6)O}@'
p1619
tp1620
Rp1621
sg1229
g983
sbag0
(g1212
g1213
(lp1622
I1
aI1
aI1
aI1
aI1
aI1
aI0
aI1
aI1
aI0
aI1
aI1
atp1623
Rp1624
(dp1625
g1218
g1219
(g1223
S'\xc6\xbd\xcc\x1c\xfa\xaeK@'
p1626
tp1627
Rp1628
sg1229
g979
sbag0
(g1212
g1213
(lp1629
I1
aI0
aI1
aI0
aI1
aI1
aI1
aI1
aI1
aI1
aI1
aI1
atp1630
Rp1631
(dp1632
g1218
g1219
(g1223
S'\x1b\xab\x18\xdb\x1a\xf4j@'
p1633
tp1634
Rp1635
sg1229
g975
sbag0
(g1212
g1213
(lp1636
I1
aI1
aI1
aI1
aI1
aI1
aI0
aI1
aI1
aI1
aI1
aI0
atp1637
Rp1638
(dp1639
g1218
g1219
(g1223
S'R\xc6\x8b\xa6}\xb1c@'
p1640
tp1641
Rp1642
sg1229
g971
sbag0
(g1212
g1213
(lp1643
I1
aI1
aI0
aI0
aI1
aI1
aI1
aI1
aI1
aI1
aI1
aI1
atp1644
Rp1645
(dp1646
g1218
g1219
(g1223
S'7\x94\xcaf\x0f\xd4M@'
p1647
tp1648
Rp1649
sg1229
g967
sbag0
(g1212
g1213
(lp1650
I0
aI1
aI1
aI0
aI1
aI1
aI1
aI1
aI1
aI1
aI1
aI1
atp1651
Rp1652
(dp1653
g1218
g1219
(g1223
S';\xdc\x1f\xa22-N@'
p1654
tp1655
Rp1656
sg1229
g963
sbag0
(g1212
g1213
(lp1657
I1
aI1
aI0
aI1
aI1
aI1
aI1
aI1
aI1
aI0
aI1
aI1
atp1658
Rp1659
(dp1660
g1218
g1219
(g1223
S'\xada\x16f\xe5\x8cu@'
p1661
tp1662
Rp1663
sg1229
g959
sbag0
(g1212
g1213
(lp1664
I1
aI0
aI1
aI1
aI1
aI1
aI1
aI1
aI1
aI0
aI1
aI1
atp1665
Rp1666
(dp1667
g1218
g1219
(g1223
S"\x1fx\xba\xb0\xf0'{@"
p1668
tp1669
Rp1670
sg1229
g955
sbag0
(g1212
g1213
(lp1671
I1
aI0
aI1
aI1
aI1
aI1
aI1
aI1
aI0
aI1
aI1
aI1
atp1672
Rp1673
(dp1674
g1218
g1219
(g1223
S'B\x0b\xc2DupD@'
p1675
tp1676
Rp1677
sg1229
g951
sbag0
(g1212
g1213
(lp1678
I1
aI1
aI0
aI1
aI1
aI1
aI1
aI1
aI0
aI1
aI1
aI1
atp1679
Rp1680
(dp1681
g1218
g1219
(g1223
S'B\x0b\xc2DupD@'
p1682
tp1683
Rp1684
sg1229
g947
sbag0
(g1212
g1213
(lp1685
I0
aI1
aI1
aI1
aI1
aI1
aI1
aI1
aI0
aI1
aI1
aI1
atp1686
Rp1687
(dp1688
g1218
g1219
(g1223
S'd^\xfc\xa3\x01\x95l@'
p1689
tp1690
Rp1691
sg1229
g943
sbag0
(g1212
g1213
(lp1692
I1
aI1
aI1
aI1
aI0
aI1
aI0
aI1
aI1
aI1
aI1
aI1
atp1693
Rp1694
(dp1695
g1218
g1219
(g1223
S'\xf8b\x06(\x87\xcep@'
p1696
tp1697
Rp1698
sg1229
g939
sbag0
(g1212
g1213
(lp1699
I1
aI0
aI0
aI1
aI1
aI1
aI1
aI1
aI1
aI1
aI1
aI1
atp1700
Rp1701
(dp1702
g1218
g1219
(g1223
S'To\xbcto\x9fI@'
p1703
tp1704
Rp1705
sg1229
g935
sbag0
(g1212
g1213
(lp1706
I0
aI0
aI1
aI1
aI1
aI1
aI1
aI1
aI1
aI1
aI1
aI1
atp1707
Rp1708
(dp1709
g1218
g1219
(g1223
S'Y\xc5\x1fVX`k@'
p1710
tp1711
Rp1712
sg1229
g931
sbag0
(g1212
g1213
(lp1713
I0
aI1
aI0
aI1
aI1
aI1
aI1
aI1
aI1
aI1
aI1
aI1
atp1714
Rp1715
(dp1716
g1218
g1219
(g1223
S'\xec\x18\xcc\xbcy\xffb@'
p1717
tp1718
Rp1719
sg1229
g927
sbag0
(g1212
g1213
(lp1720
I1
aI1
aI1
aI1
aI1
aI1
aI0
aI1
aI1
aI1
aI0
aI1
atp1721
Rp1722
(dp1723
g1218
g1219
(g1223
S'\xde\x87I\x81\x9cVX@'
p1724
tp1725
Rp1726
sg1229
g923
sbag0
(g1212
g1213
(lp1727
I1
aI1
aI1
aI1
aI1
aI1
aI0
aI0
aI1
aI1
aI1
aI1
atp1728
Rp1729
(dp1730
g1218
g1219
(g1223
S'~\xe5\xba\xe5\xe8\xf9D@'
p1731
tp1732
Rp1733
sg1229
g919
sbag0
(g1212
g1213
(lp1734
I1
aI1
aI1
aI1
aI1
aI0
aI0
aI1
aI1
aI1
aI1
aI1
atp1735
Rp1736
(dp1737
g1218
g1219
(g1223
S'\x9dro\xb7.,O@'
p1738
tp1739
Rp1740
sg1229
g915
sbag0
(g1212
g1213
(lp1741
I1
aI1
aI1
aI0
aI1
aI1
aI0
aI1
aI1
aI1
aI1
aI1
atp1742
Rp1743
(dp1744
g1218
g1219
(g1223
S'q\xd1\x02\r\xbdOR@'
p1745
tp1746
Rp1747
sg1229
g911
sbag0
(g1212
g1213
(lp1748
I1
aI1
aI1
aI1
aI1
aI1
aI0
aI1
aI0
aI1
aI1
aI1
atp1749
Rp1750
(dp1751
g1218
g1219
(g1223
S'\xd1I\x15\xa8\xc9\xeb|@'
p1752
tp1753
Rp1754
sg1229
g907
sbag0
(g1212
g1213
(lp1755
I1
aI0
aI1
aI1
aI1
aI1
aI0
aI1
aI1
aI1
aI1
aI1
atp1756
Rp1757
(dp1758
g1218
g1219
(g1223
S'A6\xd9\xed\xddz~@'
p1759
tp1760
Rp1761
sg1229
g903
sbag0
(g1212
g1213
(lp1762
I0
aI1
aI1
aI1
aI1
aI1
aI0
aI1
aI1
aI1
aI1
aI1
atp1763
Rp1764
(dp1765
g1218
g1219
(g1223
S'\xe0SS\xc8\x1d\xc6Q@'
p1766
tp1767
Rp1768
sg1229
g899
sbag0
(g1212
g1213
(lp1769
I1
aI1
aI0
aI1
aI1
aI1
aI0
aI1
aI1
aI1
aI1
aI1
atp1770
Rp1771
(dp1772
g1218
g1219
(g1223
S'\x1e"j \xb7\x0bQ@'
p1773
tp1774
Rp1775
sg1229
g895
sbag0
(g1212
g1213
(lp1776
I1
aI1
aI1
aI1
aI1
aI1
aI1
aI0
aI1
aI1
aI0
aI0
atp1777
Rp1778
(dp1779
g1218
g1219
(g1223
S'\xec\r\x14O\xb0P0@'
p1780
tp1781
Rp1782
sg1229
g891
sbag0
(g1212
g1213
(lp1783
I1
aI1
aI1
aI1
aI0
aI1
aI1
aI0
aI1
aI1
aI0
aI1
atp1784
Rp1785
(dp1786
g1218
g1219
(g1223
S'|f\x1a\x96\xeetC@'
p1787
tp1788
Rp1789
sg1229
g887
sbag0
(g1212
g1213
(lp1790
I1
aI1
aI1
aI1
aI1
aI0
aI1
aI1
aI1
aI1
aI0
aI0
atp1791
Rp1792
(dp1793
g1218
g1219
(g1223
S'\xcf+\x14hK\x15Y@'
p1794
tp1795
Rp1796
sg1229
g883
sbag0
(g1212
g1213
(lp1797
I1
aI1
aI1
aI1
aI1
aI0
aI1
aI0
aI1
aI1
aI1
aI0
atp1798
Rp1799
(dp1800
g1218
g1219
(g1223
S'\xfc\xbf\x83"\x16\x96b@'
p1801
tp1802
Rp1803
sg1229
g879
sbag0
(g1212
g1213
(lp1804
I1
aI1
aI1
aI1
aI0
aI0
aI1
aI1
aI1
aI1
aI0
aI1
atp1805
Rp1806
(dp1807
g1218
g1219
(g1223
S'\xddGq\r\xf6RQ@'
p1808
tp1809
Rp1810
sg1229
g875
sbag0
(g1212
g1213
(lp1811
I1
aI1
aI1
aI1
aI0
aI0
aI1
aI0
aI1
aI1
aI1
aI1
atp1812
Rp1813
(dp1814
g1218
g1219
(g1223
S'\xa5\x1e\x99;$5]@'
p1815
tp1816
Rp1817
sg1229
g871
sbag0
(g1212
g1213
(lp1818
I1
aI1
aI1
aI1
aI1
aI1
aI1
aI1
aI1
aI0
aI0
aI0
atp1819
Rp1820
(dp1821
g1218
g1219
(g1223
S"'\x11;\xccK\xf9=@"
p1822
tp1823
Rp1824
sg1229
g867
sbag0
(g1212
g1213
(lp1825
I1
aI1
aI1
aI0
aI1
aI1
aI1
aI1
aI1
aI1
aI0
aI0
atp1826
Rp1827
(dp1828
g1218
g1219
(g1223
S'\xd4\x7f\x04\xa4;Ct@'
p1829
tp1830
Rp1831
sg1229
g863
sbag0
(g1212
g1213
(lp1832
I1
aI1
aI1
aI1
aI1
aI1
aI1
aI0
aI1
aI0
aI1
aI0
atp1833
Rp1834
(dp1835
g1218
g1219
(g1223
S'\x8f,W?;*>@'
p1836
tp1837
Rp1838
sg1229
g859
sbag0
(g1212
g1213
(lp1839
I1
aI1
aI1
aI0
aI1
aI1
aI1
aI0
aI1
aI1
aI1
aI0
atp1840
Rp1841
(dp1842
g1218
g1219
(g1223
S'\x03H?Y\x06\xc0t@'
p1843
tp1844
Rp1845
sg1229
g855
sbag0
(g1212
g1213
(lp1846
I1
aI1
aI1
aI0
aI0
aI1
aI1
aI1
aI1
aI1
aI0
aI1
atp1847
Rp1848
(dp1849
g1218
g1219
(g1223
S'Bq\xc5\xb8\x8f\xa1b@'
p1850
tp1851
Rp1852
sg1229
g851
sbag0
(g1212
g1213
(lp1853
I1
aI1
aI1
aI1
aI0
aI1
aI1
aI1
aI1
aI0
aI0
aI1
atp1854
Rp1855
(dp1856
g1218
g1219
(g1223
S'\tp\n\x90x%U@'
p1857
tp1858
Rp1859
sg1229
g847
sbag0
(g1212
g1213
(lp1860
I1
aI1
aI1
aI1
aI1
aI1
aI1
aI1
aI0
aI1
aI0
aI0
atp1861
Rp1862
(dp1863
g1218
g1219
(g1223
S'\xb0\xfe\xe7\xd4\xd1\x15b@'
p1864
tp1865
Rp1866
sg1229
g843
sbag0
(g1212
g1213
(lp1867
I1
aI1
aI1
aI0
aI0
aI1
aI1
aI0
aI1
aI1
aI1
aI1
atp1868
Rp1869
(dp1870
g1218
g1219
(g1223
S'\xcf\xb7\xd6\x9e\xfb\x99f@'
p1871
tp1872
Rp1873
sg1229
g839
sbag0
(g1212
g1213
(lp1874
I1
aI1
aI1
aI1
aI0
aI1
aI1
aI1
aI1
aI1
aI0
aI0
atp1875
Rp1876
(dp1877
g1218
g1219
(g1223
S'a\xa9\x8c\x18AyV@'
p1878
tp1879
Rp1880
sg1229
g835
sbag0
(g1212
g1213
(lp1881
I1
aI1
aI1
aI1
aI0
aI1
aI1
aI0
aI1
aI0
aI1
aI1
atp1882
Rp1883
(dp1884
g1218
g1219
(g1223
S'\xb7D\x91\xf6qi_@'
p1885
tp1886
Rp1887
sg1229
g831
sbag0
(g1212
g1213
(lp1888
I1
aI1
aI1
aI1
aI1
aI1
aI1
aI0
aI0
aI1
aI1
aI0
atp1889
Rp1890
(dp1891
g1218
g1219
(g1223
S'x\x19l\xbe\x1d\xbc<@'
p1892
tp1893
Rp1894
sg1229
g827
sbag0
(g1212
g1213
(lp1895
I1
aI1
aI1
aI1
aI0
aI1
aI1
aI0
aI1
aI1
aI1
aI0
atp1896
Rp1897
(dp1898
g1218
g1219
(g1223
S'\x02\xe6\xb5\xa2\xe7\\]@'
p1899
tp1900
Rp1901
sg1229
g823
sbag0
(g1212
g1213
(lp1902
I1
aI0
aI1
aI1
aI1
aI1
aI1
aI1
aI1
aI1
aI0
aI0
atp1903
Rp1904
(dp1905
g1218
g1219
(g1223
S'\x84\tDat\x9ee@'
p1906
tp1907
Rp1908
sg1229
g819
sbag0
(g1212
g1213
(lp1909
I1
aI1
aI0
aI1
aI1
aI1
aI1
aI1
aI1
aI1
aI0
aI0
atp1910
Rp1911
(dp1912
g1218
g1219
(g1223
S'\xfa\x8dh\x14\x0e\x07Z@'
p1913
tp1914
Rp1915
sg1229
g815
sbag0
(g1212
g1213
(lp1916
I0
aI1
aI1
aI1
aI1
aI1
aI1
aI1
aI1
aI1
aI0
aI0
atp1917
Rp1918
(dp1919
g1218
g1219
(g1223
S'\xfa\x8dh\x14\x0e\x07Z@'
p1920
tp1921
Rp1922
sg1229
g811
sbag0
(g1212
g1213
(lp1923
I1
aI1
aI1
aI1
aI0
aI1
aI1
aI1
aI0
aI1
aI0
aI1
atp1924
Rp1925
(dp1926
g1218
g1219
(g1223
S'\x11\xf8?\x07\xc9_S@'
p1927
tp1928
Rp1929
sg1229
g807
sbag0
(g1212
g1213
(lp1930
I1
aI0
aI1
aI1
aI1
aI1
aI1
aI0
aI1
aI1
aI1
aI0
atp1931
Rp1932
(dp1933
g1218
g1219
(g1223
S'\x08\xba\xcf\xda\xcf\xc9X@'
p1934
tp1935
Rp1936
sg1229
g803
sbag0
(g1212
g1213
(lp1937
I1
aI1
aI0
aI1
aI1
aI1
aI1
aI0
aI1
aI1
aI1
aI0
atp1938
Rp1939
(dp1940
g1218
g1219
(g1223
S'\x08\xba\xcf\xda\xcf\xc9X@'
p1941
tp1942
Rp1943
sg1229
g799
sbag0
(g1212
g1213
(lp1944
I1
aI0
aI1
aI1
aI0
aI1
aI1
aI1
aI1
aI1
aI0
aI1
atp1945
Rp1946
(dp1947
g1218
g1219
(g1223
S'\x8d\xdf>oM\xabB@'
p1948
tp1949
Rp1950
sg1229
g795
sbag0
(g1212
g1213
(lp1951
I0
aI1
aI1
aI1
aI0
aI1
aI1
aI1
aI1
aI1
aI0
aI1
atp1952
Rp1953
(dp1954
g1218
g1219
(g1223
S'\x8d\xdf>oM\xabB@'
p1955
tp1956
Rp1957
sg1229
g791
sbag0
(g1212
g1213
(lp1958
I0
aI1
aI1
aI1
aI1
aI1
aI1
aI0
aI1
aI1
aI1
aI0
atp1959
Rp1960
(dp1961
g1218
g1219
(g1223
S'\x8d\xdf>oM\xabB@'
p1962
tp1963
Rp1964
sg1229
g787
sbag0
(g1212
g1213
(lp1965
I1
aI1
aI1
aI1
aI0
aI1
aI1
aI0
aI0
aI1
aI1
aI1
atp1966
Rp1967
(dp1968
g1218
g1219
(g1223
S'\xe8\xa0\x94*\xc9\xa3:@'
p1969
tp1970
Rp1971
sg1229
g783
sbag0
(g1212
g1213
(lp1972
I1
aI0
aI1
aI1
aI0
aI1
aI1
aI0
aI1
aI1
aI1
aI1
atp1973
Rp1974
(dp1975
g1218
g1219
(g1223
S'c\t\xc9\xef\xe7ab@'
p1976
tp1977
Rp1978
sg1229
g779
sbag0
(g1212
g1213
(lp1979
I0
aI1
aI1
aI1
aI0
aI1
aI1
aI0
aI1
aI1
aI1
aI1
atp1980
Rp1981
(dp1982
g1218
g1219
(g1223
S'4\xb5d\x16"\x1dT@'
p1983
tp1984
Rp1985
sg1229
g775
sbag0
(g1212
g1213
(lp1986
I1
aI1
aI0
aI1
aI0
aI1
aI1
aI1
aI1
aI1
aI0
aI1
atp1987
Rp1988
(dp1989
g1218
g1219
(g1223
S')\xac\xe1\x81l\xffZ@'
p1990
tp1991
Rp1992
sg1229
g771
sbag0
(g1212
g1213
(lp1993
I1
aI1
aI0
aI1
aI0
aI1
aI1
aI0
aI1
aI1
aI1
aI1
atp1994
Rp1995
(dp1996
g1218
g1219
(g1223
S'K;\x91K:yb@'
p1997
tp1998
Rp1999
sg1229
g767
sbag0
(g1212
g1213
(lp2000
I1
aI1
aI1
aI0
aI1
aI0
aI1
aI1
aI1
aI1
aI1
aI0
atp2001
Rp2002
(dp2003
g1218
g1219
(g1223
S'Wg\tS/}p@'
p2004
tp2005
Rp2006
sg1229
g763
sbag0
(g1212
g1213
(lp2007
I1
aI1
aI1
aI1
aI1
aI0
aI1
aI1
aI1
aI0
aI1
aI0
atp2008
Rp2009
(dp2010
g1218
g1219
(g1223
S'9\x8c\x8d\x97,fG@'
p2011
tp2012
Rp2013
sg1229
g759
sbag0
(g1212
g1213
(lp2014
I1
aI1
aI1
aI1
aI1
aI0
aI1
aI1
aI0
aI1
aI1
aI0
atp2015
Rp2016
(dp2017
g1218
g1219
(g1223
S'\x85\xc3I\xb7\xb8uj@'
p2018
tp2019
Rp2020
sg1229
g755
sbag0
(g1212
g1213
(lp2021
I1
aI1
aI1
aI1
aI0
aI0
aI1
aI1
aI1
aI0
aI1
aI1
atp2022
Rp2023
(dp2024
g1218
g1219
(g1223
S'\xf2\x8ew\xc2\xa9\x1da@'
p2025
tp2026
Rp2027
sg1229
g751
sbag0
(g1212
g1213
(lp2028
I1
aI1
aI1
aI0
aI0
aI0
aI1
aI1
aI1
aI1
aI1
aI1
atp2029
Rp2030
(dp2031
g1218
g1219
(g1223
S'y2\x9aI\xbb\xe5q@'
p2032
tp2033
Rp2034
sg1229
g747
sbag0
(g1212
g1213
(lp2035
I1
aI1
aI1
aI1
aI0
aI0
aI1
aI1
aI1
aI1
aI1
aI0
atp2036
Rp2037
(dp2038
g1218
g1219
(g1223
S'*{q\x8dD.H@'
p2039
tp2040
Rp2041
sg1229
g743
sbag0
(g1212
g1213
(lp2042
I1
aI1
aI0
aI1
aI1
aI0
aI1
aI1
aI1
aI1
aI1
aI0
atp2043
Rp2044
(dp2045
g1218
g1219
(g1223
S'N3\xe7\x9eD\x06l@'
p2046
tp2047
Rp2048
sg1229
g739
sbag0
(g1212
g1213
(lp2049
I0
aI1
aI1
aI1
aI1
aI0
aI1
aI1
aI1
aI1
aI1
aI0
atp2050
Rp2051
(dp2052
g1218
g1219
(g1223
S'\xf7F\xbdId$u@'
p2053
tp2054
Rp2055
sg1229
g735
sbag0
(g1212
g1213
(lp2056
I1
aI0
aI1
aI1
aI1
aI0
aI1
aI1
aI1
aI1
aI1
aI0
atp2057
Rp2058
(dp2059
g1218
g1219
(g1223
S'\x0bHv\xca\x10\xc1I@'
p2060
tp2061
Rp2062
sg1229
g731
sbag0
(g1212
g1213
(lp2063
I1
aI1
aI1
aI1
aI0
aI0
aI1
aI1
aI0
aI1
aI1
aI1
atp2064
Rp2065
(dp2066
g1218
g1219
(g1223
S'n\xd7,+\xf2\xa6^@'
p2067
tp2068
Rp2069
sg1229
g727
sbag0
(g1212
g1213
(lp2070
I1
aI1
aI1
aI0
aI1
aI1
aI1
aI1
aI1
aI0
aI1
aI0
atp2071
Rp2072
(dp2073
g1218
g1219
(g1223
S'g\x0e\x13\x12jsJ@'
p2074
tp2075
Rp2076
sg1229
g723
sbag0
(g1212
g1213
(lp2077
I0
aI1
aI1
aI1
aI0
aI0
aI1
aI1
aI1
aI1
aI1
aI1
atp2078
Rp2079
(dp2080
g1218
g1219
(g1223
S'\x02\xeaeY\x12\x96l@'
p2081
tp2082
Rp2083
sg1229
g719
sbag0
(g1212
g1213
(lp2084
I1
aI0
aI1
aI1
aI0
aI0
aI1
aI1
aI1
aI1
aI1
aI1
atp2085
Rp2086
(dp2087
g1218
g1219
(g1223
S'`\xecB\xa971J@'
p2088
tp2089
Rp2090
sg1229
g715
sbag0
(g1212
g1213
(lp2091
I1
aI1
aI0
aI1
aI0
aI0
aI1
aI1
aI1
aI1
aI1
aI1
atp2092
Rp2093
(dp2094
g1218
g1219
(g1223
S'`\xecB\xa971J@'
p2095
tp2096
Rp2097
sg1229
g711
sbag0
(g1212
g1213
(lp2098
I1
aI1
aI1
aI1
aI1
aI1
aI1
aI1
aI0
aI0
aI1
aI0
atp2099
Rp2100
(dp2101
g1218
g1219
(g1223
S'\x9fC\x03\xac\xf17D@'
p2102
tp2103
Rp2104
sg1229
g707
sbag0
(g1212
g1213
(lp2105
I1
aI1
aI1
aI0
aI1
aI1
aI1
aI1
aI0
aI1
aI1
aI0
atp2106
Rp2107
(dp2108
g1218
g1219
(g1223
S'\xa6O\xdej`\xf9d@'
p2109
tp2110
Rp2111
sg1229
g703
sbag0
(g1212
g1213
(lp2112
I1
aI1
aI1
aI0
aI0
aI1
aI1
aI1
aI1
aI0
aI1
aI1
atp2113
Rp2114
(dp2115
g1218
g1219
(g1223
S'\xe3;\xcd#\xb5cJ@'
p2116
tp2117
Rp2118
sg1229
g699
sbag0
(g1212
g1213
(lp2119
I1
aI1
aI1
aI0
aI0
aI1
aI1
aI1
aI1
aI1
aI1
aI0
atp2120
Rp2121
(dp2122
g1218
g1219
(g1223
S'o\x0e\xce\x8fF\xb4K@'
p2123
tp2124
Rp2125
sg1229
g695
sbag0
(g1212
g1213
(lp2126
I1
aI1
aI1
aI1
aI1
aI1
aI0
aI1
aI1
aI0
aI1
aI0
atp2127
Rp2128
(dp2129
g1218
g1219
(g1223
S'\x0f8bX\xd98n@'
p2130
tp2131
Rp2132
sg1229
g691
sbag0
(g1212
g1213
(lp2133
I0
aI1
aI1
aI0
aI1
aI1
aI1
aI1
aI1
aI1
aI1
aI0
atp2134
Rp2135
(dp2136
g1218
g1219
(g1223
S'5\x10\x15\xec1\x06v@'
p2137
tp2138
Rp2139
sg1229
g687
sbag0
(g1212
g1213
(lp2140
I1
aI1
aI1
aI0
aI0
aI1
aI1
aI1
aI0
aI1
aI1
aI1
atp2141
Rp2142
(dp2143
g1218
g1219
(g1223
S'\xadol\x03\x87\x80d@'
p2144
tp2145
Rp2146
sg1229
g683
sbag0
(g1212
g1213
(lp2147
I1
aI1
aI1
aI1
aI0
aI1
aI1
aI1
aI1
aI0
aI1
aI0
atp2148
Rp2149
(dp2150
g1218
g1219
(g1223
S'\xb3\x91^ns\xae`@'
p2151
tp2152
Rp2153
sg1229
g679
sbag0
(g1212
g1213
(lp2154
I1
aI0
aI1
aI1
aI1
aI1
aI1
aI1
aI1
aI0
aI1
aI0
atp2155
Rp2156
(dp2157
g1218
g1219
(g1223
S'\xfae\x99H\xbbSw@'
p2158
tp2159
Rp2160
sg1229
g675
sbag0
(g1212
g1213
(lp2161
I1
aI1
aI0
aI1
aI1
aI1
aI1
aI1
aI1
aI0
aI1
aI0
atp2162
Rp2163
(dp2164
g1218
g1219
(g1223
S'\xd5\x842\x15\xd9\x9cJ@'
p2165
tp2166
Rp2167
sg1229
g671
sbag0
(g1212
g1213
(lp2168
I0
aI1
aI1
aI1
aI1
aI1
aI1
aI1
aI1
aI0
aI1
aI0
atp2169
Rp2170
(dp2171
g1218
g1219
(g1223
S'Q\x9d\xfc\x14\x8c\xdfl@'
p2172
tp2173
Rp2174
sg1229
g667
sbag0
(g1212
g1213
(lp2175
I1
aI1
aI0
aI0
aI1
aI1
aI1
aI1
aI1
aI1
aI1
aI0
atp2176
Rp2177
(dp2178
g1218
g1219
(g1223
S'\x19f\x8aY\x0b\xaeV@'
p2179
tp2180
Rp2181
sg1229
g663
sbag0
(g1212
g1213
(lp2182
I1
aI0
aI1
aI0
aI1
aI1
aI1
aI1
aI1
aI1
aI1
aI0
atp2183
Rp2184
(dp2185
g1218
g1219
(g1223
S'\xb6\xc1\xc5v\x86\xd0f@'
p2186
tp2187
Rp2188
sg1229
g659
sbag0
(g1212
g1213
(lp2189
I1
aI1
aI1
aI1
aI0
aI1
aI1
aI1
aI0
aI0
aI1
aI1
atp2190
Rp2191
(dp2192
g1218
g1219
(g1223
S'*\xf7\xbcJe`U@'
p2193
tp2194
Rp2195
sg1229
g655
sbag0
(g1212
g1213
(lp2196
I1
aI1
aI1
aI1
aI0
aI1
aI1
aI1
aI0
aI1
aI1
aI0
atp2197
Rp2198
(dp2199
g1218
g1219
(g1223
S'\x1dQ\xab"\xb9\x1db@'
p2200
tp2201
Rp2202
sg1229
g651
sbag0
(g1212
g1213
(lp2203
I1
aI1
aI1
aI1
aI0
aI1
aI0
aI1
aI1
aI0
aI1
aI1
atp2204
Rp2205
(dp2206
g1218
g1219
(g1223
S'Ljx\x0e\xaaYX@'
p2207
tp2208
Rp2209
sg1229
g647
sbag0
(g1212
g1213
(lp2210
I1
aI0
aI1
aI0
aI0
aI1
aI1
aI1
aI1
aI1
aI1
aI1
atp2211
Rp2212
(dp2213
g1218
g1219
(g1223
S'\xc7)\x8e\xe6\xd6\x12q@'
p2214
tp2215
Rp2216
sg1229
g643
sbag0
(g1212
g1213
(lp2217
I0
aI1
aI1
aI0
aI0
aI1
aI1
aI1
aI1
aI1
aI1
aI1
atp2218
Rp2219
(dp2220
g1218
g1219
(g1223
S'v\x05\xae\xaa+\xa2e@'
p2221
tp2222
Rp2223
sg1229
g639
sbag0
(g1212
g1213
(lp2224
I1
aI0
aI1
aI1
aI0
aI1
aI1
aI1
aI1
aI0
aI1
aI1
atp2225
Rp2226
(dp2227
g1218
g1219
(g1223
S'\x1dt\xcb\xfb;\xdch@'
p2228
tp2229
Rp2230
sg1229
g635
sbag0
(g1212
g1213
(lp2231
I1
aI1
aI0
aI1
aI1
aI1
aI1
aI1
aI0
aI1
aI1
aI0
atp2232
Rp2233
(dp2234
g1218
g1219
(g1223
S'83\xab\xa4^L`@'
p2235
tp2236
Rp2237
sg1229
g631
sbag0
(g1212
g1213
(lp2238
I1
aI0
aI1
aI1
aI1
aI1
aI1
aI1
aI0
aI1
aI1
aI0
atp2239
Rp2240
(dp2241
g1218
g1219
(g1223
S'83\xab\xa4^L`@'
p2242
tp2243
Rp2244
sg1229
g627
sbag0
(g1212
g1213
(lp2245
I1
aI1
aI0
aI1
aI0
aI1
aI1
aI1
aI1
aI0
aI1
aI1
atp2246
Rp2247
(dp2248
g1218
g1219
(g1223
S'\rN\xce\xa4\x07\xf5F@'
p2249
tp2250
Rp2251
sg1229
g623
sbag0
(g1212
g1213
(lp2252
I0
aI1
aI1
aI1
aI1
aI1
aI1
aI1
aI0
aI1
aI1
aI0
atp2253
Rp2254
(dp2255
g1218
g1219
(g1223
S'\xa6\x00o\xf7\xa4\xb6a@'
p2256
tp2257
Rp2258
sg1229
g619
sbag0
(g1212
g1213
(lp2259
I0
aI1
aI1
aI1
aI0
aI1
aI1
aI1
aI1
aI0
aI1
aI1
atp2260
Rp2261
(dp2262
g1218
g1219
(g1223
S'J\x05\xbb\xc4\xb4\x8fH@'
p2263
tp2264
Rp2265
sg1229
g615
sbag0
(g1212
g1213
(lp2266
I1
aI0
aI1
aI1
aI0
aI1
aI1
aI1
aI1
aI1
aI1
aI0
atp2267
Rp2268
(dp2269
g1218
g1219
(g1223
S'\x055\xc5e\xd2hj@'
p2270
tp2271
Rp2272
sg1229
g611
sbag0
(g1212
g1213
(lp2273
I0
aI1
aI1
aI1
aI0
aI1
aI1
aI1
aI1
aI1
aI1
aI0
atp2274
Rp2275
(dp2276
g1218
g1219
(g1223
S'D__J\xf3\xfcI@'
p2277
tp2278
Rp2279
sg1229
g607
sbag0
(g1212
g1213
(lp2280
I1
aI1
aI0
aI0
aI0
aI1
aI1
aI1
aI1
aI1
aI1
aI1
atp2281
Rp2282
(dp2283
g1218
g1219
(g1223
S'\xe7\x07\xb6\xf5\x17\xabN@'
p2284
tp2285
Rp2286
sg1229
g603
sbag0
(g1212
g1213
(lp2287
I0
aI0
aI1
aI1
aI1
aI1
aI1
aI1
aI1
aI1
aI1
aI0
atp2288
Rp2289
(dp2290
g1218
g1219
(g1223
S'\xe7\x07\xb6\xf5\x17\xabN@'
p2291
tp2292
Rp2293
sg1229
g599
sbag0
(g1212
g1213
(lp2294
I1
aI0
aI1
aI1
aI0
aI1
aI1
aI1
aI0
aI1
aI1
aI1
atp2295
Rp2296
(dp2297
g1218
g1219
(g1223
S'\xaf\xde\x0c\xc7\xe7\xe8A@'
p2298
tp2299
Rp2300
sg1229
g595
sbag0
(g1212
g1213
(lp2301
I0
aI1
aI1
aI1
aI0
aI1
aI1
aI1
aI0
aI1
aI1
aI1
atp2302
Rp2303
(dp2304
g1218
g1219
(g1223
S'\xd9\xa2\x0f\x14\xc3\x05C@'
p2305
tp2306
Rp2307
sg1229
g591
sbag0
(g1212
g1213
(lp2308
I1
aI1
aI0
aI1
aI0
aI1
aI1
aI1
aI1
aI1
aI1
aI0
atp2309
Rp2310
(dp2311
g1218
g1219
(g1223
S'#\x0b\xa9AE\xacJ@'
p2312
tp2313
Rp2314
sg1229
g587
sbag0
(g1212
g1213
(lp2315
I1
aI0
aI0
aI1
aI1
aI1
aI1
aI1
aI1
aI1
aI1
aI0
atp2316
Rp2317
(dp2318
g1218
g1219
(g1223
S'[\x961D!;N@'
p2319
tp2320
Rp2321
sg1229
g583
sbag0
(g1212
g1213
(lp2322
I0
aI1
aI0
aI1
aI1
aI1
aI1
aI1
aI1
aI1
aI1
aI0
atp2323
Rp2324
(dp2325
g1218
g1219
(g1223
S'\x06\xe0\xc8\x0c\x1bQg@'
p2326
tp2327
Rp2328
sg1229
g579
sbag0
(g1212
g1213
(lp2329
I1
aI1
aI0
aI1
aI0
aI1
aI1
aI1
aI0
aI1
aI1
aI1
atp2330
Rp2331
(dp2332
g1218
g1219
(g1223
S'\x08\x00\x98sT_X@'
p2333
tp2334
Rp2335
sg1229
g575
sbag0
(g1212
g1213
(lp2336
I0
aI0
aI1
aI1
aI0
aI1
aI1
aI1
aI1
aI1
aI1
aI1
atp2337
Rp2338
(dp2339
g1218
g1219
(g1223
S'\xd28|\x9a,\xb3l@'
p2340
tp2341
Rp2342
sg1229
g571
sbag0
(g1212
g1213
(lp2343
I0
aI1
aI0
aI1
aI0
aI1
aI1
aI1
aI1
aI1
aI1
aI1
atp2344
Rp2345
(dp2346
g1218
g1219
(g1223
S'\xf5\x03\xb5\xba\xf5\xefJ@'
p2347
tp2348
Rp2349
sg1229
g567
sbag0
(g1212
g1213
(lp2350
I1
aI0
aI0
aI1
aI0
aI1
aI1
aI1
aI1
aI1
aI1
aI1
atp2351
Rp2352
(dp2353
g1218
g1219
(g1223
S'\xb8\x9dl\xfd\x9f8I@'
p2354
tp2355
Rp2356
sg1229
g563
sbag0
(g1212
g1213
(lp2357
I1
aI1
aI1
aI1
aI1
aI0
aI1
aI0
aI1
aI1
aI0
aI1
atp2358
Rp2359
(dp2360
g1218
g1219
(g1223
S'\x96\xab\xd0fC\xdf9@'
p2361
tp2362
Rp2363
sg1229
g559
sbag0
(g1212
g1213
(lp2364
I1
aI1
aI1
aI0
aI1
aI1
aI1
aI0
aI1
aI1
aI0
aI1
atp2365
Rp2366
(dp2367
g1218
g1219
(g1223
S'\x95#\xa3\xc9\xca&Q@'
p2368
tp2369
Rp2370
sg1229
g555
sbag0
(g1212
g1213
(lp2371
I1
aI1
aI1
aI1
aI1
aI1
aI1
aI0
aI1
aI0
aI0
aI1
atp2372
Rp2373
(dp2374
g1218
g1219
(g1223
S'NI\x14\xa4B\x17Q@'
p2375
tp2376
Rp2377
sg1229
g551
sbag0
(g1212
g1213
(lp2378
I1
aI1
aI1
aI1
aI1
aI1
aI1
aI0
aI0
aI1
aI0
aI1
atp2379
Rp2380
(dp2381
g1218
g1219
(g1223
S'C\xb7\x08\x07.\xbbB@'
p2382
tp2383
Rp2384
sg1229
g547
sbag0
(g1212
g1213
(lp2385
I0
aI1
aI1
aI1
aI1
aI1
aI1
aI0
aI1
aI1
aI0
aI1
atp2386
Rp2387
(dp2388
g1218
g1219
(g1223
S'V\xd6\xe5M\xe2\xadb@'
p2389
tp2390
Rp2391
sg1229
g543
sbag0
(g1212
g1213
(lp2392
I1
aI1
aI0
aI1
aI1
aI1
aI1
aI0
aI1
aI1
aI0
aI1
atp2393
Rp2394
(dp2395
g1218
g1219
(g1223
S':\xbd\xed\x1e\x92\xafF@'
p2396
tp2397
Rp2398
sg1229
g539
sbag0
(g1212
g1213
(lp2399
I1
aI0
aI1
aI1
aI1
aI1
aI1
aI0
aI1
aI1
aI0
aI1
atp2400
Rp2401
(dp2402
g1218
g1219
(g1223
S':\xbd\xed\x1e\x92\xafF@'
p2403
tp2404
Rp2405
sg1229
g535
sbag0
(g1212
g1213
(lp2406
I1
aI1
aI1
aI0
aI1
aI0
aI1
aI1
aI1
aI1
aI0
aI1
atp2407
Rp2408
(dp2409
g1218
g1219
(g1223
S'\xaf\x16\xef\xb2#"n@'
p2410
tp2411
Rp2412
sg1229
g531
sbag0
(g1212
g1213
(lp2413
I1
aI1
aI1
aI1
aI1
aI0
aI1
aI1
aI1
aI0
aI0
aI1
atp2414
Rp2415
(dp2416
g1218
g1219
(g1223
S'\xfbd\x82\xb3\xd8\xeb]@'
p2417
tp2418
Rp2419
sg1229
g527
sbag0
(g1212
g1213
(lp2420
I1
aI1
aI1
aI0
aI1
aI0
aI1
aI0
aI1
aI1
aI1
aI1
atp2421
Rp2422
(dp2423
g1218
g1219
(g1223
S'\xe6\xe2\xacs\xed\x03P@'
p2424
tp2425
Rp2426
sg1229
g523
sbag0
(g1212
g1213
(lp2427
I1
aI1
aI1
aI1
aI1
aI0
aI1
aI1
aI0
aI1
aI0
aI1
atp2428
Rp2429
(dp2430
g1218
g1219
(g1223
S'\x8e\xd4\xa0\xd4\xba\x8az@'
p2431
tp2432
Rp2433
sg1229
g519
sbag0
(g1212
g1213
(lp2434
I1
aI1
aI1
aI1
aI1
aI0
aI1
aI0
aI1
aI0
aI1
aI1
atp2435
Rp2436
(dp2437
g1218
g1219
(g1223
S'\x15\xb8\xef\xa2_}P@'
p2438
tp2439
Rp2440
sg1229
g515
sbag0
(g1212
g1213
(lp2441
I1
aI1
aI1
aI1
aI1
aI0
aI1
aI0
aI0
aI1
aI1
aI1
atp2442
Rp2443
(dp2444
g1218
g1219
(g1223
S'\xda\xe4N\xc7\xdf\xaeO@'
p2445
tp2446
Rp2447
sg1229
g511
sbag0
(g1212
g1213
(lp2448
I1
aI0
aI1
aI1
aI1
aI0
aI1
aI1
aI1
aI1
aI0
aI1
atp2449
Rp2450
(dp2451
g1218
g1219
(g1223
S'k\xd2\xae\xa9\xdc\x8bR@'
p2452
tp2453
Rp2454
sg1229
g507
sbag0
(g1212
g1213
(lp2455
I0
aI1
aI1
aI1
aI1
aI0
aI1
aI1
aI1
aI1
aI0
aI1
atp2456
Rp2457
(dp2458
g1218
g1219
(g1223
S'\x14N\x9f\xfd\x08\x1az@'
p2459
tp2460
Rp2461
sg1229
g503
sbag0
(g1212
g1213
(lp2462
I1
aI0
aI1
aI1
aI1
aI0
aI1
aI0
aI1
aI1
aI1
aI1
atp2463
Rp2464
(dp2465
g1218
g1219
(g1223
S'\x7f\xd1!\x1c\t\xc0m@'
p2466
tp2467
Rp2468
sg1229
g499
sbag0
(g1212
g1213
(lp2469
I0
aI1
aI1
aI1
aI1
aI0
aI1
aI0
aI1
aI1
aI1
aI1
atp2470
Rp2471
(dp2472
g1218
g1219
(g1223
S'\xba\xd4\xed\xee\xae,S@'
p2473
tp2474
Rp2475
sg1229
g495
sbag0
(g1212
g1213
(lp2476
I1
aI1
aI1
aI0
aI1
aI1
aI1
aI1
aI1
aI0
aI0
aI1
atp2477
Rp2478
(dp2479
g1218
g1219
(g1223
S'\xa4:\x1d,\xaa\xc4t@'
p2480
tp2481
Rp2482
sg1229
g491
sbag0
(g1212
g1213
(lp2483
I1
aI1
aI0
aI1
aI1
aI0
aI1
aI1
aI1
aI1
aI0
aI1
atp2484
Rp2485
(dp2486
g1218
g1219
(g1223
S'`\xf8W\x1cD\x06T@'
p2487
tp2488
Rp2489
sg1229
g487
sbag0
(g1212
g1213
(lp2490
I1
aI1
aI1
aI0
aI1
aI1
aI1
aI0
aI1
aI0
aI1
aI1
atp2491
Rp2492
(dp2493
g1218
g1219
(g1223
S'\x95e\x90\x11\xca\x82q@'
p2494
tp2495
Rp2496
sg1229
g483
sbag0
(g1212
g1213
(lp2497
I1
aI1
aI0
aI1
aI1
aI0
aI1
aI0
aI1
aI1
aI1
aI1
atp2498
Rp2499
(dp2500
g1218
g1219
(g1223
S'Q\xa0\xfe\xdb\xe2\x15o@'
p2501
tp2502
Rp2503
sg1229
g479
sbag0
(g1212
g1213
(lp2504
I1
aI1
aI1
aI1
aI1
aI1
aI1
aI1
aI0
aI0
aI0
aI1
atp2505
Rp2506
(dp2507
g1218
g1219
(g1223
S'\x8e\xd4\xae\xc98\xaeQ@'
p2508
tp2509
Rp2510
sg1229
g475
sbag0
(g1212
g1213
(lp2511
I1
aI1
aI1
aI0
aI1
aI1
aI1
aI1
aI0
aI1
aI0
aI1
atp2512
Rp2513
(dp2514
g1218
g1219
(g1223
S'ry\xf0\x1c_\xb6d@'
p2515
tp2516
Rp2517
sg1229
g471
sbag0
(g1212
g1213
(lp2518
I1
aI1
aI1
aI0
aI1
aI1
aI1
aI0
aI0
aI1
aI1
aI1
atp2519
Rp2520
(dp2521
g1218
g1219
(g1223
S'\xb8\xa4\nU\x84WT@'
p2522
tp2523
Rp2524
sg1229
g467
sbag0
(g1212
g1213
(lp2525
I1
aI0
aI1
aI1
aI1
aI1
aI1
aI1
aI1
aI0
aI0
aI1
atp2526
Rp2527
(dp2528
g1218
g1219
(g1223
S'\xa9`\x96\x0cZpV@'
p2529
tp2530
Rp2531
sg1229
g463
sbag0
(g1212
g1213
(lp2532
I0
aI1
aI1
aI1
aI1
aI1
aI1
aI1
aI1
aI0
aI0
aI1
atp2533
Rp2534
(dp2535
g1218
g1219
(g1223
S'\x1c\x94\x19\x8b\x81\tW@'
p2536
tp2537
Rp2538
sg1229
g459
sbag0
(g1212
g1213
(lp2539
I1
aI1
aI1
aI1
aI1
aI1
aI0
aI1
aI1
aI0
aI0
aI1
atp2540
Rp2541
(dp2542
g1218
g1219
(g1223
S'#[\xe2*@\xbcr@'
p2543
tp2544
Rp2545
sg1229
g455
sbag0
(g1212
g1213
(lp2546
I1
aI1
aI0
aI0
aI1
aI1
aI1
aI1
aI1
aI1
aI0
aI1
atp2547
Rp2548
(dp2549
g1218
g1219
(g1223
S'\xdbi\xd4\xcf7:h@'
p2550
tp2551
Rp2552
sg1229
g451
sbag0
(g1212
g1213
(lp2553
I1
aI0
aI1
aI0
aI1
aI1
aI1
aI1
aI1
aI1
aI0
aI1
atp2554
Rp2555
(dp2556
g1218
g1219
(g1223
S':\xf6\xf0\xb9\xb4\x92X@'
p2557
tp2558
Rp2559
sg1229
g447
sbag0
(g1212
g1213
(lp2560
I1
aI1
aI1
aI1
aI1
aI1
aI0
aI1
aI1
aI1
aI0
aI0
atp2561
Rp2562
(dp2563
g1218
g1219
(g1223
S':\xf6\xf0\xb9\xb4\x92X@'
p2564
tp2565
Rp2566
sg1229
g443
sbag0
(g1212
g1213
(lp2567
I0
aI1
aI1
aI0
aI1
aI1
aI1
aI1
aI1
aI1
aI0
aI1
atp2568
Rp2569
(dp2570
g1218
g1219
(g1223
S'g\xa6\x92\xd5\xf0\xa1X@'
p2571
tp2572
Rp2573
sg1229
g439
sbag0
(g1212
g1213
(lp2574
I1
aI1
aI1
aI1
aI1
aI1
aI1
aI0
aI0
aI0
aI1
aI1
atp2575
Rp2576
(dp2577
g1218
g1219
(g1223
S'\x96\x02#^\x0c\xbbM@'
p2578
tp2579
Rp2580
sg1229
g435
sbag0
(g1212
g1213
(lp2581
I1
aI0
aI1
aI1
aI1
aI1
aI1
aI0
aI1
aI0
aI1
aI1
atp2582
Rp2583
(dp2584
g1218
g1219
(g1223
S'\xb8@!<i\x84o@'
p2585
tp2586
Rp2587
sg1229
g431
sbag0
(g1212
g1213
(lp2588
I0
aI1
aI1
aI1
aI1
aI1
aI1
aI0
aI1
aI0
aI1
aI1
atp2589
Rp2590
(dp2591
g1218
g1219
(g1223
S"\x89S$'hFc@"
p2592
tp2593
Rp2594
sg1229
g427
sbag0
(g1212
g1213
(lp2595
I1
aI1
aI1
aI1
aI1
aI1
aI0
aI0
aI1
aI0
aI1
aI1
atp2596
Rp2597
(dp2598
g1218
g1219
(g1223
S'DBw\xc7\xd2/q@'
p2599
tp2600
Rp2601
sg1229
g423
sbag0
(g1212
g1213
(lp2602
I1
aI1
aI0
aI1
aI1
aI1
aI1
aI1
aI1
aI0
aI0
aI1
atp2603
Rp2604
(dp2605
g1218
g1219
(g1223
S'\xdb<\xd0n,Eg@'
p2606
tp2607
Rp2608
sg1229
g419
sbag0
(g1212
g1213
(lp2609
I1
aI1
aI1
aI1
aI1
aI1
aI0
aI0
aI1
aI1
aI1
aI0
atp2610
Rp2611
(dp2612
g1218
g1219
(g1223
S'\n\xee\xee\xbb^;r@'
p2613
tp2614
Rp2615
sg1229
g415
sbag0
(g1212
g1213
(lp2616
I1
aI0
aI1
aI0
aI1
aI1
aI1
aI0
aI1
aI1
aI1
aI1
atp2617
Rp2618
(dp2619
g1218
g1219
(g1223
S'\x83\xe3\x87\xa2\xff\x06h@'
p2620
tp2621
Rp2622
sg1229
g411
sbag0
(g1212
g1213
(lp2623
I1
aI1
aI0
aI0
aI1
aI1
aI1
aI0
aI1
aI1
aI1
aI1
atp2624
Rp2625
(dp2626
g1218
g1219
(g1223
S'\x83\xe3\x87\xa2\xff\x06h@'
p2627
tp2628
Rp2629
sg1229
g407
sbag0
(g1212
g1213
(lp2630
I0
aI1
aI1
aI0
aI1
aI1
aI1
aI0
aI1
aI1
aI1
aI1
atp2631
Rp2632
(dp2633
g1218
g1219
(g1223
S'\xbf\xca\x8a\xa6\xc7wX@'
p2634
tp2635
Rp2636
sg1229
g403
sbag0
(g1212
g1213
(lp2637
I1
aI1
aI0
aI1
aI1
aI1
aI1
aI0
aI1
aI0
aI1
aI1
atp2638
Rp2639
(dp2640
g1218
g1219
(g1223
S'\xe4\xf7\xb1\xfb\xf0\xa4q@'
p2641
tp2642
Rp2643
sg1229
g399
sbag0
(g1212
g1213
(lp2644
I1
aI0
aI1
aI1
aI1
aI1
aI1
aI1
aI0
aI1
aI0
aI1
atp2645
Rp2646
(dp2647
g1218
g1219
(g1223
S'0\x0c\xe2\x1a\x1c\x13o@'
p2648
tp2649
Rp2650
sg1229
g395
sbag0
(g1212
g1213
(lp2651
I1
aI1
aI0
aI1
aI1
aI1
aI1
aI1
aI0
aI1
aI0
aI1
atp2652
Rp2653
(dp2654
g1218
g1219
(g1223
S'0\x0c\xe2\x1a\x1c\x13o@'
p2655
tp2656
Rp2657
sg1229
g391
sbag0
(g1212
g1213
(lp2658
I0
aI1
aI1
aI1
aI1
aI1
aI1
aI1
aI0
aI1
aI0
aI1
atp2659
Rp2660
(dp2661
g1218
g1219
(g1223
S'X\x8d\x8c\x88\xd5[a@'
p2662
tp2663
Rp2664
sg1229
g387
sbag0
(g1212
g1213
(lp2665
I1
aI1
aI1
aI1
aI0
aI1
aI0
aI1
aI1
aI1
aI0
aI1
atp2666
Rp2667
(dp2668
g1218
g1219
(g1223
S'w+@\xd6K5Y@'
p2669
tp2670
Rp2671
sg1229
g383
sbag0
(g1212
g1213
(lp2672
I0
aI1
aI1
aI1
aI1
aI1
aI1
aI0
aI0
aI1
aI1
aI1
atp2673
Rp2674
(dp2675
g1218
g1219
(g1223
S'v\xd2M\xc5\x80\x00`@'
p2676
tp2677
Rp2678
sg1229
g379
sbag0
(g1212
g1213
(lp2679
I1
aI0
aI1
aI1
aI1
aI1
aI1
aI0
aI0
aI1
aI1
aI1
atp2680
Rp2681
(dp2682
g1218
g1219
(g1223
S'\x9a\xaa\x08B\x1fUQ@'
p2683
tp2684
Rp2685
sg1229
g375
sbag0
(g1212
g1213
(lp2686
I1
aI1
aI0
aI1
aI1
aI1
aI1
aI0
aI0
aI1
aI1
aI1
atp2687
Rp2688
(dp2689
g1218
g1219
(g1223
S'\x9a\xaa\x08B\x1fUQ@'
p2690
tp2691
Rp2692
sg1229
g371
sbag0
(g1212
g1213
(lp2693
I1
aI1
aI1
aI1
aI0
aI1
aI0
aI0
aI1
aI1
aI1
aI1
atp2694
Rp2695
(dp2696
g1218
g1219
(g1223
S'\xb5\xdbx2\x17hf@'
p2697
tp2698
Rp2699
sg1229
g367
sbag0
(g1212
g1213
(lp2700
I1
aI0
aI0
aI1
aI1
aI1
aI1
aI1
aI1
aI1
aI0
aI1
atp2701
Rp2702
(dp2703
g1218
g1219
(g1223
S'\xe0\xe9\xe3%R\x97s@'
p2704
tp2705
Rp2706
sg1229
g363
sbag0
(g1212
g1213
(lp2707
I0
aI1
aI0
aI1
aI1
aI1
aI1
aI1
aI1
aI1
aI0
aI1
atp2708
Rp2709
(dp2710
g1218
g1219
(g1223
S'\x07h\xb8\x93W\xbcl@'
p2711
tp2712
Rp2713
sg1229
g359
sbag0
(g1212
g1213
(lp2714
I0
aI0
aI1
aI1
aI1
aI1
aI1
aI1
aI1
aI1
aI0
aI1
atp2715
Rp2716
(dp2717
g1218
g1219
(g1223
S'\xd0\xcd\xb3\xbe\xbfgZ@'
p2718
tp2719
Rp2720
sg1229
g355
sbag0
(g1212
g1213
(lp2721
I0
aI1
aI0
aI1
aI1
aI1
aI1
aI0
aI1
aI1
aI1
aI1
atp2722
Rp2723
(dp2724
g1218
g1219
(g1223
S'^\xde\xfb"*\xbdw@'
p2725
tp2726
Rp2727
sg1229
g351
sbag0
(g1212
g1213
(lp2728
I0
aI0
aI1
aI1
aI1
aI1
aI1
aI0
aI1
aI1
aI1
aI1
atp2729
Rp2730
(dp2731
g1218
g1219
(g1223
S'\x8b\xa3_\xb6#\xf5p@'
p2732
tp2733
Rp2734
sg1229
g347
sbag0
(g1212
g1213
(lp2735
I1
aI0
aI0
aI1
aI1
aI1
aI1
aI0
aI1
aI1
aI1
aI1
atp2736
Rp2737
(dp2738
g1218
g1219
(g1223
S'Qp\x06$\x9a\xf3V@'
p2739
tp2740
Rp2741
sg1229
g343
sbag0
(g1212
g1213
(lp2742
I1
aI1
aI1
aI0
aI1
aI0
aI1
aI1
aI1
aI0
aI1
aI1
atp2743
Rp2744
(dp2745
g1218
g1219
(g1223
S'&\xc8Pz\xa2\xf6_@'
p2746
tp2747
Rp2748
sg1229
g339
sbag0
(g1212
g1213
(lp2749
I1
aI1
aI1
aI0
aI1
aI0
aI1
aI1
aI0
aI1
aI1
aI1
atp2750
Rp2751
(dp2752
g1218
g1219
(g1223
S'\x9f|(C\xd8\x8d_@'
p2753
tp2754
Rp2755
sg1229
g335
sbag0
(g1212
g1213
(lp2756
I1
aI1
aI1
aI1
aI1
aI0
aI1
aI1
aI0
aI0
aI1
aI1
atp2757
Rp2758
(dp2759
g1218
g1219
(g1223
S'\x96\xad\xdcR\xb0\x1f[@'
p2760
tp2761
Rp2762
sg1229
g331
sbag0
(g1212
g1213
(lp2763
I1
aI1
aI1
aI1
aI1
aI0
aI0
aI1
aI1
aI0
aI1
aI1
atp2764
Rp2765
(dp2766
g1218
g1219
(g1223
S"'>N\xf3 \x14a@"
p2767
tp2768
Rp2769
sg1229
g327
sbag0
(g1212
g1213
(lp2770
I1
aI1
aI1
aI1
aI1
aI0
aI0
aI1
aI1
aI1
aI1
aI0
atp2771
Rp2772
(dp2773
g1218
g1219
(g1223
S'\x187{\xc4\xe6fa@'
p2774
tp2775
Rp2776
sg1229
g323
sbag0
(g1212
g1213
(lp2777
I1
aI1
aI0
aI0
aI1
aI0
aI1
aI1
aI1
aI1
aI1
aI1
atp2778
Rp2779
(dp2780
g1218
g1219
(g1223
S'\x187{\xc4\xe6fa@'
p2781
tp2782
Rp2783
sg1229
g319
sbag0
(g1212
g1213
(lp2784
I1
aI0
aI1
aI0
aI1
aI0
aI1
aI1
aI1
aI1
aI1
aI1
atp2785
Rp2786
(dp2787
g1218
g1219
(g1223
S'\x187{\xc4\xe6fa@'
p2788
tp2789
Rp2790
sg1229
g315
sbag0
(g1212
g1213
(lp2791
I0
aI1
aI1
aI0
aI1
aI0
aI1
aI1
aI1
aI1
aI1
aI1
atp2792
Rp2793
(dp2794
g1218
g1219
(g1223
S'\x13\x85(\xdb\x8bya@'
p2795
tp2796
Rp2797
sg1229
g311
sbag0
(g1212
g1213
(lp2798
I1
aI0
aI1
aI1
aI1
aI0
aI1
aI1
aI1
aI0
aI1
aI1
atp2799
Rp2800
(dp2801
g1218
g1219
(g1223
S'\xf5\xcah^ZDz@'
p2802
tp2803
Rp2804
sg1229
g307
sbag0
(g1212
g1213
(lp2805
I1
aI1
aI0
aI1
aI1
aI0
aI1
aI1
aI1
aI0
aI1
aI1
atp2806
Rp2807
(dp2808
g1218
g1219
(g1223
S'\x13.\x7fKIr\x85@'
p2809
tp2810
Rp2811
sg1229
g303
sbag0
(g1212
g1213
(lp2812
I0
aI1
aI1
aI1
aI1
aI0
aI1
aI1
aI1
aI0
aI1
aI1
atp2813
Rp2814
(dp2815
g1218
g1219
(g1223
S'\x814\xc1Hy\xb2\x82@'
p2816
tp2817
Rp2818
sg1229
g299
sbag0
(g1212
g1213
(lp2819
I1
aI0
aI1
aI1
aI1
aI0
aI1
aI1
aI0
aI1
aI1
aI1
atp2820
Rp2821
(dp2822
g1218
g1219
(g1223
S'\x96\x97\x19>\x9f\xfat@'
p2823
tp2824
Rp2825
sg1229
g295
sbag0
(g1212
g1213
(lp2826
I0
aI1
aI1
aI1
aI1
aI0
aI1
aI1
aI0
aI1
aI1
aI1
atp2827
Rp2828
(dp2829
g1218
g1219
(g1223
S'\xd1\xd6M\x1c\xcf\x9a\x7f@'
p2830
tp2831
Rp2832
sg1229
g291
sbag0
(g1212
g1213
(lp2833
I1
aI1
aI1
aI1
aI0
aI0
aI0
aI1
aI1
aI1
aI1
aI1
atp2834
Rp2835
(dp2836
g1218
g1219
(g1223
S'\xe2\xc9v\x18\xc7\xe2z@'
p2837
tp2838
Rp2839
sg1229
g287
sbag0
(g1212
g1213
(lp2840
I1
aI1
aI0
aI1
aI1
aI0
aI1
aI1
aI0
aI1
aI1
aI1
atp2841
Rp2842
(dp2843
g1218
g1219
(g1223
S'r\xf3\xf3r\x99Ph@'
p2844
tp2845
Rp2846
sg1229
g283
sbag0
(g1212
g1213
(lp2847
I1
aI1
aI1
aI0
aI1
aI1
aI1
aI1
aI0
aI0
aI1
aI1
atp2848
Rp2849
(dp2850
g1218
g1219
(g1223
S'\xa0\x8f\xaf\n\xae\x8b^@'
p2851
tp2852
Rp2853
sg1229
g279
sbag0
(g1212
g1213
(lp2854
I1
aI0
aI0
aI1
aI1
aI0
aI1
aI1
aI1
aI1
aI1
aI1
atp2855
Rp2856
(dp2857
g1218
g1219
(g1223
S'\x97X\xc4L\x96\xad\x83@'
p2858
tp2859
Rp2860
sg1229
g275
sbag0
(g1212
g1213
(lp2861
I0
aI0
aI1
aI1
aI1
aI0
aI1
aI1
aI1
aI1
aI1
aI1
atp2862
Rp2863
(dp2864
g1218
g1219
(g1223
S'\x97\xb1\xb1&\x7f\xd4l@'
p2865
tp2866
Rp2867
sg1229
g271
sbag0
(g1212
g1213
(lp2868
I0
aI1
aI0
aI1
aI1
aI0
aI1
aI1
aI1
aI1
aI1
aI1
atp2869
Rp2870
(dp2871
g1218
g1219
(g1223
S'\x86\x80r\xb3\xdc\xe4\x88@'
p2872
tp2873
Rp2874
sg1229
g267
sbag0
(g1212
g1213
(lp2875
I1
aI1
aI1
aI0
aI1
aI1
aI0
aI1
aI1
aI0
aI1
aI1
atp2876
Rp2877
(dp2878
g1218
g1219
(g1223
S'\xcc{XJvS\x8b@'
p2879
tp2880
Rp2881
sg1229
g263
sbag0
(g1212
g1213
(lp2882
I0
aI1
aI1
aI0
aI1
aI1
aI1
aI1
aI1
aI0
aI1
aI1
atp2883
Rp2884
(dp2885
g1218
g1219
(g1223
S'\xa6\xbc\x9d)t\ry@'
p2886
tp2887
Rp2888
sg1229
g259
sbag0
(g1212
g1213
(lp2889
I1
aI0
aI1
aI0
aI1
aI1
aI1
aI1
aI1
aI0
aI1
aI1
atp2890
Rp2891
(dp2892
g1218
g1219
(g1223
S'X\xfc\xc4\x81h\x82b@'
p2893
tp2894
Rp2895
sg1229
g255
sbag0
(g1212
g1213
(lp2896
I1
aI1
aI0
aI0
aI1
aI1
aI1
aI1
aI1
aI0
aI1
aI1
atp2897
Rp2898
(dp2899
g1218
g1219
(g1223
S'X\xfc\xc4\x81h\x82b@'
p2900
tp2901
Rp2902
sg1229
g251
sbag0
(g1212
g1213
(lp2903
I1
aI1
aI1
aI0
aI1
aI1
aI0
aI1
aI1
aI1
aI1
aI0
atp2904
Rp2905
(dp2906
g1218
g1219
(g1223
S'\xea-\x19t@[\x8d@'
p2907
tp2908
Rp2909
sg1229
g247
sbag0
(g1212
g1213
(lp2910
I1
aI1
aI1
aI0
aI0
aI1
aI0
aI1
aI1
aI1
aI1
aI1
atp2911
Rp2912
(dp2913
g1218
g1219
(g1223
S'^\x93yL\x1ayc@'
p2914
tp2915
Rp2916
sg1229
g243
sbag0
(g1212
g1213
(lp2917
I0
aI1
aI1
aI1
aI1
aI1
aI1
aI1
aI0
aI0
aI1
aI1
atp2918
Rp2919
(dp2920
g1218
g1219
(g1223
S'\xc5ca\xd2\x8b\x8au@'
p2921
tp2922
Rp2923
sg1229
g239
sbag0
(g1212
g1213
(lp2924
I1
aI0
aI1
aI1
aI1
aI1
aI1
aI1
aI0
aI0
aI1
aI1
atp2925
Rp2926
(dp2927
g1218
g1219
(g1223
S'\xfc\xc1=\x02)\xdc_@'
p2928
tp2929
Rp2930
sg1229
g235
sbag0
(g1212
g1213
(lp2931
I1
aI1
aI1
aI1
aI1
aI1
aI0
aI1
aI0
aI0
aI1
aI1
atp2932
Rp2933
(dp2934
g1218
g1219
(g1223
S'\x97Lj\xfa\xfa\xe5w@'
p2935
tp2936
Rp2937
sg1229
g231
sbag0
(g1212
g1213
(lp2938
I1
aI1
aI1
aI1
aI1
aI1
aI0
aI1
aI0
aI1
aI1
aI0
atp2939
Rp2940
(dp2941
g1218
g1219
(g1223
S'\x93\x8a\xeb\x10j[`@'
p2942
tp2943
Rp2944
sg1229
g227
sbag0
(g1212
g1213
(lp2945
I0
aI1
aI1
aI0
aI1
aI1
aI1
aI1
aI0
aI1
aI1
aI1
atp2946
Rp2947
(dp2948
g1218
g1219
(g1223
S'w\x92\xbdP\x08\xfbw@'
p2949
tp2950
Rp2951
sg1229
g223
sbag0
(g1212
g1213
(lp2952
I1
aI0
aI1
aI0
aI1
aI1
aI1
aI1
aI0
aI1
aI1
aI1
atp2953
Rp2954
(dp2955
g1218
g1219
(g1223
S'b\x96\xbf\xa5\xe7\x8dq@'
p2956
tp2957
Rp2958
sg1229
g219
sbag0
(g1212
g1213
(lp2959
I1
aI1
aI0
aI0
aI1
aI1
aI1
aI1
aI0
aI1
aI1
aI1
atp2960
Rp2961
(dp2962
g1218
g1219
(g1223
S'\xfb\xf1\xc5b\xbd1a@'
p2963
tp2964
Rp2965
sg1229
g215
sbag0
(g1212
g1213
(lp2966
I1
aI1
aI1
aI1
aI0
aI1
aI0
aI1
aI1
aI1
aI1
aI0
atp2967
Rp2968
(dp2969
g1218
g1219
(g1223
S'\x0b\xab\x18J\x19Kr@'
p2970
tp2971
Rp2972
sg1229
g211
sbag0
(g1212
g1213
(lp2973
I1
aI0
aI1
aI1
aI1
aI1
aI0
aI1
aI1
aI0
aI1
aI1
atp2974
Rp2975
(dp2976
g1218
g1219
(g1223
S'w\xb0\x8c\x9cQ\xa5\x82@'
p2977
tp2978
Rp2979
sg1229
g207
sbag0
(g1212
g1213
(lp2980
I0
aI1
aI1
aI1
aI1
aI1
aI0
aI1
aI1
aI0
aI1
aI1
atp2981
Rp2982
(dp2983
g1218
g1219
(g1223
S'\x05~]\xb9\xea\xe8b@'
p2984
tp2985
Rp2986
sg1229
g203
sbag0
(g1212
g1213
(lp2987
I0
aI0
aI1
aI0
aI1
aI1
aI1
aI1
aI1
aI1
aI1
aI1
atp2988
Rp2989
(dp2990
g1218
g1219
(g1223
S'\xe0_\x00\x0eM\x14d@'
p2991
tp2992
Rp2993
sg1229
g199
sbag0
(g1212
g1213
(lp2994
I1
aI1
aI0
aI1
aI1
aI1
aI1
aI1
aI0
aI0
aI1
aI1
atp2995
Rp2996
(dp2997
g1218
g1219
(g1223
S'\xf8\xba^\xe9\xb1\xb6c@'
p2998
tp2999
Rp3000
sg1229
g195
sbag0
(g1212
g1213
(lp3001
I1
aI0
aI0
aI1
aI1
aI1
aI1
aI1
aI1
aI0
aI1
aI1
atp3002
Rp3003
(dp3004
g1218
g1219
(g1223
S'\x9e/\xfb]\x1e\xdbh@'
p3005
tp3006
Rp3007
sg1229
g191
sbag0
(g1212
g1213
(lp3008
I0
aI0
aI1
aI1
aI1
aI1
aI1
aI1
aI1
aI0
aI1
aI1
atp3009
Rp3010
(dp3011
g1218
g1219
(g1223
S'\x81.\xf9\xd7\xd9\xae`@'
p3012
tp3013
Rp3014
sg1229
g187
sbag0
(g1212
g1213
(lp3015
I0
aI1
aI0
aI1
aI1
aI1
aI1
aI1
aI1
aI0
aI1
aI1
atp3016
Rp3017
(dp3018
g1218
g1219
(g1223
S'\x81.\xf9\xd7\xd9\xae`@'
p3019
tp3020
Rp3021
sg1229
g183
sbag0
(g1212
g1213
(lp3022
I1
aI1
aI0
aI1
aI1
aI1
aI0
aI1
aI1
aI0
aI1
aI1
atp3023
Rp3024
(dp3025
g1218
g1219
(g1223
S'\x11\xd477\xda\xcal@'
p3026
tp3027
Rp3028
sg1229
g179
sbag0
(g1212
g1213
(lp3029
I1
aI1
aI0
aI1
aI1
aI1
aI0
aI1
aI1
aI1
aI1
aI0
atp3030
Rp3031
(dp3032
g1218
g1219
(g1223
S'*e?(\r\x11{@'
p3033
tp3034
Rp3035
sg1229
g175
sbag0
(g1212
g1213
(lp3036
I1
aI0
aI1
aI1
aI1
aI1
aI0
aI1
aI1
aI1
aI1
aI0
atp3037
Rp3038
(dp3039
g1218
g1219
(g1223
S'wE\xa7\xf1q\x18d@'
p3040
tp3041
Rp3042
sg1229
g171
sbag0
(g1212
g1213
(lp3043
I0
aI1
aI1
aI1
aI1
aI1
aI0
aI1
aI1
aI1
aI1
aI0
atp3044
Rp3045
(dp3046
g1218
g1219
(g1223
S'\xf0~\x86\xcd\xba\xf3q@'
p3047
tp3048
Rp3049
sg1229
g167
sbag0
(g1212
g1213
(lp3050
I1
aI0
aI0
aI0
aI1
aI1
aI1
aI1
aI1
aI1
aI1
aI1
atp3051
Rp3052
(dp3053
g1218
g1219
(g1223
S"\xc6\xd9!'\xb5)y@"
p3054
tp3055
Rp3056
sg1229
g163
sbag0
(g1212
g1213
(lp3057
I0
aI1
aI0
aI0
aI1
aI1
aI1
aI1
aI1
aI1
aI1
aI1
atp3058
Rp3059
(dp3060
g1218
g1219
(g1223
S'Q9\xb3\x9d^\x9ed@'
p3061
tp3062
Rp3063
sg1229
g159
sbag0
(g1212
g1213
(lp3064
I1
aI1
aI1
aI1
aI0
aI1
aI0
aI1
aI0
aI1
aI1
aI1
atp3065
Rp3066
(dp3067
g1218
g1219
(g1223
S'\x91+\x18=\xc8sr@'
p3068
tp3069
Rp3070
sg1229
g155
sbag0
(g1212
g1213
(lp3071
I0
aI1
aI1
aI1
aI0
aI1
aI0
aI1
aI1
aI1
aI1
aI1
atp3072
Rp3073
(dp3074
g1218
g1219
(g1223
S'\xfas2q\x85\xf5x@'
p3075
tp3076
Rp3077
sg1229
g151
sbag0
(g1212
g1213
(lp3078
I1
aI0
aI0
aI1
aI1
aI1
aI1
aI1
aI0
aI1
aI1
aI1
atp3079
Rp3080
(dp3081
g1218
g1219
(g1223
S'\xf6\xefYD\xc9\xe0o@'
p3082
tp3083
Rp3084
sg1229
g147
sbag0
(g1212
g1213
(lp3085
I0
aI0
aI1
aI1
aI1
aI1
aI1
aI1
aI0
aI1
aI1
aI1
atp3086
Rp3087
(dp3088
g1218
g1219
(g1223
S'\xe4z\x8d\x03\xcb\xb4Y@'
p3089
tp3090
Rp3091
sg1229
g143
sbag0
(g1212
g1213
(lp3092
I0
aI1
aI0
aI1
aI1
aI1
aI1
aI1
aI0
aI1
aI1
aI1
atp3093
Rp3094
(dp3095
g1218
g1219
(g1223
S'\x9b\xf0\xd96\xb5\xf5}@'
p3096
tp3097
Rp3098
sg1229
g139
sbag0
(g1212
g1213
(lp3099
I1
aI1
aI0
aI1
aI0
aI1
aI0
aI1
aI1
aI1
aI1
aI1
atp3100
Rp3101
(dp3102
g1218
g1219
(g1223
S'h"\xc3"qMr@'
p3103
tp3104
Rp3105
sg1229
g135
sbag0
(g1212
g1213
(lp3106
I1
aI0
aI1
aI1
aI0
aI1
aI0
aI1
aI1
aI1
aI1
aI1
atp3107
Rp3108
(dp3109
g1218
g1219
(g1223
S'x\xaa\xf5h\xf3\xefa@'
p3110
tp3111
Rp3112
sg1229
g131
sbag0
(g1212
g1213
(lp3113
I0
aI0
aI0
aI1
aI1
aI1
aI1
aI1
aI1
aI1
aI1
aI1
atp3114
Rp3115
(dp3116
g1218
g1219
(g1223
S'\x97A\x05C\n\xcdv@'
p3117
tp3118
Rp3119
sg1229
g127
sbag0
(g1212
g1213
(lp3120
I1
aI1
aI1
aI1
aI1
aI1
aI0
aI0
aI1
aI1
aI0
aI1
atp3121
Rp3122
(dp3123
g1218
g1219
(g1223
S'D\xc3\xec$\x8b\xdaH@'
p3124
tp3125
Rp3126
sg1229
g123
sbag0
(g1212
g1213
(lp3127
I1
aI1
aI1
aI1
aI1
aI0
aI0
aI1
aI1
aI1
aI0
aI1
atp3128
Rp3129
(dp3130
g1218
g1219
(g1223
S'\x00\x88\x7fK,iU@'
p3131
tp3132
Rp3133
sg1229
g119
sbag0
(g1212
g1213
(lp3134
I1
aI1
aI1
aI1
aI1
aI0
aI0
aI0
aI1
aI1
aI1
aI1
atp3135
Rp3136
(dp3137
g1218
g1219
(g1223
S'\x1f\xa9\xb4\x0b\xb8%u@'
p3138
tp3139
Rp3140
sg1229
g115
sbag0
(g1212
g1213
(lp3141
I1
aI1
aI1
aI0
aI1
aI1
aI0
aI1
aI1
aI1
aI0
aI1
atp3142
Rp3143
(dp3144
g1218
g1219
(g1223
S'\x94W\xd4\xf6$\x1c{@'
p3145
tp3146
Rp3147
sg1229
g111
sbag0
(g1212
g1213
(lp3148
I1
aI1
aI1
aI0
aI1
aI1
aI0
aI0
aI1
aI1
aI1
aI1
atp3149
Rp3150
(dp3151
g1218
g1219
(g1223
S'\xd1\x96\x03V\xd3"b@'
p3152
tp3153
Rp3154
sg1229
g107
sbag0
(g1212
g1213
(lp3155
I1
aI1
aI1
aI1
aI1
aI1
aI0
aI1
aI0
aI1
aI0
aI1
atp3156
Rp3157
(dp3158
g1218
g1219
(g1223
S'D\x80\xcd\xf9\xb5Th@'
p3159
tp3160
Rp3161
sg1229
g103
sbag0
(g1212
g1213
(lp3162
I1
aI1
aI1
aI1
aI1
aI1
aI0
aI0
aI0
aI1
aI1
aI1
atp3163
Rp3164
(dp3165
g1218
g1219
(g1223
S'\n\x97yr\x9aTk@'
p3166
tp3167
Rp3168
sg1229
g99
sbag0
(g1212
g1213
(lp3169
I1
aI1
aI0
aI1
aI1
aI1
aI0
aI1
aI1
aI1
aI0
aI1
atp3170
Rp3171
(dp3172
g1218
g1219
(g1223
S'\x1e\x92\x8f4\t\x1d^@'
p3173
tp3174
Rp3175
sg1229
g95
sbag0
(g1212
g1213
(lp3176
I1
aI0
aI1
aI1
aI1
aI1
aI0
aI1
aI1
aI1
aI0
aI1
atp3177
Rp3178
(dp3179
g1218
g1219
(g1223
S'\x1e\x92\x8f4\t\x1d^@'
p3180
tp3181
Rp3182
sg1229
g91
sbag0
(g1212
g1213
(lp3183
I0
aI1
aI1
aI1
aI1
aI1
aI0
aI1
aI1
aI1
aI0
aI1
atp3184
Rp3185
(dp3186
g1218
g1219
(g1223
S'N\x90\n\x11m\x17v@'
p3187
tp3188
Rp3189
sg1229
g87
sbag0
(g1212
g1213
(lp3190
I1
aI0
aI1
aI1
aI1
aI1
aI0
aI0
aI1
aI1
aI1
aI1
atp3191
Rp3192
(dp3193
g1218
g1219
(g1223
S'-\xc1N\xcb\xa0}w@'
p3194
tp3195
Rp3196
sg1229
g83
sbag0
(g1212
g1213
(lp3197
I1
aI1
aI0
aI1
aI1
aI1
aI0
aI0
aI1
aI1
aI1
aI1
atp3198
Rp3199
(dp3200
g1218
g1219
(g1223
S'\xdf\x7f\xa4\xde\x81\xb2j@'
p3201
tp3202
Rp3203
sg1229
g79
sbag0
(g1212
g1213
(lp3204
I0
aI1
aI1
aI1
aI1
aI1
aI0
aI0
aI1
aI1
aI1
aI1
atp3205
Rp3206
(dp3207
g1218
g1219
(g1223
S'wt>V\xc8\xf3\\@'
p3208
tp3209
Rp3210
sg1229
g75
sbag0
(g1212
g1213
(lp3211
I1
aI1
aI1
aI0
aI1
aI0
aI0
aI1
aI1
aI1
aI1
aI1
atp3212
Rp3213
(dp3214
g1218
g1219
(g1223
S'\x8eu\xba\xd5\xcc\xd9c@'
p3215
tp3216
Rp3217
sg1229
g71
sbag0
(g1212
g1213
(lp3218
I1
aI1
aI1
aI1
aI1
aI0
aI0
aI1
aI0
aI1
aI1
aI1
atp3219
Rp3220
(dp3221
g1218
g1219
(g1223
S'i\x05\xd1e\xdc\xc6\x82@'
p3222
tp3223
Rp3224
sg1229
g67
sbag0
(g1212
g1213
(lp3225
I1
aI0
aI1
aI1
aI1
aI0
aI0
aI1
aI1
aI1
aI1
aI1
atp3226
Rp3227
(dp3228
g1218
g1219
(g1223
S'\xc7U\xf2w\x06\xa2e@'
p3229
tp3230
Rp3231
sg1229
g63
sbag0
(g1212
g1213
(lp3232
I0
aI1
aI1
aI1
aI1
aI0
aI0
aI1
aI1
aI1
aI1
aI1
atp3233
Rp3234
(dp3235
g1218
g1219
(g1223
S'a&\x8e\xe1;@~@'
p3236
tp3237
Rp3238
sg1229
g59
sbag0
(g1212
g1213
(lp3239
I1
aI1
aI0
aI1
aI1
aI0
aI0
aI1
aI1
aI1
aI1
aI1
atp3240
Rp3241
(dp3242
g1218
g1219
(g1223
S'E\x8e6E\x06\x96f@'
p3243
tp3244
Rp3245
sg1229
g55
sbag0
(g1212
g1213
(lp3246
I1
aI1
aI1
aI0
aI1
aI1
aI0
aI1
aI0
aI1
aI1
aI1
atp3247
Rp3248
(dp3249
g1218
g1219
(g1223
S'\xc0c\x04\x0fsQ\x84@'
p3250
tp3251
Rp3252
sg1229
g51
sbag0
(g1212
g1213
(lp3253
I1
aI0
aI1
aI0
aI1
aI1
aI0
aI1
aI1
aI1
aI1
aI1
atp3254
Rp3255
(dp3256
g1218
g1219
(g1223
S'\xda\xf9\x03w\x9cJ\x87@'
p3257
tp3258
Rp3259
sg1229
g47
sbag0
(g1212
g1213
(lp3260
I1
aI1
aI0
aI0
aI1
aI1
aI0
aI1
aI1
aI1
aI1
aI1
atp3261
Rp3262
(dp3263
g1218
g1219
(g1223
S'\xb9r75\xc0\x95\x85@'
p3264
tp3265
Rp3266
sg1229
g43
sbag0
(g1212
g1213
(lp3267
I0
aI1
aI1
aI0
aI1
aI1
aI0
aI1
aI1
aI1
aI1
aI1
atp3268
Rp3269
(dp3270
g1218
g1219
(g1223
S'\xb2tFgY\xeai@'
p3271
tp3272
Rp3273
sg1229
g39
sbag0
(g1212
g1213
(lp3274
I0
aI1
aI1
aI1
aI1
aI1
aI0
aI1
aI0
aI1
aI1
aI1
atp3275
Rp3276
(dp3277
g1218
g1219
(g1223
S'.\xa4F\x1fZ\x9bv@'
p3278
tp3279
Rp3280
sg1229
g35
sbag0
(g1212
g1213
(lp3281
I1
aI0
aI1
aI1
aI1
aI1
aI0
aI1
aI0
aI1
aI1
aI1
atp3282
Rp3283
(dp3284
g1218
g1219
(g1223
S'\x97\xd2\x94wC3{@'
p3285
tp3286
Rp3287
sg1229
g31
sbag0
(g1212
g1213
(lp3288
I1
aI1
aI0
aI1
aI1
aI1
aI0
aI1
aI0
aI1
aI1
aI1
atp3289
Rp3290
(dp3291
g1218
g1219
(g1223
S'uZ\xcbl1\xf2q@'
p3292
tp3293
Rp3294
sg1229
g27
sbag0
(g1212
g1213
(lp3295
I0
aI1
aI0
aI1
aI1
aI1
aI0
aI1
aI1
aI1
aI1
aI1
atp3296
Rp3297
(dp3298
g1218
g1219
(g1223
S'\xac\xbe\x19+\xb7_p@'
p3299
tp3300
Rp3301
sg1229
g23
sbag0
(g1212
g1213
(lp3302
I1
aI0
aI0
aI1
aI1
aI1
aI0
aI1
aI1
aI1
aI1
aI1
atp3303
Rp3304
(dp3305
g1218
g1219
(g1223
S'][\x9e\xd2\xdb\x19g@'
p3306
tp3307
Rp3308
sg1229
g19
sbag0
(g1212
g1213
(lp3309
I0
aI0
aI1
aI1
aI1
aI1
aI0
aI1
aI1
aI1
aI1
aI1
atp3310
Rp3311
(dp3312
g1218
g1219
(g1223
S'][\x9e\xd2\xdb\x19g@'
p3313
tp3314
Rp3315
sg1229
g15
sbag0
(g1212
g1213
(lp3316
I1
aI1
aI1
aI1
aI1
aI0
aI1
aI0
aI1
aI1
aI0
aI0
atp3317
Rp3318
(dp3319
g1218
g1219
(g1223
S'Gma\xa4\xc7\xc36@'
p3320
tp3321
Rp3322
sg1229
g10
sbasS'maxsize'
p3323
I300
sS'similar'
p3324
coperator
eq
p3325
sb.